ARM GAS  C:\Users\Nina\AppData\Local\Temp\ccYqiCSe.s 			page 1


   1              		.cpu cortex-m7
   2              		.eabi_attribute 27, 1
   3              		.eabi_attribute 28, 1
   4              		.eabi_attribute 20, 1
   5              		.eabi_attribute 21, 1
   6              		.eabi_attribute 23, 3
   7              		.eabi_attribute 24, 1
   8              		.eabi_attribute 25, 1
   9              		.eabi_attribute 26, 1
  10              		.eabi_attribute 30, 1
  11              		.eabi_attribute 34, 1
  12              		.eabi_attribute 18, 4
  13              		.file	"api_lib.c"
  14              		.text
  15              	.Ltext0:
  16              		.cfi_sections	.debug_frame
  17              		.section	.text.netconn_apimsg,"ax",%progbits
  18              		.align	1
  19              		.arch armv7e-m
  20              		.syntax unified
  21              		.thumb
  22              		.thumb_func
  23              		.fpu fpv5-sp-d16
  25              	netconn_apimsg:
  26              	.LVL0:
  27              	.LFB165:
  28              		.file 1 "Middlewares/Third_Party/LwIP/src/api/api_lib.c"
   1:Middlewares/Third_Party/LwIP/src/api/api_lib.c **** /**
   2:Middlewares/Third_Party/LwIP/src/api/api_lib.c ****  * @file
   3:Middlewares/Third_Party/LwIP/src/api/api_lib.c ****  * Sequential API External module
   4:Middlewares/Third_Party/LwIP/src/api/api_lib.c ****  * 
   5:Middlewares/Third_Party/LwIP/src/api/api_lib.c ****  * @defgroup netconn Netconn API
   6:Middlewares/Third_Party/LwIP/src/api/api_lib.c ****  * @ingroup sequential_api
   7:Middlewares/Third_Party/LwIP/src/api/api_lib.c ****  * Thread-safe, to be called from non-TCPIP threads only.
   8:Middlewares/Third_Party/LwIP/src/api/api_lib.c ****  * TX/RX handling based on @ref netbuf (containing @ref pbuf)
   9:Middlewares/Third_Party/LwIP/src/api/api_lib.c ****  * to avoid copying data around.
  10:Middlewares/Third_Party/LwIP/src/api/api_lib.c ****  * 
  11:Middlewares/Third_Party/LwIP/src/api/api_lib.c ****  * @defgroup netconn_common Common functions
  12:Middlewares/Third_Party/LwIP/src/api/api_lib.c ****  * @ingroup netconn
  13:Middlewares/Third_Party/LwIP/src/api/api_lib.c ****  * For use with TCP and UDP
  14:Middlewares/Third_Party/LwIP/src/api/api_lib.c ****  * 
  15:Middlewares/Third_Party/LwIP/src/api/api_lib.c ****  * @defgroup netconn_tcp TCP only
  16:Middlewares/Third_Party/LwIP/src/api/api_lib.c ****  * @ingroup netconn
  17:Middlewares/Third_Party/LwIP/src/api/api_lib.c ****  * TCP only functions
  18:Middlewares/Third_Party/LwIP/src/api/api_lib.c ****  * 
  19:Middlewares/Third_Party/LwIP/src/api/api_lib.c ****  * @defgroup netconn_udp UDP only
  20:Middlewares/Third_Party/LwIP/src/api/api_lib.c ****  * @ingroup netconn
  21:Middlewares/Third_Party/LwIP/src/api/api_lib.c ****  * UDP only functions
  22:Middlewares/Third_Party/LwIP/src/api/api_lib.c ****  */
  23:Middlewares/Third_Party/LwIP/src/api/api_lib.c **** 
  24:Middlewares/Third_Party/LwIP/src/api/api_lib.c **** /*
  25:Middlewares/Third_Party/LwIP/src/api/api_lib.c ****  * Copyright (c) 2001-2004 Swedish Institute of Computer Science.
  26:Middlewares/Third_Party/LwIP/src/api/api_lib.c ****  * All rights reserved.
  27:Middlewares/Third_Party/LwIP/src/api/api_lib.c ****  *
  28:Middlewares/Third_Party/LwIP/src/api/api_lib.c ****  * Redistribution and use in source and binary forms, with or without modification,
  29:Middlewares/Third_Party/LwIP/src/api/api_lib.c ****  * are permitted provided that the following conditions are met:
  30:Middlewares/Third_Party/LwIP/src/api/api_lib.c ****  *
ARM GAS  C:\Users\Nina\AppData\Local\Temp\ccYqiCSe.s 			page 2


  31:Middlewares/Third_Party/LwIP/src/api/api_lib.c ****  * 1. Redistributions of source code must retain the above copyright notice,
  32:Middlewares/Third_Party/LwIP/src/api/api_lib.c ****  *    this list of conditions and the following disclaimer.
  33:Middlewares/Third_Party/LwIP/src/api/api_lib.c ****  * 2. Redistributions in binary form must reproduce the above copyright notice,
  34:Middlewares/Third_Party/LwIP/src/api/api_lib.c ****  *    this list of conditions and the following disclaimer in the documentation
  35:Middlewares/Third_Party/LwIP/src/api/api_lib.c ****  *    and/or other materials provided with the distribution.
  36:Middlewares/Third_Party/LwIP/src/api/api_lib.c ****  * 3. The name of the author may not be used to endorse or promote products
  37:Middlewares/Third_Party/LwIP/src/api/api_lib.c ****  *    derived from this software without specific prior written permission.
  38:Middlewares/Third_Party/LwIP/src/api/api_lib.c ****  *
  39:Middlewares/Third_Party/LwIP/src/api/api_lib.c ****  * THIS SOFTWARE IS PROVIDED BY THE AUTHOR ``AS IS'' AND ANY EXPRESS OR IMPLIED
  40:Middlewares/Third_Party/LwIP/src/api/api_lib.c ****  * WARRANTIES, INCLUDING, BUT NOT LIMITED TO, THE IMPLIED WARRANTIES OF
  41:Middlewares/Third_Party/LwIP/src/api/api_lib.c ****  * MERCHANTABILITY AND FITNESS FOR A PARTICULAR PURPOSE ARE DISCLAIMED. IN NO EVENT
  42:Middlewares/Third_Party/LwIP/src/api/api_lib.c ****  * SHALL THE AUTHOR BE LIABLE FOR ANY DIRECT, INDIRECT, INCIDENTAL, SPECIAL,
  43:Middlewares/Third_Party/LwIP/src/api/api_lib.c ****  * EXEMPLARY, OR CONSEQUENTIAL DAMAGES (INCLUDING, BUT NOT LIMITED TO, PROCUREMENT
  44:Middlewares/Third_Party/LwIP/src/api/api_lib.c ****  * OF SUBSTITUTE GOODS OR SERVICES; LOSS OF USE, DATA, OR PROFITS; OR BUSINESS
  45:Middlewares/Third_Party/LwIP/src/api/api_lib.c ****  * INTERRUPTION) HOWEVER CAUSED AND ON ANY THEORY OF LIABILITY, WHETHER IN
  46:Middlewares/Third_Party/LwIP/src/api/api_lib.c ****  * CONTRACT, STRICT LIABILITY, OR TORT (INCLUDING NEGLIGENCE OR OTHERWISE) ARISING
  47:Middlewares/Third_Party/LwIP/src/api/api_lib.c ****  * IN ANY WAY OUT OF THE USE OF THIS SOFTWARE, EVEN IF ADVISED OF THE POSSIBILITY
  48:Middlewares/Third_Party/LwIP/src/api/api_lib.c ****  * OF SUCH DAMAGE.
  49:Middlewares/Third_Party/LwIP/src/api/api_lib.c ****  *
  50:Middlewares/Third_Party/LwIP/src/api/api_lib.c ****  * This file is part of the lwIP TCP/IP stack.
  51:Middlewares/Third_Party/LwIP/src/api/api_lib.c ****  *
  52:Middlewares/Third_Party/LwIP/src/api/api_lib.c ****  * Author: Adam Dunkels <adam@sics.se>
  53:Middlewares/Third_Party/LwIP/src/api/api_lib.c ****  */
  54:Middlewares/Third_Party/LwIP/src/api/api_lib.c **** 
  55:Middlewares/Third_Party/LwIP/src/api/api_lib.c **** /* This is the part of the API that is linked with
  56:Middlewares/Third_Party/LwIP/src/api/api_lib.c ****    the application */
  57:Middlewares/Third_Party/LwIP/src/api/api_lib.c **** 
  58:Middlewares/Third_Party/LwIP/src/api/api_lib.c **** #include "lwip/opt.h"
  59:Middlewares/Third_Party/LwIP/src/api/api_lib.c **** 
  60:Middlewares/Third_Party/LwIP/src/api/api_lib.c **** #if LWIP_NETCONN /* don't build if not configured for use in lwipopts.h */
  61:Middlewares/Third_Party/LwIP/src/api/api_lib.c **** 
  62:Middlewares/Third_Party/LwIP/src/api/api_lib.c **** #include "lwip/api.h"
  63:Middlewares/Third_Party/LwIP/src/api/api_lib.c **** #include "lwip/memp.h"
  64:Middlewares/Third_Party/LwIP/src/api/api_lib.c **** 
  65:Middlewares/Third_Party/LwIP/src/api/api_lib.c **** #include "lwip/ip.h"
  66:Middlewares/Third_Party/LwIP/src/api/api_lib.c **** #include "lwip/raw.h"
  67:Middlewares/Third_Party/LwIP/src/api/api_lib.c **** #include "lwip/udp.h"
  68:Middlewares/Third_Party/LwIP/src/api/api_lib.c **** #include "lwip/priv/api_msg.h"
  69:Middlewares/Third_Party/LwIP/src/api/api_lib.c **** #include "lwip/priv/tcp_priv.h"
  70:Middlewares/Third_Party/LwIP/src/api/api_lib.c **** #include "lwip/priv/tcpip_priv.h"
  71:Middlewares/Third_Party/LwIP/src/api/api_lib.c **** 
  72:Middlewares/Third_Party/LwIP/src/api/api_lib.c **** #include <string.h>
  73:Middlewares/Third_Party/LwIP/src/api/api_lib.c **** 
  74:Middlewares/Third_Party/LwIP/src/api/api_lib.c **** #define API_MSG_VAR_REF(name)               API_VAR_REF(name)
  75:Middlewares/Third_Party/LwIP/src/api/api_lib.c **** #define API_MSG_VAR_DECLARE(name)           API_VAR_DECLARE(struct api_msg, name)
  76:Middlewares/Third_Party/LwIP/src/api/api_lib.c **** #define API_MSG_VAR_ALLOC(name)             API_VAR_ALLOC(struct api_msg, MEMP_API_MSG, name, ERR_M
  77:Middlewares/Third_Party/LwIP/src/api/api_lib.c **** #define API_MSG_VAR_ALLOC_RETURN_NULL(name) API_VAR_ALLOC(struct api_msg, MEMP_API_MSG, name, NULL)
  78:Middlewares/Third_Party/LwIP/src/api/api_lib.c **** #define API_MSG_VAR_FREE(name)              API_VAR_FREE(MEMP_API_MSG, name)
  79:Middlewares/Third_Party/LwIP/src/api/api_lib.c **** 
  80:Middlewares/Third_Party/LwIP/src/api/api_lib.c **** static err_t netconn_close_shutdown(struct netconn *conn, u8_t how);
  81:Middlewares/Third_Party/LwIP/src/api/api_lib.c **** 
  82:Middlewares/Third_Party/LwIP/src/api/api_lib.c **** /**
  83:Middlewares/Third_Party/LwIP/src/api/api_lib.c ****  * Call the lower part of a netconn_* function
  84:Middlewares/Third_Party/LwIP/src/api/api_lib.c ****  * This function is then running in the thread context
  85:Middlewares/Third_Party/LwIP/src/api/api_lib.c ****  * of tcpip_thread and has exclusive access to lwIP core code.
  86:Middlewares/Third_Party/LwIP/src/api/api_lib.c ****  *
  87:Middlewares/Third_Party/LwIP/src/api/api_lib.c ****  * @param fn function to call
ARM GAS  C:\Users\Nina\AppData\Local\Temp\ccYqiCSe.s 			page 3


  88:Middlewares/Third_Party/LwIP/src/api/api_lib.c ****  * @param apimsg a struct containing the function to call and its parameters
  89:Middlewares/Third_Party/LwIP/src/api/api_lib.c ****  * @return ERR_OK if the function was called, another err_t if not
  90:Middlewares/Third_Party/LwIP/src/api/api_lib.c ****  */
  91:Middlewares/Third_Party/LwIP/src/api/api_lib.c **** static err_t
  92:Middlewares/Third_Party/LwIP/src/api/api_lib.c **** netconn_apimsg(tcpip_callback_fn fn, struct api_msg *apimsg)
  93:Middlewares/Third_Party/LwIP/src/api/api_lib.c **** {
  29              		.loc 1 93 1 view -0
  30              		.cfi_startproc
  31              		@ args = 0, pretend = 0, frame = 0
  32              		@ frame_needed = 0, uses_anonymous_args = 0
  33              		.loc 1 93 1 is_stmt 0 view .LVU1
  34 0000 10B5     		push	{r4, lr}
  35              	.LCFI0:
  36              		.cfi_def_cfa_offset 8
  37              		.cfi_offset 4, -8
  38              		.cfi_offset 14, -4
  39 0002 0C46     		mov	r4, r1
  94:Middlewares/Third_Party/LwIP/src/api/api_lib.c ****   err_t err;
  40              		.loc 1 94 3 is_stmt 1 view .LVU2
  95:Middlewares/Third_Party/LwIP/src/api/api_lib.c **** 
  96:Middlewares/Third_Party/LwIP/src/api/api_lib.c **** #ifdef LWIP_DEBUG
  97:Middlewares/Third_Party/LwIP/src/api/api_lib.c ****   /* catch functions that don't set err */
  98:Middlewares/Third_Party/LwIP/src/api/api_lib.c ****   apimsg->err = ERR_VAL;
  99:Middlewares/Third_Party/LwIP/src/api/api_lib.c **** #endif /* LWIP_DEBUG */
 100:Middlewares/Third_Party/LwIP/src/api/api_lib.c **** 
 101:Middlewares/Third_Party/LwIP/src/api/api_lib.c **** #if LWIP_NETCONN_SEM_PER_THREAD
 102:Middlewares/Third_Party/LwIP/src/api/api_lib.c ****   apimsg->op_completed_sem = LWIP_NETCONN_THREAD_SEM_GET();
 103:Middlewares/Third_Party/LwIP/src/api/api_lib.c **** #endif /* LWIP_NETCONN_SEM_PER_THREAD */
 104:Middlewares/Third_Party/LwIP/src/api/api_lib.c **** 
 105:Middlewares/Third_Party/LwIP/src/api/api_lib.c ****   err = tcpip_send_msg_wait_sem(fn, apimsg, LWIP_API_MSG_SEM(apimsg));
  41              		.loc 1 105 3 view .LVU3
  42              		.loc 1 105 45 is_stmt 0 view .LVU4
  43 0004 0A68     		ldr	r2, [r1]
  44              		.loc 1 105 9 view .LVU5
  45 0006 0C32     		adds	r2, r2, #12
  46 0008 FFF7FEFF 		bl	tcpip_send_msg_wait_sem
  47              	.LVL1:
 106:Middlewares/Third_Party/LwIP/src/api/api_lib.c ****   if (err == ERR_OK) {
  48              		.loc 1 106 3 is_stmt 1 view .LVU6
  49              		.loc 1 106 6 is_stmt 0 view .LVU7
  50 000c 00B1     		cbz	r0, .L4
  51              	.L2:
 107:Middlewares/Third_Party/LwIP/src/api/api_lib.c ****     return apimsg->err;
 108:Middlewares/Third_Party/LwIP/src/api/api_lib.c ****   }
 109:Middlewares/Third_Party/LwIP/src/api/api_lib.c ****   return err;
 110:Middlewares/Third_Party/LwIP/src/api/api_lib.c **** }
  52              		.loc 1 110 1 view .LVU8
  53 000e 10BD     		pop	{r4, pc}
  54              	.LVL2:
  55              	.L4:
 107:Middlewares/Third_Party/LwIP/src/api/api_lib.c ****     return apimsg->err;
  56              		.loc 1 107 5 is_stmt 1 view .LVU9
 107:Middlewares/Third_Party/LwIP/src/api/api_lib.c ****     return apimsg->err;
  57              		.loc 1 107 18 is_stmt 0 view .LVU10
  58 0010 94F90400 		ldrsb	r0, [r4, #4]
  59 0014 FBE7     		b	.L2
  60              		.cfi_endproc
ARM GAS  C:\Users\Nina\AppData\Local\Temp\ccYqiCSe.s 			page 4


  61              	.LFE165:
  63              		.section	.rodata.netconn_close_shutdown.str1.4,"aMS",%progbits,1
  64              		.align	2
  65              	.LC0:
  66 0000 4D696464 		.ascii	"Middlewares/Third_Party/LwIP/src/api/api_lib.c\000"
  66      6C657761 
  66      7265732F 
  66      54686972 
  66      645F5061 
  67 002f 00       		.align	2
  68              	.LC1:
  69 0030 6E657463 		.ascii	"netconn_close: invalid conn\000"
  69      6F6E6E5F 
  69      636C6F73 
  69      653A2069 
  69      6E76616C 
  70              		.align	2
  71              	.LC2:
  72 004c 41737365 		.ascii	"Assertion \"%s\" failed at line %d in %s\012\000"
  72      7274696F 
  72      6E202225 
  72      73222066 
  72      61696C65 
  73              		.section	.text.netconn_close_shutdown,"ax",%progbits
  74              		.align	1
  75              		.syntax unified
  76              		.thumb
  77              		.thumb_func
  78              		.fpu fpv5-sp-d16
  80              	netconn_close_shutdown:
  81              	.LVL3:
  82              	.LFB180:
 111:Middlewares/Third_Party/LwIP/src/api/api_lib.c **** 
 112:Middlewares/Third_Party/LwIP/src/api/api_lib.c **** /**
 113:Middlewares/Third_Party/LwIP/src/api/api_lib.c ****  * Create a new netconn (of a specific type) that has a callback function.
 114:Middlewares/Third_Party/LwIP/src/api/api_lib.c ****  * The corresponding pcb is also created.
 115:Middlewares/Third_Party/LwIP/src/api/api_lib.c ****  *
 116:Middlewares/Third_Party/LwIP/src/api/api_lib.c ****  * @param t the type of 'connection' to create (@see enum netconn_type)
 117:Middlewares/Third_Party/LwIP/src/api/api_lib.c ****  * @param proto the IP protocol for RAW IP pcbs
 118:Middlewares/Third_Party/LwIP/src/api/api_lib.c ****  * @param callback a function to call on status changes (RX available, TX'ed)
 119:Middlewares/Third_Party/LwIP/src/api/api_lib.c ****  * @return a newly allocated struct netconn or
 120:Middlewares/Third_Party/LwIP/src/api/api_lib.c ****  *         NULL on memory error
 121:Middlewares/Third_Party/LwIP/src/api/api_lib.c ****  */
 122:Middlewares/Third_Party/LwIP/src/api/api_lib.c **** struct netconn*
 123:Middlewares/Third_Party/LwIP/src/api/api_lib.c **** netconn_new_with_proto_and_callback(enum netconn_type t, u8_t proto, netconn_callback callback)
 124:Middlewares/Third_Party/LwIP/src/api/api_lib.c **** {
 125:Middlewares/Third_Party/LwIP/src/api/api_lib.c ****   struct netconn *conn;
 126:Middlewares/Third_Party/LwIP/src/api/api_lib.c ****   API_MSG_VAR_DECLARE(msg);
 127:Middlewares/Third_Party/LwIP/src/api/api_lib.c ****   API_MSG_VAR_ALLOC_RETURN_NULL(msg);
 128:Middlewares/Third_Party/LwIP/src/api/api_lib.c **** 
 129:Middlewares/Third_Party/LwIP/src/api/api_lib.c ****   conn = netconn_alloc(t, callback);
 130:Middlewares/Third_Party/LwIP/src/api/api_lib.c ****   if (conn != NULL) {
 131:Middlewares/Third_Party/LwIP/src/api/api_lib.c ****     err_t err;
 132:Middlewares/Third_Party/LwIP/src/api/api_lib.c **** 
 133:Middlewares/Third_Party/LwIP/src/api/api_lib.c ****     API_MSG_VAR_REF(msg).msg.n.proto = proto;
 134:Middlewares/Third_Party/LwIP/src/api/api_lib.c ****     API_MSG_VAR_REF(msg).conn = conn;
 135:Middlewares/Third_Party/LwIP/src/api/api_lib.c ****     err = netconn_apimsg(lwip_netconn_do_newconn, &API_MSG_VAR_REF(msg));
ARM GAS  C:\Users\Nina\AppData\Local\Temp\ccYqiCSe.s 			page 5


 136:Middlewares/Third_Party/LwIP/src/api/api_lib.c ****     if (err != ERR_OK) {
 137:Middlewares/Third_Party/LwIP/src/api/api_lib.c ****       LWIP_ASSERT("freeing conn without freeing pcb", conn->pcb.tcp == NULL);
 138:Middlewares/Third_Party/LwIP/src/api/api_lib.c ****       LWIP_ASSERT("conn has no recvmbox", sys_mbox_valid(&conn->recvmbox));
 139:Middlewares/Third_Party/LwIP/src/api/api_lib.c **** #if LWIP_TCP
 140:Middlewares/Third_Party/LwIP/src/api/api_lib.c ****       LWIP_ASSERT("conn->acceptmbox shouldn't exist", !sys_mbox_valid(&conn->acceptmbox));
 141:Middlewares/Third_Party/LwIP/src/api/api_lib.c **** #endif /* LWIP_TCP */
 142:Middlewares/Third_Party/LwIP/src/api/api_lib.c **** #if !LWIP_NETCONN_SEM_PER_THREAD
 143:Middlewares/Third_Party/LwIP/src/api/api_lib.c ****       LWIP_ASSERT("conn has no op_completed", sys_sem_valid(&conn->op_completed));
 144:Middlewares/Third_Party/LwIP/src/api/api_lib.c ****       sys_sem_free(&conn->op_completed);
 145:Middlewares/Third_Party/LwIP/src/api/api_lib.c **** #endif /* !LWIP_NETCONN_SEM_PER_THREAD */
 146:Middlewares/Third_Party/LwIP/src/api/api_lib.c ****       sys_mbox_free(&conn->recvmbox);
 147:Middlewares/Third_Party/LwIP/src/api/api_lib.c ****       memp_free(MEMP_NETCONN, conn);
 148:Middlewares/Third_Party/LwIP/src/api/api_lib.c ****       API_MSG_VAR_FREE(msg);
 149:Middlewares/Third_Party/LwIP/src/api/api_lib.c ****       return NULL;
 150:Middlewares/Third_Party/LwIP/src/api/api_lib.c ****     }
 151:Middlewares/Third_Party/LwIP/src/api/api_lib.c ****   }
 152:Middlewares/Third_Party/LwIP/src/api/api_lib.c ****   API_MSG_VAR_FREE(msg);
 153:Middlewares/Third_Party/LwIP/src/api/api_lib.c ****   return conn;
 154:Middlewares/Third_Party/LwIP/src/api/api_lib.c **** }
 155:Middlewares/Third_Party/LwIP/src/api/api_lib.c **** 
 156:Middlewares/Third_Party/LwIP/src/api/api_lib.c **** /**
 157:Middlewares/Third_Party/LwIP/src/api/api_lib.c ****  * @ingroup netconn_common
 158:Middlewares/Third_Party/LwIP/src/api/api_lib.c ****  * Close a netconn 'connection' and free its resources.
 159:Middlewares/Third_Party/LwIP/src/api/api_lib.c ****  * UDP and RAW connection are completely closed, TCP pcbs might still be in a waitstate
 160:Middlewares/Third_Party/LwIP/src/api/api_lib.c ****  * after this returns.
 161:Middlewares/Third_Party/LwIP/src/api/api_lib.c ****  *
 162:Middlewares/Third_Party/LwIP/src/api/api_lib.c ****  * @param conn the netconn to delete
 163:Middlewares/Third_Party/LwIP/src/api/api_lib.c ****  * @return ERR_OK if the connection was deleted
 164:Middlewares/Third_Party/LwIP/src/api/api_lib.c ****  */
 165:Middlewares/Third_Party/LwIP/src/api/api_lib.c **** err_t
 166:Middlewares/Third_Party/LwIP/src/api/api_lib.c **** netconn_delete(struct netconn *conn)
 167:Middlewares/Third_Party/LwIP/src/api/api_lib.c **** {
 168:Middlewares/Third_Party/LwIP/src/api/api_lib.c ****   err_t err;
 169:Middlewares/Third_Party/LwIP/src/api/api_lib.c ****   API_MSG_VAR_DECLARE(msg);
 170:Middlewares/Third_Party/LwIP/src/api/api_lib.c **** 
 171:Middlewares/Third_Party/LwIP/src/api/api_lib.c ****   /* No ASSERT here because possible to get a (conn == NULL) if we got an accept error */
 172:Middlewares/Third_Party/LwIP/src/api/api_lib.c ****   if (conn == NULL) {
 173:Middlewares/Third_Party/LwIP/src/api/api_lib.c ****     return ERR_OK;
 174:Middlewares/Third_Party/LwIP/src/api/api_lib.c ****   }
 175:Middlewares/Third_Party/LwIP/src/api/api_lib.c **** 
 176:Middlewares/Third_Party/LwIP/src/api/api_lib.c ****   API_MSG_VAR_ALLOC(msg);
 177:Middlewares/Third_Party/LwIP/src/api/api_lib.c ****   API_MSG_VAR_REF(msg).conn = conn;
 178:Middlewares/Third_Party/LwIP/src/api/api_lib.c **** #if LWIP_SO_SNDTIMEO || LWIP_SO_LINGER
 179:Middlewares/Third_Party/LwIP/src/api/api_lib.c ****   /* get the time we started, which is later compared to
 180:Middlewares/Third_Party/LwIP/src/api/api_lib.c ****      sys_now() + conn->send_timeout */
 181:Middlewares/Third_Party/LwIP/src/api/api_lib.c ****   API_MSG_VAR_REF(msg).msg.sd.time_started = sys_now();
 182:Middlewares/Third_Party/LwIP/src/api/api_lib.c **** #else /* LWIP_SO_SNDTIMEO || LWIP_SO_LINGER */
 183:Middlewares/Third_Party/LwIP/src/api/api_lib.c **** #if LWIP_TCP
 184:Middlewares/Third_Party/LwIP/src/api/api_lib.c ****   API_MSG_VAR_REF(msg).msg.sd.polls_left =
 185:Middlewares/Third_Party/LwIP/src/api/api_lib.c ****     ((LWIP_TCP_CLOSE_TIMEOUT_MS_DEFAULT + TCP_SLOW_INTERVAL - 1) / TCP_SLOW_INTERVAL) + 1;
 186:Middlewares/Third_Party/LwIP/src/api/api_lib.c **** #endif /* LWIP_TCP */
 187:Middlewares/Third_Party/LwIP/src/api/api_lib.c **** #endif /* LWIP_SO_SNDTIMEO || LWIP_SO_LINGER */
 188:Middlewares/Third_Party/LwIP/src/api/api_lib.c ****   err = netconn_apimsg(lwip_netconn_do_delconn, &API_MSG_VAR_REF(msg));
 189:Middlewares/Third_Party/LwIP/src/api/api_lib.c ****   API_MSG_VAR_FREE(msg);
 190:Middlewares/Third_Party/LwIP/src/api/api_lib.c **** 
 191:Middlewares/Third_Party/LwIP/src/api/api_lib.c ****   if (err != ERR_OK) {
 192:Middlewares/Third_Party/LwIP/src/api/api_lib.c ****     return err;
ARM GAS  C:\Users\Nina\AppData\Local\Temp\ccYqiCSe.s 			page 6


 193:Middlewares/Third_Party/LwIP/src/api/api_lib.c ****   }
 194:Middlewares/Third_Party/LwIP/src/api/api_lib.c **** 
 195:Middlewares/Third_Party/LwIP/src/api/api_lib.c ****   netconn_free(conn);
 196:Middlewares/Third_Party/LwIP/src/api/api_lib.c **** 
 197:Middlewares/Third_Party/LwIP/src/api/api_lib.c ****   return ERR_OK;
 198:Middlewares/Third_Party/LwIP/src/api/api_lib.c **** }
 199:Middlewares/Third_Party/LwIP/src/api/api_lib.c **** 
 200:Middlewares/Third_Party/LwIP/src/api/api_lib.c **** /**
 201:Middlewares/Third_Party/LwIP/src/api/api_lib.c ****  * Get the local or remote IP address and port of a netconn.
 202:Middlewares/Third_Party/LwIP/src/api/api_lib.c ****  * For RAW netconns, this returns the protocol instead of a port!
 203:Middlewares/Third_Party/LwIP/src/api/api_lib.c ****  *
 204:Middlewares/Third_Party/LwIP/src/api/api_lib.c ****  * @param conn the netconn to query
 205:Middlewares/Third_Party/LwIP/src/api/api_lib.c ****  * @param addr a pointer to which to save the IP address
 206:Middlewares/Third_Party/LwIP/src/api/api_lib.c ****  * @param port a pointer to which to save the port (or protocol for RAW)
 207:Middlewares/Third_Party/LwIP/src/api/api_lib.c ****  * @param local 1 to get the local IP address, 0 to get the remote one
 208:Middlewares/Third_Party/LwIP/src/api/api_lib.c ****  * @return ERR_CONN for invalid connections
 209:Middlewares/Third_Party/LwIP/src/api/api_lib.c ****  *         ERR_OK if the information was retrieved
 210:Middlewares/Third_Party/LwIP/src/api/api_lib.c ****  */
 211:Middlewares/Third_Party/LwIP/src/api/api_lib.c **** err_t
 212:Middlewares/Third_Party/LwIP/src/api/api_lib.c **** netconn_getaddr(struct netconn *conn, ip_addr_t *addr, u16_t *port, u8_t local)
 213:Middlewares/Third_Party/LwIP/src/api/api_lib.c **** {
 214:Middlewares/Third_Party/LwIP/src/api/api_lib.c ****   API_MSG_VAR_DECLARE(msg);
 215:Middlewares/Third_Party/LwIP/src/api/api_lib.c ****   err_t err;
 216:Middlewares/Third_Party/LwIP/src/api/api_lib.c **** 
 217:Middlewares/Third_Party/LwIP/src/api/api_lib.c ****   LWIP_ERROR("netconn_getaddr: invalid conn", (conn != NULL), return ERR_ARG;);
 218:Middlewares/Third_Party/LwIP/src/api/api_lib.c ****   LWIP_ERROR("netconn_getaddr: invalid addr", (addr != NULL), return ERR_ARG;);
 219:Middlewares/Third_Party/LwIP/src/api/api_lib.c ****   LWIP_ERROR("netconn_getaddr: invalid port", (port != NULL), return ERR_ARG;);
 220:Middlewares/Third_Party/LwIP/src/api/api_lib.c **** 
 221:Middlewares/Third_Party/LwIP/src/api/api_lib.c ****   API_MSG_VAR_ALLOC(msg);
 222:Middlewares/Third_Party/LwIP/src/api/api_lib.c ****   API_MSG_VAR_REF(msg).conn = conn;
 223:Middlewares/Third_Party/LwIP/src/api/api_lib.c ****   API_MSG_VAR_REF(msg).msg.ad.local = local;
 224:Middlewares/Third_Party/LwIP/src/api/api_lib.c **** #if LWIP_MPU_COMPATIBLE
 225:Middlewares/Third_Party/LwIP/src/api/api_lib.c ****   err = netconn_apimsg(lwip_netconn_do_getaddr, &API_MSG_VAR_REF(msg));
 226:Middlewares/Third_Party/LwIP/src/api/api_lib.c ****   *addr = msg->msg.ad.ipaddr;
 227:Middlewares/Third_Party/LwIP/src/api/api_lib.c ****   *port = msg->msg.ad.port;
 228:Middlewares/Third_Party/LwIP/src/api/api_lib.c **** #else /* LWIP_MPU_COMPATIBLE */
 229:Middlewares/Third_Party/LwIP/src/api/api_lib.c ****   msg.msg.ad.ipaddr = addr;
 230:Middlewares/Third_Party/LwIP/src/api/api_lib.c ****   msg.msg.ad.port = port;
 231:Middlewares/Third_Party/LwIP/src/api/api_lib.c ****   err = netconn_apimsg(lwip_netconn_do_getaddr, &msg);
 232:Middlewares/Third_Party/LwIP/src/api/api_lib.c **** #endif /* LWIP_MPU_COMPATIBLE */
 233:Middlewares/Third_Party/LwIP/src/api/api_lib.c ****   API_MSG_VAR_FREE(msg);
 234:Middlewares/Third_Party/LwIP/src/api/api_lib.c **** 
 235:Middlewares/Third_Party/LwIP/src/api/api_lib.c ****   return err;
 236:Middlewares/Third_Party/LwIP/src/api/api_lib.c **** }
 237:Middlewares/Third_Party/LwIP/src/api/api_lib.c **** 
 238:Middlewares/Third_Party/LwIP/src/api/api_lib.c **** /**
 239:Middlewares/Third_Party/LwIP/src/api/api_lib.c ****  * @ingroup netconn_common
 240:Middlewares/Third_Party/LwIP/src/api/api_lib.c ****  * Bind a netconn to a specific local IP address and port.
 241:Middlewares/Third_Party/LwIP/src/api/api_lib.c ****  * Binding one netconn twice might not always be checked correctly!
 242:Middlewares/Third_Party/LwIP/src/api/api_lib.c ****  *
 243:Middlewares/Third_Party/LwIP/src/api/api_lib.c ****  * @param conn the netconn to bind
 244:Middlewares/Third_Party/LwIP/src/api/api_lib.c ****  * @param addr the local IP address to bind the netconn to 
 245:Middlewares/Third_Party/LwIP/src/api/api_lib.c ****  *             (use IP4_ADDR_ANY/IP6_ADDR_ANY to bind to all addresses)
 246:Middlewares/Third_Party/LwIP/src/api/api_lib.c ****  * @param port the local port to bind the netconn to (not used for RAW)
 247:Middlewares/Third_Party/LwIP/src/api/api_lib.c ****  * @return ERR_OK if bound, any other err_t on failure
 248:Middlewares/Third_Party/LwIP/src/api/api_lib.c ****  */
 249:Middlewares/Third_Party/LwIP/src/api/api_lib.c **** err_t
ARM GAS  C:\Users\Nina\AppData\Local\Temp\ccYqiCSe.s 			page 7


 250:Middlewares/Third_Party/LwIP/src/api/api_lib.c **** netconn_bind(struct netconn *conn, const ip_addr_t *addr, u16_t port)
 251:Middlewares/Third_Party/LwIP/src/api/api_lib.c **** {
 252:Middlewares/Third_Party/LwIP/src/api/api_lib.c ****   API_MSG_VAR_DECLARE(msg);
 253:Middlewares/Third_Party/LwIP/src/api/api_lib.c ****   err_t err;
 254:Middlewares/Third_Party/LwIP/src/api/api_lib.c ****   
 255:Middlewares/Third_Party/LwIP/src/api/api_lib.c ****   LWIP_ERROR("netconn_bind: invalid conn", (conn != NULL), return ERR_ARG;);
 256:Middlewares/Third_Party/LwIP/src/api/api_lib.c **** 
 257:Middlewares/Third_Party/LwIP/src/api/api_lib.c **** #if LWIP_IPV4
 258:Middlewares/Third_Party/LwIP/src/api/api_lib.c ****   /* Don't propagate NULL pointer (IP_ADDR_ANY alias) to subsequent functions */
 259:Middlewares/Third_Party/LwIP/src/api/api_lib.c ****   if (addr == NULL) {
 260:Middlewares/Third_Party/LwIP/src/api/api_lib.c ****     addr = IP4_ADDR_ANY;
 261:Middlewares/Third_Party/LwIP/src/api/api_lib.c ****   }
 262:Middlewares/Third_Party/LwIP/src/api/api_lib.c **** #endif /* LWIP_IPV4 */
 263:Middlewares/Third_Party/LwIP/src/api/api_lib.c ****   
 264:Middlewares/Third_Party/LwIP/src/api/api_lib.c **** #if LWIP_IPV4 && LWIP_IPV6
 265:Middlewares/Third_Party/LwIP/src/api/api_lib.c ****   /* "Socket API like" dual-stack support: If IP to bind to is IP6_ADDR_ANY,
 266:Middlewares/Third_Party/LwIP/src/api/api_lib.c ****    * and NETCONN_FLAG_IPV6_V6ONLY is 0, use IP_ANY_TYPE to bind
 267:Middlewares/Third_Party/LwIP/src/api/api_lib.c ****    */
 268:Middlewares/Third_Party/LwIP/src/api/api_lib.c ****   if ((netconn_get_ipv6only(conn) == 0) &&
 269:Middlewares/Third_Party/LwIP/src/api/api_lib.c ****      ip_addr_cmp(addr, IP6_ADDR_ANY)) {
 270:Middlewares/Third_Party/LwIP/src/api/api_lib.c ****     addr = IP_ANY_TYPE;
 271:Middlewares/Third_Party/LwIP/src/api/api_lib.c ****   }
 272:Middlewares/Third_Party/LwIP/src/api/api_lib.c **** #endif /* LWIP_IPV4 && LWIP_IPV6 */
 273:Middlewares/Third_Party/LwIP/src/api/api_lib.c **** 
 274:Middlewares/Third_Party/LwIP/src/api/api_lib.c ****   API_MSG_VAR_ALLOC(msg);
 275:Middlewares/Third_Party/LwIP/src/api/api_lib.c ****   API_MSG_VAR_REF(msg).conn = conn;
 276:Middlewares/Third_Party/LwIP/src/api/api_lib.c ****   API_MSG_VAR_REF(msg).msg.bc.ipaddr = API_MSG_VAR_REF(addr);
 277:Middlewares/Third_Party/LwIP/src/api/api_lib.c ****   API_MSG_VAR_REF(msg).msg.bc.port = port;
 278:Middlewares/Third_Party/LwIP/src/api/api_lib.c ****   err = netconn_apimsg(lwip_netconn_do_bind, &API_MSG_VAR_REF(msg));
 279:Middlewares/Third_Party/LwIP/src/api/api_lib.c ****   API_MSG_VAR_FREE(msg);
 280:Middlewares/Third_Party/LwIP/src/api/api_lib.c **** 
 281:Middlewares/Third_Party/LwIP/src/api/api_lib.c ****   return err;
 282:Middlewares/Third_Party/LwIP/src/api/api_lib.c **** }
 283:Middlewares/Third_Party/LwIP/src/api/api_lib.c **** 
 284:Middlewares/Third_Party/LwIP/src/api/api_lib.c **** /**
 285:Middlewares/Third_Party/LwIP/src/api/api_lib.c ****  * @ingroup netconn_common
 286:Middlewares/Third_Party/LwIP/src/api/api_lib.c ****  * Connect a netconn to a specific remote IP address and port.
 287:Middlewares/Third_Party/LwIP/src/api/api_lib.c ****  *
 288:Middlewares/Third_Party/LwIP/src/api/api_lib.c ****  * @param conn the netconn to connect
 289:Middlewares/Third_Party/LwIP/src/api/api_lib.c ****  * @param addr the remote IP address to connect to
 290:Middlewares/Third_Party/LwIP/src/api/api_lib.c ****  * @param port the remote port to connect to (no used for RAW)
 291:Middlewares/Third_Party/LwIP/src/api/api_lib.c ****  * @return ERR_OK if connected, return value of tcp_/udp_/raw_connect otherwise
 292:Middlewares/Third_Party/LwIP/src/api/api_lib.c ****  */
 293:Middlewares/Third_Party/LwIP/src/api/api_lib.c **** err_t
 294:Middlewares/Third_Party/LwIP/src/api/api_lib.c **** netconn_connect(struct netconn *conn, const ip_addr_t *addr, u16_t port)
 295:Middlewares/Third_Party/LwIP/src/api/api_lib.c **** {
 296:Middlewares/Third_Party/LwIP/src/api/api_lib.c ****   API_MSG_VAR_DECLARE(msg);
 297:Middlewares/Third_Party/LwIP/src/api/api_lib.c ****   err_t err;
 298:Middlewares/Third_Party/LwIP/src/api/api_lib.c **** 
 299:Middlewares/Third_Party/LwIP/src/api/api_lib.c ****   LWIP_ERROR("netconn_connect: invalid conn", (conn != NULL), return ERR_ARG;);
 300:Middlewares/Third_Party/LwIP/src/api/api_lib.c **** 
 301:Middlewares/Third_Party/LwIP/src/api/api_lib.c **** #if LWIP_IPV4
 302:Middlewares/Third_Party/LwIP/src/api/api_lib.c ****   /* Don't propagate NULL pointer (IP_ADDR_ANY alias) to subsequent functions */
 303:Middlewares/Third_Party/LwIP/src/api/api_lib.c ****   if (addr == NULL) {
 304:Middlewares/Third_Party/LwIP/src/api/api_lib.c ****     addr = IP4_ADDR_ANY;
 305:Middlewares/Third_Party/LwIP/src/api/api_lib.c ****   }
 306:Middlewares/Third_Party/LwIP/src/api/api_lib.c **** #endif /* LWIP_IPV4 */
ARM GAS  C:\Users\Nina\AppData\Local\Temp\ccYqiCSe.s 			page 8


 307:Middlewares/Third_Party/LwIP/src/api/api_lib.c **** 
 308:Middlewares/Third_Party/LwIP/src/api/api_lib.c ****   API_MSG_VAR_ALLOC(msg);
 309:Middlewares/Third_Party/LwIP/src/api/api_lib.c ****   API_MSG_VAR_REF(msg).conn = conn;
 310:Middlewares/Third_Party/LwIP/src/api/api_lib.c ****   API_MSG_VAR_REF(msg).msg.bc.ipaddr = API_MSG_VAR_REF(addr);
 311:Middlewares/Third_Party/LwIP/src/api/api_lib.c ****   API_MSG_VAR_REF(msg).msg.bc.port = port;
 312:Middlewares/Third_Party/LwIP/src/api/api_lib.c ****   err = netconn_apimsg(lwip_netconn_do_connect, &API_MSG_VAR_REF(msg));
 313:Middlewares/Third_Party/LwIP/src/api/api_lib.c ****   API_MSG_VAR_FREE(msg);
 314:Middlewares/Third_Party/LwIP/src/api/api_lib.c **** 
 315:Middlewares/Third_Party/LwIP/src/api/api_lib.c ****   return err;
 316:Middlewares/Third_Party/LwIP/src/api/api_lib.c **** }
 317:Middlewares/Third_Party/LwIP/src/api/api_lib.c **** 
 318:Middlewares/Third_Party/LwIP/src/api/api_lib.c **** /**
 319:Middlewares/Third_Party/LwIP/src/api/api_lib.c ****  * @ingroup netconn_udp
 320:Middlewares/Third_Party/LwIP/src/api/api_lib.c ****  * Disconnect a netconn from its current peer (only valid for UDP netconns).
 321:Middlewares/Third_Party/LwIP/src/api/api_lib.c ****  *
 322:Middlewares/Third_Party/LwIP/src/api/api_lib.c ****  * @param conn the netconn to disconnect
 323:Middlewares/Third_Party/LwIP/src/api/api_lib.c ****  * @return See @ref err_t
 324:Middlewares/Third_Party/LwIP/src/api/api_lib.c ****  */
 325:Middlewares/Third_Party/LwIP/src/api/api_lib.c **** err_t
 326:Middlewares/Third_Party/LwIP/src/api/api_lib.c **** netconn_disconnect(struct netconn *conn)
 327:Middlewares/Third_Party/LwIP/src/api/api_lib.c **** {
 328:Middlewares/Third_Party/LwIP/src/api/api_lib.c ****   API_MSG_VAR_DECLARE(msg);
 329:Middlewares/Third_Party/LwIP/src/api/api_lib.c ****   err_t err;
 330:Middlewares/Third_Party/LwIP/src/api/api_lib.c **** 
 331:Middlewares/Third_Party/LwIP/src/api/api_lib.c ****   LWIP_ERROR("netconn_disconnect: invalid conn", (conn != NULL), return ERR_ARG;);
 332:Middlewares/Third_Party/LwIP/src/api/api_lib.c **** 
 333:Middlewares/Third_Party/LwIP/src/api/api_lib.c ****   API_MSG_VAR_ALLOC(msg);
 334:Middlewares/Third_Party/LwIP/src/api/api_lib.c ****   API_MSG_VAR_REF(msg).conn = conn;
 335:Middlewares/Third_Party/LwIP/src/api/api_lib.c ****   err = netconn_apimsg(lwip_netconn_do_disconnect, &API_MSG_VAR_REF(msg));
 336:Middlewares/Third_Party/LwIP/src/api/api_lib.c ****   API_MSG_VAR_FREE(msg);
 337:Middlewares/Third_Party/LwIP/src/api/api_lib.c **** 
 338:Middlewares/Third_Party/LwIP/src/api/api_lib.c ****   return err;
 339:Middlewares/Third_Party/LwIP/src/api/api_lib.c **** }
 340:Middlewares/Third_Party/LwIP/src/api/api_lib.c **** 
 341:Middlewares/Third_Party/LwIP/src/api/api_lib.c **** /**
 342:Middlewares/Third_Party/LwIP/src/api/api_lib.c ****  * @ingroup netconn_tcp
 343:Middlewares/Third_Party/LwIP/src/api/api_lib.c ****  * Set a TCP netconn into listen mode
 344:Middlewares/Third_Party/LwIP/src/api/api_lib.c ****  *
 345:Middlewares/Third_Party/LwIP/src/api/api_lib.c ****  * @param conn the tcp netconn to set to listen mode
 346:Middlewares/Third_Party/LwIP/src/api/api_lib.c ****  * @param backlog the listen backlog, only used if TCP_LISTEN_BACKLOG==1
 347:Middlewares/Third_Party/LwIP/src/api/api_lib.c ****  * @return ERR_OK if the netconn was set to listen (UDP and RAW netconns
 348:Middlewares/Third_Party/LwIP/src/api/api_lib.c ****  *         don't return any error (yet?))
 349:Middlewares/Third_Party/LwIP/src/api/api_lib.c ****  */
 350:Middlewares/Third_Party/LwIP/src/api/api_lib.c **** err_t
 351:Middlewares/Third_Party/LwIP/src/api/api_lib.c **** netconn_listen_with_backlog(struct netconn *conn, u8_t backlog)
 352:Middlewares/Third_Party/LwIP/src/api/api_lib.c **** {
 353:Middlewares/Third_Party/LwIP/src/api/api_lib.c **** #if LWIP_TCP
 354:Middlewares/Third_Party/LwIP/src/api/api_lib.c ****   API_MSG_VAR_DECLARE(msg);
 355:Middlewares/Third_Party/LwIP/src/api/api_lib.c ****   err_t err;
 356:Middlewares/Third_Party/LwIP/src/api/api_lib.c **** 
 357:Middlewares/Third_Party/LwIP/src/api/api_lib.c ****   /* This does no harm. If TCP_LISTEN_BACKLOG is off, backlog is unused. */
 358:Middlewares/Third_Party/LwIP/src/api/api_lib.c ****   LWIP_UNUSED_ARG(backlog);
 359:Middlewares/Third_Party/LwIP/src/api/api_lib.c **** 
 360:Middlewares/Third_Party/LwIP/src/api/api_lib.c ****   LWIP_ERROR("netconn_listen: invalid conn", (conn != NULL), return ERR_ARG;);
 361:Middlewares/Third_Party/LwIP/src/api/api_lib.c **** 
 362:Middlewares/Third_Party/LwIP/src/api/api_lib.c ****   API_MSG_VAR_ALLOC(msg);
 363:Middlewares/Third_Party/LwIP/src/api/api_lib.c ****   API_MSG_VAR_REF(msg).conn = conn;
ARM GAS  C:\Users\Nina\AppData\Local\Temp\ccYqiCSe.s 			page 9


 364:Middlewares/Third_Party/LwIP/src/api/api_lib.c **** #if TCP_LISTEN_BACKLOG
 365:Middlewares/Third_Party/LwIP/src/api/api_lib.c ****   API_MSG_VAR_REF(msg).msg.lb.backlog = backlog;
 366:Middlewares/Third_Party/LwIP/src/api/api_lib.c **** #endif /* TCP_LISTEN_BACKLOG */
 367:Middlewares/Third_Party/LwIP/src/api/api_lib.c ****   err = netconn_apimsg(lwip_netconn_do_listen, &API_MSG_VAR_REF(msg));
 368:Middlewares/Third_Party/LwIP/src/api/api_lib.c ****   API_MSG_VAR_FREE(msg);
 369:Middlewares/Third_Party/LwIP/src/api/api_lib.c **** 
 370:Middlewares/Third_Party/LwIP/src/api/api_lib.c ****   return err;
 371:Middlewares/Third_Party/LwIP/src/api/api_lib.c **** #else /* LWIP_TCP */
 372:Middlewares/Third_Party/LwIP/src/api/api_lib.c ****   LWIP_UNUSED_ARG(conn);
 373:Middlewares/Third_Party/LwIP/src/api/api_lib.c ****   LWIP_UNUSED_ARG(backlog);
 374:Middlewares/Third_Party/LwIP/src/api/api_lib.c ****   return ERR_ARG;
 375:Middlewares/Third_Party/LwIP/src/api/api_lib.c **** #endif /* LWIP_TCP */
 376:Middlewares/Third_Party/LwIP/src/api/api_lib.c **** }
 377:Middlewares/Third_Party/LwIP/src/api/api_lib.c **** 
 378:Middlewares/Third_Party/LwIP/src/api/api_lib.c **** /**
 379:Middlewares/Third_Party/LwIP/src/api/api_lib.c ****  * @ingroup netconn_tcp
 380:Middlewares/Third_Party/LwIP/src/api/api_lib.c ****  * Accept a new connection on a TCP listening netconn.
 381:Middlewares/Third_Party/LwIP/src/api/api_lib.c ****  *
 382:Middlewares/Third_Party/LwIP/src/api/api_lib.c ****  * @param conn the TCP listen netconn
 383:Middlewares/Third_Party/LwIP/src/api/api_lib.c ****  * @param new_conn pointer where the new connection is stored
 384:Middlewares/Third_Party/LwIP/src/api/api_lib.c ****  * @return ERR_OK if a new connection has been received or an error
 385:Middlewares/Third_Party/LwIP/src/api/api_lib.c ****  *                code otherwise
 386:Middlewares/Third_Party/LwIP/src/api/api_lib.c ****  */
 387:Middlewares/Third_Party/LwIP/src/api/api_lib.c **** err_t
 388:Middlewares/Third_Party/LwIP/src/api/api_lib.c **** netconn_accept(struct netconn *conn, struct netconn **new_conn)
 389:Middlewares/Third_Party/LwIP/src/api/api_lib.c **** {
 390:Middlewares/Third_Party/LwIP/src/api/api_lib.c **** #if LWIP_TCP
 391:Middlewares/Third_Party/LwIP/src/api/api_lib.c ****   void *accept_ptr;
 392:Middlewares/Third_Party/LwIP/src/api/api_lib.c ****   struct netconn *newconn;
 393:Middlewares/Third_Party/LwIP/src/api/api_lib.c **** #if TCP_LISTEN_BACKLOG
 394:Middlewares/Third_Party/LwIP/src/api/api_lib.c ****   API_MSG_VAR_DECLARE(msg);
 395:Middlewares/Third_Party/LwIP/src/api/api_lib.c **** #endif /* TCP_LISTEN_BACKLOG */
 396:Middlewares/Third_Party/LwIP/src/api/api_lib.c **** 
 397:Middlewares/Third_Party/LwIP/src/api/api_lib.c ****   LWIP_ERROR("netconn_accept: invalid pointer",    (new_conn != NULL),                  return ERR_
 398:Middlewares/Third_Party/LwIP/src/api/api_lib.c ****   *new_conn = NULL;
 399:Middlewares/Third_Party/LwIP/src/api/api_lib.c ****   LWIP_ERROR("netconn_accept: invalid conn",       (conn != NULL),                      return ERR_
 400:Middlewares/Third_Party/LwIP/src/api/api_lib.c **** 
 401:Middlewares/Third_Party/LwIP/src/api/api_lib.c ****   if (ERR_IS_FATAL(conn->last_err)) {
 402:Middlewares/Third_Party/LwIP/src/api/api_lib.c ****     /* don't recv on fatal errors: this might block the application task
 403:Middlewares/Third_Party/LwIP/src/api/api_lib.c ****        waiting on acceptmbox forever! */
 404:Middlewares/Third_Party/LwIP/src/api/api_lib.c ****     return conn->last_err;
 405:Middlewares/Third_Party/LwIP/src/api/api_lib.c ****   }
 406:Middlewares/Third_Party/LwIP/src/api/api_lib.c ****   if (!sys_mbox_valid(&conn->acceptmbox)) {
 407:Middlewares/Third_Party/LwIP/src/api/api_lib.c ****     return ERR_CLSD;
 408:Middlewares/Third_Party/LwIP/src/api/api_lib.c ****   }
 409:Middlewares/Third_Party/LwIP/src/api/api_lib.c **** 
 410:Middlewares/Third_Party/LwIP/src/api/api_lib.c **** #if TCP_LISTEN_BACKLOG
 411:Middlewares/Third_Party/LwIP/src/api/api_lib.c ****   API_MSG_VAR_ALLOC(msg);
 412:Middlewares/Third_Party/LwIP/src/api/api_lib.c **** #endif /* TCP_LISTEN_BACKLOG */
 413:Middlewares/Third_Party/LwIP/src/api/api_lib.c **** 
 414:Middlewares/Third_Party/LwIP/src/api/api_lib.c **** #if LWIP_SO_RCVTIMEO
 415:Middlewares/Third_Party/LwIP/src/api/api_lib.c ****   if (sys_arch_mbox_fetch(&conn->acceptmbox, &accept_ptr, conn->recv_timeout) == SYS_ARCH_TIMEOUT) 
 416:Middlewares/Third_Party/LwIP/src/api/api_lib.c **** #if TCP_LISTEN_BACKLOG
 417:Middlewares/Third_Party/LwIP/src/api/api_lib.c ****     API_MSG_VAR_FREE(msg);
 418:Middlewares/Third_Party/LwIP/src/api/api_lib.c **** #endif /* TCP_LISTEN_BACKLOG */
 419:Middlewares/Third_Party/LwIP/src/api/api_lib.c ****     return ERR_TIMEOUT;
 420:Middlewares/Third_Party/LwIP/src/api/api_lib.c ****   }
ARM GAS  C:\Users\Nina\AppData\Local\Temp\ccYqiCSe.s 			page 10


 421:Middlewares/Third_Party/LwIP/src/api/api_lib.c **** #else
 422:Middlewares/Third_Party/LwIP/src/api/api_lib.c ****   sys_arch_mbox_fetch(&conn->acceptmbox, &accept_ptr, 0);
 423:Middlewares/Third_Party/LwIP/src/api/api_lib.c **** #endif /* LWIP_SO_RCVTIMEO*/
 424:Middlewares/Third_Party/LwIP/src/api/api_lib.c ****   newconn = (struct netconn *)accept_ptr;
 425:Middlewares/Third_Party/LwIP/src/api/api_lib.c ****   /* Register event with callback */
 426:Middlewares/Third_Party/LwIP/src/api/api_lib.c ****   API_EVENT(conn, NETCONN_EVT_RCVMINUS, 0);
 427:Middlewares/Third_Party/LwIP/src/api/api_lib.c **** 
 428:Middlewares/Third_Party/LwIP/src/api/api_lib.c ****   if (accept_ptr == &netconn_aborted) {
 429:Middlewares/Third_Party/LwIP/src/api/api_lib.c ****     /* a connection has been aborted: out of pcbs or out of netconns during accept */
 430:Middlewares/Third_Party/LwIP/src/api/api_lib.c ****     /* @todo: set netconn error, but this would be fatal and thus block further accepts */
 431:Middlewares/Third_Party/LwIP/src/api/api_lib.c **** #if TCP_LISTEN_BACKLOG
 432:Middlewares/Third_Party/LwIP/src/api/api_lib.c ****     API_MSG_VAR_FREE(msg);
 433:Middlewares/Third_Party/LwIP/src/api/api_lib.c **** #endif /* TCP_LISTEN_BACKLOG */
 434:Middlewares/Third_Party/LwIP/src/api/api_lib.c ****     return ERR_ABRT;
 435:Middlewares/Third_Party/LwIP/src/api/api_lib.c ****   }
 436:Middlewares/Third_Party/LwIP/src/api/api_lib.c ****   if (newconn == NULL) {
 437:Middlewares/Third_Party/LwIP/src/api/api_lib.c ****     /* connection has been aborted */
 438:Middlewares/Third_Party/LwIP/src/api/api_lib.c ****     /* in this special case, we set the netconn error from application thread, as
 439:Middlewares/Third_Party/LwIP/src/api/api_lib.c ****        on a ready-to-accept listening netconn, there should not be anything running
 440:Middlewares/Third_Party/LwIP/src/api/api_lib.c ****        in tcpip_thread */
 441:Middlewares/Third_Party/LwIP/src/api/api_lib.c ****     NETCONN_SET_SAFE_ERR(conn, ERR_CLSD);
 442:Middlewares/Third_Party/LwIP/src/api/api_lib.c **** #if TCP_LISTEN_BACKLOG
 443:Middlewares/Third_Party/LwIP/src/api/api_lib.c ****     API_MSG_VAR_FREE(msg);
 444:Middlewares/Third_Party/LwIP/src/api/api_lib.c **** #endif /* TCP_LISTEN_BACKLOG */
 445:Middlewares/Third_Party/LwIP/src/api/api_lib.c ****     return ERR_CLSD;
 446:Middlewares/Third_Party/LwIP/src/api/api_lib.c ****   }
 447:Middlewares/Third_Party/LwIP/src/api/api_lib.c **** #if TCP_LISTEN_BACKLOG
 448:Middlewares/Third_Party/LwIP/src/api/api_lib.c ****   /* Let the stack know that we have accepted the connection. */
 449:Middlewares/Third_Party/LwIP/src/api/api_lib.c ****   API_MSG_VAR_REF(msg).conn = newconn;
 450:Middlewares/Third_Party/LwIP/src/api/api_lib.c ****   /* don't care for the return value of lwip_netconn_do_recv */
 451:Middlewares/Third_Party/LwIP/src/api/api_lib.c ****   netconn_apimsg(lwip_netconn_do_accepted, &API_MSG_VAR_REF(msg));
 452:Middlewares/Third_Party/LwIP/src/api/api_lib.c ****   API_MSG_VAR_FREE(msg);
 453:Middlewares/Third_Party/LwIP/src/api/api_lib.c **** #endif /* TCP_LISTEN_BACKLOG */
 454:Middlewares/Third_Party/LwIP/src/api/api_lib.c **** 
 455:Middlewares/Third_Party/LwIP/src/api/api_lib.c ****   *new_conn = newconn;
 456:Middlewares/Third_Party/LwIP/src/api/api_lib.c ****   /* don't set conn->last_err: it's only ERR_OK, anyway */
 457:Middlewares/Third_Party/LwIP/src/api/api_lib.c ****   return ERR_OK;
 458:Middlewares/Third_Party/LwIP/src/api/api_lib.c **** #else /* LWIP_TCP */
 459:Middlewares/Third_Party/LwIP/src/api/api_lib.c ****   LWIP_UNUSED_ARG(conn);
 460:Middlewares/Third_Party/LwIP/src/api/api_lib.c ****   LWIP_UNUSED_ARG(new_conn);
 461:Middlewares/Third_Party/LwIP/src/api/api_lib.c ****   return ERR_ARG;
 462:Middlewares/Third_Party/LwIP/src/api/api_lib.c **** #endif /* LWIP_TCP */
 463:Middlewares/Third_Party/LwIP/src/api/api_lib.c **** }
 464:Middlewares/Third_Party/LwIP/src/api/api_lib.c **** 
 465:Middlewares/Third_Party/LwIP/src/api/api_lib.c **** /**
 466:Middlewares/Third_Party/LwIP/src/api/api_lib.c ****  * @ingroup netconn_common
 467:Middlewares/Third_Party/LwIP/src/api/api_lib.c ****  * Receive data: actual implementation that doesn't care whether pbuf or netbuf
 468:Middlewares/Third_Party/LwIP/src/api/api_lib.c ****  * is received
 469:Middlewares/Third_Party/LwIP/src/api/api_lib.c ****  *
 470:Middlewares/Third_Party/LwIP/src/api/api_lib.c ****  * @param conn the netconn from which to receive data
 471:Middlewares/Third_Party/LwIP/src/api/api_lib.c ****  * @param new_buf pointer where a new pbuf/netbuf is stored when received data
 472:Middlewares/Third_Party/LwIP/src/api/api_lib.c ****  * @return ERR_OK if data has been received, an error code otherwise (timeout,
 473:Middlewares/Third_Party/LwIP/src/api/api_lib.c ****  *                memory error or another error)
 474:Middlewares/Third_Party/LwIP/src/api/api_lib.c ****  */
 475:Middlewares/Third_Party/LwIP/src/api/api_lib.c **** static err_t
 476:Middlewares/Third_Party/LwIP/src/api/api_lib.c **** netconn_recv_data(struct netconn *conn, void **new_buf)
 477:Middlewares/Third_Party/LwIP/src/api/api_lib.c **** {
ARM GAS  C:\Users\Nina\AppData\Local\Temp\ccYqiCSe.s 			page 11


 478:Middlewares/Third_Party/LwIP/src/api/api_lib.c ****   void *buf = NULL;
 479:Middlewares/Third_Party/LwIP/src/api/api_lib.c ****   u16_t len;
 480:Middlewares/Third_Party/LwIP/src/api/api_lib.c **** #if LWIP_TCP
 481:Middlewares/Third_Party/LwIP/src/api/api_lib.c ****   API_MSG_VAR_DECLARE(msg);
 482:Middlewares/Third_Party/LwIP/src/api/api_lib.c **** #if LWIP_MPU_COMPATIBLE
 483:Middlewares/Third_Party/LwIP/src/api/api_lib.c ****   msg = NULL;
 484:Middlewares/Third_Party/LwIP/src/api/api_lib.c **** #endif
 485:Middlewares/Third_Party/LwIP/src/api/api_lib.c **** #endif /* LWIP_TCP */
 486:Middlewares/Third_Party/LwIP/src/api/api_lib.c **** 
 487:Middlewares/Third_Party/LwIP/src/api/api_lib.c ****   LWIP_ERROR("netconn_recv: invalid pointer", (new_buf != NULL), return ERR_ARG;);
 488:Middlewares/Third_Party/LwIP/src/api/api_lib.c ****   *new_buf = NULL;
 489:Middlewares/Third_Party/LwIP/src/api/api_lib.c ****   LWIP_ERROR("netconn_recv: invalid conn",    (conn != NULL),    return ERR_ARG;);
 490:Middlewares/Third_Party/LwIP/src/api/api_lib.c **** #if LWIP_TCP
 491:Middlewares/Third_Party/LwIP/src/api/api_lib.c **** #if (LWIP_UDP || LWIP_RAW)
 492:Middlewares/Third_Party/LwIP/src/api/api_lib.c ****   if (NETCONNTYPE_GROUP(conn->type) == NETCONN_TCP)
 493:Middlewares/Third_Party/LwIP/src/api/api_lib.c **** #endif /* (LWIP_UDP || LWIP_RAW) */
 494:Middlewares/Third_Party/LwIP/src/api/api_lib.c ****   {
 495:Middlewares/Third_Party/LwIP/src/api/api_lib.c ****     if (!sys_mbox_valid(&conn->recvmbox)) {
 496:Middlewares/Third_Party/LwIP/src/api/api_lib.c ****       /* This happens when calling this function after receiving FIN */
 497:Middlewares/Third_Party/LwIP/src/api/api_lib.c ****       return sys_mbox_valid(&conn->acceptmbox) ? ERR_CONN : ERR_CLSD;
 498:Middlewares/Third_Party/LwIP/src/api/api_lib.c ****     }
 499:Middlewares/Third_Party/LwIP/src/api/api_lib.c ****   }
 500:Middlewares/Third_Party/LwIP/src/api/api_lib.c **** #endif /* LWIP_TCP */
 501:Middlewares/Third_Party/LwIP/src/api/api_lib.c ****   LWIP_ERROR("netconn_recv: invalid recvmbox", sys_mbox_valid(&conn->recvmbox), return ERR_CONN;);
 502:Middlewares/Third_Party/LwIP/src/api/api_lib.c **** 
 503:Middlewares/Third_Party/LwIP/src/api/api_lib.c ****   if (ERR_IS_FATAL(conn->last_err)) {
 504:Middlewares/Third_Party/LwIP/src/api/api_lib.c ****     /* don't recv on fatal errors: this might block the application task
 505:Middlewares/Third_Party/LwIP/src/api/api_lib.c ****        waiting on recvmbox forever! */
 506:Middlewares/Third_Party/LwIP/src/api/api_lib.c ****     /* @todo: this does not allow us to fetch data that has been put into recvmbox
 507:Middlewares/Third_Party/LwIP/src/api/api_lib.c ****        before the fatal error occurred - is that a problem? */
 508:Middlewares/Third_Party/LwIP/src/api/api_lib.c ****     return conn->last_err;
 509:Middlewares/Third_Party/LwIP/src/api/api_lib.c ****   }
 510:Middlewares/Third_Party/LwIP/src/api/api_lib.c **** #if LWIP_TCP
 511:Middlewares/Third_Party/LwIP/src/api/api_lib.c **** #if (LWIP_UDP || LWIP_RAW)
 512:Middlewares/Third_Party/LwIP/src/api/api_lib.c ****   if (NETCONNTYPE_GROUP(conn->type) == NETCONN_TCP)
 513:Middlewares/Third_Party/LwIP/src/api/api_lib.c **** #endif /* (LWIP_UDP || LWIP_RAW) */
 514:Middlewares/Third_Party/LwIP/src/api/api_lib.c ****   {
 515:Middlewares/Third_Party/LwIP/src/api/api_lib.c ****     API_MSG_VAR_ALLOC(msg);
 516:Middlewares/Third_Party/LwIP/src/api/api_lib.c ****   }
 517:Middlewares/Third_Party/LwIP/src/api/api_lib.c **** #endif /* LWIP_TCP */
 518:Middlewares/Third_Party/LwIP/src/api/api_lib.c **** 
 519:Middlewares/Third_Party/LwIP/src/api/api_lib.c **** #if LWIP_SO_RCVTIMEO
 520:Middlewares/Third_Party/LwIP/src/api/api_lib.c ****   if (sys_arch_mbox_fetch(&conn->recvmbox, &buf, conn->recv_timeout) == SYS_ARCH_TIMEOUT) {
 521:Middlewares/Third_Party/LwIP/src/api/api_lib.c **** #if LWIP_TCP
 522:Middlewares/Third_Party/LwIP/src/api/api_lib.c **** #if (LWIP_UDP || LWIP_RAW)
 523:Middlewares/Third_Party/LwIP/src/api/api_lib.c ****     if (NETCONNTYPE_GROUP(conn->type) == NETCONN_TCP)
 524:Middlewares/Third_Party/LwIP/src/api/api_lib.c **** #endif /* (LWIP_UDP || LWIP_RAW) */
 525:Middlewares/Third_Party/LwIP/src/api/api_lib.c ****     {
 526:Middlewares/Third_Party/LwIP/src/api/api_lib.c ****       API_MSG_VAR_FREE(msg);
 527:Middlewares/Third_Party/LwIP/src/api/api_lib.c ****     }
 528:Middlewares/Third_Party/LwIP/src/api/api_lib.c **** #endif /* LWIP_TCP */
 529:Middlewares/Third_Party/LwIP/src/api/api_lib.c ****     return ERR_TIMEOUT;
 530:Middlewares/Third_Party/LwIP/src/api/api_lib.c ****   }
 531:Middlewares/Third_Party/LwIP/src/api/api_lib.c **** #else
 532:Middlewares/Third_Party/LwIP/src/api/api_lib.c ****   sys_arch_mbox_fetch(&conn->recvmbox, &buf, 0);
 533:Middlewares/Third_Party/LwIP/src/api/api_lib.c **** #endif /* LWIP_SO_RCVTIMEO*/
 534:Middlewares/Third_Party/LwIP/src/api/api_lib.c **** 
ARM GAS  C:\Users\Nina\AppData\Local\Temp\ccYqiCSe.s 			page 12


 535:Middlewares/Third_Party/LwIP/src/api/api_lib.c **** #if LWIP_TCP
 536:Middlewares/Third_Party/LwIP/src/api/api_lib.c **** #if (LWIP_UDP || LWIP_RAW)
 537:Middlewares/Third_Party/LwIP/src/api/api_lib.c ****   if (NETCONNTYPE_GROUP(conn->type) == NETCONN_TCP)
 538:Middlewares/Third_Party/LwIP/src/api/api_lib.c **** #endif /* (LWIP_UDP || LWIP_RAW) */
 539:Middlewares/Third_Party/LwIP/src/api/api_lib.c ****   {
 540:Middlewares/Third_Party/LwIP/src/api/api_lib.c ****     /* Let the stack know that we have taken the data. */
 541:Middlewares/Third_Party/LwIP/src/api/api_lib.c ****     /* @todo: Speedup: Don't block and wait for the answer here
 542:Middlewares/Third_Party/LwIP/src/api/api_lib.c ****        (to prevent multiple thread-switches). */
 543:Middlewares/Third_Party/LwIP/src/api/api_lib.c ****     API_MSG_VAR_REF(msg).conn = conn;
 544:Middlewares/Third_Party/LwIP/src/api/api_lib.c ****     if (buf != NULL) {
 545:Middlewares/Third_Party/LwIP/src/api/api_lib.c ****       API_MSG_VAR_REF(msg).msg.r.len = ((struct pbuf *)buf)->tot_len;
 546:Middlewares/Third_Party/LwIP/src/api/api_lib.c ****     } else {
 547:Middlewares/Third_Party/LwIP/src/api/api_lib.c ****       API_MSG_VAR_REF(msg).msg.r.len = 1;
 548:Middlewares/Third_Party/LwIP/src/api/api_lib.c ****     }
 549:Middlewares/Third_Party/LwIP/src/api/api_lib.c **** 
 550:Middlewares/Third_Party/LwIP/src/api/api_lib.c ****     /* don't care for the return value of lwip_netconn_do_recv */
 551:Middlewares/Third_Party/LwIP/src/api/api_lib.c ****     netconn_apimsg(lwip_netconn_do_recv, &API_MSG_VAR_REF(msg));
 552:Middlewares/Third_Party/LwIP/src/api/api_lib.c ****     API_MSG_VAR_FREE(msg);
 553:Middlewares/Third_Party/LwIP/src/api/api_lib.c **** 
 554:Middlewares/Third_Party/LwIP/src/api/api_lib.c ****     /* If we are closed, we indicate that we no longer wish to use the socket */
 555:Middlewares/Third_Party/LwIP/src/api/api_lib.c ****     if (buf == NULL) {
 556:Middlewares/Third_Party/LwIP/src/api/api_lib.c ****       API_EVENT(conn, NETCONN_EVT_RCVMINUS, 0);
 557:Middlewares/Third_Party/LwIP/src/api/api_lib.c ****       if (conn->pcb.ip == NULL) {
 558:Middlewares/Third_Party/LwIP/src/api/api_lib.c ****         /* race condition: RST during recv */
 559:Middlewares/Third_Party/LwIP/src/api/api_lib.c ****         return conn->last_err == ERR_OK ? ERR_RST : conn->last_err;
 560:Middlewares/Third_Party/LwIP/src/api/api_lib.c ****       }
 561:Middlewares/Third_Party/LwIP/src/api/api_lib.c ****       /* RX side is closed, so deallocate the recvmbox */
 562:Middlewares/Third_Party/LwIP/src/api/api_lib.c ****       netconn_close_shutdown(conn, NETCONN_SHUT_RD);
 563:Middlewares/Third_Party/LwIP/src/api/api_lib.c ****       /* Don' store ERR_CLSD as conn->err since we are only half-closed */
 564:Middlewares/Third_Party/LwIP/src/api/api_lib.c ****       return ERR_CLSD;
 565:Middlewares/Third_Party/LwIP/src/api/api_lib.c ****     }
 566:Middlewares/Third_Party/LwIP/src/api/api_lib.c ****     len = ((struct pbuf *)buf)->tot_len;
 567:Middlewares/Third_Party/LwIP/src/api/api_lib.c ****   }
 568:Middlewares/Third_Party/LwIP/src/api/api_lib.c **** #endif /* LWIP_TCP */
 569:Middlewares/Third_Party/LwIP/src/api/api_lib.c **** #if LWIP_TCP && (LWIP_UDP || LWIP_RAW)
 570:Middlewares/Third_Party/LwIP/src/api/api_lib.c ****   else
 571:Middlewares/Third_Party/LwIP/src/api/api_lib.c **** #endif /* LWIP_TCP && (LWIP_UDP || LWIP_RAW) */
 572:Middlewares/Third_Party/LwIP/src/api/api_lib.c **** #if (LWIP_UDP || LWIP_RAW)
 573:Middlewares/Third_Party/LwIP/src/api/api_lib.c ****   {
 574:Middlewares/Third_Party/LwIP/src/api/api_lib.c ****     LWIP_ASSERT("buf != NULL", buf != NULL);
 575:Middlewares/Third_Party/LwIP/src/api/api_lib.c ****     len = netbuf_len((struct netbuf*)buf);
 576:Middlewares/Third_Party/LwIP/src/api/api_lib.c ****   }
 577:Middlewares/Third_Party/LwIP/src/api/api_lib.c **** #endif /* (LWIP_UDP || LWIP_RAW) */
 578:Middlewares/Third_Party/LwIP/src/api/api_lib.c **** 
 579:Middlewares/Third_Party/LwIP/src/api/api_lib.c **** #if LWIP_SO_RCVBUF
 580:Middlewares/Third_Party/LwIP/src/api/api_lib.c ****   SYS_ARCH_DEC(conn->recv_avail, len);
 581:Middlewares/Third_Party/LwIP/src/api/api_lib.c **** #endif /* LWIP_SO_RCVBUF */
 582:Middlewares/Third_Party/LwIP/src/api/api_lib.c ****   /* Register event with callback */
 583:Middlewares/Third_Party/LwIP/src/api/api_lib.c ****   API_EVENT(conn, NETCONN_EVT_RCVMINUS, len);
 584:Middlewares/Third_Party/LwIP/src/api/api_lib.c **** 
 585:Middlewares/Third_Party/LwIP/src/api/api_lib.c ****   LWIP_DEBUGF(API_LIB_DEBUG, ("netconn_recv_data: received %p, len=%"U16_F"\n", buf, len));
 586:Middlewares/Third_Party/LwIP/src/api/api_lib.c **** 
 587:Middlewares/Third_Party/LwIP/src/api/api_lib.c ****   *new_buf = buf;
 588:Middlewares/Third_Party/LwIP/src/api/api_lib.c ****   /* don't set conn->last_err: it's only ERR_OK, anyway */
 589:Middlewares/Third_Party/LwIP/src/api/api_lib.c ****   return ERR_OK;
 590:Middlewares/Third_Party/LwIP/src/api/api_lib.c **** }
 591:Middlewares/Third_Party/LwIP/src/api/api_lib.c **** 
ARM GAS  C:\Users\Nina\AppData\Local\Temp\ccYqiCSe.s 			page 13


 592:Middlewares/Third_Party/LwIP/src/api/api_lib.c **** /**
 593:Middlewares/Third_Party/LwIP/src/api/api_lib.c ****  * @ingroup netconn_tcp
 594:Middlewares/Third_Party/LwIP/src/api/api_lib.c ****  * Receive data (in form of a pbuf) from a TCP netconn
 595:Middlewares/Third_Party/LwIP/src/api/api_lib.c ****  *
 596:Middlewares/Third_Party/LwIP/src/api/api_lib.c ****  * @param conn the netconn from which to receive data
 597:Middlewares/Third_Party/LwIP/src/api/api_lib.c ****  * @param new_buf pointer where a new pbuf is stored when received data
 598:Middlewares/Third_Party/LwIP/src/api/api_lib.c ****  * @return ERR_OK if data has been received, an error code otherwise (timeout,
 599:Middlewares/Third_Party/LwIP/src/api/api_lib.c ****  *                memory error or another error)
 600:Middlewares/Third_Party/LwIP/src/api/api_lib.c ****  *         ERR_ARG if conn is not a TCP netconn
 601:Middlewares/Third_Party/LwIP/src/api/api_lib.c ****  */
 602:Middlewares/Third_Party/LwIP/src/api/api_lib.c **** err_t
 603:Middlewares/Third_Party/LwIP/src/api/api_lib.c **** netconn_recv_tcp_pbuf(struct netconn *conn, struct pbuf **new_buf)
 604:Middlewares/Third_Party/LwIP/src/api/api_lib.c **** {
 605:Middlewares/Third_Party/LwIP/src/api/api_lib.c ****   LWIP_ERROR("netconn_recv: invalid conn", (conn != NULL) &&
 606:Middlewares/Third_Party/LwIP/src/api/api_lib.c ****              NETCONNTYPE_GROUP(netconn_type(conn)) == NETCONN_TCP, return ERR_ARG;);
 607:Middlewares/Third_Party/LwIP/src/api/api_lib.c **** 
 608:Middlewares/Third_Party/LwIP/src/api/api_lib.c ****   return netconn_recv_data(conn, (void **)new_buf);
 609:Middlewares/Third_Party/LwIP/src/api/api_lib.c **** }
 610:Middlewares/Third_Party/LwIP/src/api/api_lib.c **** 
 611:Middlewares/Third_Party/LwIP/src/api/api_lib.c **** /**
 612:Middlewares/Third_Party/LwIP/src/api/api_lib.c ****  * @ingroup netconn_common
 613:Middlewares/Third_Party/LwIP/src/api/api_lib.c ****  * Receive data (in form of a netbuf containing a packet buffer) from a netconn
 614:Middlewares/Third_Party/LwIP/src/api/api_lib.c ****  *
 615:Middlewares/Third_Party/LwIP/src/api/api_lib.c ****  * @param conn the netconn from which to receive data
 616:Middlewares/Third_Party/LwIP/src/api/api_lib.c ****  * @param new_buf pointer where a new netbuf is stored when received data
 617:Middlewares/Third_Party/LwIP/src/api/api_lib.c ****  * @return ERR_OK if data has been received, an error code otherwise (timeout,
 618:Middlewares/Third_Party/LwIP/src/api/api_lib.c ****  *                memory error or another error)
 619:Middlewares/Third_Party/LwIP/src/api/api_lib.c ****  */
 620:Middlewares/Third_Party/LwIP/src/api/api_lib.c **** err_t
 621:Middlewares/Third_Party/LwIP/src/api/api_lib.c **** netconn_recv(struct netconn *conn, struct netbuf **new_buf)
 622:Middlewares/Third_Party/LwIP/src/api/api_lib.c **** {
 623:Middlewares/Third_Party/LwIP/src/api/api_lib.c **** #if LWIP_TCP
 624:Middlewares/Third_Party/LwIP/src/api/api_lib.c ****   struct netbuf *buf = NULL;
 625:Middlewares/Third_Party/LwIP/src/api/api_lib.c ****   err_t err;
 626:Middlewares/Third_Party/LwIP/src/api/api_lib.c **** #endif /* LWIP_TCP */
 627:Middlewares/Third_Party/LwIP/src/api/api_lib.c **** 
 628:Middlewares/Third_Party/LwIP/src/api/api_lib.c ****   LWIP_ERROR("netconn_recv: invalid pointer", (new_buf != NULL), return ERR_ARG;);
 629:Middlewares/Third_Party/LwIP/src/api/api_lib.c ****   *new_buf = NULL;
 630:Middlewares/Third_Party/LwIP/src/api/api_lib.c ****   LWIP_ERROR("netconn_recv: invalid conn",    (conn != NULL),    return ERR_ARG;);
 631:Middlewares/Third_Party/LwIP/src/api/api_lib.c **** 
 632:Middlewares/Third_Party/LwIP/src/api/api_lib.c **** #if LWIP_TCP
 633:Middlewares/Third_Party/LwIP/src/api/api_lib.c **** #if (LWIP_UDP || LWIP_RAW)
 634:Middlewares/Third_Party/LwIP/src/api/api_lib.c ****   if (NETCONNTYPE_GROUP(conn->type) == NETCONN_TCP)
 635:Middlewares/Third_Party/LwIP/src/api/api_lib.c **** #endif /* (LWIP_UDP || LWIP_RAW) */
 636:Middlewares/Third_Party/LwIP/src/api/api_lib.c ****   {
 637:Middlewares/Third_Party/LwIP/src/api/api_lib.c ****     struct pbuf *p = NULL;
 638:Middlewares/Third_Party/LwIP/src/api/api_lib.c ****     /* This is not a listening netconn, since recvmbox is set */
 639:Middlewares/Third_Party/LwIP/src/api/api_lib.c **** 
 640:Middlewares/Third_Party/LwIP/src/api/api_lib.c ****     buf = (struct netbuf *)memp_malloc(MEMP_NETBUF);
 641:Middlewares/Third_Party/LwIP/src/api/api_lib.c ****     if (buf == NULL) {
 642:Middlewares/Third_Party/LwIP/src/api/api_lib.c ****       return ERR_MEM;
 643:Middlewares/Third_Party/LwIP/src/api/api_lib.c ****     }
 644:Middlewares/Third_Party/LwIP/src/api/api_lib.c **** 
 645:Middlewares/Third_Party/LwIP/src/api/api_lib.c ****     err = netconn_recv_data(conn, (void **)&p);
 646:Middlewares/Third_Party/LwIP/src/api/api_lib.c ****     if (err != ERR_OK) {
 647:Middlewares/Third_Party/LwIP/src/api/api_lib.c ****       memp_free(MEMP_NETBUF, buf);
 648:Middlewares/Third_Party/LwIP/src/api/api_lib.c ****       return err;
ARM GAS  C:\Users\Nina\AppData\Local\Temp\ccYqiCSe.s 			page 14


 649:Middlewares/Third_Party/LwIP/src/api/api_lib.c ****     }
 650:Middlewares/Third_Party/LwIP/src/api/api_lib.c ****     LWIP_ASSERT("p != NULL", p != NULL);
 651:Middlewares/Third_Party/LwIP/src/api/api_lib.c **** 
 652:Middlewares/Third_Party/LwIP/src/api/api_lib.c ****     buf->p = p;
 653:Middlewares/Third_Party/LwIP/src/api/api_lib.c ****     buf->ptr = p;
 654:Middlewares/Third_Party/LwIP/src/api/api_lib.c ****     buf->port = 0;
 655:Middlewares/Third_Party/LwIP/src/api/api_lib.c ****     ip_addr_set_zero(&buf->addr);
 656:Middlewares/Third_Party/LwIP/src/api/api_lib.c ****     *new_buf = buf;
 657:Middlewares/Third_Party/LwIP/src/api/api_lib.c ****     /* don't set conn->last_err: it's only ERR_OK, anyway */
 658:Middlewares/Third_Party/LwIP/src/api/api_lib.c ****     return ERR_OK;
 659:Middlewares/Third_Party/LwIP/src/api/api_lib.c ****   }
 660:Middlewares/Third_Party/LwIP/src/api/api_lib.c **** #endif /* LWIP_TCP */
 661:Middlewares/Third_Party/LwIP/src/api/api_lib.c **** #if LWIP_TCP && (LWIP_UDP || LWIP_RAW)
 662:Middlewares/Third_Party/LwIP/src/api/api_lib.c ****   else
 663:Middlewares/Third_Party/LwIP/src/api/api_lib.c **** #endif /* LWIP_TCP && (LWIP_UDP || LWIP_RAW) */
 664:Middlewares/Third_Party/LwIP/src/api/api_lib.c ****   {
 665:Middlewares/Third_Party/LwIP/src/api/api_lib.c **** #if (LWIP_UDP || LWIP_RAW)
 666:Middlewares/Third_Party/LwIP/src/api/api_lib.c ****     return netconn_recv_data(conn, (void **)new_buf);
 667:Middlewares/Third_Party/LwIP/src/api/api_lib.c **** #endif /* (LWIP_UDP || LWIP_RAW) */
 668:Middlewares/Third_Party/LwIP/src/api/api_lib.c ****   }
 669:Middlewares/Third_Party/LwIP/src/api/api_lib.c **** }
 670:Middlewares/Third_Party/LwIP/src/api/api_lib.c **** 
 671:Middlewares/Third_Party/LwIP/src/api/api_lib.c **** /**
 672:Middlewares/Third_Party/LwIP/src/api/api_lib.c ****  * @ingroup netconn_udp
 673:Middlewares/Third_Party/LwIP/src/api/api_lib.c ****  * Send data (in form of a netbuf) to a specific remote IP address and port.
 674:Middlewares/Third_Party/LwIP/src/api/api_lib.c ****  * Only to be used for UDP and RAW netconns (not TCP).
 675:Middlewares/Third_Party/LwIP/src/api/api_lib.c ****  *
 676:Middlewares/Third_Party/LwIP/src/api/api_lib.c ****  * @param conn the netconn over which to send data
 677:Middlewares/Third_Party/LwIP/src/api/api_lib.c ****  * @param buf a netbuf containing the data to send
 678:Middlewares/Third_Party/LwIP/src/api/api_lib.c ****  * @param addr the remote IP address to which to send the data
 679:Middlewares/Third_Party/LwIP/src/api/api_lib.c ****  * @param port the remote port to which to send the data
 680:Middlewares/Third_Party/LwIP/src/api/api_lib.c ****  * @return ERR_OK if data was sent, any other err_t on error
 681:Middlewares/Third_Party/LwIP/src/api/api_lib.c ****  */
 682:Middlewares/Third_Party/LwIP/src/api/api_lib.c **** err_t
 683:Middlewares/Third_Party/LwIP/src/api/api_lib.c **** netconn_sendto(struct netconn *conn, struct netbuf *buf, const ip_addr_t *addr, u16_t port)
 684:Middlewares/Third_Party/LwIP/src/api/api_lib.c **** {
 685:Middlewares/Third_Party/LwIP/src/api/api_lib.c ****   if (buf != NULL) {
 686:Middlewares/Third_Party/LwIP/src/api/api_lib.c ****     ip_addr_set(&buf->addr, addr);
 687:Middlewares/Third_Party/LwIP/src/api/api_lib.c ****     buf->port = port;
 688:Middlewares/Third_Party/LwIP/src/api/api_lib.c ****     return netconn_send(conn, buf);
 689:Middlewares/Third_Party/LwIP/src/api/api_lib.c ****   }
 690:Middlewares/Third_Party/LwIP/src/api/api_lib.c ****   return ERR_VAL;
 691:Middlewares/Third_Party/LwIP/src/api/api_lib.c **** }
 692:Middlewares/Third_Party/LwIP/src/api/api_lib.c **** 
 693:Middlewares/Third_Party/LwIP/src/api/api_lib.c **** /**
 694:Middlewares/Third_Party/LwIP/src/api/api_lib.c ****  * @ingroup netconn_udp
 695:Middlewares/Third_Party/LwIP/src/api/api_lib.c ****  * Send data over a UDP or RAW netconn (that is already connected).
 696:Middlewares/Third_Party/LwIP/src/api/api_lib.c ****  *
 697:Middlewares/Third_Party/LwIP/src/api/api_lib.c ****  * @param conn the UDP or RAW netconn over which to send data
 698:Middlewares/Third_Party/LwIP/src/api/api_lib.c ****  * @param buf a netbuf containing the data to send
 699:Middlewares/Third_Party/LwIP/src/api/api_lib.c ****  * @return ERR_OK if data was sent, any other err_t on error
 700:Middlewares/Third_Party/LwIP/src/api/api_lib.c ****  */
 701:Middlewares/Third_Party/LwIP/src/api/api_lib.c **** err_t
 702:Middlewares/Third_Party/LwIP/src/api/api_lib.c **** netconn_send(struct netconn *conn, struct netbuf *buf)
 703:Middlewares/Third_Party/LwIP/src/api/api_lib.c **** {
 704:Middlewares/Third_Party/LwIP/src/api/api_lib.c ****   API_MSG_VAR_DECLARE(msg);
 705:Middlewares/Third_Party/LwIP/src/api/api_lib.c ****   err_t err;
ARM GAS  C:\Users\Nina\AppData\Local\Temp\ccYqiCSe.s 			page 15


 706:Middlewares/Third_Party/LwIP/src/api/api_lib.c **** 
 707:Middlewares/Third_Party/LwIP/src/api/api_lib.c ****   LWIP_ERROR("netconn_send: invalid conn",  (conn != NULL), return ERR_ARG;);
 708:Middlewares/Third_Party/LwIP/src/api/api_lib.c **** 
 709:Middlewares/Third_Party/LwIP/src/api/api_lib.c ****   LWIP_DEBUGF(API_LIB_DEBUG, ("netconn_send: sending %"U16_F" bytes\n", buf->p->tot_len));
 710:Middlewares/Third_Party/LwIP/src/api/api_lib.c **** 
 711:Middlewares/Third_Party/LwIP/src/api/api_lib.c ****   API_MSG_VAR_ALLOC(msg);
 712:Middlewares/Third_Party/LwIP/src/api/api_lib.c ****   API_MSG_VAR_REF(msg).conn = conn;
 713:Middlewares/Third_Party/LwIP/src/api/api_lib.c ****   API_MSG_VAR_REF(msg).msg.b = buf;
 714:Middlewares/Third_Party/LwIP/src/api/api_lib.c ****   err = netconn_apimsg(lwip_netconn_do_send, &API_MSG_VAR_REF(msg));
 715:Middlewares/Third_Party/LwIP/src/api/api_lib.c ****   API_MSG_VAR_FREE(msg);
 716:Middlewares/Third_Party/LwIP/src/api/api_lib.c **** 
 717:Middlewares/Third_Party/LwIP/src/api/api_lib.c ****   return err;
 718:Middlewares/Third_Party/LwIP/src/api/api_lib.c **** }
 719:Middlewares/Third_Party/LwIP/src/api/api_lib.c **** 
 720:Middlewares/Third_Party/LwIP/src/api/api_lib.c **** /**
 721:Middlewares/Third_Party/LwIP/src/api/api_lib.c ****  * @ingroup netconn_tcp
 722:Middlewares/Third_Party/LwIP/src/api/api_lib.c ****  * Send data over a TCP netconn.
 723:Middlewares/Third_Party/LwIP/src/api/api_lib.c ****  *
 724:Middlewares/Third_Party/LwIP/src/api/api_lib.c ****  * @param conn the TCP netconn over which to send data
 725:Middlewares/Third_Party/LwIP/src/api/api_lib.c ****  * @param dataptr pointer to the application buffer that contains the data to send
 726:Middlewares/Third_Party/LwIP/src/api/api_lib.c ****  * @param size size of the application data to send
 727:Middlewares/Third_Party/LwIP/src/api/api_lib.c ****  * @param apiflags combination of following flags :
 728:Middlewares/Third_Party/LwIP/src/api/api_lib.c ****  * - NETCONN_COPY: data will be copied into memory belonging to the stack
 729:Middlewares/Third_Party/LwIP/src/api/api_lib.c ****  * - NETCONN_MORE: for TCP connection, PSH flag will be set on last segment sent
 730:Middlewares/Third_Party/LwIP/src/api/api_lib.c ****  * - NETCONN_DONTBLOCK: only write the data if all data can be written at once
 731:Middlewares/Third_Party/LwIP/src/api/api_lib.c ****  * @param bytes_written pointer to a location that receives the number of written bytes
 732:Middlewares/Third_Party/LwIP/src/api/api_lib.c ****  * @return ERR_OK if data was sent, any other err_t on error
 733:Middlewares/Third_Party/LwIP/src/api/api_lib.c ****  */
 734:Middlewares/Third_Party/LwIP/src/api/api_lib.c **** err_t
 735:Middlewares/Third_Party/LwIP/src/api/api_lib.c **** netconn_write_partly(struct netconn *conn, const void *dataptr, size_t size,
 736:Middlewares/Third_Party/LwIP/src/api/api_lib.c ****                      u8_t apiflags, size_t *bytes_written)
 737:Middlewares/Third_Party/LwIP/src/api/api_lib.c **** {
 738:Middlewares/Third_Party/LwIP/src/api/api_lib.c ****   API_MSG_VAR_DECLARE(msg);
 739:Middlewares/Third_Party/LwIP/src/api/api_lib.c ****   err_t err;
 740:Middlewares/Third_Party/LwIP/src/api/api_lib.c ****   u8_t dontblock;
 741:Middlewares/Third_Party/LwIP/src/api/api_lib.c **** 
 742:Middlewares/Third_Party/LwIP/src/api/api_lib.c ****   LWIP_ERROR("netconn_write: invalid conn",  (conn != NULL), return ERR_ARG;);
 743:Middlewares/Third_Party/LwIP/src/api/api_lib.c ****   LWIP_ERROR("netconn_write: invalid conn->type",  (NETCONNTYPE_GROUP(conn->type)== NETCONN_TCP), r
 744:Middlewares/Third_Party/LwIP/src/api/api_lib.c ****   if (size == 0) {
 745:Middlewares/Third_Party/LwIP/src/api/api_lib.c ****     return ERR_OK;
 746:Middlewares/Third_Party/LwIP/src/api/api_lib.c ****   }
 747:Middlewares/Third_Party/LwIP/src/api/api_lib.c ****   dontblock = netconn_is_nonblocking(conn) || (apiflags & NETCONN_DONTBLOCK);
 748:Middlewares/Third_Party/LwIP/src/api/api_lib.c **** #if LWIP_SO_SNDTIMEO
 749:Middlewares/Third_Party/LwIP/src/api/api_lib.c ****   if (conn->send_timeout != 0) {
 750:Middlewares/Third_Party/LwIP/src/api/api_lib.c ****     dontblock = 1;
 751:Middlewares/Third_Party/LwIP/src/api/api_lib.c ****   }
 752:Middlewares/Third_Party/LwIP/src/api/api_lib.c **** #endif /* LWIP_SO_SNDTIMEO */
 753:Middlewares/Third_Party/LwIP/src/api/api_lib.c ****   if (dontblock && !bytes_written) {
 754:Middlewares/Third_Party/LwIP/src/api/api_lib.c ****     /* This implies netconn_write() cannot be used for non-blocking send, since
 755:Middlewares/Third_Party/LwIP/src/api/api_lib.c ****        it has no way to return the number of bytes written. */
 756:Middlewares/Third_Party/LwIP/src/api/api_lib.c ****     return ERR_VAL;
 757:Middlewares/Third_Party/LwIP/src/api/api_lib.c ****   }
 758:Middlewares/Third_Party/LwIP/src/api/api_lib.c **** 
 759:Middlewares/Third_Party/LwIP/src/api/api_lib.c ****   API_MSG_VAR_ALLOC(msg);
 760:Middlewares/Third_Party/LwIP/src/api/api_lib.c ****   /* non-blocking write sends as much  */
 761:Middlewares/Third_Party/LwIP/src/api/api_lib.c ****   API_MSG_VAR_REF(msg).conn = conn;
 762:Middlewares/Third_Party/LwIP/src/api/api_lib.c ****   API_MSG_VAR_REF(msg).msg.w.dataptr = dataptr;
ARM GAS  C:\Users\Nina\AppData\Local\Temp\ccYqiCSe.s 			page 16


 763:Middlewares/Third_Party/LwIP/src/api/api_lib.c ****   API_MSG_VAR_REF(msg).msg.w.apiflags = apiflags;
 764:Middlewares/Third_Party/LwIP/src/api/api_lib.c ****   API_MSG_VAR_REF(msg).msg.w.len = size;
 765:Middlewares/Third_Party/LwIP/src/api/api_lib.c **** #if LWIP_SO_SNDTIMEO
 766:Middlewares/Third_Party/LwIP/src/api/api_lib.c ****   if (conn->send_timeout != 0) {
 767:Middlewares/Third_Party/LwIP/src/api/api_lib.c ****     /* get the time we started, which is later compared to
 768:Middlewares/Third_Party/LwIP/src/api/api_lib.c ****         sys_now() + conn->send_timeout */
 769:Middlewares/Third_Party/LwIP/src/api/api_lib.c ****     API_MSG_VAR_REF(msg).msg.w.time_started = sys_now();
 770:Middlewares/Third_Party/LwIP/src/api/api_lib.c ****   } else {
 771:Middlewares/Third_Party/LwIP/src/api/api_lib.c ****     API_MSG_VAR_REF(msg).msg.w.time_started = 0;
 772:Middlewares/Third_Party/LwIP/src/api/api_lib.c ****   }
 773:Middlewares/Third_Party/LwIP/src/api/api_lib.c **** #endif /* LWIP_SO_SNDTIMEO */
 774:Middlewares/Third_Party/LwIP/src/api/api_lib.c **** 
 775:Middlewares/Third_Party/LwIP/src/api/api_lib.c ****   /* For locking the core: this _can_ be delayed on low memory/low send buffer,
 776:Middlewares/Third_Party/LwIP/src/api/api_lib.c ****      but if it is, this is done inside api_msg.c:do_write(), so we can use the
 777:Middlewares/Third_Party/LwIP/src/api/api_lib.c ****      non-blocking version here. */
 778:Middlewares/Third_Party/LwIP/src/api/api_lib.c ****   err = netconn_apimsg(lwip_netconn_do_write, &API_MSG_VAR_REF(msg));
 779:Middlewares/Third_Party/LwIP/src/api/api_lib.c ****   if ((err == ERR_OK) && (bytes_written != NULL)) {
 780:Middlewares/Third_Party/LwIP/src/api/api_lib.c ****     if (dontblock) {
 781:Middlewares/Third_Party/LwIP/src/api/api_lib.c ****       /* nonblocking write: maybe the data has been sent partly */
 782:Middlewares/Third_Party/LwIP/src/api/api_lib.c ****       *bytes_written = API_MSG_VAR_REF(msg).msg.w.len;
 783:Middlewares/Third_Party/LwIP/src/api/api_lib.c ****     } else {
 784:Middlewares/Third_Party/LwIP/src/api/api_lib.c ****       /* blocking call succeeded: all data has been sent if it */
 785:Middlewares/Third_Party/LwIP/src/api/api_lib.c ****       *bytes_written = size;
 786:Middlewares/Third_Party/LwIP/src/api/api_lib.c ****     }
 787:Middlewares/Third_Party/LwIP/src/api/api_lib.c ****   }
 788:Middlewares/Third_Party/LwIP/src/api/api_lib.c ****   API_MSG_VAR_FREE(msg);
 789:Middlewares/Third_Party/LwIP/src/api/api_lib.c **** 
 790:Middlewares/Third_Party/LwIP/src/api/api_lib.c ****   return err;
 791:Middlewares/Third_Party/LwIP/src/api/api_lib.c **** }
 792:Middlewares/Third_Party/LwIP/src/api/api_lib.c **** 
 793:Middlewares/Third_Party/LwIP/src/api/api_lib.c **** /**
 794:Middlewares/Third_Party/LwIP/src/api/api_lib.c ****  * @ingroup netconn_tcp
 795:Middlewares/Third_Party/LwIP/src/api/api_lib.c ****  * Close or shutdown a TCP netconn (doesn't delete it).
 796:Middlewares/Third_Party/LwIP/src/api/api_lib.c ****  *
 797:Middlewares/Third_Party/LwIP/src/api/api_lib.c ****  * @param conn the TCP netconn to close or shutdown
 798:Middlewares/Third_Party/LwIP/src/api/api_lib.c ****  * @param how fully close or only shutdown one side?
 799:Middlewares/Third_Party/LwIP/src/api/api_lib.c ****  * @return ERR_OK if the netconn was closed, any other err_t on error
 800:Middlewares/Third_Party/LwIP/src/api/api_lib.c ****  */
 801:Middlewares/Third_Party/LwIP/src/api/api_lib.c **** static err_t
 802:Middlewares/Third_Party/LwIP/src/api/api_lib.c **** netconn_close_shutdown(struct netconn *conn, u8_t how)
 803:Middlewares/Third_Party/LwIP/src/api/api_lib.c **** {
  83              		.loc 1 803 1 is_stmt 1 view -0
  84              		.cfi_startproc
  85              		@ args = 0, pretend = 0, frame = 24
  86              		@ frame_needed = 0, uses_anonymous_args = 0
  87              		.loc 1 803 1 is_stmt 0 view .LVU12
  88 0000 00B5     		push	{lr}
  89              	.LCFI1:
  90              		.cfi_def_cfa_offset 4
  91              		.cfi_offset 14, -4
  92 0002 87B0     		sub	sp, sp, #28
  93              	.LCFI2:
  94              		.cfi_def_cfa_offset 32
 804:Middlewares/Third_Party/LwIP/src/api/api_lib.c ****   API_MSG_VAR_DECLARE(msg);
  95              		.loc 1 804 3 is_stmt 1 view .LVU13
 805:Middlewares/Third_Party/LwIP/src/api/api_lib.c ****   err_t err;
  96              		.loc 1 805 3 view .LVU14
ARM GAS  C:\Users\Nina\AppData\Local\Temp\ccYqiCSe.s 			page 17


 806:Middlewares/Third_Party/LwIP/src/api/api_lib.c ****   LWIP_UNUSED_ARG(how);
  97              		.loc 1 806 3 view .LVU15
 807:Middlewares/Third_Party/LwIP/src/api/api_lib.c **** 
 808:Middlewares/Third_Party/LwIP/src/api/api_lib.c ****   LWIP_ERROR("netconn_close: invalid conn",  (conn != NULL), return ERR_ARG;);
  98              		.loc 1 808 3 view .LVU16
  99              		.loc 1 808 3 view .LVU17
 100 0004 60B1     		cbz	r0, .L9
 101              		.loc 1 808 3 discriminator 2 view .LVU18
 102              		.loc 1 808 3 discriminator 2 view .LVU19
 809:Middlewares/Third_Party/LwIP/src/api/api_lib.c **** 
 810:Middlewares/Third_Party/LwIP/src/api/api_lib.c ****   API_MSG_VAR_ALLOC(msg);
 103              		.loc 1 810 25 discriminator 2 view .LVU20
 811:Middlewares/Third_Party/LwIP/src/api/api_lib.c ****   API_MSG_VAR_REF(msg).conn = conn;
 104              		.loc 1 811 3 discriminator 2 view .LVU21
 105              		.loc 1 811 29 is_stmt 0 discriminator 2 view .LVU22
 106 0006 0190     		str	r0, [sp, #4]
 812:Middlewares/Third_Party/LwIP/src/api/api_lib.c **** #if LWIP_TCP
 813:Middlewares/Third_Party/LwIP/src/api/api_lib.c ****   /* shutting down both ends is the same as closing */
 814:Middlewares/Third_Party/LwIP/src/api/api_lib.c ****   API_MSG_VAR_REF(msg).msg.sd.shut = how;
 107              		.loc 1 814 3 is_stmt 1 discriminator 2 view .LVU23
 108              		.loc 1 814 36 is_stmt 0 discriminator 2 view .LVU24
 109 0008 8DF80C10 		strb	r1, [sp, #12]
 815:Middlewares/Third_Party/LwIP/src/api/api_lib.c **** #if LWIP_SO_SNDTIMEO || LWIP_SO_LINGER
 816:Middlewares/Third_Party/LwIP/src/api/api_lib.c ****   /* get the time we started, which is later compared to
 817:Middlewares/Third_Party/LwIP/src/api/api_lib.c ****      sys_now() + conn->send_timeout */
 818:Middlewares/Third_Party/LwIP/src/api/api_lib.c ****   API_MSG_VAR_REF(msg).msg.sd.time_started = sys_now();
 819:Middlewares/Third_Party/LwIP/src/api/api_lib.c **** #else /* LWIP_SO_SNDTIMEO || LWIP_SO_LINGER */
 820:Middlewares/Third_Party/LwIP/src/api/api_lib.c ****   API_MSG_VAR_REF(msg).msg.sd.polls_left =
 110              		.loc 1 820 3 is_stmt 1 discriminator 2 view .LVU25
 111              		.loc 1 820 42 is_stmt 0 discriminator 2 view .LVU26
 112 000c 2923     		movs	r3, #41
 113 000e 8DF80D30 		strb	r3, [sp, #13]
 821:Middlewares/Third_Party/LwIP/src/api/api_lib.c ****     ((LWIP_TCP_CLOSE_TIMEOUT_MS_DEFAULT + TCP_SLOW_INTERVAL - 1) / TCP_SLOW_INTERVAL) + 1;
 822:Middlewares/Third_Party/LwIP/src/api/api_lib.c **** #endif /* LWIP_SO_SNDTIMEO || LWIP_SO_LINGER */
 823:Middlewares/Third_Party/LwIP/src/api/api_lib.c **** #endif /* LWIP_TCP */
 824:Middlewares/Third_Party/LwIP/src/api/api_lib.c ****   err = netconn_apimsg(lwip_netconn_do_close, &API_MSG_VAR_REF(msg));
 114              		.loc 1 824 3 is_stmt 1 discriminator 2 view .LVU27
 115              		.loc 1 824 9 is_stmt 0 discriminator 2 view .LVU28
 116 0012 01A9     		add	r1, sp, #4
 117              	.LVL4:
 118              		.loc 1 824 9 discriminator 2 view .LVU29
 119 0014 0748     		ldr	r0, .L10
 120              	.LVL5:
 121              		.loc 1 824 9 discriminator 2 view .LVU30
 122 0016 FFF7FEFF 		bl	netconn_apimsg
 123              	.LVL6:
 825:Middlewares/Third_Party/LwIP/src/api/api_lib.c ****   API_MSG_VAR_FREE(msg);
 124              		.loc 1 825 24 is_stmt 1 discriminator 2 view .LVU31
 826:Middlewares/Third_Party/LwIP/src/api/api_lib.c **** 
 827:Middlewares/Third_Party/LwIP/src/api/api_lib.c ****   return err;
 125              		.loc 1 827 3 discriminator 2 view .LVU32
 126              	.L7:
 828:Middlewares/Third_Party/LwIP/src/api/api_lib.c **** }
 127              		.loc 1 828 1 is_stmt 0 view .LVU33
 128 001a 07B0     		add	sp, sp, #28
 129              	.LCFI3:
 130              		.cfi_remember_state
ARM GAS  C:\Users\Nina\AppData\Local\Temp\ccYqiCSe.s 			page 18


 131              		.cfi_def_cfa_offset 4
 132              		@ sp needed
 133 001c 5DF804FB 		ldr	pc, [sp], #4
 134              	.LVL7:
 135              	.L9:
 136              	.LCFI4:
 137              		.cfi_restore_state
 808:Middlewares/Third_Party/LwIP/src/api/api_lib.c **** 
 138              		.loc 1 808 3 is_stmt 1 discriminator 1 view .LVU34
 808:Middlewares/Third_Party/LwIP/src/api/api_lib.c **** 
 139              		.loc 1 808 3 discriminator 1 view .LVU35
 140 0020 054B     		ldr	r3, .L10+4
 141 0022 4FF44A72 		mov	r2, #808
 142 0026 0549     		ldr	r1, .L10+8
 143              	.LVL8:
 808:Middlewares/Third_Party/LwIP/src/api/api_lib.c **** 
 144              		.loc 1 808 3 is_stmt 0 discriminator 1 view .LVU36
 145 0028 0548     		ldr	r0, .L10+12
 146              	.LVL9:
 808:Middlewares/Third_Party/LwIP/src/api/api_lib.c **** 
 147              		.loc 1 808 3 discriminator 1 view .LVU37
 148 002a FFF7FEFF 		bl	printf
 149              	.LVL10:
 808:Middlewares/Third_Party/LwIP/src/api/api_lib.c **** 
 150              		.loc 1 808 3 is_stmt 1 discriminator 1 view .LVU38
 808:Middlewares/Third_Party/LwIP/src/api/api_lib.c **** 
 151              		.loc 1 808 3 discriminator 1 view .LVU39
 152 002e 6FF00F00 		mvn	r0, #15
 153 0032 F2E7     		b	.L7
 154              	.L11:
 155              		.align	2
 156              	.L10:
 157 0034 00000000 		.word	lwip_netconn_do_close
 158 0038 00000000 		.word	.LC0
 159 003c 30000000 		.word	.LC1
 160 0040 4C000000 		.word	.LC2
 161              		.cfi_endproc
 162              	.LFE180:
 164              		.section	.rodata.netconn_recv_data.str1.4,"aMS",%progbits,1
 165              		.align	2
 166              	.LC3:
 167 0000 6E657463 		.ascii	"netconn_recv: invalid pointer\000"
 167      6F6E6E5F 
 167      72656376 
 167      3A20696E 
 167      76616C69 
 168 001e 0000     		.align	2
 169              	.LC4:
 170 0020 6E657463 		.ascii	"netconn_recv: invalid conn\000"
 170      6F6E6E5F 
 170      72656376 
 170      3A20696E 
 170      76616C69 
 171 003b 00       		.align	2
 172              	.LC5:
 173 003c 6E657463 		.ascii	"netconn_recv: invalid recvmbox\000"
 173      6F6E6E5F 
ARM GAS  C:\Users\Nina\AppData\Local\Temp\ccYqiCSe.s 			page 19


 173      72656376 
 173      3A20696E 
 173      76616C69 
 174 005b 00       		.align	2
 175              	.LC6:
 176 005c 62756620 		.ascii	"buf != NULL\000"
 176      213D204E 
 176      554C4C00 
 177              		.section	.text.netconn_recv_data,"ax",%progbits
 178              		.align	1
 179              		.syntax unified
 180              		.thumb
 181              		.thumb_func
 182              		.fpu fpv5-sp-d16
 184              	netconn_recv_data:
 185              	.LVL11:
 186              	.LFB174:
 477:Middlewares/Third_Party/LwIP/src/api/api_lib.c ****   void *buf = NULL;
 187              		.loc 1 477 1 view -0
 188              		.cfi_startproc
 189              		@ args = 0, pretend = 0, frame = 24
 190              		@ frame_needed = 0, uses_anonymous_args = 0
 477:Middlewares/Third_Party/LwIP/src/api/api_lib.c ****   void *buf = NULL;
 191              		.loc 1 477 1 is_stmt 0 view .LVU41
 192 0000 70B5     		push	{r4, r5, r6, lr}
 193              	.LCFI5:
 194              		.cfi_def_cfa_offset 16
 195              		.cfi_offset 4, -16
 196              		.cfi_offset 5, -12
 197              		.cfi_offset 6, -8
 198              		.cfi_offset 14, -4
 199 0002 86B0     		sub	sp, sp, #24
 200              	.LCFI6:
 201              		.cfi_def_cfa_offset 40
 478:Middlewares/Third_Party/LwIP/src/api/api_lib.c ****   u16_t len;
 202              		.loc 1 478 3 is_stmt 1 view .LVU42
 478:Middlewares/Third_Party/LwIP/src/api/api_lib.c ****   u16_t len;
 203              		.loc 1 478 9 is_stmt 0 view .LVU43
 204 0004 0023     		movs	r3, #0
 205 0006 0593     		str	r3, [sp, #20]
 479:Middlewares/Third_Party/LwIP/src/api/api_lib.c **** #if LWIP_TCP
 206              		.loc 1 479 3 is_stmt 1 view .LVU44
 481:Middlewares/Third_Party/LwIP/src/api/api_lib.c **** #if LWIP_MPU_COMPATIBLE
 207              		.loc 1 481 3 view .LVU45
 487:Middlewares/Third_Party/LwIP/src/api/api_lib.c ****   *new_buf = NULL;
 208              		.loc 1 487 3 view .LVU46
 487:Middlewares/Third_Party/LwIP/src/api/api_lib.c ****   *new_buf = NULL;
 209              		.loc 1 487 3 view .LVU47
 210 0008 B1B1     		cbz	r1, .L31
 211 000a 0446     		mov	r4, r0
 212 000c 0D46     		mov	r5, r1
 487:Middlewares/Third_Party/LwIP/src/api/api_lib.c ****   *new_buf = NULL;
 213              		.loc 1 487 3 discriminator 2 view .LVU48
 487:Middlewares/Third_Party/LwIP/src/api/api_lib.c ****   *new_buf = NULL;
 214              		.loc 1 487 3 discriminator 2 view .LVU49
 488:Middlewares/Third_Party/LwIP/src/api/api_lib.c ****   LWIP_ERROR("netconn_recv: invalid conn",    (conn != NULL),    return ERR_ARG;);
 215              		.loc 1 488 3 discriminator 2 view .LVU50
ARM GAS  C:\Users\Nina\AppData\Local\Temp\ccYqiCSe.s 			page 20


 488:Middlewares/Third_Party/LwIP/src/api/api_lib.c ****   LWIP_ERROR("netconn_recv: invalid conn",    (conn != NULL),    return ERR_ARG;);
 216              		.loc 1 488 12 is_stmt 0 discriminator 2 view .LVU51
 217 000e 0023     		movs	r3, #0
 218 0010 0B60     		str	r3, [r1]
 489:Middlewares/Third_Party/LwIP/src/api/api_lib.c **** #if LWIP_TCP
 219              		.loc 1 489 3 is_stmt 1 discriminator 2 view .LVU52
 489:Middlewares/Third_Party/LwIP/src/api/api_lib.c **** #if LWIP_TCP
 220              		.loc 1 489 3 discriminator 2 view .LVU53
 221 0012 D8B1     		cbz	r0, .L32
 489:Middlewares/Third_Party/LwIP/src/api/api_lib.c **** #if LWIP_TCP
 222              		.loc 1 489 3 discriminator 2 view .LVU54
 489:Middlewares/Third_Party/LwIP/src/api/api_lib.c **** #if LWIP_TCP
 223              		.loc 1 489 3 discriminator 2 view .LVU55
 492:Middlewares/Third_Party/LwIP/src/api/api_lib.c **** #endif /* (LWIP_UDP || LWIP_RAW) */
 224              		.loc 1 492 3 discriminator 2 view .LVU56
 492:Middlewares/Third_Party/LwIP/src/api/api_lib.c **** #endif /* (LWIP_UDP || LWIP_RAW) */
 225              		.loc 1 492 7 is_stmt 0 discriminator 2 view .LVU57
 226 0014 0378     		ldrb	r3, [r0]	@ zero_extendqisi2
 492:Middlewares/Third_Party/LwIP/src/api/api_lib.c **** #endif /* (LWIP_UDP || LWIP_RAW) */
 227              		.loc 1 492 6 discriminator 2 view .LVU58
 228 0016 03F0F003 		and	r3, r3, #240
 229 001a 102B     		cmp	r3, #16
 230 001c 20D0     		beq	.L33
 231              	.LVL12:
 232              	.L16:
 501:Middlewares/Third_Party/LwIP/src/api/api_lib.c **** 
 233              		.loc 1 501 3 is_stmt 1 view .LVU59
 501:Middlewares/Third_Party/LwIP/src/api/api_lib.c **** 
 234              		.loc 1 501 3 view .LVU60
 235 001e 04F11006 		add	r6, r4, #16
 236 0022 3046     		mov	r0, r6
 237 0024 FFF7FEFF 		bl	sys_mbox_valid
 238              	.LVL13:
 239 0028 50B3     		cbz	r0, .L34
 501:Middlewares/Third_Party/LwIP/src/api/api_lib.c **** 
 240              		.loc 1 501 3 discriminator 2 view .LVU61
 501:Middlewares/Third_Party/LwIP/src/api/api_lib.c **** 
 241              		.loc 1 501 3 discriminator 2 view .LVU62
 503:Middlewares/Third_Party/LwIP/src/api/api_lib.c ****     /* don't recv on fatal errors: this might block the application task
 242              		.loc 1 503 3 discriminator 2 view .LVU63
 503:Middlewares/Third_Party/LwIP/src/api/api_lib.c ****     /* don't recv on fatal errors: this might block the application task
 243              		.loc 1 503 7 is_stmt 0 discriminator 2 view .LVU64
 244 002a 94F90800 		ldrsb	r0, [r4, #8]
 503:Middlewares/Third_Party/LwIP/src/api/api_lib.c ****     /* don't recv on fatal errors: this might block the application task
 245              		.loc 1 503 6 discriminator 2 view .LVU65
 246 002e 10F10C0F 		cmn	r0, #12
 247 0032 2FDA     		bge	.L35
 248              	.LVL14:
 249              	.L14:
 590:Middlewares/Third_Party/LwIP/src/api/api_lib.c **** 
 250              		.loc 1 590 1 view .LVU66
 251 0034 06B0     		add	sp, sp, #24
 252              	.LCFI7:
 253              		.cfi_remember_state
 254              		.cfi_def_cfa_offset 16
 255              		@ sp needed
 256 0036 70BD     		pop	{r4, r5, r6, pc}
ARM GAS  C:\Users\Nina\AppData\Local\Temp\ccYqiCSe.s 			page 21


 257              	.LVL15:
 258              	.L31:
 259              	.LCFI8:
 260              		.cfi_restore_state
 487:Middlewares/Third_Party/LwIP/src/api/api_lib.c ****   *new_buf = NULL;
 261              		.loc 1 487 3 is_stmt 1 discriminator 1 view .LVU67
 487:Middlewares/Third_Party/LwIP/src/api/api_lib.c ****   *new_buf = NULL;
 262              		.loc 1 487 3 discriminator 1 view .LVU68
 263 0038 3A4B     		ldr	r3, .L39
 264 003a 40F2E712 		movw	r2, #487
 265 003e 3A49     		ldr	r1, .L39+4
 266              	.LVL16:
 487:Middlewares/Third_Party/LwIP/src/api/api_lib.c ****   *new_buf = NULL;
 267              		.loc 1 487 3 is_stmt 0 discriminator 1 view .LVU69
 268 0040 3A48     		ldr	r0, .L39+8
 269              	.LVL17:
 487:Middlewares/Third_Party/LwIP/src/api/api_lib.c ****   *new_buf = NULL;
 270              		.loc 1 487 3 discriminator 1 view .LVU70
 271 0042 FFF7FEFF 		bl	printf
 272              	.LVL18:
 487:Middlewares/Third_Party/LwIP/src/api/api_lib.c ****   *new_buf = NULL;
 273              		.loc 1 487 3 is_stmt 1 discriminator 1 view .LVU71
 487:Middlewares/Third_Party/LwIP/src/api/api_lib.c ****   *new_buf = NULL;
 274              		.loc 1 487 3 discriminator 1 view .LVU72
 275 0046 6FF00F00 		mvn	r0, #15
 276 004a F3E7     		b	.L14
 277              	.LVL19:
 278              	.L32:
 489:Middlewares/Third_Party/LwIP/src/api/api_lib.c **** #if LWIP_TCP
 279              		.loc 1 489 3 discriminator 1 view .LVU73
 489:Middlewares/Third_Party/LwIP/src/api/api_lib.c **** #if LWIP_TCP
 280              		.loc 1 489 3 discriminator 1 view .LVU74
 281 004c 354B     		ldr	r3, .L39
 282 004e 40F2E912 		movw	r2, #489
 283 0052 3749     		ldr	r1, .L39+12
 284              	.LVL20:
 489:Middlewares/Third_Party/LwIP/src/api/api_lib.c **** #if LWIP_TCP
 285              		.loc 1 489 3 is_stmt 0 discriminator 1 view .LVU75
 286 0054 3548     		ldr	r0, .L39+8
 287              	.LVL21:
 489:Middlewares/Third_Party/LwIP/src/api/api_lib.c **** #if LWIP_TCP
 288              		.loc 1 489 3 discriminator 1 view .LVU76
 289 0056 FFF7FEFF 		bl	printf
 290              	.LVL22:
 489:Middlewares/Third_Party/LwIP/src/api/api_lib.c **** #if LWIP_TCP
 291              		.loc 1 489 3 is_stmt 1 discriminator 1 view .LVU77
 489:Middlewares/Third_Party/LwIP/src/api/api_lib.c **** #if LWIP_TCP
 292              		.loc 1 489 3 discriminator 1 view .LVU78
 293 005a 6FF00F00 		mvn	r0, #15
 294 005e E9E7     		b	.L14
 295              	.LVL23:
 296              	.L33:
 495:Middlewares/Third_Party/LwIP/src/api/api_lib.c ****       /* This happens when calling this function after receiving FIN */
 297              		.loc 1 495 5 view .LVU79
 495:Middlewares/Third_Party/LwIP/src/api/api_lib.c ****       /* This happens when calling this function after receiving FIN */
 298              		.loc 1 495 10 is_stmt 0 view .LVU80
 299 0060 1030     		adds	r0, r0, #16
ARM GAS  C:\Users\Nina\AppData\Local\Temp\ccYqiCSe.s 			page 22


 300              	.LVL24:
 495:Middlewares/Third_Party/LwIP/src/api/api_lib.c ****       /* This happens when calling this function after receiving FIN */
 301              		.loc 1 495 10 view .LVU81
 302 0062 FFF7FEFF 		bl	sys_mbox_valid
 303              	.LVL25:
 495:Middlewares/Third_Party/LwIP/src/api/api_lib.c ****       /* This happens when calling this function after receiving FIN */
 304              		.loc 1 495 8 view .LVU82
 305 0066 0028     		cmp	r0, #0
 306 0068 D9D1     		bne	.L16
 497:Middlewares/Third_Party/LwIP/src/api/api_lib.c ****     }
 307              		.loc 1 497 7 is_stmt 1 view .LVU83
 497:Middlewares/Third_Party/LwIP/src/api/api_lib.c ****     }
 308              		.loc 1 497 14 is_stmt 0 view .LVU84
 309 006a 04F11400 		add	r0, r4, #20
 310 006e FFF7FEFF 		bl	sys_mbox_valid
 311              	.LVL26:
 497:Middlewares/Third_Party/LwIP/src/api/api_lib.c ****     }
 312              		.loc 1 497 59 view .LVU85
 313 0072 10B1     		cbz	r0, .L29
 314 0074 6FF00A00 		mvn	r0, #10
 315 0078 DCE7     		b	.L14
 316              	.L29:
 317 007a 6FF00E00 		mvn	r0, #14
 318 007e D9E7     		b	.L14
 319              	.L34:
 501:Middlewares/Third_Party/LwIP/src/api/api_lib.c **** 
 320              		.loc 1 501 3 is_stmt 1 discriminator 1 view .LVU86
 501:Middlewares/Third_Party/LwIP/src/api/api_lib.c **** 
 321              		.loc 1 501 3 discriminator 1 view .LVU87
 322 0080 284B     		ldr	r3, .L39
 323 0082 40F2F512 		movw	r2, #501
 324 0086 2B49     		ldr	r1, .L39+16
 325 0088 2848     		ldr	r0, .L39+8
 326 008a FFF7FEFF 		bl	printf
 327              	.LVL27:
 501:Middlewares/Third_Party/LwIP/src/api/api_lib.c **** 
 328              		.loc 1 501 3 discriminator 1 view .LVU88
 501:Middlewares/Third_Party/LwIP/src/api/api_lib.c **** 
 329              		.loc 1 501 3 discriminator 1 view .LVU89
 330 008e 6FF00A00 		mvn	r0, #10
 331 0092 CFE7     		b	.L14
 332              	.L35:
 512:Middlewares/Third_Party/LwIP/src/api/api_lib.c **** #endif /* (LWIP_UDP || LWIP_RAW) */
 333              		.loc 1 512 3 view .LVU90
 515:Middlewares/Third_Party/LwIP/src/api/api_lib.c ****   }
 334              		.loc 1 515 27 view .LVU91
 532:Middlewares/Third_Party/LwIP/src/api/api_lib.c **** #endif /* LWIP_SO_RCVTIMEO*/
 335              		.loc 1 532 3 view .LVU92
 336 0094 0022     		movs	r2, #0
 337 0096 05A9     		add	r1, sp, #20
 338 0098 3046     		mov	r0, r6
 339 009a FFF7FEFF 		bl	sys_arch_mbox_fetch
 340              	.LVL28:
 537:Middlewares/Third_Party/LwIP/src/api/api_lib.c **** #endif /* (LWIP_UDP || LWIP_RAW) */
 341              		.loc 1 537 3 view .LVU93
 537:Middlewares/Third_Party/LwIP/src/api/api_lib.c **** #endif /* (LWIP_UDP || LWIP_RAW) */
 342              		.loc 1 537 7 is_stmt 0 view .LVU94
ARM GAS  C:\Users\Nina\AppData\Local\Temp\ccYqiCSe.s 			page 23


 343 009e 2378     		ldrb	r3, [r4]	@ zero_extendqisi2
 537:Middlewares/Third_Party/LwIP/src/api/api_lib.c **** #endif /* (LWIP_UDP || LWIP_RAW) */
 344              		.loc 1 537 6 view .LVU95
 345 00a0 03F0F003 		and	r3, r3, #240
 346 00a4 102B     		cmp	r3, #16
 347 00a6 0ED0     		beq	.L36
 574:Middlewares/Third_Party/LwIP/src/api/api_lib.c ****     len = netbuf_len((struct netbuf*)buf);
 348              		.loc 1 574 5 is_stmt 1 view .LVU96
 574:Middlewares/Third_Party/LwIP/src/api/api_lib.c ****     len = netbuf_len((struct netbuf*)buf);
 349              		.loc 1 574 5 view .LVU97
 350 00a8 059B     		ldr	r3, [sp, #20]
 351 00aa 002B     		cmp	r3, #0
 352 00ac 31D0     		beq	.L37
 353              	.L27:
 574:Middlewares/Third_Party/LwIP/src/api/api_lib.c ****     len = netbuf_len((struct netbuf*)buf);
 354              		.loc 1 574 5 discriminator 3 view .LVU98
 574:Middlewares/Third_Party/LwIP/src/api/api_lib.c ****     len = netbuf_len((struct netbuf*)buf);
 355              		.loc 1 574 5 discriminator 3 view .LVU99
 575:Middlewares/Third_Party/LwIP/src/api/api_lib.c ****   }
 356              		.loc 1 575 5 discriminator 3 view .LVU100
 575:Middlewares/Third_Party/LwIP/src/api/api_lib.c ****   }
 357              		.loc 1 575 11 is_stmt 0 discriminator 3 view .LVU101
 358 00ae 059B     		ldr	r3, [sp, #20]
 359 00b0 1B68     		ldr	r3, [r3]
 575:Middlewares/Third_Party/LwIP/src/api/api_lib.c ****   }
 360              		.loc 1 575 9 discriminator 3 view .LVU102
 361 00b2 1A89     		ldrh	r2, [r3, #8]
 362              	.LVL29:
 363              	.L26:
 583:Middlewares/Third_Party/LwIP/src/api/api_lib.c **** 
 364              		.loc 1 583 3 is_stmt 1 view .LVU103
 365 00b4 A36A     		ldr	r3, [r4, #40]
 366 00b6 13B1     		cbz	r3, .L28
 583:Middlewares/Third_Party/LwIP/src/api/api_lib.c **** 
 367              		.loc 1 583 3 discriminator 1 view .LVU104
 368 00b8 0121     		movs	r1, #1
 369 00ba 2046     		mov	r0, r4
 370 00bc 9847     		blx	r3
 371              	.LVL30:
 372              	.L28:
 583:Middlewares/Third_Party/LwIP/src/api/api_lib.c **** 
 373              		.loc 1 583 45 discriminator 3 view .LVU105
 585:Middlewares/Third_Party/LwIP/src/api/api_lib.c **** 
 374              		.loc 1 585 91 discriminator 3 view .LVU106
 587:Middlewares/Third_Party/LwIP/src/api/api_lib.c ****   /* don't set conn->last_err: it's only ERR_OK, anyway */
 375              		.loc 1 587 3 discriminator 3 view .LVU107
 587:Middlewares/Third_Party/LwIP/src/api/api_lib.c ****   /* don't set conn->last_err: it's only ERR_OK, anyway */
 376              		.loc 1 587 12 is_stmt 0 discriminator 3 view .LVU108
 377 00be 059B     		ldr	r3, [sp, #20]
 378 00c0 2B60     		str	r3, [r5]
 589:Middlewares/Third_Party/LwIP/src/api/api_lib.c **** }
 379              		.loc 1 589 3 is_stmt 1 discriminator 3 view .LVU109
 589:Middlewares/Third_Party/LwIP/src/api/api_lib.c **** }
 380              		.loc 1 589 10 is_stmt 0 discriminator 3 view .LVU110
 381 00c2 0020     		movs	r0, #0
 382 00c4 B6E7     		b	.L14
 383              	.L36:
ARM GAS  C:\Users\Nina\AppData\Local\Temp\ccYqiCSe.s 			page 24


 543:Middlewares/Third_Party/LwIP/src/api/api_lib.c ****     if (buf != NULL) {
 384              		.loc 1 543 5 is_stmt 1 view .LVU111
 543:Middlewares/Third_Party/LwIP/src/api/api_lib.c ****     if (buf != NULL) {
 385              		.loc 1 543 31 is_stmt 0 view .LVU112
 386 00c6 0094     		str	r4, [sp]
 544:Middlewares/Third_Party/LwIP/src/api/api_lib.c ****       API_MSG_VAR_REF(msg).msg.r.len = ((struct pbuf *)buf)->tot_len;
 387              		.loc 1 544 5 is_stmt 1 view .LVU113
 544:Middlewares/Third_Party/LwIP/src/api/api_lib.c ****       API_MSG_VAR_REF(msg).msg.r.len = ((struct pbuf *)buf)->tot_len;
 388              		.loc 1 544 13 is_stmt 0 view .LVU114
 389 00c8 059B     		ldr	r3, [sp, #20]
 544:Middlewares/Third_Party/LwIP/src/api/api_lib.c ****       API_MSG_VAR_REF(msg).msg.r.len = ((struct pbuf *)buf)->tot_len;
 390              		.loc 1 544 8 view .LVU115
 391 00ca 4BB1     		cbz	r3, .L20
 545:Middlewares/Third_Party/LwIP/src/api/api_lib.c ****     } else {
 392              		.loc 1 545 7 is_stmt 1 view .LVU116
 545:Middlewares/Third_Party/LwIP/src/api/api_lib.c ****     } else {
 393              		.loc 1 545 60 is_stmt 0 view .LVU117
 394 00cc 1B89     		ldrh	r3, [r3, #8]
 545:Middlewares/Third_Party/LwIP/src/api/api_lib.c ****     } else {
 395              		.loc 1 545 38 view .LVU118
 396 00ce 0293     		str	r3, [sp, #8]
 397              	.L21:
 551:Middlewares/Third_Party/LwIP/src/api/api_lib.c ****     API_MSG_VAR_FREE(msg);
 398              		.loc 1 551 5 is_stmt 1 view .LVU119
 399 00d0 6946     		mov	r1, sp
 400 00d2 1948     		ldr	r0, .L39+20
 401 00d4 FFF7FEFF 		bl	netconn_apimsg
 402              	.LVL31:
 552:Middlewares/Third_Party/LwIP/src/api/api_lib.c **** 
 403              		.loc 1 552 26 view .LVU120
 555:Middlewares/Third_Party/LwIP/src/api/api_lib.c ****       API_EVENT(conn, NETCONN_EVT_RCVMINUS, 0);
 404              		.loc 1 555 5 view .LVU121
 555:Middlewares/Third_Party/LwIP/src/api/api_lib.c ****       API_EVENT(conn, NETCONN_EVT_RCVMINUS, 0);
 405              		.loc 1 555 13 is_stmt 0 view .LVU122
 406 00d8 059B     		ldr	r3, [sp, #20]
 555:Middlewares/Third_Party/LwIP/src/api/api_lib.c ****       API_EVENT(conn, NETCONN_EVT_RCVMINUS, 0);
 407              		.loc 1 555 8 view .LVU123
 408 00da 23B1     		cbz	r3, .L38
 566:Middlewares/Third_Party/LwIP/src/api/api_lib.c ****   }
 409              		.loc 1 566 5 is_stmt 1 view .LVU124
 566:Middlewares/Third_Party/LwIP/src/api/api_lib.c ****   }
 410              		.loc 1 566 9 is_stmt 0 view .LVU125
 411 00dc 1A89     		ldrh	r2, [r3, #8]
 412              	.LVL32:
 566:Middlewares/Third_Party/LwIP/src/api/api_lib.c ****   }
 413              		.loc 1 566 9 view .LVU126
 414 00de E9E7     		b	.L26
 415              	.LVL33:
 416              	.L20:
 547:Middlewares/Third_Party/LwIP/src/api/api_lib.c ****     }
 417              		.loc 1 547 7 is_stmt 1 view .LVU127
 547:Middlewares/Third_Party/LwIP/src/api/api_lib.c ****     }
 418              		.loc 1 547 38 is_stmt 0 view .LVU128
 419 00e0 0123     		movs	r3, #1
 420 00e2 0293     		str	r3, [sp, #8]
 421 00e4 F4E7     		b	.L21
 422              	.L38:
ARM GAS  C:\Users\Nina\AppData\Local\Temp\ccYqiCSe.s 			page 25


 556:Middlewares/Third_Party/LwIP/src/api/api_lib.c ****       if (conn->pcb.ip == NULL) {
 423              		.loc 1 556 7 is_stmt 1 view .LVU129
 424 00e6 A36A     		ldr	r3, [r4, #40]
 425 00e8 1BB1     		cbz	r3, .L23
 556:Middlewares/Third_Party/LwIP/src/api/api_lib.c ****       if (conn->pcb.ip == NULL) {
 426              		.loc 1 556 7 discriminator 1 view .LVU130
 427 00ea 0022     		movs	r2, #0
 428 00ec 0121     		movs	r1, #1
 429 00ee 2046     		mov	r0, r4
 430 00f0 9847     		blx	r3
 431              	.LVL34:
 432              	.L23:
 556:Middlewares/Third_Party/LwIP/src/api/api_lib.c ****       if (conn->pcb.ip == NULL) {
 433              		.loc 1 556 47 discriminator 3 view .LVU131
 557:Middlewares/Third_Party/LwIP/src/api/api_lib.c ****         /* race condition: RST during recv */
 434              		.loc 1 557 7 discriminator 3 view .LVU132
 557:Middlewares/Third_Party/LwIP/src/api/api_lib.c ****         /* race condition: RST during recv */
 435              		.loc 1 557 20 is_stmt 0 discriminator 3 view .LVU133
 436 00f2 6368     		ldr	r3, [r4, #4]
 557:Middlewares/Third_Party/LwIP/src/api/api_lib.c ****         /* race condition: RST during recv */
 437              		.loc 1 557 10 discriminator 3 view .LVU134
 438 00f4 33B9     		cbnz	r3, .L24
 559:Middlewares/Third_Party/LwIP/src/api/api_lib.c ****       }
 439              		.loc 1 559 9 is_stmt 1 view .LVU135
 559:Middlewares/Third_Party/LwIP/src/api/api_lib.c ****       }
 440              		.loc 1 559 20 is_stmt 0 view .LVU136
 441 00f6 94F90800 		ldrsb	r0, [r4, #8]
 559:Middlewares/Third_Party/LwIP/src/api/api_lib.c ****       }
 442              		.loc 1 559 51 view .LVU137
 443 00fa 0028     		cmp	r0, #0
 444 00fc 9AD1     		bne	.L14
 445 00fe 6FF00D00 		mvn	r0, #13
 446 0102 97E7     		b	.L14
 447              	.L24:
 562:Middlewares/Third_Party/LwIP/src/api/api_lib.c ****       /* Don' store ERR_CLSD as conn->err since we are only half-closed */
 448              		.loc 1 562 7 is_stmt 1 view .LVU138
 449 0104 0121     		movs	r1, #1
 450 0106 2046     		mov	r0, r4
 451 0108 FFF7FEFF 		bl	netconn_close_shutdown
 452              	.LVL35:
 564:Middlewares/Third_Party/LwIP/src/api/api_lib.c ****     }
 453              		.loc 1 564 7 view .LVU139
 564:Middlewares/Third_Party/LwIP/src/api/api_lib.c ****     }
 454              		.loc 1 564 14 is_stmt 0 view .LVU140
 455 010c 6FF00E00 		mvn	r0, #14
 456 0110 90E7     		b	.L14
 457              	.L37:
 574:Middlewares/Third_Party/LwIP/src/api/api_lib.c ****     len = netbuf_len((struct netbuf*)buf);
 458              		.loc 1 574 5 is_stmt 1 discriminator 1 view .LVU141
 574:Middlewares/Third_Party/LwIP/src/api/api_lib.c ****     len = netbuf_len((struct netbuf*)buf);
 459              		.loc 1 574 5 discriminator 1 view .LVU142
 460 0112 044B     		ldr	r3, .L39
 461 0114 40F23E22 		movw	r2, #574
 462 0118 0849     		ldr	r1, .L39+24
 463 011a 0448     		ldr	r0, .L39+8
 464 011c FFF7FEFF 		bl	printf
 465              	.LVL36:
ARM GAS  C:\Users\Nina\AppData\Local\Temp\ccYqiCSe.s 			page 26


 466 0120 C5E7     		b	.L27
 467              	.L40:
 468 0122 00BF     		.align	2
 469              	.L39:
 470 0124 00000000 		.word	.LC0
 471 0128 00000000 		.word	.LC3
 472 012c 4C000000 		.word	.LC2
 473 0130 20000000 		.word	.LC4
 474 0134 3C000000 		.word	.LC5
 475 0138 00000000 		.word	lwip_netconn_do_recv
 476 013c 5C000000 		.word	.LC6
 477              		.cfi_endproc
 478              	.LFE174:
 480              		.section	.rodata.netconn_new_with_proto_and_callback.str1.4,"aMS",%progbits,1
 481              		.align	2
 482              	.LC7:
 483 0000 66726565 		.ascii	"freeing conn without freeing pcb\000"
 483      696E6720 
 483      636F6E6E 
 483      20776974 
 483      686F7574 
 484 0021 000000   		.align	2
 485              	.LC8:
 486 0024 636F6E6E 		.ascii	"conn has no recvmbox\000"
 486      20686173 
 486      206E6F20 
 486      72656376 
 486      6D626F78 
 487 0039 000000   		.align	2
 488              	.LC9:
 489 003c 636F6E6E 		.ascii	"conn->acceptmbox shouldn't exist\000"
 489      2D3E6163 
 489      63657074 
 489      6D626F78 
 489      2073686F 
 490 005d 000000   		.align	2
 491              	.LC10:
 492 0060 636F6E6E 		.ascii	"conn has no op_completed\000"
 492      20686173 
 492      206E6F20 
 492      6F705F63 
 492      6F6D706C 
 493              		.section	.text.netconn_new_with_proto_and_callback,"ax",%progbits
 494              		.align	1
 495              		.global	netconn_new_with_proto_and_callback
 496              		.syntax unified
 497              		.thumb
 498              		.thumb_func
 499              		.fpu fpv5-sp-d16
 501              	netconn_new_with_proto_and_callback:
 502              	.LVL37:
 503              	.LFB166:
 124:Middlewares/Third_Party/LwIP/src/api/api_lib.c ****   struct netconn *conn;
 504              		.loc 1 124 1 view -0
 505              		.cfi_startproc
 506              		@ args = 0, pretend = 0, frame = 24
 507              		@ frame_needed = 0, uses_anonymous_args = 0
ARM GAS  C:\Users\Nina\AppData\Local\Temp\ccYqiCSe.s 			page 27


 124:Middlewares/Third_Party/LwIP/src/api/api_lib.c ****   struct netconn *conn;
 508              		.loc 1 124 1 is_stmt 0 view .LVU144
 509 0000 70B5     		push	{r4, r5, r6, lr}
 510              	.LCFI9:
 511              		.cfi_def_cfa_offset 16
 512              		.cfi_offset 4, -16
 513              		.cfi_offset 5, -12
 514              		.cfi_offset 6, -8
 515              		.cfi_offset 14, -4
 516 0002 86B0     		sub	sp, sp, #24
 517              	.LCFI10:
 518              		.cfi_def_cfa_offset 40
 519 0004 0C46     		mov	r4, r1
 125:Middlewares/Third_Party/LwIP/src/api/api_lib.c ****   API_MSG_VAR_DECLARE(msg);
 520              		.loc 1 125 3 is_stmt 1 view .LVU145
 126:Middlewares/Third_Party/LwIP/src/api/api_lib.c ****   API_MSG_VAR_ALLOC_RETURN_NULL(msg);
 521              		.loc 1 126 3 view .LVU146
 127:Middlewares/Third_Party/LwIP/src/api/api_lib.c **** 
 522              		.loc 1 127 37 view .LVU147
 129:Middlewares/Third_Party/LwIP/src/api/api_lib.c ****   if (conn != NULL) {
 523              		.loc 1 129 3 view .LVU148
 129:Middlewares/Third_Party/LwIP/src/api/api_lib.c ****   if (conn != NULL) {
 524              		.loc 1 129 10 is_stmt 0 view .LVU149
 525 0006 1146     		mov	r1, r2
 526              	.LVL38:
 129:Middlewares/Third_Party/LwIP/src/api/api_lib.c ****   if (conn != NULL) {
 527              		.loc 1 129 10 view .LVU150
 528 0008 FFF7FEFF 		bl	netconn_alloc
 529              	.LVL39:
 130:Middlewares/Third_Party/LwIP/src/api/api_lib.c ****     err_t err;
 530              		.loc 1 130 3 is_stmt 1 view .LVU151
 130:Middlewares/Third_Party/LwIP/src/api/api_lib.c ****     err_t err;
 531              		.loc 1 130 6 is_stmt 0 view .LVU152
 532 000c 0546     		mov	r5, r0
 533 000e 38B1     		cbz	r0, .L41
 534              	.LBB2:
 131:Middlewares/Third_Party/LwIP/src/api/api_lib.c **** 
 535              		.loc 1 131 5 is_stmt 1 view .LVU153
 133:Middlewares/Third_Party/LwIP/src/api/api_lib.c ****     API_MSG_VAR_REF(msg).conn = conn;
 536              		.loc 1 133 5 view .LVU154
 133:Middlewares/Third_Party/LwIP/src/api/api_lib.c ****     API_MSG_VAR_REF(msg).conn = conn;
 537              		.loc 1 133 38 is_stmt 0 view .LVU155
 538 0010 8DF80C40 		strb	r4, [sp, #12]
 134:Middlewares/Third_Party/LwIP/src/api/api_lib.c ****     err = netconn_apimsg(lwip_netconn_do_newconn, &API_MSG_VAR_REF(msg));
 539              		.loc 1 134 5 is_stmt 1 view .LVU156
 134:Middlewares/Third_Party/LwIP/src/api/api_lib.c ****     err = netconn_apimsg(lwip_netconn_do_newconn, &API_MSG_VAR_REF(msg));
 540              		.loc 1 134 31 is_stmt 0 view .LVU157
 541 0014 0190     		str	r0, [sp, #4]
 135:Middlewares/Third_Party/LwIP/src/api/api_lib.c ****     if (err != ERR_OK) {
 542              		.loc 1 135 5 is_stmt 1 view .LVU158
 135:Middlewares/Third_Party/LwIP/src/api/api_lib.c ****     if (err != ERR_OK) {
 543              		.loc 1 135 11 is_stmt 0 view .LVU159
 544 0016 01A9     		add	r1, sp, #4
 545 0018 2048     		ldr	r0, .L52
 546              	.LVL40:
 135:Middlewares/Third_Party/LwIP/src/api/api_lib.c ****     if (err != ERR_OK) {
 547              		.loc 1 135 11 view .LVU160
ARM GAS  C:\Users\Nina\AppData\Local\Temp\ccYqiCSe.s 			page 28


 548 001a FFF7FEFF 		bl	netconn_apimsg
 549              	.LVL41:
 136:Middlewares/Third_Party/LwIP/src/api/api_lib.c ****       LWIP_ASSERT("freeing conn without freeing pcb", conn->pcb.tcp == NULL);
 550              		.loc 1 136 5 is_stmt 1 view .LVU161
 136:Middlewares/Third_Party/LwIP/src/api/api_lib.c ****       LWIP_ASSERT("freeing conn without freeing pcb", conn->pcb.tcp == NULL);
 551              		.loc 1 136 8 is_stmt 0 view .LVU162
 552 001e 10B9     		cbnz	r0, .L48
 553              	.LVL42:
 554              	.L41:
 136:Middlewares/Third_Party/LwIP/src/api/api_lib.c ****       LWIP_ASSERT("freeing conn without freeing pcb", conn->pcb.tcp == NULL);
 555              		.loc 1 136 8 view .LVU163
 556              	.LBE2:
 154:Middlewares/Third_Party/LwIP/src/api/api_lib.c **** 
 557              		.loc 1 154 1 view .LVU164
 558 0020 2846     		mov	r0, r5
 559 0022 06B0     		add	sp, sp, #24
 560              	.LCFI11:
 561              		.cfi_remember_state
 562              		.cfi_def_cfa_offset 16
 563              		@ sp needed
 564 0024 70BD     		pop	{r4, r5, r6, pc}
 565              	.LVL43:
 566              	.L48:
 567              	.LCFI12:
 568              		.cfi_restore_state
 569              	.LBB3:
 137:Middlewares/Third_Party/LwIP/src/api/api_lib.c ****       LWIP_ASSERT("conn has no recvmbox", sys_mbox_valid(&conn->recvmbox));
 570              		.loc 1 137 7 is_stmt 1 view .LVU165
 137:Middlewares/Third_Party/LwIP/src/api/api_lib.c ****       LWIP_ASSERT("conn has no recvmbox", sys_mbox_valid(&conn->recvmbox));
 571              		.loc 1 137 7 view .LVU166
 572 0026 6B68     		ldr	r3, [r5, #4]
 573 0028 2BB1     		cbz	r3, .L43
 137:Middlewares/Third_Party/LwIP/src/api/api_lib.c ****       LWIP_ASSERT("conn has no recvmbox", sys_mbox_valid(&conn->recvmbox));
 574              		.loc 1 137 7 discriminator 1 view .LVU167
 137:Middlewares/Third_Party/LwIP/src/api/api_lib.c ****       LWIP_ASSERT("conn has no recvmbox", sys_mbox_valid(&conn->recvmbox));
 575              		.loc 1 137 7 discriminator 1 view .LVU168
 576 002a 1D4B     		ldr	r3, .L52+4
 577 002c 8922     		movs	r2, #137
 578 002e 1D49     		ldr	r1, .L52+8
 579 0030 1D48     		ldr	r0, .L52+12
 580              	.LVL44:
 137:Middlewares/Third_Party/LwIP/src/api/api_lib.c ****       LWIP_ASSERT("conn has no recvmbox", sys_mbox_valid(&conn->recvmbox));
 581              		.loc 1 137 7 is_stmt 0 discriminator 1 view .LVU169
 582 0032 FFF7FEFF 		bl	printf
 583              	.LVL45:
 584              	.L43:
 137:Middlewares/Third_Party/LwIP/src/api/api_lib.c ****       LWIP_ASSERT("conn has no recvmbox", sys_mbox_valid(&conn->recvmbox));
 585              		.loc 1 137 7 is_stmt 1 discriminator 3 view .LVU170
 137:Middlewares/Third_Party/LwIP/src/api/api_lib.c ****       LWIP_ASSERT("conn has no recvmbox", sys_mbox_valid(&conn->recvmbox));
 586              		.loc 1 137 7 discriminator 3 view .LVU171
 138:Middlewares/Third_Party/LwIP/src/api/api_lib.c **** #if LWIP_TCP
 587              		.loc 1 138 7 discriminator 3 view .LVU172
 138:Middlewares/Third_Party/LwIP/src/api/api_lib.c **** #if LWIP_TCP
 588              		.loc 1 138 7 discriminator 3 view .LVU173
 589 0036 05F11004 		add	r4, r5, #16
 590 003a 2046     		mov	r0, r4
 591 003c FFF7FEFF 		bl	sys_mbox_valid
ARM GAS  C:\Users\Nina\AppData\Local\Temp\ccYqiCSe.s 			page 29


 592              	.LVL46:
 593 0040 B0B1     		cbz	r0, .L49
 594              	.L44:
 138:Middlewares/Third_Party/LwIP/src/api/api_lib.c **** #if LWIP_TCP
 595              		.loc 1 138 7 discriminator 3 view .LVU174
 138:Middlewares/Third_Party/LwIP/src/api/api_lib.c **** #if LWIP_TCP
 596              		.loc 1 138 7 discriminator 3 view .LVU175
 140:Middlewares/Third_Party/LwIP/src/api/api_lib.c **** #endif /* LWIP_TCP */
 597              		.loc 1 140 7 discriminator 3 view .LVU176
 140:Middlewares/Third_Party/LwIP/src/api/api_lib.c **** #endif /* LWIP_TCP */
 598              		.loc 1 140 7 discriminator 3 view .LVU177
 599 0042 05F11400 		add	r0, r5, #20
 600 0046 FFF7FEFF 		bl	sys_mbox_valid
 601              	.LVL47:
 602 004a C0B9     		cbnz	r0, .L50
 603              	.L45:
 140:Middlewares/Third_Party/LwIP/src/api/api_lib.c **** #endif /* LWIP_TCP */
 604              		.loc 1 140 7 discriminator 3 view .LVU178
 140:Middlewares/Third_Party/LwIP/src/api/api_lib.c **** #endif /* LWIP_TCP */
 605              		.loc 1 140 7 discriminator 3 view .LVU179
 143:Middlewares/Third_Party/LwIP/src/api/api_lib.c ****       sys_sem_free(&conn->op_completed);
 606              		.loc 1 143 7 discriminator 3 view .LVU180
 143:Middlewares/Third_Party/LwIP/src/api/api_lib.c ****       sys_sem_free(&conn->op_completed);
 607              		.loc 1 143 7 discriminator 3 view .LVU181
 608 004c 05F10C06 		add	r6, r5, #12
 609 0050 3046     		mov	r0, r6
 610 0052 FFF7FEFF 		bl	sys_sem_valid
 611              	.LVL48:
 612 0056 C8B1     		cbz	r0, .L51
 613              	.L46:
 143:Middlewares/Third_Party/LwIP/src/api/api_lib.c ****       sys_sem_free(&conn->op_completed);
 614              		.loc 1 143 7 discriminator 3 view .LVU182
 143:Middlewares/Third_Party/LwIP/src/api/api_lib.c ****       sys_sem_free(&conn->op_completed);
 615              		.loc 1 143 7 discriminator 3 view .LVU183
 144:Middlewares/Third_Party/LwIP/src/api/api_lib.c **** #endif /* !LWIP_NETCONN_SEM_PER_THREAD */
 616              		.loc 1 144 7 discriminator 3 view .LVU184
 617 0058 3046     		mov	r0, r6
 618 005a FFF7FEFF 		bl	sys_sem_free
 619              	.LVL49:
 146:Middlewares/Third_Party/LwIP/src/api/api_lib.c ****       memp_free(MEMP_NETCONN, conn);
 620              		.loc 1 146 7 discriminator 3 view .LVU185
 621 005e 2046     		mov	r0, r4
 622 0060 FFF7FEFF 		bl	sys_mbox_free
 623              	.LVL50:
 147:Middlewares/Third_Party/LwIP/src/api/api_lib.c ****       API_MSG_VAR_FREE(msg);
 624              		.loc 1 147 7 discriminator 3 view .LVU186
 625 0064 2946     		mov	r1, r5
 626 0066 0720     		movs	r0, #7
 627 0068 FFF7FEFF 		bl	memp_free
 628              	.LVL51:
 148:Middlewares/Third_Party/LwIP/src/api/api_lib.c ****       return NULL;
 629              		.loc 1 148 28 discriminator 3 view .LVU187
 149:Middlewares/Third_Party/LwIP/src/api/api_lib.c ****     }
 630              		.loc 1 149 7 discriminator 3 view .LVU188
 149:Middlewares/Third_Party/LwIP/src/api/api_lib.c ****     }
 631              		.loc 1 149 14 is_stmt 0 discriminator 3 view .LVU189
 632 006c 0025     		movs	r5, #0
ARM GAS  C:\Users\Nina\AppData\Local\Temp\ccYqiCSe.s 			page 30


 633              	.LVL52:
 149:Middlewares/Third_Party/LwIP/src/api/api_lib.c ****     }
 634              		.loc 1 149 14 discriminator 3 view .LVU190
 635 006e D7E7     		b	.L41
 636              	.LVL53:
 637              	.L49:
 138:Middlewares/Third_Party/LwIP/src/api/api_lib.c **** #if LWIP_TCP
 638              		.loc 1 138 7 is_stmt 1 discriminator 1 view .LVU191
 138:Middlewares/Third_Party/LwIP/src/api/api_lib.c **** #if LWIP_TCP
 639              		.loc 1 138 7 discriminator 1 view .LVU192
 640 0070 0B4B     		ldr	r3, .L52+4
 641 0072 8A22     		movs	r2, #138
 642 0074 0D49     		ldr	r1, .L52+16
 643 0076 0C48     		ldr	r0, .L52+12
 644 0078 FFF7FEFF 		bl	printf
 645              	.LVL54:
 646 007c E1E7     		b	.L44
 647              	.L50:
 140:Middlewares/Third_Party/LwIP/src/api/api_lib.c **** #endif /* LWIP_TCP */
 648              		.loc 1 140 7 discriminator 1 view .LVU193
 140:Middlewares/Third_Party/LwIP/src/api/api_lib.c **** #endif /* LWIP_TCP */
 649              		.loc 1 140 7 discriminator 1 view .LVU194
 650 007e 084B     		ldr	r3, .L52+4
 651 0080 8C22     		movs	r2, #140
 652 0082 0B49     		ldr	r1, .L52+20
 653 0084 0848     		ldr	r0, .L52+12
 654 0086 FFF7FEFF 		bl	printf
 655              	.LVL55:
 656 008a DFE7     		b	.L45
 657              	.L51:
 143:Middlewares/Third_Party/LwIP/src/api/api_lib.c ****       sys_sem_free(&conn->op_completed);
 658              		.loc 1 143 7 discriminator 1 view .LVU195
 143:Middlewares/Third_Party/LwIP/src/api/api_lib.c ****       sys_sem_free(&conn->op_completed);
 659              		.loc 1 143 7 discriminator 1 view .LVU196
 660 008c 044B     		ldr	r3, .L52+4
 661 008e 8F22     		movs	r2, #143
 662 0090 0849     		ldr	r1, .L52+24
 663 0092 0548     		ldr	r0, .L52+12
 664 0094 FFF7FEFF 		bl	printf
 665              	.LVL56:
 666 0098 DEE7     		b	.L46
 667              	.L53:
 668 009a 00BF     		.align	2
 669              	.L52:
 670 009c 00000000 		.word	lwip_netconn_do_newconn
 671 00a0 00000000 		.word	.LC0
 672 00a4 00000000 		.word	.LC7
 673 00a8 4C000000 		.word	.LC2
 674 00ac 24000000 		.word	.LC8
 675 00b0 3C000000 		.word	.LC9
 676 00b4 60000000 		.word	.LC10
 677              	.LBE3:
 678              		.cfi_endproc
 679              	.LFE166:
 681              		.section	.text.netconn_delete,"ax",%progbits
 682              		.align	1
 683              		.global	netconn_delete
ARM GAS  C:\Users\Nina\AppData\Local\Temp\ccYqiCSe.s 			page 31


 684              		.syntax unified
 685              		.thumb
 686              		.thumb_func
 687              		.fpu fpv5-sp-d16
 689              	netconn_delete:
 690              	.LVL57:
 691              	.LFB167:
 167:Middlewares/Third_Party/LwIP/src/api/api_lib.c ****   err_t err;
 692              		.loc 1 167 1 view -0
 693              		.cfi_startproc
 694              		@ args = 0, pretend = 0, frame = 24
 695              		@ frame_needed = 0, uses_anonymous_args = 0
 167:Middlewares/Third_Party/LwIP/src/api/api_lib.c ****   err_t err;
 696              		.loc 1 167 1 is_stmt 0 view .LVU198
 697 0000 30B5     		push	{r4, r5, lr}
 698              	.LCFI13:
 699              		.cfi_def_cfa_offset 12
 700              		.cfi_offset 4, -12
 701              		.cfi_offset 5, -8
 702              		.cfi_offset 14, -4
 703 0002 87B0     		sub	sp, sp, #28
 704              	.LCFI14:
 705              		.cfi_def_cfa_offset 40
 168:Middlewares/Third_Party/LwIP/src/api/api_lib.c ****   API_MSG_VAR_DECLARE(msg);
 706              		.loc 1 168 3 is_stmt 1 view .LVU199
 169:Middlewares/Third_Party/LwIP/src/api/api_lib.c **** 
 707              		.loc 1 169 3 view .LVU200
 172:Middlewares/Third_Party/LwIP/src/api/api_lib.c ****     return ERR_OK;
 708              		.loc 1 172 3 view .LVU201
 172:Middlewares/Third_Party/LwIP/src/api/api_lib.c ****     return ERR_OK;
 709              		.loc 1 172 6 is_stmt 0 view .LVU202
 710 0004 88B1     		cbz	r0, .L56
 711 0006 0446     		mov	r4, r0
 176:Middlewares/Third_Party/LwIP/src/api/api_lib.c ****   API_MSG_VAR_REF(msg).conn = conn;
 712              		.loc 1 176 25 is_stmt 1 view .LVU203
 177:Middlewares/Third_Party/LwIP/src/api/api_lib.c **** #if LWIP_SO_SNDTIMEO || LWIP_SO_LINGER
 713              		.loc 1 177 3 view .LVU204
 177:Middlewares/Third_Party/LwIP/src/api/api_lib.c **** #if LWIP_SO_SNDTIMEO || LWIP_SO_LINGER
 714              		.loc 1 177 29 is_stmt 0 view .LVU205
 715 0008 0190     		str	r0, [sp, #4]
 184:Middlewares/Third_Party/LwIP/src/api/api_lib.c ****     ((LWIP_TCP_CLOSE_TIMEOUT_MS_DEFAULT + TCP_SLOW_INTERVAL - 1) / TCP_SLOW_INTERVAL) + 1;
 716              		.loc 1 184 3 is_stmt 1 view .LVU206
 184:Middlewares/Third_Party/LwIP/src/api/api_lib.c ****     ((LWIP_TCP_CLOSE_TIMEOUT_MS_DEFAULT + TCP_SLOW_INTERVAL - 1) / TCP_SLOW_INTERVAL) + 1;
 717              		.loc 1 184 42 is_stmt 0 view .LVU207
 718 000a 2923     		movs	r3, #41
 719 000c 8DF80D30 		strb	r3, [sp, #13]
 188:Middlewares/Third_Party/LwIP/src/api/api_lib.c ****   API_MSG_VAR_FREE(msg);
 720              		.loc 1 188 3 is_stmt 1 view .LVU208
 188:Middlewares/Third_Party/LwIP/src/api/api_lib.c ****   API_MSG_VAR_FREE(msg);
 721              		.loc 1 188 9 is_stmt 0 view .LVU209
 722 0010 01A9     		add	r1, sp, #4
 723 0012 0748     		ldr	r0, .L59
 724              	.LVL58:
 188:Middlewares/Third_Party/LwIP/src/api/api_lib.c ****   API_MSG_VAR_FREE(msg);
 725              		.loc 1 188 9 view .LVU210
 726 0014 FFF7FEFF 		bl	netconn_apimsg
 727              	.LVL59:
ARM GAS  C:\Users\Nina\AppData\Local\Temp\ccYqiCSe.s 			page 32


 189:Middlewares/Third_Party/LwIP/src/api/api_lib.c **** 
 728              		.loc 1 189 24 is_stmt 1 view .LVU211
 191:Middlewares/Third_Party/LwIP/src/api/api_lib.c ****     return err;
 729              		.loc 1 191 3 view .LVU212
 191:Middlewares/Third_Party/LwIP/src/api/api_lib.c ****     return err;
 730              		.loc 1 191 6 is_stmt 0 view .LVU213
 731 0018 0546     		mov	r5, r0
 732 001a 10B1     		cbz	r0, .L58
 733              	.LVL60:
 734              	.L55:
 198:Middlewares/Third_Party/LwIP/src/api/api_lib.c **** 
 735              		.loc 1 198 1 view .LVU214
 736 001c 2846     		mov	r0, r5
 737 001e 07B0     		add	sp, sp, #28
 738              	.LCFI15:
 739              		.cfi_remember_state
 740              		.cfi_def_cfa_offset 12
 741              		@ sp needed
 742 0020 30BD     		pop	{r4, r5, pc}
 743              	.LVL61:
 744              	.L58:
 745              	.LCFI16:
 746              		.cfi_restore_state
 195:Middlewares/Third_Party/LwIP/src/api/api_lib.c **** 
 747              		.loc 1 195 3 is_stmt 1 view .LVU215
 748 0022 2046     		mov	r0, r4
 749              	.LVL62:
 195:Middlewares/Third_Party/LwIP/src/api/api_lib.c **** 
 750              		.loc 1 195 3 is_stmt 0 view .LVU216
 751 0024 FFF7FEFF 		bl	netconn_free
 752              	.LVL63:
 197:Middlewares/Third_Party/LwIP/src/api/api_lib.c **** }
 753              		.loc 1 197 3 is_stmt 1 view .LVU217
 197:Middlewares/Third_Party/LwIP/src/api/api_lib.c **** }
 754              		.loc 1 197 10 is_stmt 0 view .LVU218
 755 0028 F8E7     		b	.L55
 756              	.LVL64:
 757              	.L56:
 173:Middlewares/Third_Party/LwIP/src/api/api_lib.c ****   }
 758              		.loc 1 173 12 view .LVU219
 759 002a 0025     		movs	r5, #0
 760 002c F6E7     		b	.L55
 761              	.L60:
 762 002e 00BF     		.align	2
 763              	.L59:
 764 0030 00000000 		.word	lwip_netconn_do_delconn
 765              		.cfi_endproc
 766              	.LFE167:
 768              		.section	.rodata.netconn_getaddr.str1.4,"aMS",%progbits,1
 769              		.align	2
 770              	.LC11:
 771 0000 6E657463 		.ascii	"netconn_getaddr: invalid conn\000"
 771      6F6E6E5F 
 771      67657461 
 771      6464723A 
 771      20696E76 
 772 001e 0000     		.align	2
ARM GAS  C:\Users\Nina\AppData\Local\Temp\ccYqiCSe.s 			page 33


 773              	.LC12:
 774 0020 6E657463 		.ascii	"netconn_getaddr: invalid addr\000"
 774      6F6E6E5F 
 774      67657461 
 774      6464723A 
 774      20696E76 
 775 003e 0000     		.align	2
 776              	.LC13:
 777 0040 6E657463 		.ascii	"netconn_getaddr: invalid port\000"
 777      6F6E6E5F 
 777      67657461 
 777      6464723A 
 777      20696E76 
 778              		.section	.text.netconn_getaddr,"ax",%progbits
 779              		.align	1
 780              		.global	netconn_getaddr
 781              		.syntax unified
 782              		.thumb
 783              		.thumb_func
 784              		.fpu fpv5-sp-d16
 786              	netconn_getaddr:
 787              	.LVL65:
 788              	.LFB168:
 213:Middlewares/Third_Party/LwIP/src/api/api_lib.c ****   API_MSG_VAR_DECLARE(msg);
 789              		.loc 1 213 1 is_stmt 1 view -0
 790              		.cfi_startproc
 791              		@ args = 0, pretend = 0, frame = 24
 792              		@ frame_needed = 0, uses_anonymous_args = 0
 213:Middlewares/Third_Party/LwIP/src/api/api_lib.c ****   API_MSG_VAR_DECLARE(msg);
 793              		.loc 1 213 1 is_stmt 0 view .LVU221
 794 0000 10B5     		push	{r4, lr}
 795              	.LCFI17:
 796              		.cfi_def_cfa_offset 8
 797              		.cfi_offset 4, -8
 798              		.cfi_offset 14, -4
 799 0002 86B0     		sub	sp, sp, #24
 800              	.LCFI18:
 801              		.cfi_def_cfa_offset 32
 214:Middlewares/Third_Party/LwIP/src/api/api_lib.c ****   err_t err;
 802              		.loc 1 214 3 is_stmt 1 view .LVU222
 215:Middlewares/Third_Party/LwIP/src/api/api_lib.c **** 
 803              		.loc 1 215 3 view .LVU223
 217:Middlewares/Third_Party/LwIP/src/api/api_lib.c ****   LWIP_ERROR("netconn_getaddr: invalid addr", (addr != NULL), return ERR_ARG;);
 804              		.loc 1 217 3 view .LVU224
 217:Middlewares/Third_Party/LwIP/src/api/api_lib.c ****   LWIP_ERROR("netconn_getaddr: invalid addr", (addr != NULL), return ERR_ARG;);
 805              		.loc 1 217 3 view .LVU225
 806 0004 60B1     		cbz	r0, .L67
 217:Middlewares/Third_Party/LwIP/src/api/api_lib.c ****   LWIP_ERROR("netconn_getaddr: invalid addr", (addr != NULL), return ERR_ARG;);
 807              		.loc 1 217 3 discriminator 2 view .LVU226
 217:Middlewares/Third_Party/LwIP/src/api/api_lib.c ****   LWIP_ERROR("netconn_getaddr: invalid addr", (addr != NULL), return ERR_ARG;);
 808              		.loc 1 217 3 discriminator 2 view .LVU227
 218:Middlewares/Third_Party/LwIP/src/api/api_lib.c ****   LWIP_ERROR("netconn_getaddr: invalid port", (port != NULL), return ERR_ARG;);
 809              		.loc 1 218 3 discriminator 2 view .LVU228
 218:Middlewares/Third_Party/LwIP/src/api/api_lib.c ****   LWIP_ERROR("netconn_getaddr: invalid port", (port != NULL), return ERR_ARG;);
 810              		.loc 1 218 3 discriminator 2 view .LVU229
 811 0006 A1B1     		cbz	r1, .L68
 218:Middlewares/Third_Party/LwIP/src/api/api_lib.c ****   LWIP_ERROR("netconn_getaddr: invalid port", (port != NULL), return ERR_ARG;);
ARM GAS  C:\Users\Nina\AppData\Local\Temp\ccYqiCSe.s 			page 34


 812              		.loc 1 218 3 discriminator 2 view .LVU230
 218:Middlewares/Third_Party/LwIP/src/api/api_lib.c ****   LWIP_ERROR("netconn_getaddr: invalid port", (port != NULL), return ERR_ARG;);
 813              		.loc 1 218 3 discriminator 2 view .LVU231
 219:Middlewares/Third_Party/LwIP/src/api/api_lib.c **** 
 814              		.loc 1 219 3 discriminator 2 view .LVU232
 219:Middlewares/Third_Party/LwIP/src/api/api_lib.c **** 
 815              		.loc 1 219 3 discriminator 2 view .LVU233
 816 0008 E2B1     		cbz	r2, .L69
 219:Middlewares/Third_Party/LwIP/src/api/api_lib.c **** 
 817              		.loc 1 219 3 discriminator 2 view .LVU234
 219:Middlewares/Third_Party/LwIP/src/api/api_lib.c **** 
 818              		.loc 1 219 3 discriminator 2 view .LVU235
 221:Middlewares/Third_Party/LwIP/src/api/api_lib.c ****   API_MSG_VAR_REF(msg).conn = conn;
 819              		.loc 1 221 25 discriminator 2 view .LVU236
 222:Middlewares/Third_Party/LwIP/src/api/api_lib.c ****   API_MSG_VAR_REF(msg).msg.ad.local = local;
 820              		.loc 1 222 3 discriminator 2 view .LVU237
 222:Middlewares/Third_Party/LwIP/src/api/api_lib.c ****   API_MSG_VAR_REF(msg).msg.ad.local = local;
 821              		.loc 1 222 29 is_stmt 0 discriminator 2 view .LVU238
 822 000a 0190     		str	r0, [sp, #4]
 223:Middlewares/Third_Party/LwIP/src/api/api_lib.c **** #if LWIP_MPU_COMPATIBLE
 823              		.loc 1 223 3 is_stmt 1 discriminator 2 view .LVU239
 223:Middlewares/Third_Party/LwIP/src/api/api_lib.c **** #if LWIP_MPU_COMPATIBLE
 824              		.loc 1 223 37 is_stmt 0 discriminator 2 view .LVU240
 825 000c 8DF81430 		strb	r3, [sp, #20]
 229:Middlewares/Third_Party/LwIP/src/api/api_lib.c ****   msg.msg.ad.port = port;
 826              		.loc 1 229 3 is_stmt 1 discriminator 2 view .LVU241
 229:Middlewares/Third_Party/LwIP/src/api/api_lib.c ****   msg.msg.ad.port = port;
 827              		.loc 1 229 21 is_stmt 0 discriminator 2 view .LVU242
 828 0010 0391     		str	r1, [sp, #12]
 230:Middlewares/Third_Party/LwIP/src/api/api_lib.c ****   err = netconn_apimsg(lwip_netconn_do_getaddr, &msg);
 829              		.loc 1 230 3 is_stmt 1 discriminator 2 view .LVU243
 230:Middlewares/Third_Party/LwIP/src/api/api_lib.c ****   err = netconn_apimsg(lwip_netconn_do_getaddr, &msg);
 830              		.loc 1 230 19 is_stmt 0 discriminator 2 view .LVU244
 831 0012 0492     		str	r2, [sp, #16]
 231:Middlewares/Third_Party/LwIP/src/api/api_lib.c **** #endif /* LWIP_MPU_COMPATIBLE */
 832              		.loc 1 231 3 is_stmt 1 discriminator 2 view .LVU245
 231:Middlewares/Third_Party/LwIP/src/api/api_lib.c **** #endif /* LWIP_MPU_COMPATIBLE */
 833              		.loc 1 231 9 is_stmt 0 discriminator 2 view .LVU246
 834 0014 01A9     		add	r1, sp, #4
 835              	.LVL66:
 231:Middlewares/Third_Party/LwIP/src/api/api_lib.c **** #endif /* LWIP_MPU_COMPATIBLE */
 836              		.loc 1 231 9 discriminator 2 view .LVU247
 837 0016 1048     		ldr	r0, .L70
 838              	.LVL67:
 231:Middlewares/Third_Party/LwIP/src/api/api_lib.c **** #endif /* LWIP_MPU_COMPATIBLE */
 839              		.loc 1 231 9 discriminator 2 view .LVU248
 840 0018 FFF7FEFF 		bl	netconn_apimsg
 841              	.LVL68:
 233:Middlewares/Third_Party/LwIP/src/api/api_lib.c **** 
 842              		.loc 1 233 24 is_stmt 1 discriminator 2 view .LVU249
 235:Middlewares/Third_Party/LwIP/src/api/api_lib.c **** }
 843              		.loc 1 235 3 discriminator 2 view .LVU250
 844              	.L63:
 236:Middlewares/Third_Party/LwIP/src/api/api_lib.c **** 
 845              		.loc 1 236 1 is_stmt 0 view .LVU251
 846 001c 06B0     		add	sp, sp, #24
 847              	.LCFI19:
ARM GAS  C:\Users\Nina\AppData\Local\Temp\ccYqiCSe.s 			page 35


 848              		.cfi_remember_state
 849              		.cfi_def_cfa_offset 8
 850              		@ sp needed
 851 001e 10BD     		pop	{r4, pc}
 852              	.LVL69:
 853              	.L67:
 854              	.LCFI20:
 855              		.cfi_restore_state
 217:Middlewares/Third_Party/LwIP/src/api/api_lib.c ****   LWIP_ERROR("netconn_getaddr: invalid addr", (addr != NULL), return ERR_ARG;);
 856              		.loc 1 217 3 is_stmt 1 discriminator 1 view .LVU252
 217:Middlewares/Third_Party/LwIP/src/api/api_lib.c ****   LWIP_ERROR("netconn_getaddr: invalid addr", (addr != NULL), return ERR_ARG;);
 857              		.loc 1 217 3 discriminator 1 view .LVU253
 858 0020 0E4B     		ldr	r3, .L70+4
 859              	.LVL70:
 217:Middlewares/Third_Party/LwIP/src/api/api_lib.c ****   LWIP_ERROR("netconn_getaddr: invalid addr", (addr != NULL), return ERR_ARG;);
 860              		.loc 1 217 3 is_stmt 0 discriminator 1 view .LVU254
 861 0022 D922     		movs	r2, #217
 862              	.LVL71:
 217:Middlewares/Third_Party/LwIP/src/api/api_lib.c ****   LWIP_ERROR("netconn_getaddr: invalid addr", (addr != NULL), return ERR_ARG;);
 863              		.loc 1 217 3 discriminator 1 view .LVU255
 864 0024 0E49     		ldr	r1, .L70+8
 865              	.LVL72:
 217:Middlewares/Third_Party/LwIP/src/api/api_lib.c ****   LWIP_ERROR("netconn_getaddr: invalid addr", (addr != NULL), return ERR_ARG;);
 866              		.loc 1 217 3 discriminator 1 view .LVU256
 867 0026 0F48     		ldr	r0, .L70+12
 868              	.LVL73:
 217:Middlewares/Third_Party/LwIP/src/api/api_lib.c ****   LWIP_ERROR("netconn_getaddr: invalid addr", (addr != NULL), return ERR_ARG;);
 869              		.loc 1 217 3 discriminator 1 view .LVU257
 870 0028 FFF7FEFF 		bl	printf
 871              	.LVL74:
 217:Middlewares/Third_Party/LwIP/src/api/api_lib.c ****   LWIP_ERROR("netconn_getaddr: invalid addr", (addr != NULL), return ERR_ARG;);
 872              		.loc 1 217 3 is_stmt 1 discriminator 1 view .LVU258
 217:Middlewares/Third_Party/LwIP/src/api/api_lib.c ****   LWIP_ERROR("netconn_getaddr: invalid addr", (addr != NULL), return ERR_ARG;);
 873              		.loc 1 217 3 discriminator 1 view .LVU259
 874 002c 6FF00F00 		mvn	r0, #15
 875 0030 F4E7     		b	.L63
 876              	.LVL75:
 877              	.L68:
 218:Middlewares/Third_Party/LwIP/src/api/api_lib.c ****   LWIP_ERROR("netconn_getaddr: invalid port", (port != NULL), return ERR_ARG;);
 878              		.loc 1 218 3 discriminator 1 view .LVU260
 218:Middlewares/Third_Party/LwIP/src/api/api_lib.c ****   LWIP_ERROR("netconn_getaddr: invalid port", (port != NULL), return ERR_ARG;);
 879              		.loc 1 218 3 discriminator 1 view .LVU261
 880 0032 0A4B     		ldr	r3, .L70+4
 881              	.LVL76:
 218:Middlewares/Third_Party/LwIP/src/api/api_lib.c ****   LWIP_ERROR("netconn_getaddr: invalid port", (port != NULL), return ERR_ARG;);
 882              		.loc 1 218 3 is_stmt 0 discriminator 1 view .LVU262
 883 0034 DA22     		movs	r2, #218
 884              	.LVL77:
 218:Middlewares/Third_Party/LwIP/src/api/api_lib.c ****   LWIP_ERROR("netconn_getaddr: invalid port", (port != NULL), return ERR_ARG;);
 885              		.loc 1 218 3 discriminator 1 view .LVU263
 886 0036 0C49     		ldr	r1, .L70+16
 887              	.LVL78:
 218:Middlewares/Third_Party/LwIP/src/api/api_lib.c ****   LWIP_ERROR("netconn_getaddr: invalid port", (port != NULL), return ERR_ARG;);
 888              		.loc 1 218 3 discriminator 1 view .LVU264
 889 0038 0A48     		ldr	r0, .L70+12
 890              	.LVL79:
 218:Middlewares/Third_Party/LwIP/src/api/api_lib.c ****   LWIP_ERROR("netconn_getaddr: invalid port", (port != NULL), return ERR_ARG;);
ARM GAS  C:\Users\Nina\AppData\Local\Temp\ccYqiCSe.s 			page 36


 891              		.loc 1 218 3 discriminator 1 view .LVU265
 892 003a FFF7FEFF 		bl	printf
 893              	.LVL80:
 218:Middlewares/Third_Party/LwIP/src/api/api_lib.c ****   LWIP_ERROR("netconn_getaddr: invalid port", (port != NULL), return ERR_ARG;);
 894              		.loc 1 218 3 is_stmt 1 discriminator 1 view .LVU266
 218:Middlewares/Third_Party/LwIP/src/api/api_lib.c ****   LWIP_ERROR("netconn_getaddr: invalid port", (port != NULL), return ERR_ARG;);
 895              		.loc 1 218 3 discriminator 1 view .LVU267
 896 003e 6FF00F00 		mvn	r0, #15
 897 0042 EBE7     		b	.L63
 898              	.LVL81:
 899              	.L69:
 219:Middlewares/Third_Party/LwIP/src/api/api_lib.c **** 
 900              		.loc 1 219 3 discriminator 1 view .LVU268
 219:Middlewares/Third_Party/LwIP/src/api/api_lib.c **** 
 901              		.loc 1 219 3 discriminator 1 view .LVU269
 902 0044 054B     		ldr	r3, .L70+4
 903              	.LVL82:
 219:Middlewares/Third_Party/LwIP/src/api/api_lib.c **** 
 904              		.loc 1 219 3 is_stmt 0 discriminator 1 view .LVU270
 905 0046 DB22     		movs	r2, #219
 906              	.LVL83:
 219:Middlewares/Third_Party/LwIP/src/api/api_lib.c **** 
 907              		.loc 1 219 3 discriminator 1 view .LVU271
 908 0048 0849     		ldr	r1, .L70+20
 909              	.LVL84:
 219:Middlewares/Third_Party/LwIP/src/api/api_lib.c **** 
 910              		.loc 1 219 3 discriminator 1 view .LVU272
 911 004a 0648     		ldr	r0, .L70+12
 912              	.LVL85:
 219:Middlewares/Third_Party/LwIP/src/api/api_lib.c **** 
 913              		.loc 1 219 3 discriminator 1 view .LVU273
 914 004c FFF7FEFF 		bl	printf
 915              	.LVL86:
 219:Middlewares/Third_Party/LwIP/src/api/api_lib.c **** 
 916              		.loc 1 219 3 is_stmt 1 discriminator 1 view .LVU274
 219:Middlewares/Third_Party/LwIP/src/api/api_lib.c **** 
 917              		.loc 1 219 3 discriminator 1 view .LVU275
 918 0050 6FF00F00 		mvn	r0, #15
 919 0054 E2E7     		b	.L63
 920              	.L71:
 921 0056 00BF     		.align	2
 922              	.L70:
 923 0058 00000000 		.word	lwip_netconn_do_getaddr
 924 005c 00000000 		.word	.LC0
 925 0060 00000000 		.word	.LC11
 926 0064 4C000000 		.word	.LC2
 927 0068 20000000 		.word	.LC12
 928 006c 40000000 		.word	.LC13
 929              		.cfi_endproc
 930              	.LFE168:
 932              		.section	.rodata.netconn_bind.str1.4,"aMS",%progbits,1
 933              		.align	2
 934              	.LC14:
 935 0000 6E657463 		.ascii	"netconn_bind: invalid conn\000"
 935      6F6E6E5F 
 935      62696E64 
 935      3A20696E 
ARM GAS  C:\Users\Nina\AppData\Local\Temp\ccYqiCSe.s 			page 37


 935      76616C69 
 936              		.section	.text.netconn_bind,"ax",%progbits
 937              		.align	1
 938              		.global	netconn_bind
 939              		.syntax unified
 940              		.thumb
 941              		.thumb_func
 942              		.fpu fpv5-sp-d16
 944              	netconn_bind:
 945              	.LVL87:
 946              	.LFB169:
 251:Middlewares/Third_Party/LwIP/src/api/api_lib.c ****   API_MSG_VAR_DECLARE(msg);
 947              		.loc 1 251 1 view -0
 948              		.cfi_startproc
 949              		@ args = 0, pretend = 0, frame = 24
 950              		@ frame_needed = 0, uses_anonymous_args = 0
 251:Middlewares/Third_Party/LwIP/src/api/api_lib.c ****   API_MSG_VAR_DECLARE(msg);
 951              		.loc 1 251 1 is_stmt 0 view .LVU277
 952 0000 00B5     		push	{lr}
 953              	.LCFI21:
 954              		.cfi_def_cfa_offset 4
 955              		.cfi_offset 14, -4
 956 0002 87B0     		sub	sp, sp, #28
 957              	.LCFI22:
 958              		.cfi_def_cfa_offset 32
 252:Middlewares/Third_Party/LwIP/src/api/api_lib.c ****   err_t err;
 959              		.loc 1 252 3 is_stmt 1 view .LVU278
 253:Middlewares/Third_Party/LwIP/src/api/api_lib.c ****   
 960              		.loc 1 253 3 view .LVU279
 255:Middlewares/Third_Party/LwIP/src/api/api_lib.c **** 
 961              		.loc 1 255 3 view .LVU280
 255:Middlewares/Third_Party/LwIP/src/api/api_lib.c **** 
 962              		.loc 1 255 3 view .LVU281
 963 0004 60B1     		cbz	r0, .L78
 964 0006 0346     		mov	r3, r0
 255:Middlewares/Third_Party/LwIP/src/api/api_lib.c **** 
 965              		.loc 1 255 3 discriminator 2 view .LVU282
 255:Middlewares/Third_Party/LwIP/src/api/api_lib.c **** 
 966              		.loc 1 255 3 discriminator 2 view .LVU283
 259:Middlewares/Third_Party/LwIP/src/api/api_lib.c ****     addr = IP4_ADDR_ANY;
 967              		.loc 1 259 3 discriminator 2 view .LVU284
 259:Middlewares/Third_Party/LwIP/src/api/api_lib.c ****     addr = IP4_ADDR_ANY;
 968              		.loc 1 259 6 is_stmt 0 discriminator 2 view .LVU285
 969 0008 99B1     		cbz	r1, .L79
 970              	.LVL88:
 971              	.L75:
 274:Middlewares/Third_Party/LwIP/src/api/api_lib.c ****   API_MSG_VAR_REF(msg).conn = conn;
 972              		.loc 1 274 25 is_stmt 1 view .LVU286
 275:Middlewares/Third_Party/LwIP/src/api/api_lib.c ****   API_MSG_VAR_REF(msg).msg.bc.ipaddr = API_MSG_VAR_REF(addr);
 973              		.loc 1 275 3 view .LVU287
 275:Middlewares/Third_Party/LwIP/src/api/api_lib.c ****   API_MSG_VAR_REF(msg).msg.bc.ipaddr = API_MSG_VAR_REF(addr);
 974              		.loc 1 275 29 is_stmt 0 view .LVU288
 975 000a 0193     		str	r3, [sp, #4]
 276:Middlewares/Third_Party/LwIP/src/api/api_lib.c ****   API_MSG_VAR_REF(msg).msg.bc.port = port;
 976              		.loc 1 276 3 is_stmt 1 view .LVU289
 276:Middlewares/Third_Party/LwIP/src/api/api_lib.c ****   API_MSG_VAR_REF(msg).msg.bc.port = port;
 977              		.loc 1 276 38 is_stmt 0 view .LVU290
ARM GAS  C:\Users\Nina\AppData\Local\Temp\ccYqiCSe.s 			page 38


 978 000c 0391     		str	r1, [sp, #12]
 277:Middlewares/Third_Party/LwIP/src/api/api_lib.c ****   err = netconn_apimsg(lwip_netconn_do_bind, &API_MSG_VAR_REF(msg));
 979              		.loc 1 277 3 is_stmt 1 view .LVU291
 277:Middlewares/Third_Party/LwIP/src/api/api_lib.c ****   err = netconn_apimsg(lwip_netconn_do_bind, &API_MSG_VAR_REF(msg));
 980              		.loc 1 277 36 is_stmt 0 view .LVU292
 981 000e ADF81020 		strh	r2, [sp, #16]	@ movhi
 278:Middlewares/Third_Party/LwIP/src/api/api_lib.c ****   API_MSG_VAR_FREE(msg);
 982              		.loc 1 278 3 is_stmt 1 view .LVU293
 278:Middlewares/Third_Party/LwIP/src/api/api_lib.c ****   API_MSG_VAR_FREE(msg);
 983              		.loc 1 278 9 is_stmt 0 view .LVU294
 984 0012 01A9     		add	r1, sp, #4
 985              	.LVL89:
 278:Middlewares/Third_Party/LwIP/src/api/api_lib.c ****   API_MSG_VAR_FREE(msg);
 986              		.loc 1 278 9 view .LVU295
 987 0014 0848     		ldr	r0, .L80
 988              	.LVL90:
 278:Middlewares/Third_Party/LwIP/src/api/api_lib.c ****   API_MSG_VAR_FREE(msg);
 989              		.loc 1 278 9 view .LVU296
 990 0016 FFF7FEFF 		bl	netconn_apimsg
 991              	.LVL91:
 279:Middlewares/Third_Party/LwIP/src/api/api_lib.c **** 
 992              		.loc 1 279 24 is_stmt 1 view .LVU297
 281:Middlewares/Third_Party/LwIP/src/api/api_lib.c **** }
 993              		.loc 1 281 3 view .LVU298
 994              	.L74:
 282:Middlewares/Third_Party/LwIP/src/api/api_lib.c **** 
 995              		.loc 1 282 1 is_stmt 0 view .LVU299
 996 001a 07B0     		add	sp, sp, #28
 997              	.LCFI23:
 998              		.cfi_remember_state
 999              		.cfi_def_cfa_offset 4
 1000              		@ sp needed
 1001 001c 5DF804FB 		ldr	pc, [sp], #4
 1002              	.LVL92:
 1003              	.L78:
 1004              	.LCFI24:
 1005              		.cfi_restore_state
 255:Middlewares/Third_Party/LwIP/src/api/api_lib.c **** 
 1006              		.loc 1 255 3 is_stmt 1 discriminator 1 view .LVU300
 255:Middlewares/Third_Party/LwIP/src/api/api_lib.c **** 
 1007              		.loc 1 255 3 discriminator 1 view .LVU301
 1008 0020 064B     		ldr	r3, .L80+4
 1009 0022 FF22     		movs	r2, #255
 1010              	.LVL93:
 255:Middlewares/Third_Party/LwIP/src/api/api_lib.c **** 
 1011              		.loc 1 255 3 is_stmt 0 discriminator 1 view .LVU302
 1012 0024 0649     		ldr	r1, .L80+8
 1013              	.LVL94:
 255:Middlewares/Third_Party/LwIP/src/api/api_lib.c **** 
 1014              		.loc 1 255 3 discriminator 1 view .LVU303
 1015 0026 0748     		ldr	r0, .L80+12
 1016              	.LVL95:
 255:Middlewares/Third_Party/LwIP/src/api/api_lib.c **** 
 1017              		.loc 1 255 3 discriminator 1 view .LVU304
 1018 0028 FFF7FEFF 		bl	printf
 1019              	.LVL96:
 255:Middlewares/Third_Party/LwIP/src/api/api_lib.c **** 
ARM GAS  C:\Users\Nina\AppData\Local\Temp\ccYqiCSe.s 			page 39


 1020              		.loc 1 255 3 is_stmt 1 discriminator 1 view .LVU305
 255:Middlewares/Third_Party/LwIP/src/api/api_lib.c **** 
 1021              		.loc 1 255 3 discriminator 1 view .LVU306
 1022 002c 6FF00F00 		mvn	r0, #15
 1023 0030 F3E7     		b	.L74
 1024              	.LVL97:
 1025              	.L79:
 260:Middlewares/Third_Party/LwIP/src/api/api_lib.c ****   }
 1026              		.loc 1 260 10 is_stmt 0 view .LVU307
 1027 0032 0549     		ldr	r1, .L80+16
 1028              	.LVL98:
 260:Middlewares/Third_Party/LwIP/src/api/api_lib.c ****   }
 1029              		.loc 1 260 10 view .LVU308
 1030 0034 E9E7     		b	.L75
 1031              	.L81:
 1032 0036 00BF     		.align	2
 1033              	.L80:
 1034 0038 00000000 		.word	lwip_netconn_do_bind
 1035 003c 00000000 		.word	.LC0
 1036 0040 00000000 		.word	.LC14
 1037 0044 4C000000 		.word	.LC2
 1038 0048 00000000 		.word	ip_addr_any
 1039              		.cfi_endproc
 1040              	.LFE169:
 1042              		.section	.rodata.netconn_connect.str1.4,"aMS",%progbits,1
 1043              		.align	2
 1044              	.LC15:
 1045 0000 6E657463 		.ascii	"netconn_connect: invalid conn\000"
 1045      6F6E6E5F 
 1045      636F6E6E 
 1045      6563743A 
 1045      20696E76 
 1046              		.section	.text.netconn_connect,"ax",%progbits
 1047              		.align	1
 1048              		.global	netconn_connect
 1049              		.syntax unified
 1050              		.thumb
 1051              		.thumb_func
 1052              		.fpu fpv5-sp-d16
 1054              	netconn_connect:
 1055              	.LVL99:
 1056              	.LFB170:
 295:Middlewares/Third_Party/LwIP/src/api/api_lib.c ****   API_MSG_VAR_DECLARE(msg);
 1057              		.loc 1 295 1 is_stmt 1 view -0
 1058              		.cfi_startproc
 1059              		@ args = 0, pretend = 0, frame = 24
 1060              		@ frame_needed = 0, uses_anonymous_args = 0
 295:Middlewares/Third_Party/LwIP/src/api/api_lib.c ****   API_MSG_VAR_DECLARE(msg);
 1061              		.loc 1 295 1 is_stmt 0 view .LVU310
 1062 0000 00B5     		push	{lr}
 1063              	.LCFI25:
 1064              		.cfi_def_cfa_offset 4
 1065              		.cfi_offset 14, -4
 1066 0002 87B0     		sub	sp, sp, #28
 1067              	.LCFI26:
 1068              		.cfi_def_cfa_offset 32
 296:Middlewares/Third_Party/LwIP/src/api/api_lib.c ****   err_t err;
ARM GAS  C:\Users\Nina\AppData\Local\Temp\ccYqiCSe.s 			page 40


 1069              		.loc 1 296 3 is_stmt 1 view .LVU311
 297:Middlewares/Third_Party/LwIP/src/api/api_lib.c **** 
 1070              		.loc 1 297 3 view .LVU312
 299:Middlewares/Third_Party/LwIP/src/api/api_lib.c **** 
 1071              		.loc 1 299 3 view .LVU313
 299:Middlewares/Third_Party/LwIP/src/api/api_lib.c **** 
 1072              		.loc 1 299 3 view .LVU314
 1073 0004 60B1     		cbz	r0, .L88
 1074 0006 0346     		mov	r3, r0
 299:Middlewares/Third_Party/LwIP/src/api/api_lib.c **** 
 1075              		.loc 1 299 3 discriminator 2 view .LVU315
 299:Middlewares/Third_Party/LwIP/src/api/api_lib.c **** 
 1076              		.loc 1 299 3 discriminator 2 view .LVU316
 303:Middlewares/Third_Party/LwIP/src/api/api_lib.c ****     addr = IP4_ADDR_ANY;
 1077              		.loc 1 303 3 discriminator 2 view .LVU317
 303:Middlewares/Third_Party/LwIP/src/api/api_lib.c ****     addr = IP4_ADDR_ANY;
 1078              		.loc 1 303 6 is_stmt 0 discriminator 2 view .LVU318
 1079 0008 A1B1     		cbz	r1, .L89
 1080              	.LVL100:
 1081              	.L85:
 308:Middlewares/Third_Party/LwIP/src/api/api_lib.c ****   API_MSG_VAR_REF(msg).conn = conn;
 1082              		.loc 1 308 25 is_stmt 1 view .LVU319
 309:Middlewares/Third_Party/LwIP/src/api/api_lib.c ****   API_MSG_VAR_REF(msg).msg.bc.ipaddr = API_MSG_VAR_REF(addr);
 1083              		.loc 1 309 3 view .LVU320
 309:Middlewares/Third_Party/LwIP/src/api/api_lib.c ****   API_MSG_VAR_REF(msg).msg.bc.ipaddr = API_MSG_VAR_REF(addr);
 1084              		.loc 1 309 29 is_stmt 0 view .LVU321
 1085 000a 0193     		str	r3, [sp, #4]
 310:Middlewares/Third_Party/LwIP/src/api/api_lib.c ****   API_MSG_VAR_REF(msg).msg.bc.port = port;
 1086              		.loc 1 310 3 is_stmt 1 view .LVU322
 310:Middlewares/Third_Party/LwIP/src/api/api_lib.c ****   API_MSG_VAR_REF(msg).msg.bc.port = port;
 1087              		.loc 1 310 38 is_stmt 0 view .LVU323
 1088 000c 0391     		str	r1, [sp, #12]
 311:Middlewares/Third_Party/LwIP/src/api/api_lib.c ****   err = netconn_apimsg(lwip_netconn_do_connect, &API_MSG_VAR_REF(msg));
 1089              		.loc 1 311 3 is_stmt 1 view .LVU324
 311:Middlewares/Third_Party/LwIP/src/api/api_lib.c ****   err = netconn_apimsg(lwip_netconn_do_connect, &API_MSG_VAR_REF(msg));
 1090              		.loc 1 311 36 is_stmt 0 view .LVU325
 1091 000e ADF81020 		strh	r2, [sp, #16]	@ movhi
 312:Middlewares/Third_Party/LwIP/src/api/api_lib.c ****   API_MSG_VAR_FREE(msg);
 1092              		.loc 1 312 3 is_stmt 1 view .LVU326
 312:Middlewares/Third_Party/LwIP/src/api/api_lib.c ****   API_MSG_VAR_FREE(msg);
 1093              		.loc 1 312 9 is_stmt 0 view .LVU327
 1094 0012 01A9     		add	r1, sp, #4
 1095              	.LVL101:
 312:Middlewares/Third_Party/LwIP/src/api/api_lib.c ****   API_MSG_VAR_FREE(msg);
 1096              		.loc 1 312 9 view .LVU328
 1097 0014 0848     		ldr	r0, .L90
 1098              	.LVL102:
 312:Middlewares/Third_Party/LwIP/src/api/api_lib.c ****   API_MSG_VAR_FREE(msg);
 1099              		.loc 1 312 9 view .LVU329
 1100 0016 FFF7FEFF 		bl	netconn_apimsg
 1101              	.LVL103:
 313:Middlewares/Third_Party/LwIP/src/api/api_lib.c **** 
 1102              		.loc 1 313 24 is_stmt 1 view .LVU330
 315:Middlewares/Third_Party/LwIP/src/api/api_lib.c **** }
 1103              		.loc 1 315 3 view .LVU331
 1104              	.L84:
 316:Middlewares/Third_Party/LwIP/src/api/api_lib.c **** 
ARM GAS  C:\Users\Nina\AppData\Local\Temp\ccYqiCSe.s 			page 41


 1105              		.loc 1 316 1 is_stmt 0 view .LVU332
 1106 001a 07B0     		add	sp, sp, #28
 1107              	.LCFI27:
 1108              		.cfi_remember_state
 1109              		.cfi_def_cfa_offset 4
 1110              		@ sp needed
 1111 001c 5DF804FB 		ldr	pc, [sp], #4
 1112              	.LVL104:
 1113              	.L88:
 1114              	.LCFI28:
 1115              		.cfi_restore_state
 299:Middlewares/Third_Party/LwIP/src/api/api_lib.c **** 
 1116              		.loc 1 299 3 is_stmt 1 discriminator 1 view .LVU333
 299:Middlewares/Third_Party/LwIP/src/api/api_lib.c **** 
 1117              		.loc 1 299 3 discriminator 1 view .LVU334
 1118 0020 064B     		ldr	r3, .L90+4
 1119 0022 40F22B12 		movw	r2, #299
 1120              	.LVL105:
 299:Middlewares/Third_Party/LwIP/src/api/api_lib.c **** 
 1121              		.loc 1 299 3 is_stmt 0 discriminator 1 view .LVU335
 1122 0026 0649     		ldr	r1, .L90+8
 1123              	.LVL106:
 299:Middlewares/Third_Party/LwIP/src/api/api_lib.c **** 
 1124              		.loc 1 299 3 discriminator 1 view .LVU336
 1125 0028 0648     		ldr	r0, .L90+12
 1126              	.LVL107:
 299:Middlewares/Third_Party/LwIP/src/api/api_lib.c **** 
 1127              		.loc 1 299 3 discriminator 1 view .LVU337
 1128 002a FFF7FEFF 		bl	printf
 1129              	.LVL108:
 299:Middlewares/Third_Party/LwIP/src/api/api_lib.c **** 
 1130              		.loc 1 299 3 is_stmt 1 discriminator 1 view .LVU338
 299:Middlewares/Third_Party/LwIP/src/api/api_lib.c **** 
 1131              		.loc 1 299 3 discriminator 1 view .LVU339
 1132 002e 6FF00F00 		mvn	r0, #15
 1133 0032 F2E7     		b	.L84
 1134              	.LVL109:
 1135              	.L89:
 304:Middlewares/Third_Party/LwIP/src/api/api_lib.c ****   }
 1136              		.loc 1 304 10 is_stmt 0 view .LVU340
 1137 0034 0449     		ldr	r1, .L90+16
 1138              	.LVL110:
 304:Middlewares/Third_Party/LwIP/src/api/api_lib.c ****   }
 1139              		.loc 1 304 10 view .LVU341
 1140 0036 E8E7     		b	.L85
 1141              	.L91:
 1142              		.align	2
 1143              	.L90:
 1144 0038 00000000 		.word	lwip_netconn_do_connect
 1145 003c 00000000 		.word	.LC0
 1146 0040 00000000 		.word	.LC15
 1147 0044 4C000000 		.word	.LC2
 1148 0048 00000000 		.word	ip_addr_any
 1149              		.cfi_endproc
 1150              	.LFE170:
 1152              		.section	.rodata.netconn_disconnect.str1.4,"aMS",%progbits,1
 1153              		.align	2
ARM GAS  C:\Users\Nina\AppData\Local\Temp\ccYqiCSe.s 			page 42


 1154              	.LC16:
 1155 0000 6E657463 		.ascii	"netconn_disconnect: invalid conn\000"
 1155      6F6E6E5F 
 1155      64697363 
 1155      6F6E6E65 
 1155      63743A20 
 1156              		.section	.text.netconn_disconnect,"ax",%progbits
 1157              		.align	1
 1158              		.global	netconn_disconnect
 1159              		.syntax unified
 1160              		.thumb
 1161              		.thumb_func
 1162              		.fpu fpv5-sp-d16
 1164              	netconn_disconnect:
 1165              	.LVL111:
 1166              	.LFB171:
 327:Middlewares/Third_Party/LwIP/src/api/api_lib.c ****   API_MSG_VAR_DECLARE(msg);
 1167              		.loc 1 327 1 is_stmt 1 view -0
 1168              		.cfi_startproc
 1169              		@ args = 0, pretend = 0, frame = 24
 1170              		@ frame_needed = 0, uses_anonymous_args = 0
 327:Middlewares/Third_Party/LwIP/src/api/api_lib.c ****   API_MSG_VAR_DECLARE(msg);
 1171              		.loc 1 327 1 is_stmt 0 view .LVU343
 1172 0000 00B5     		push	{lr}
 1173              	.LCFI29:
 1174              		.cfi_def_cfa_offset 4
 1175              		.cfi_offset 14, -4
 1176 0002 87B0     		sub	sp, sp, #28
 1177              	.LCFI30:
 1178              		.cfi_def_cfa_offset 32
 328:Middlewares/Third_Party/LwIP/src/api/api_lib.c ****   err_t err;
 1179              		.loc 1 328 3 is_stmt 1 view .LVU344
 329:Middlewares/Third_Party/LwIP/src/api/api_lib.c **** 
 1180              		.loc 1 329 3 view .LVU345
 331:Middlewares/Third_Party/LwIP/src/api/api_lib.c **** 
 1181              		.loc 1 331 3 view .LVU346
 331:Middlewares/Third_Party/LwIP/src/api/api_lib.c **** 
 1182              		.loc 1 331 3 view .LVU347
 1183 0004 38B1     		cbz	r0, .L96
 331:Middlewares/Third_Party/LwIP/src/api/api_lib.c **** 
 1184              		.loc 1 331 3 discriminator 2 view .LVU348
 331:Middlewares/Third_Party/LwIP/src/api/api_lib.c **** 
 1185              		.loc 1 331 3 discriminator 2 view .LVU349
 333:Middlewares/Third_Party/LwIP/src/api/api_lib.c ****   API_MSG_VAR_REF(msg).conn = conn;
 1186              		.loc 1 333 25 discriminator 2 view .LVU350
 334:Middlewares/Third_Party/LwIP/src/api/api_lib.c ****   err = netconn_apimsg(lwip_netconn_do_disconnect, &API_MSG_VAR_REF(msg));
 1187              		.loc 1 334 3 discriminator 2 view .LVU351
 334:Middlewares/Third_Party/LwIP/src/api/api_lib.c ****   err = netconn_apimsg(lwip_netconn_do_disconnect, &API_MSG_VAR_REF(msg));
 1188              		.loc 1 334 29 is_stmt 0 discriminator 2 view .LVU352
 1189 0006 0190     		str	r0, [sp, #4]
 335:Middlewares/Third_Party/LwIP/src/api/api_lib.c ****   API_MSG_VAR_FREE(msg);
 1190              		.loc 1 335 3 is_stmt 1 discriminator 2 view .LVU353
 335:Middlewares/Third_Party/LwIP/src/api/api_lib.c ****   API_MSG_VAR_FREE(msg);
 1191              		.loc 1 335 9 is_stmt 0 discriminator 2 view .LVU354
 1192 0008 01A9     		add	r1, sp, #4
 1193 000a 0848     		ldr	r0, .L97
 1194              	.LVL112:
ARM GAS  C:\Users\Nina\AppData\Local\Temp\ccYqiCSe.s 			page 43


 335:Middlewares/Third_Party/LwIP/src/api/api_lib.c ****   API_MSG_VAR_FREE(msg);
 1195              		.loc 1 335 9 discriminator 2 view .LVU355
 1196 000c FFF7FEFF 		bl	netconn_apimsg
 1197              	.LVL113:
 336:Middlewares/Third_Party/LwIP/src/api/api_lib.c **** 
 1198              		.loc 1 336 24 is_stmt 1 discriminator 2 view .LVU356
 338:Middlewares/Third_Party/LwIP/src/api/api_lib.c **** }
 1199              		.loc 1 338 3 discriminator 2 view .LVU357
 1200              	.L94:
 339:Middlewares/Third_Party/LwIP/src/api/api_lib.c **** 
 1201              		.loc 1 339 1 is_stmt 0 view .LVU358
 1202 0010 07B0     		add	sp, sp, #28
 1203              	.LCFI31:
 1204              		.cfi_remember_state
 1205              		.cfi_def_cfa_offset 4
 1206              		@ sp needed
 1207 0012 5DF804FB 		ldr	pc, [sp], #4
 1208              	.LVL114:
 1209              	.L96:
 1210              	.LCFI32:
 1211              		.cfi_restore_state
 331:Middlewares/Third_Party/LwIP/src/api/api_lib.c **** 
 1212              		.loc 1 331 3 is_stmt 1 discriminator 1 view .LVU359
 331:Middlewares/Third_Party/LwIP/src/api/api_lib.c **** 
 1213              		.loc 1 331 3 discriminator 1 view .LVU360
 1214 0016 064B     		ldr	r3, .L97+4
 1215 0018 40F24B12 		movw	r2, #331
 1216 001c 0549     		ldr	r1, .L97+8
 1217 001e 0648     		ldr	r0, .L97+12
 1218              	.LVL115:
 331:Middlewares/Third_Party/LwIP/src/api/api_lib.c **** 
 1219              		.loc 1 331 3 is_stmt 0 discriminator 1 view .LVU361
 1220 0020 FFF7FEFF 		bl	printf
 1221              	.LVL116:
 331:Middlewares/Third_Party/LwIP/src/api/api_lib.c **** 
 1222              		.loc 1 331 3 is_stmt 1 discriminator 1 view .LVU362
 331:Middlewares/Third_Party/LwIP/src/api/api_lib.c **** 
 1223              		.loc 1 331 3 discriminator 1 view .LVU363
 1224 0024 6FF00F00 		mvn	r0, #15
 1225 0028 F2E7     		b	.L94
 1226              	.L98:
 1227 002a 00BF     		.align	2
 1228              	.L97:
 1229 002c 00000000 		.word	lwip_netconn_do_disconnect
 1230 0030 00000000 		.word	.LC0
 1231 0034 00000000 		.word	.LC16
 1232 0038 4C000000 		.word	.LC2
 1233              		.cfi_endproc
 1234              	.LFE171:
 1236              		.section	.rodata.netconn_listen_with_backlog.str1.4,"aMS",%progbits,1
 1237              		.align	2
 1238              	.LC17:
 1239 0000 6E657463 		.ascii	"netconn_listen: invalid conn\000"
 1239      6F6E6E5F 
 1239      6C697374 
 1239      656E3A20 
 1239      696E7661 
ARM GAS  C:\Users\Nina\AppData\Local\Temp\ccYqiCSe.s 			page 44


 1240              		.section	.text.netconn_listen_with_backlog,"ax",%progbits
 1241              		.align	1
 1242              		.global	netconn_listen_with_backlog
 1243              		.syntax unified
 1244              		.thumb
 1245              		.thumb_func
 1246              		.fpu fpv5-sp-d16
 1248              	netconn_listen_with_backlog:
 1249              	.LVL117:
 1250              	.LFB172:
 352:Middlewares/Third_Party/LwIP/src/api/api_lib.c **** #if LWIP_TCP
 1251              		.loc 1 352 1 view -0
 1252              		.cfi_startproc
 1253              		@ args = 0, pretend = 0, frame = 24
 1254              		@ frame_needed = 0, uses_anonymous_args = 0
 352:Middlewares/Third_Party/LwIP/src/api/api_lib.c **** #if LWIP_TCP
 1255              		.loc 1 352 1 is_stmt 0 view .LVU365
 1256 0000 00B5     		push	{lr}
 1257              	.LCFI33:
 1258              		.cfi_def_cfa_offset 4
 1259              		.cfi_offset 14, -4
 1260 0002 87B0     		sub	sp, sp, #28
 1261              	.LCFI34:
 1262              		.cfi_def_cfa_offset 32
 354:Middlewares/Third_Party/LwIP/src/api/api_lib.c ****   err_t err;
 1263              		.loc 1 354 3 is_stmt 1 view .LVU366
 355:Middlewares/Third_Party/LwIP/src/api/api_lib.c **** 
 1264              		.loc 1 355 3 view .LVU367
 358:Middlewares/Third_Party/LwIP/src/api/api_lib.c **** 
 1265              		.loc 1 358 3 view .LVU368
 360:Middlewares/Third_Party/LwIP/src/api/api_lib.c **** 
 1266              		.loc 1 360 3 view .LVU369
 360:Middlewares/Third_Party/LwIP/src/api/api_lib.c **** 
 1267              		.loc 1 360 3 view .LVU370
 1268 0004 38B1     		cbz	r0, .L103
 360:Middlewares/Third_Party/LwIP/src/api/api_lib.c **** 
 1269              		.loc 1 360 3 discriminator 2 view .LVU371
 360:Middlewares/Third_Party/LwIP/src/api/api_lib.c **** 
 1270              		.loc 1 360 3 discriminator 2 view .LVU372
 362:Middlewares/Third_Party/LwIP/src/api/api_lib.c ****   API_MSG_VAR_REF(msg).conn = conn;
 1271              		.loc 1 362 25 discriminator 2 view .LVU373
 363:Middlewares/Third_Party/LwIP/src/api/api_lib.c **** #if TCP_LISTEN_BACKLOG
 1272              		.loc 1 363 3 discriminator 2 view .LVU374
 363:Middlewares/Third_Party/LwIP/src/api/api_lib.c **** #if TCP_LISTEN_BACKLOG
 1273              		.loc 1 363 29 is_stmt 0 discriminator 2 view .LVU375
 1274 0006 0190     		str	r0, [sp, #4]
 367:Middlewares/Third_Party/LwIP/src/api/api_lib.c ****   API_MSG_VAR_FREE(msg);
 1275              		.loc 1 367 3 is_stmt 1 discriminator 2 view .LVU376
 367:Middlewares/Third_Party/LwIP/src/api/api_lib.c ****   API_MSG_VAR_FREE(msg);
 1276              		.loc 1 367 9 is_stmt 0 discriminator 2 view .LVU377
 1277 0008 01A9     		add	r1, sp, #4
 1278              	.LVL118:
 367:Middlewares/Third_Party/LwIP/src/api/api_lib.c ****   API_MSG_VAR_FREE(msg);
 1279              		.loc 1 367 9 discriminator 2 view .LVU378
 1280 000a 0848     		ldr	r0, .L104
 1281              	.LVL119:
 367:Middlewares/Third_Party/LwIP/src/api/api_lib.c ****   API_MSG_VAR_FREE(msg);
ARM GAS  C:\Users\Nina\AppData\Local\Temp\ccYqiCSe.s 			page 45


 1282              		.loc 1 367 9 discriminator 2 view .LVU379
 1283 000c FFF7FEFF 		bl	netconn_apimsg
 1284              	.LVL120:
 368:Middlewares/Third_Party/LwIP/src/api/api_lib.c **** 
 1285              		.loc 1 368 24 is_stmt 1 discriminator 2 view .LVU380
 370:Middlewares/Third_Party/LwIP/src/api/api_lib.c **** #else /* LWIP_TCP */
 1286              		.loc 1 370 3 discriminator 2 view .LVU381
 1287              	.L101:
 376:Middlewares/Third_Party/LwIP/src/api/api_lib.c **** 
 1288              		.loc 1 376 1 is_stmt 0 view .LVU382
 1289 0010 07B0     		add	sp, sp, #28
 1290              	.LCFI35:
 1291              		.cfi_remember_state
 1292              		.cfi_def_cfa_offset 4
 1293              		@ sp needed
 1294 0012 5DF804FB 		ldr	pc, [sp], #4
 1295              	.LVL121:
 1296              	.L103:
 1297              	.LCFI36:
 1298              		.cfi_restore_state
 360:Middlewares/Third_Party/LwIP/src/api/api_lib.c **** 
 1299              		.loc 1 360 3 is_stmt 1 discriminator 1 view .LVU383
 360:Middlewares/Third_Party/LwIP/src/api/api_lib.c **** 
 1300              		.loc 1 360 3 discriminator 1 view .LVU384
 1301 0016 064B     		ldr	r3, .L104+4
 1302 0018 4FF4B472 		mov	r2, #360
 1303 001c 0549     		ldr	r1, .L104+8
 1304              	.LVL122:
 360:Middlewares/Third_Party/LwIP/src/api/api_lib.c **** 
 1305              		.loc 1 360 3 is_stmt 0 discriminator 1 view .LVU385
 1306 001e 0648     		ldr	r0, .L104+12
 1307              	.LVL123:
 360:Middlewares/Third_Party/LwIP/src/api/api_lib.c **** 
 1308              		.loc 1 360 3 discriminator 1 view .LVU386
 1309 0020 FFF7FEFF 		bl	printf
 1310              	.LVL124:
 360:Middlewares/Third_Party/LwIP/src/api/api_lib.c **** 
 1311              		.loc 1 360 3 is_stmt 1 discriminator 1 view .LVU387
 360:Middlewares/Third_Party/LwIP/src/api/api_lib.c **** 
 1312              		.loc 1 360 3 discriminator 1 view .LVU388
 1313 0024 6FF00F00 		mvn	r0, #15
 1314 0028 F2E7     		b	.L101
 1315              	.L105:
 1316 002a 00BF     		.align	2
 1317              	.L104:
 1318 002c 00000000 		.word	lwip_netconn_do_listen
 1319 0030 00000000 		.word	.LC0
 1320 0034 00000000 		.word	.LC17
 1321 0038 4C000000 		.word	.LC2
 1322              		.cfi_endproc
 1323              	.LFE172:
 1325              		.section	.rodata.netconn_accept.str1.4,"aMS",%progbits,1
 1326              		.align	2
 1327              	.LC18:
 1328 0000 6E657463 		.ascii	"netconn_accept: invalid pointer\000"
 1328      6F6E6E5F 
 1328      61636365 
ARM GAS  C:\Users\Nina\AppData\Local\Temp\ccYqiCSe.s 			page 46


 1328      70743A20 
 1328      696E7661 
 1329              		.align	2
 1330              	.LC19:
 1331 0020 6E657463 		.ascii	"netconn_accept: invalid conn\000"
 1331      6F6E6E5F 
 1331      61636365 
 1331      70743A20 
 1331      696E7661 
 1332              		.section	.text.netconn_accept,"ax",%progbits
 1333              		.align	1
 1334              		.global	netconn_accept
 1335              		.syntax unified
 1336              		.thumb
 1337              		.thumb_func
 1338              		.fpu fpv5-sp-d16
 1340              	netconn_accept:
 1341              	.LVL125:
 1342              	.LFB173:
 389:Middlewares/Third_Party/LwIP/src/api/api_lib.c **** #if LWIP_TCP
 1343              		.loc 1 389 1 view -0
 1344              		.cfi_startproc
 1345              		@ args = 0, pretend = 0, frame = 8
 1346              		@ frame_needed = 0, uses_anonymous_args = 0
 389:Middlewares/Third_Party/LwIP/src/api/api_lib.c **** #if LWIP_TCP
 1347              		.loc 1 389 1 is_stmt 0 view .LVU390
 1348 0000 70B5     		push	{r4, r5, r6, lr}
 1349              	.LCFI37:
 1350              		.cfi_def_cfa_offset 16
 1351              		.cfi_offset 4, -16
 1352              		.cfi_offset 5, -12
 1353              		.cfi_offset 6, -8
 1354              		.cfi_offset 14, -4
 1355 0002 82B0     		sub	sp, sp, #8
 1356              	.LCFI38:
 1357              		.cfi_def_cfa_offset 24
 391:Middlewares/Third_Party/LwIP/src/api/api_lib.c ****   struct netconn *newconn;
 1358              		.loc 1 391 3 is_stmt 1 view .LVU391
 392:Middlewares/Third_Party/LwIP/src/api/api_lib.c **** #if TCP_LISTEN_BACKLOG
 1359              		.loc 1 392 3 view .LVU392
 397:Middlewares/Third_Party/LwIP/src/api/api_lib.c ****   *new_conn = NULL;
 1360              		.loc 1 397 3 view .LVU393
 397:Middlewares/Third_Party/LwIP/src/api/api_lib.c ****   *new_conn = NULL;
 1361              		.loc 1 397 3 view .LVU394
 1362 0004 59B1     		cbz	r1, .L116
 1363 0006 0446     		mov	r4, r0
 1364 0008 0D46     		mov	r5, r1
 397:Middlewares/Third_Party/LwIP/src/api/api_lib.c ****   *new_conn = NULL;
 1365              		.loc 1 397 3 discriminator 2 view .LVU395
 397:Middlewares/Third_Party/LwIP/src/api/api_lib.c ****   *new_conn = NULL;
 1366              		.loc 1 397 3 discriminator 2 view .LVU396
 398:Middlewares/Third_Party/LwIP/src/api/api_lib.c ****   LWIP_ERROR("netconn_accept: invalid conn",       (conn != NULL),                      return ERR_
 1367              		.loc 1 398 3 discriminator 2 view .LVU397
 398:Middlewares/Third_Party/LwIP/src/api/api_lib.c ****   LWIP_ERROR("netconn_accept: invalid conn",       (conn != NULL),                      return ERR_
 1368              		.loc 1 398 13 is_stmt 0 discriminator 2 view .LVU398
 1369 000a 0023     		movs	r3, #0
 1370 000c 0B60     		str	r3, [r1]
ARM GAS  C:\Users\Nina\AppData\Local\Temp\ccYqiCSe.s 			page 47


 399:Middlewares/Third_Party/LwIP/src/api/api_lib.c **** 
 1371              		.loc 1 399 3 is_stmt 1 discriminator 2 view .LVU399
 399:Middlewares/Third_Party/LwIP/src/api/api_lib.c **** 
 1372              		.loc 1 399 3 discriminator 2 view .LVU400
 1373 000e 80B1     		cbz	r0, .L117
 399:Middlewares/Third_Party/LwIP/src/api/api_lib.c **** 
 1374              		.loc 1 399 3 discriminator 2 view .LVU401
 399:Middlewares/Third_Party/LwIP/src/api/api_lib.c **** 
 1375              		.loc 1 399 3 discriminator 2 view .LVU402
 401:Middlewares/Third_Party/LwIP/src/api/api_lib.c ****     /* don't recv on fatal errors: this might block the application task
 1376              		.loc 1 401 3 discriminator 2 view .LVU403
 401:Middlewares/Third_Party/LwIP/src/api/api_lib.c ****     /* don't recv on fatal errors: this might block the application task
 1377              		.loc 1 401 7 is_stmt 0 discriminator 2 view .LVU404
 1378 0010 90F90800 		ldrsb	r0, [r0, #8]
 1379              	.LVL126:
 401:Middlewares/Third_Party/LwIP/src/api/api_lib.c ****     /* don't recv on fatal errors: this might block the application task
 1380              		.loc 1 401 6 discriminator 2 view .LVU405
 1381 0014 10F10C0F 		cmn	r0, #12
 1382 0018 15DA     		bge	.L118
 1383              	.LVL127:
 1384              	.L108:
 463:Middlewares/Third_Party/LwIP/src/api/api_lib.c **** 
 1385              		.loc 1 463 1 view .LVU406
 1386 001a 02B0     		add	sp, sp, #8
 1387              	.LCFI39:
 1388              		.cfi_remember_state
 1389              		.cfi_def_cfa_offset 16
 1390              		@ sp needed
 1391 001c 70BD     		pop	{r4, r5, r6, pc}
 1392              	.LVL128:
 1393              	.L116:
 1394              	.LCFI40:
 1395              		.cfi_restore_state
 397:Middlewares/Third_Party/LwIP/src/api/api_lib.c ****   *new_conn = NULL;
 1396              		.loc 1 397 3 is_stmt 1 discriminator 1 view .LVU407
 397:Middlewares/Third_Party/LwIP/src/api/api_lib.c ****   *new_conn = NULL;
 1397              		.loc 1 397 3 discriminator 1 view .LVU408
 1398 001e 214B     		ldr	r3, .L120
 1399 0020 40F28D12 		movw	r2, #397
 1400 0024 2049     		ldr	r1, .L120+4
 1401              	.LVL129:
 397:Middlewares/Third_Party/LwIP/src/api/api_lib.c ****   *new_conn = NULL;
 1402              		.loc 1 397 3 is_stmt 0 discriminator 1 view .LVU409
 1403 0026 2148     		ldr	r0, .L120+8
 1404              	.LVL130:
 397:Middlewares/Third_Party/LwIP/src/api/api_lib.c ****   *new_conn = NULL;
 1405              		.loc 1 397 3 discriminator 1 view .LVU410
 1406 0028 FFF7FEFF 		bl	printf
 1407              	.LVL131:
 397:Middlewares/Third_Party/LwIP/src/api/api_lib.c ****   *new_conn = NULL;
 1408              		.loc 1 397 3 is_stmt 1 discriminator 1 view .LVU411
 397:Middlewares/Third_Party/LwIP/src/api/api_lib.c ****   *new_conn = NULL;
 1409              		.loc 1 397 3 discriminator 1 view .LVU412
 1410 002c 6FF00F00 		mvn	r0, #15
 1411 0030 F3E7     		b	.L108
 1412              	.LVL132:
 1413              	.L117:
ARM GAS  C:\Users\Nina\AppData\Local\Temp\ccYqiCSe.s 			page 48


 399:Middlewares/Third_Party/LwIP/src/api/api_lib.c **** 
 1414              		.loc 1 399 3 discriminator 1 view .LVU413
 399:Middlewares/Third_Party/LwIP/src/api/api_lib.c **** 
 1415              		.loc 1 399 3 discriminator 1 view .LVU414
 1416 0032 1C4B     		ldr	r3, .L120
 1417 0034 40F28F12 		movw	r2, #399
 1418 0038 1D49     		ldr	r1, .L120+12
 1419              	.LVL133:
 399:Middlewares/Third_Party/LwIP/src/api/api_lib.c **** 
 1420              		.loc 1 399 3 is_stmt 0 discriminator 1 view .LVU415
 1421 003a 1C48     		ldr	r0, .L120+8
 1422              	.LVL134:
 399:Middlewares/Third_Party/LwIP/src/api/api_lib.c **** 
 1423              		.loc 1 399 3 discriminator 1 view .LVU416
 1424 003c FFF7FEFF 		bl	printf
 1425              	.LVL135:
 399:Middlewares/Third_Party/LwIP/src/api/api_lib.c **** 
 1426              		.loc 1 399 3 is_stmt 1 discriminator 1 view .LVU417
 399:Middlewares/Third_Party/LwIP/src/api/api_lib.c **** 
 1427              		.loc 1 399 3 discriminator 1 view .LVU418
 1428 0040 6FF00F00 		mvn	r0, #15
 1429 0044 E9E7     		b	.L108
 1430              	.LVL136:
 1431              	.L118:
 406:Middlewares/Third_Party/LwIP/src/api/api_lib.c ****     return ERR_CLSD;
 1432              		.loc 1 406 3 view .LVU419
 406:Middlewares/Third_Party/LwIP/src/api/api_lib.c ****     return ERR_CLSD;
 1433              		.loc 1 406 8 is_stmt 0 view .LVU420
 1434 0046 04F11406 		add	r6, r4, #20
 1435 004a 3046     		mov	r0, r6
 1436 004c FFF7FEFF 		bl	sys_mbox_valid
 1437              	.LVL137:
 406:Middlewares/Third_Party/LwIP/src/api/api_lib.c ****     return ERR_CLSD;
 1438              		.loc 1 406 6 view .LVU421
 1439 0050 08B3     		cbz	r0, .L113
 422:Middlewares/Third_Party/LwIP/src/api/api_lib.c **** #endif /* LWIP_SO_RCVTIMEO*/
 1440              		.loc 1 422 3 is_stmt 1 view .LVU422
 1441 0052 0022     		movs	r2, #0
 1442 0054 01A9     		add	r1, sp, #4
 1443 0056 3046     		mov	r0, r6
 1444 0058 FFF7FEFF 		bl	sys_arch_mbox_fetch
 1445              	.LVL138:
 424:Middlewares/Third_Party/LwIP/src/api/api_lib.c ****   /* Register event with callback */
 1446              		.loc 1 424 3 view .LVU423
 424:Middlewares/Third_Party/LwIP/src/api/api_lib.c ****   /* Register event with callback */
 1447              		.loc 1 424 11 is_stmt 0 view .LVU424
 1448 005c 019E     		ldr	r6, [sp, #4]
 1449              	.LVL139:
 426:Middlewares/Third_Party/LwIP/src/api/api_lib.c **** 
 1450              		.loc 1 426 3 is_stmt 1 view .LVU425
 1451 005e A36A     		ldr	r3, [r4, #40]
 1452 0060 1BB1     		cbz	r3, .L110
 426:Middlewares/Third_Party/LwIP/src/api/api_lib.c **** 
 1453              		.loc 1 426 3 discriminator 1 view .LVU426
 1454 0062 0022     		movs	r2, #0
 1455 0064 0121     		movs	r1, #1
 1456 0066 2046     		mov	r0, r4
ARM GAS  C:\Users\Nina\AppData\Local\Temp\ccYqiCSe.s 			page 49


 1457 0068 9847     		blx	r3
 1458              	.LVL140:
 1459              	.L110:
 426:Middlewares/Third_Party/LwIP/src/api/api_lib.c **** 
 1460              		.loc 1 426 43 discriminator 3 view .LVU427
 428:Middlewares/Third_Party/LwIP/src/api/api_lib.c ****     /* a connection has been aborted: out of pcbs or out of netconns during accept */
 1461              		.loc 1 428 3 discriminator 3 view .LVU428
 428:Middlewares/Third_Party/LwIP/src/api/api_lib.c ****     /* a connection has been aborted: out of pcbs or out of netconns during accept */
 1462              		.loc 1 428 6 is_stmt 0 discriminator 3 view .LVU429
 1463 006a 019A     		ldr	r2, [sp, #4]
 1464 006c 114B     		ldr	r3, .L120+16
 1465 006e 9A42     		cmp	r2, r3
 1466 0070 14D0     		beq	.L114
 436:Middlewares/Third_Party/LwIP/src/api/api_lib.c ****     /* connection has been aborted */
 1467              		.loc 1 436 3 is_stmt 1 view .LVU430
 436:Middlewares/Third_Party/LwIP/src/api/api_lib.c ****     /* connection has been aborted */
 1468              		.loc 1 436 6 is_stmt 0 view .LVU431
 1469 0072 16B1     		cbz	r6, .L119
 455:Middlewares/Third_Party/LwIP/src/api/api_lib.c ****   /* don't set conn->last_err: it's only ERR_OK, anyway */
 1470              		.loc 1 455 3 is_stmt 1 view .LVU432
 455:Middlewares/Third_Party/LwIP/src/api/api_lib.c ****   /* don't set conn->last_err: it's only ERR_OK, anyway */
 1471              		.loc 1 455 13 is_stmt 0 view .LVU433
 1472 0074 2E60     		str	r6, [r5]
 457:Middlewares/Third_Party/LwIP/src/api/api_lib.c **** #else /* LWIP_TCP */
 1473              		.loc 1 457 3 is_stmt 1 view .LVU434
 457:Middlewares/Third_Party/LwIP/src/api/api_lib.c **** #else /* LWIP_TCP */
 1474              		.loc 1 457 10 is_stmt 0 view .LVU435
 1475 0076 0020     		movs	r0, #0
 1476 0078 CFE7     		b	.L108
 1477              	.L119:
 441:Middlewares/Third_Party/LwIP/src/api/api_lib.c **** #if TCP_LISTEN_BACKLOG
 1478              		.loc 1 441 5 is_stmt 1 discriminator 1 view .LVU436
 441:Middlewares/Third_Party/LwIP/src/api/api_lib.c **** #if TCP_LISTEN_BACKLOG
 1479              		.loc 1 441 5 discriminator 1 view .LVU437
 1480              	.LBB4:
 441:Middlewares/Third_Party/LwIP/src/api/api_lib.c **** #if TCP_LISTEN_BACKLOG
 1481              		.loc 1 441 5 discriminator 1 view .LVU438
 441:Middlewares/Third_Party/LwIP/src/api/api_lib.c **** #if TCP_LISTEN_BACKLOG
 1482              		.loc 1 441 5 discriminator 1 view .LVU439
 1483 007a FFF7FEFF 		bl	sys_arch_protect
 1484              	.LVL141:
 441:Middlewares/Third_Party/LwIP/src/api/api_lib.c **** #if TCP_LISTEN_BACKLOG
 1485              		.loc 1 441 5 discriminator 1 view .LVU440
 1486 007e 94F90830 		ldrsb	r3, [r4, #8]
 1487 0082 13F10C0F 		cmn	r3, #12
 1488 0086 01DB     		blt	.L112
 441:Middlewares/Third_Party/LwIP/src/api/api_lib.c **** #if TCP_LISTEN_BACKLOG
 1489              		.loc 1 441 5 discriminator 3 view .LVU441
 1490 0088 F123     		movs	r3, #241
 1491 008a 2372     		strb	r3, [r4, #8]
 1492              	.L112:
 441:Middlewares/Third_Party/LwIP/src/api/api_lib.c **** #if TCP_LISTEN_BACKLOG
 1493              		.loc 1 441 5 discriminator 5 view .LVU442
 1494 008c FFF7FEFF 		bl	sys_arch_unprotect
 1495              	.LVL142:
 441:Middlewares/Third_Party/LwIP/src/api/api_lib.c **** #if TCP_LISTEN_BACKLOG
 1496              		.loc 1 441 5 is_stmt 0 discriminator 5 view .LVU443
ARM GAS  C:\Users\Nina\AppData\Local\Temp\ccYqiCSe.s 			page 50


 1497              	.LBE4:
 441:Middlewares/Third_Party/LwIP/src/api/api_lib.c **** #if TCP_LISTEN_BACKLOG
 1498              		.loc 1 441 5 is_stmt 1 discriminator 5 view .LVU444
 441:Middlewares/Third_Party/LwIP/src/api/api_lib.c **** #if TCP_LISTEN_BACKLOG
 1499              		.loc 1 441 41 discriminator 5 view .LVU445
 445:Middlewares/Third_Party/LwIP/src/api/api_lib.c ****   }
 1500              		.loc 1 445 5 discriminator 5 view .LVU446
 445:Middlewares/Third_Party/LwIP/src/api/api_lib.c ****   }
 1501              		.loc 1 445 12 is_stmt 0 discriminator 5 view .LVU447
 1502 0090 6FF00E00 		mvn	r0, #14
 1503 0094 C1E7     		b	.L108
 1504              	.LVL143:
 1505              	.L113:
 407:Middlewares/Third_Party/LwIP/src/api/api_lib.c ****   }
 1506              		.loc 1 407 12 view .LVU448
 1507 0096 6FF00E00 		mvn	r0, #14
 1508 009a BEE7     		b	.L108
 1509              	.LVL144:
 1510              	.L114:
 434:Middlewares/Third_Party/LwIP/src/api/api_lib.c ****   }
 1511              		.loc 1 434 12 view .LVU449
 1512 009c 6FF00C00 		mvn	r0, #12
 1513 00a0 BBE7     		b	.L108
 1514              	.L121:
 1515 00a2 00BF     		.align	2
 1516              	.L120:
 1517 00a4 00000000 		.word	.LC0
 1518 00a8 00000000 		.word	.LC18
 1519 00ac 4C000000 		.word	.LC2
 1520 00b0 20000000 		.word	.LC19
 1521 00b4 00000000 		.word	netconn_aborted
 1522              		.cfi_endproc
 1523              	.LFE173:
 1525              		.section	.text.netconn_recv_tcp_pbuf,"ax",%progbits
 1526              		.align	1
 1527              		.global	netconn_recv_tcp_pbuf
 1528              		.syntax unified
 1529              		.thumb
 1530              		.thumb_func
 1531              		.fpu fpv5-sp-d16
 1533              	netconn_recv_tcp_pbuf:
 1534              	.LVL145:
 1535              	.LFB175:
 604:Middlewares/Third_Party/LwIP/src/api/api_lib.c ****   LWIP_ERROR("netconn_recv: invalid conn", (conn != NULL) &&
 1536              		.loc 1 604 1 is_stmt 1 view -0
 1537              		.cfi_startproc
 1538              		@ args = 0, pretend = 0, frame = 0
 1539              		@ frame_needed = 0, uses_anonymous_args = 0
 604:Middlewares/Third_Party/LwIP/src/api/api_lib.c ****   LWIP_ERROR("netconn_recv: invalid conn", (conn != NULL) &&
 1540              		.loc 1 604 1 is_stmt 0 view .LVU451
 1541 0000 08B5     		push	{r3, lr}
 1542              	.LCFI41:
 1543              		.cfi_def_cfa_offset 8
 1544              		.cfi_offset 3, -8
 1545              		.cfi_offset 14, -4
 605:Middlewares/Third_Party/LwIP/src/api/api_lib.c ****              NETCONNTYPE_GROUP(netconn_type(conn)) == NETCONN_TCP, return ERR_ARG;);
 1546              		.loc 1 605 3 is_stmt 1 view .LVU452
ARM GAS  C:\Users\Nina\AppData\Local\Temp\ccYqiCSe.s 			page 51


 605:Middlewares/Third_Party/LwIP/src/api/api_lib.c ****              NETCONNTYPE_GROUP(netconn_type(conn)) == NETCONN_TCP, return ERR_ARG;);
 1547              		.loc 1 605 3 view .LVU453
 1548 0002 38B1     		cbz	r0, .L123
 605:Middlewares/Third_Party/LwIP/src/api/api_lib.c ****              NETCONNTYPE_GROUP(netconn_type(conn)) == NETCONN_TCP, return ERR_ARG;);
 1549              		.loc 1 605 3 is_stmt 0 discriminator 2 view .LVU454
 1550 0004 0378     		ldrb	r3, [r0]	@ zero_extendqisi2
 1551 0006 03F0F003 		and	r3, r3, #240
 1552 000a 102B     		cmp	r3, #16
 1553 000c 02D1     		bne	.L123
 605:Middlewares/Third_Party/LwIP/src/api/api_lib.c ****              NETCONNTYPE_GROUP(netconn_type(conn)) == NETCONN_TCP, return ERR_ARG;);
 1554              		.loc 1 605 3 is_stmt 1 discriminator 4 view .LVU455
 605:Middlewares/Third_Party/LwIP/src/api/api_lib.c ****              NETCONNTYPE_GROUP(netconn_type(conn)) == NETCONN_TCP, return ERR_ARG;);
 1555              		.loc 1 605 3 discriminator 4 view .LVU456
 608:Middlewares/Third_Party/LwIP/src/api/api_lib.c **** }
 1556              		.loc 1 608 3 discriminator 4 view .LVU457
 608:Middlewares/Third_Party/LwIP/src/api/api_lib.c **** }
 1557              		.loc 1 608 10 is_stmt 0 discriminator 4 view .LVU458
 1558 000e FFF7FEFF 		bl	netconn_recv_data
 1559              	.LVL146:
 1560              	.L125:
 609:Middlewares/Third_Party/LwIP/src/api/api_lib.c **** 
 1561              		.loc 1 609 1 view .LVU459
 1562 0012 08BD     		pop	{r3, pc}
 1563              	.LVL147:
 1564              	.L123:
 605:Middlewares/Third_Party/LwIP/src/api/api_lib.c ****              NETCONNTYPE_GROUP(netconn_type(conn)) == NETCONN_TCP, return ERR_ARG;);
 1565              		.loc 1 605 3 is_stmt 1 discriminator 3 view .LVU460
 605:Middlewares/Third_Party/LwIP/src/api/api_lib.c ****              NETCONNTYPE_GROUP(netconn_type(conn)) == NETCONN_TCP, return ERR_ARG;);
 1566              		.loc 1 605 3 discriminator 3 view .LVU461
 1567 0014 044B     		ldr	r3, .L127
 1568 0016 40F25D22 		movw	r2, #605
 1569 001a 0449     		ldr	r1, .L127+4
 1570              	.LVL148:
 605:Middlewares/Third_Party/LwIP/src/api/api_lib.c ****              NETCONNTYPE_GROUP(netconn_type(conn)) == NETCONN_TCP, return ERR_ARG;);
 1571              		.loc 1 605 3 is_stmt 0 discriminator 3 view .LVU462
 1572 001c 0448     		ldr	r0, .L127+8
 1573              	.LVL149:
 605:Middlewares/Third_Party/LwIP/src/api/api_lib.c ****              NETCONNTYPE_GROUP(netconn_type(conn)) == NETCONN_TCP, return ERR_ARG;);
 1574              		.loc 1 605 3 discriminator 3 view .LVU463
 1575 001e FFF7FEFF 		bl	printf
 1576              	.LVL150:
 605:Middlewares/Third_Party/LwIP/src/api/api_lib.c ****              NETCONNTYPE_GROUP(netconn_type(conn)) == NETCONN_TCP, return ERR_ARG;);
 1577              		.loc 1 605 3 is_stmt 1 discriminator 3 view .LVU464
 605:Middlewares/Third_Party/LwIP/src/api/api_lib.c ****              NETCONNTYPE_GROUP(netconn_type(conn)) == NETCONN_TCP, return ERR_ARG;);
 1578              		.loc 1 605 3 discriminator 3 view .LVU465
 1579 0022 6FF00F00 		mvn	r0, #15
 1580 0026 F4E7     		b	.L125
 1581              	.L128:
 1582              		.align	2
 1583              	.L127:
 1584 0028 00000000 		.word	.LC0
 1585 002c 20000000 		.word	.LC4
 1586 0030 4C000000 		.word	.LC2
 1587              		.cfi_endproc
 1588              	.LFE175:
 1590              		.section	.rodata.netconn_recv.str1.4,"aMS",%progbits,1
 1591              		.align	2
ARM GAS  C:\Users\Nina\AppData\Local\Temp\ccYqiCSe.s 			page 52


 1592              	.LC20:
 1593 0000 7020213D 		.ascii	"p != NULL\000"
 1593      204E554C 
 1593      4C00
 1594              		.section	.text.netconn_recv,"ax",%progbits
 1595              		.align	1
 1596              		.global	netconn_recv
 1597              		.syntax unified
 1598              		.thumb
 1599              		.thumb_func
 1600              		.fpu fpv5-sp-d16
 1602              	netconn_recv:
 1603              	.LVL151:
 1604              	.LFB176:
 622:Middlewares/Third_Party/LwIP/src/api/api_lib.c **** #if LWIP_TCP
 1605              		.loc 1 622 1 view -0
 1606              		.cfi_startproc
 1607              		@ args = 0, pretend = 0, frame = 8
 1608              		@ frame_needed = 0, uses_anonymous_args = 0
 622:Middlewares/Third_Party/LwIP/src/api/api_lib.c **** #if LWIP_TCP
 1609              		.loc 1 622 1 is_stmt 0 view .LVU467
 1610 0000 70B5     		push	{r4, r5, r6, lr}
 1611              	.LCFI42:
 1612              		.cfi_def_cfa_offset 16
 1613              		.cfi_offset 4, -16
 1614              		.cfi_offset 5, -12
 1615              		.cfi_offset 6, -8
 1616              		.cfi_offset 14, -4
 1617 0002 82B0     		sub	sp, sp, #8
 1618              	.LCFI43:
 1619              		.cfi_def_cfa_offset 24
 624:Middlewares/Third_Party/LwIP/src/api/api_lib.c ****   err_t err;
 1620              		.loc 1 624 3 is_stmt 1 view .LVU468
 1621              	.LVL152:
 625:Middlewares/Third_Party/LwIP/src/api/api_lib.c **** #endif /* LWIP_TCP */
 1622              		.loc 1 625 3 view .LVU469
 628:Middlewares/Third_Party/LwIP/src/api/api_lib.c ****   *new_buf = NULL;
 1623              		.loc 1 628 3 view .LVU470
 628:Middlewares/Third_Party/LwIP/src/api/api_lib.c ****   *new_buf = NULL;
 1624              		.loc 1 628 3 view .LVU471
 1625 0004 09B3     		cbz	r1, .L139
 1626 0006 0446     		mov	r4, r0
 1627 0008 0D46     		mov	r5, r1
 628:Middlewares/Third_Party/LwIP/src/api/api_lib.c ****   *new_buf = NULL;
 1628              		.loc 1 628 3 discriminator 2 view .LVU472
 628:Middlewares/Third_Party/LwIP/src/api/api_lib.c ****   *new_buf = NULL;
 1629              		.loc 1 628 3 discriminator 2 view .LVU473
 629:Middlewares/Third_Party/LwIP/src/api/api_lib.c ****   LWIP_ERROR("netconn_recv: invalid conn",    (conn != NULL),    return ERR_ARG;);
 1630              		.loc 1 629 3 discriminator 2 view .LVU474
 629:Middlewares/Third_Party/LwIP/src/api/api_lib.c ****   LWIP_ERROR("netconn_recv: invalid conn",    (conn != NULL),    return ERR_ARG;);
 1631              		.loc 1 629 12 is_stmt 0 discriminator 2 view .LVU475
 1632 000a 0023     		movs	r3, #0
 1633 000c 0B60     		str	r3, [r1]
 630:Middlewares/Third_Party/LwIP/src/api/api_lib.c **** 
 1634              		.loc 1 630 3 is_stmt 1 discriminator 2 view .LVU476
 630:Middlewares/Third_Party/LwIP/src/api/api_lib.c **** 
 1635              		.loc 1 630 3 discriminator 2 view .LVU477
ARM GAS  C:\Users\Nina\AppData\Local\Temp\ccYqiCSe.s 			page 53


 1636 000e 30B3     		cbz	r0, .L140
 630:Middlewares/Third_Party/LwIP/src/api/api_lib.c **** 
 1637              		.loc 1 630 3 discriminator 2 view .LVU478
 630:Middlewares/Third_Party/LwIP/src/api/api_lib.c **** 
 1638              		.loc 1 630 3 discriminator 2 view .LVU479
 634:Middlewares/Third_Party/LwIP/src/api/api_lib.c **** #endif /* (LWIP_UDP || LWIP_RAW) */
 1639              		.loc 1 634 3 discriminator 2 view .LVU480
 634:Middlewares/Third_Party/LwIP/src/api/api_lib.c **** #endif /* (LWIP_UDP || LWIP_RAW) */
 1640              		.loc 1 634 7 is_stmt 0 discriminator 2 view .LVU481
 1641 0010 0378     		ldrb	r3, [r0]	@ zero_extendqisi2
 634:Middlewares/Third_Party/LwIP/src/api/api_lib.c **** #endif /* (LWIP_UDP || LWIP_RAW) */
 1642              		.loc 1 634 6 discriminator 2 view .LVU482
 1643 0012 03F0F003 		and	r3, r3, #240
 1644 0016 102B     		cmp	r3, #16
 1645 0018 3BD1     		bne	.L133
 1646              	.LBB5:
 637:Middlewares/Third_Party/LwIP/src/api/api_lib.c ****     /* This is not a listening netconn, since recvmbox is set */
 1647              		.loc 1 637 5 is_stmt 1 view .LVU483
 637:Middlewares/Third_Party/LwIP/src/api/api_lib.c ****     /* This is not a listening netconn, since recvmbox is set */
 1648              		.loc 1 637 18 is_stmt 0 view .LVU484
 1649 001a 0023     		movs	r3, #0
 1650 001c 0193     		str	r3, [sp, #4]
 640:Middlewares/Third_Party/LwIP/src/api/api_lib.c ****     if (buf == NULL) {
 1651              		.loc 1 640 5 is_stmt 1 view .LVU485
 640:Middlewares/Third_Party/LwIP/src/api/api_lib.c ****     if (buf == NULL) {
 1652              		.loc 1 640 28 is_stmt 0 view .LVU486
 1653 001e 0620     		movs	r0, #6
 1654              	.LVL153:
 640:Middlewares/Third_Party/LwIP/src/api/api_lib.c ****     if (buf == NULL) {
 1655              		.loc 1 640 28 view .LVU487
 1656 0020 FFF7FEFF 		bl	memp_malloc
 1657              	.LVL154:
 641:Middlewares/Third_Party/LwIP/src/api/api_lib.c ****       return ERR_MEM;
 1658              		.loc 1 641 5 is_stmt 1 view .LVU488
 641:Middlewares/Third_Party/LwIP/src/api/api_lib.c ****       return ERR_MEM;
 1659              		.loc 1 641 8 is_stmt 0 view .LVU489
 1660 0024 0646     		mov	r6, r0
 1661 0026 0028     		cmp	r0, #0
 1662 0028 30D0     		beq	.L137
 645:Middlewares/Third_Party/LwIP/src/api/api_lib.c ****     if (err != ERR_OK) {
 1663              		.loc 1 645 5 is_stmt 1 view .LVU490
 645:Middlewares/Third_Party/LwIP/src/api/api_lib.c ****     if (err != ERR_OK) {
 1664              		.loc 1 645 11 is_stmt 0 view .LVU491
 1665 002a 01A9     		add	r1, sp, #4
 1666 002c 2046     		mov	r0, r4
 1667              	.LVL155:
 645:Middlewares/Third_Party/LwIP/src/api/api_lib.c ****     if (err != ERR_OK) {
 1668              		.loc 1 645 11 view .LVU492
 1669 002e FFF7FEFF 		bl	netconn_recv_data
 1670              	.LVL156:
 646:Middlewares/Third_Party/LwIP/src/api/api_lib.c ****       memp_free(MEMP_NETBUF, buf);
 1671              		.loc 1 646 5 is_stmt 1 view .LVU493
 646:Middlewares/Third_Party/LwIP/src/api/api_lib.c ****       memp_free(MEMP_NETBUF, buf);
 1672              		.loc 1 646 8 is_stmt 0 view .LVU494
 1673 0032 0446     		mov	r4, r0
 1674              	.LVL157:
 646:Middlewares/Third_Party/LwIP/src/api/api_lib.c ****       memp_free(MEMP_NETBUF, buf);
ARM GAS  C:\Users\Nina\AppData\Local\Temp\ccYqiCSe.s 			page 54


 1675              		.loc 1 646 8 view .LVU495
 1676 0034 E8B9     		cbnz	r0, .L141
 650:Middlewares/Third_Party/LwIP/src/api/api_lib.c **** 
 1677              		.loc 1 650 5 is_stmt 1 view .LVU496
 650:Middlewares/Third_Party/LwIP/src/api/api_lib.c **** 
 1678              		.loc 1 650 5 view .LVU497
 1679 0036 019B     		ldr	r3, [sp, #4]
 1680 0038 03B3     		cbz	r3, .L142
 1681              	.LVL158:
 1682              	.L136:
 650:Middlewares/Third_Party/LwIP/src/api/api_lib.c **** 
 1683              		.loc 1 650 5 discriminator 3 view .LVU498
 650:Middlewares/Third_Party/LwIP/src/api/api_lib.c **** 
 1684              		.loc 1 650 5 discriminator 3 view .LVU499
 652:Middlewares/Third_Party/LwIP/src/api/api_lib.c ****     buf->ptr = p;
 1685              		.loc 1 652 5 discriminator 3 view .LVU500
 652:Middlewares/Third_Party/LwIP/src/api/api_lib.c ****     buf->ptr = p;
 1686              		.loc 1 652 12 is_stmt 0 discriminator 3 view .LVU501
 1687 003a 019B     		ldr	r3, [sp, #4]
 1688 003c 3360     		str	r3, [r6]
 653:Middlewares/Third_Party/LwIP/src/api/api_lib.c ****     buf->port = 0;
 1689              		.loc 1 653 5 is_stmt 1 discriminator 3 view .LVU502
 653:Middlewares/Third_Party/LwIP/src/api/api_lib.c ****     buf->port = 0;
 1690              		.loc 1 653 14 is_stmt 0 discriminator 3 view .LVU503
 1691 003e 7360     		str	r3, [r6, #4]
 654:Middlewares/Third_Party/LwIP/src/api/api_lib.c ****     ip_addr_set_zero(&buf->addr);
 1692              		.loc 1 654 5 is_stmt 1 discriminator 3 view .LVU504
 654:Middlewares/Third_Party/LwIP/src/api/api_lib.c ****     ip_addr_set_zero(&buf->addr);
 1693              		.loc 1 654 15 is_stmt 0 discriminator 3 view .LVU505
 1694 0040 0023     		movs	r3, #0
 1695 0042 B381     		strh	r3, [r6, #12]	@ movhi
 655:Middlewares/Third_Party/LwIP/src/api/api_lib.c ****     *new_buf = buf;
 1696              		.loc 1 655 5 is_stmt 1 discriminator 3 view .LVU506
 1697 0044 B360     		str	r3, [r6, #8]
 656:Middlewares/Third_Party/LwIP/src/api/api_lib.c ****     /* don't set conn->last_err: it's only ERR_OK, anyway */
 1698              		.loc 1 656 5 discriminator 3 view .LVU507
 656:Middlewares/Third_Party/LwIP/src/api/api_lib.c ****     /* don't set conn->last_err: it's only ERR_OK, anyway */
 1699              		.loc 1 656 14 is_stmt 0 discriminator 3 view .LVU508
 1700 0046 2E60     		str	r6, [r5]
 658:Middlewares/Third_Party/LwIP/src/api/api_lib.c ****   }
 1701              		.loc 1 658 5 is_stmt 1 discriminator 3 view .LVU509
 658:Middlewares/Third_Party/LwIP/src/api/api_lib.c ****   }
 1702              		.loc 1 658 12 is_stmt 0 discriminator 3 view .LVU510
 1703 0048 26E0     		b	.L131
 1704              	.LVL159:
 1705              	.L139:
 658:Middlewares/Third_Party/LwIP/src/api/api_lib.c ****   }
 1706              		.loc 1 658 12 discriminator 3 view .LVU511
 1707              	.LBE5:
 628:Middlewares/Third_Party/LwIP/src/api/api_lib.c ****   *new_buf = NULL;
 1708              		.loc 1 628 3 is_stmt 1 discriminator 1 view .LVU512
 628:Middlewares/Third_Party/LwIP/src/api/api_lib.c ****   *new_buf = NULL;
 1709              		.loc 1 628 3 discriminator 1 view .LVU513
 1710 004a 154B     		ldr	r3, .L143
 1711 004c 4FF41D72 		mov	r2, #628
 1712 0050 1449     		ldr	r1, .L143+4
 1713              	.LVL160:
ARM GAS  C:\Users\Nina\AppData\Local\Temp\ccYqiCSe.s 			page 55


 628:Middlewares/Third_Party/LwIP/src/api/api_lib.c ****   *new_buf = NULL;
 1714              		.loc 1 628 3 is_stmt 0 discriminator 1 view .LVU514
 1715 0052 1548     		ldr	r0, .L143+8
 1716              	.LVL161:
 628:Middlewares/Third_Party/LwIP/src/api/api_lib.c ****   *new_buf = NULL;
 1717              		.loc 1 628 3 discriminator 1 view .LVU515
 1718 0054 FFF7FEFF 		bl	printf
 1719              	.LVL162:
 628:Middlewares/Third_Party/LwIP/src/api/api_lib.c ****   *new_buf = NULL;
 1720              		.loc 1 628 3 is_stmt 1 discriminator 1 view .LVU516
 628:Middlewares/Third_Party/LwIP/src/api/api_lib.c ****   *new_buf = NULL;
 1721              		.loc 1 628 3 discriminator 1 view .LVU517
 1722 0058 6FF00F04 		mvn	r4, #15
 1723 005c 1CE0     		b	.L131
 1724              	.LVL163:
 1725              	.L140:
 630:Middlewares/Third_Party/LwIP/src/api/api_lib.c **** 
 1726              		.loc 1 630 3 discriminator 1 view .LVU518
 630:Middlewares/Third_Party/LwIP/src/api/api_lib.c **** 
 1727              		.loc 1 630 3 discriminator 1 view .LVU519
 1728 005e 104B     		ldr	r3, .L143
 1729 0060 40F27622 		movw	r2, #630
 1730 0064 1149     		ldr	r1, .L143+12
 1731              	.LVL164:
 630:Middlewares/Third_Party/LwIP/src/api/api_lib.c **** 
 1732              		.loc 1 630 3 is_stmt 0 discriminator 1 view .LVU520
 1733 0066 1048     		ldr	r0, .L143+8
 1734              	.LVL165:
 630:Middlewares/Third_Party/LwIP/src/api/api_lib.c **** 
 1735              		.loc 1 630 3 discriminator 1 view .LVU521
 1736 0068 FFF7FEFF 		bl	printf
 1737              	.LVL166:
 630:Middlewares/Third_Party/LwIP/src/api/api_lib.c **** 
 1738              		.loc 1 630 3 is_stmt 1 discriminator 1 view .LVU522
 630:Middlewares/Third_Party/LwIP/src/api/api_lib.c **** 
 1739              		.loc 1 630 3 discriminator 1 view .LVU523
 1740 006c 6FF00F04 		mvn	r4, #15
 1741              	.LVL167:
 630:Middlewares/Third_Party/LwIP/src/api/api_lib.c **** 
 1742              		.loc 1 630 3 is_stmt 0 discriminator 1 view .LVU524
 1743 0070 12E0     		b	.L131
 1744              	.LVL168:
 1745              	.L141:
 1746              	.LBB6:
 647:Middlewares/Third_Party/LwIP/src/api/api_lib.c ****       return err;
 1747              		.loc 1 647 7 is_stmt 1 view .LVU525
 1748 0072 3146     		mov	r1, r6
 1749 0074 0620     		movs	r0, #6
 1750              	.LVL169:
 647:Middlewares/Third_Party/LwIP/src/api/api_lib.c ****       return err;
 1751              		.loc 1 647 7 is_stmt 0 view .LVU526
 1752 0076 FFF7FEFF 		bl	memp_free
 1753              	.LVL170:
 648:Middlewares/Third_Party/LwIP/src/api/api_lib.c ****     }
 1754              		.loc 1 648 7 is_stmt 1 view .LVU527
 648:Middlewares/Third_Party/LwIP/src/api/api_lib.c ****     }
 1755              		.loc 1 648 14 is_stmt 0 view .LVU528
ARM GAS  C:\Users\Nina\AppData\Local\Temp\ccYqiCSe.s 			page 56


 1756 007a 0DE0     		b	.L131
 1757              	.LVL171:
 1758              	.L142:
 650:Middlewares/Third_Party/LwIP/src/api/api_lib.c **** 
 1759              		.loc 1 650 5 is_stmt 1 discriminator 1 view .LVU529
 650:Middlewares/Third_Party/LwIP/src/api/api_lib.c **** 
 1760              		.loc 1 650 5 discriminator 1 view .LVU530
 1761 007c 084B     		ldr	r3, .L143
 1762 007e 40F28A22 		movw	r2, #650
 1763 0082 0B49     		ldr	r1, .L143+16
 1764 0084 0848     		ldr	r0, .L143+8
 1765              	.LVL172:
 650:Middlewares/Third_Party/LwIP/src/api/api_lib.c **** 
 1766              		.loc 1 650 5 is_stmt 0 discriminator 1 view .LVU531
 1767 0086 FFF7FEFF 		bl	printf
 1768              	.LVL173:
 1769 008a D6E7     		b	.L136
 1770              	.LVL174:
 1771              	.L137:
 642:Middlewares/Third_Party/LwIP/src/api/api_lib.c ****     }
 1772              		.loc 1 642 14 view .LVU532
 1773 008c 4FF0FF34 		mov	r4, #-1
 1774              	.LVL175:
 642:Middlewares/Third_Party/LwIP/src/api/api_lib.c ****     }
 1775              		.loc 1 642 14 view .LVU533
 1776 0090 02E0     		b	.L131
 1777              	.LVL176:
 1778              	.L133:
 642:Middlewares/Third_Party/LwIP/src/api/api_lib.c ****     }
 1779              		.loc 1 642 14 view .LVU534
 1780              	.LBE6:
 666:Middlewares/Third_Party/LwIP/src/api/api_lib.c **** #endif /* (LWIP_UDP || LWIP_RAW) */
 1781              		.loc 1 666 5 is_stmt 1 view .LVU535
 666:Middlewares/Third_Party/LwIP/src/api/api_lib.c **** #endif /* (LWIP_UDP || LWIP_RAW) */
 1782              		.loc 1 666 12 is_stmt 0 view .LVU536
 1783 0092 FFF7FEFF 		bl	netconn_recv_data
 1784              	.LVL177:
 666:Middlewares/Third_Party/LwIP/src/api/api_lib.c **** #endif /* (LWIP_UDP || LWIP_RAW) */
 1785              		.loc 1 666 12 view .LVU537
 1786 0096 0446     		mov	r4, r0
 1787              	.LVL178:
 1788              	.L131:
 669:Middlewares/Third_Party/LwIP/src/api/api_lib.c **** 
 1789              		.loc 1 669 1 discriminator 1 view .LVU538
 1790 0098 2046     		mov	r0, r4
 1791 009a 02B0     		add	sp, sp, #8
 1792              	.LCFI44:
 1793              		.cfi_def_cfa_offset 16
 1794              		@ sp needed
 1795 009c 70BD     		pop	{r4, r5, r6, pc}
 1796              	.L144:
 1797 009e 00BF     		.align	2
 1798              	.L143:
 1799 00a0 00000000 		.word	.LC0
 1800 00a4 00000000 		.word	.LC3
 1801 00a8 4C000000 		.word	.LC2
 1802 00ac 20000000 		.word	.LC4
ARM GAS  C:\Users\Nina\AppData\Local\Temp\ccYqiCSe.s 			page 57


 1803 00b0 00000000 		.word	.LC20
 1804              		.cfi_endproc
 1805              	.LFE176:
 1807              		.section	.rodata.netconn_send.str1.4,"aMS",%progbits,1
 1808              		.align	2
 1809              	.LC21:
 1810 0000 6E657463 		.ascii	"netconn_send: invalid conn\000"
 1810      6F6E6E5F 
 1810      73656E64 
 1810      3A20696E 
 1810      76616C69 
 1811              		.section	.text.netconn_send,"ax",%progbits
 1812              		.align	1
 1813              		.global	netconn_send
 1814              		.syntax unified
 1815              		.thumb
 1816              		.thumb_func
 1817              		.fpu fpv5-sp-d16
 1819              	netconn_send:
 1820              	.LVL179:
 1821              	.LFB178:
 703:Middlewares/Third_Party/LwIP/src/api/api_lib.c ****   API_MSG_VAR_DECLARE(msg);
 1822              		.loc 1 703 1 is_stmt 1 view -0
 1823              		.cfi_startproc
 1824              		@ args = 0, pretend = 0, frame = 24
 1825              		@ frame_needed = 0, uses_anonymous_args = 0
 703:Middlewares/Third_Party/LwIP/src/api/api_lib.c ****   API_MSG_VAR_DECLARE(msg);
 1826              		.loc 1 703 1 is_stmt 0 view .LVU540
 1827 0000 00B5     		push	{lr}
 1828              	.LCFI45:
 1829              		.cfi_def_cfa_offset 4
 1830              		.cfi_offset 14, -4
 1831 0002 87B0     		sub	sp, sp, #28
 1832              	.LCFI46:
 1833              		.cfi_def_cfa_offset 32
 704:Middlewares/Third_Party/LwIP/src/api/api_lib.c ****   err_t err;
 1834              		.loc 1 704 3 is_stmt 1 view .LVU541
 705:Middlewares/Third_Party/LwIP/src/api/api_lib.c **** 
 1835              		.loc 1 705 3 view .LVU542
 707:Middlewares/Third_Party/LwIP/src/api/api_lib.c **** 
 1836              		.loc 1 707 3 view .LVU543
 707:Middlewares/Third_Party/LwIP/src/api/api_lib.c **** 
 1837              		.loc 1 707 3 view .LVU544
 1838 0004 40B1     		cbz	r0, .L149
 707:Middlewares/Third_Party/LwIP/src/api/api_lib.c **** 
 1839              		.loc 1 707 3 discriminator 2 view .LVU545
 707:Middlewares/Third_Party/LwIP/src/api/api_lib.c **** 
 1840              		.loc 1 707 3 discriminator 2 view .LVU546
 709:Middlewares/Third_Party/LwIP/src/api/api_lib.c **** 
 1841              		.loc 1 709 90 discriminator 2 view .LVU547
 711:Middlewares/Third_Party/LwIP/src/api/api_lib.c ****   API_MSG_VAR_REF(msg).conn = conn;
 1842              		.loc 1 711 25 discriminator 2 view .LVU548
 712:Middlewares/Third_Party/LwIP/src/api/api_lib.c ****   API_MSG_VAR_REF(msg).msg.b = buf;
 1843              		.loc 1 712 3 discriminator 2 view .LVU549
 712:Middlewares/Third_Party/LwIP/src/api/api_lib.c ****   API_MSG_VAR_REF(msg).msg.b = buf;
 1844              		.loc 1 712 29 is_stmt 0 discriminator 2 view .LVU550
 1845 0006 0190     		str	r0, [sp, #4]
ARM GAS  C:\Users\Nina\AppData\Local\Temp\ccYqiCSe.s 			page 58


 713:Middlewares/Third_Party/LwIP/src/api/api_lib.c ****   err = netconn_apimsg(lwip_netconn_do_send, &API_MSG_VAR_REF(msg));
 1846              		.loc 1 713 3 is_stmt 1 discriminator 2 view .LVU551
 713:Middlewares/Third_Party/LwIP/src/api/api_lib.c ****   err = netconn_apimsg(lwip_netconn_do_send, &API_MSG_VAR_REF(msg));
 1847              		.loc 1 713 30 is_stmt 0 discriminator 2 view .LVU552
 1848 0008 0391     		str	r1, [sp, #12]
 714:Middlewares/Third_Party/LwIP/src/api/api_lib.c ****   API_MSG_VAR_FREE(msg);
 1849              		.loc 1 714 3 is_stmt 1 discriminator 2 view .LVU553
 714:Middlewares/Third_Party/LwIP/src/api/api_lib.c ****   API_MSG_VAR_FREE(msg);
 1850              		.loc 1 714 9 is_stmt 0 discriminator 2 view .LVU554
 1851 000a 01A9     		add	r1, sp, #4
 1852              	.LVL180:
 714:Middlewares/Third_Party/LwIP/src/api/api_lib.c ****   API_MSG_VAR_FREE(msg);
 1853              		.loc 1 714 9 discriminator 2 view .LVU555
 1854 000c 0748     		ldr	r0, .L150
 1855              	.LVL181:
 714:Middlewares/Third_Party/LwIP/src/api/api_lib.c ****   API_MSG_VAR_FREE(msg);
 1856              		.loc 1 714 9 discriminator 2 view .LVU556
 1857 000e FFF7FEFF 		bl	netconn_apimsg
 1858              	.LVL182:
 715:Middlewares/Third_Party/LwIP/src/api/api_lib.c **** 
 1859              		.loc 1 715 24 is_stmt 1 discriminator 2 view .LVU557
 717:Middlewares/Third_Party/LwIP/src/api/api_lib.c **** }
 1860              		.loc 1 717 3 discriminator 2 view .LVU558
 1861              	.L147:
 718:Middlewares/Third_Party/LwIP/src/api/api_lib.c **** 
 1862              		.loc 1 718 1 is_stmt 0 view .LVU559
 1863 0012 07B0     		add	sp, sp, #28
 1864              	.LCFI47:
 1865              		.cfi_remember_state
 1866              		.cfi_def_cfa_offset 4
 1867              		@ sp needed
 1868 0014 5DF804FB 		ldr	pc, [sp], #4
 1869              	.LVL183:
 1870              	.L149:
 1871              	.LCFI48:
 1872              		.cfi_restore_state
 707:Middlewares/Third_Party/LwIP/src/api/api_lib.c **** 
 1873              		.loc 1 707 3 is_stmt 1 discriminator 1 view .LVU560
 707:Middlewares/Third_Party/LwIP/src/api/api_lib.c **** 
 1874              		.loc 1 707 3 discriminator 1 view .LVU561
 1875 0018 054B     		ldr	r3, .L150+4
 1876 001a 40F2C322 		movw	r2, #707
 1877 001e 0549     		ldr	r1, .L150+8
 1878              	.LVL184:
 707:Middlewares/Third_Party/LwIP/src/api/api_lib.c **** 
 1879              		.loc 1 707 3 is_stmt 0 discriminator 1 view .LVU562
 1880 0020 0548     		ldr	r0, .L150+12
 1881              	.LVL185:
 707:Middlewares/Third_Party/LwIP/src/api/api_lib.c **** 
 1882              		.loc 1 707 3 discriminator 1 view .LVU563
 1883 0022 FFF7FEFF 		bl	printf
 1884              	.LVL186:
 707:Middlewares/Third_Party/LwIP/src/api/api_lib.c **** 
 1885              		.loc 1 707 3 is_stmt 1 discriminator 1 view .LVU564
 707:Middlewares/Third_Party/LwIP/src/api/api_lib.c **** 
 1886              		.loc 1 707 3 discriminator 1 view .LVU565
 1887 0026 6FF00F00 		mvn	r0, #15
ARM GAS  C:\Users\Nina\AppData\Local\Temp\ccYqiCSe.s 			page 59


 1888 002a F2E7     		b	.L147
 1889              	.L151:
 1890              		.align	2
 1891              	.L150:
 1892 002c 00000000 		.word	lwip_netconn_do_send
 1893 0030 00000000 		.word	.LC0
 1894 0034 00000000 		.word	.LC21
 1895 0038 4C000000 		.word	.LC2
 1896              		.cfi_endproc
 1897              	.LFE178:
 1899              		.section	.text.netconn_sendto,"ax",%progbits
 1900              		.align	1
 1901              		.global	netconn_sendto
 1902              		.syntax unified
 1903              		.thumb
 1904              		.thumb_func
 1905              		.fpu fpv5-sp-d16
 1907              	netconn_sendto:
 1908              	.LVL187:
 1909              	.LFB177:
 684:Middlewares/Third_Party/LwIP/src/api/api_lib.c ****   if (buf != NULL) {
 1910              		.loc 1 684 1 view -0
 1911              		.cfi_startproc
 1912              		@ args = 0, pretend = 0, frame = 0
 1913              		@ frame_needed = 0, uses_anonymous_args = 0
 685:Middlewares/Third_Party/LwIP/src/api/api_lib.c ****     ip_addr_set(&buf->addr, addr);
 1914              		.loc 1 685 3 view .LVU567
 685:Middlewares/Third_Party/LwIP/src/api/api_lib.c ****     ip_addr_set(&buf->addr, addr);
 1915              		.loc 1 685 6 is_stmt 0 view .LVU568
 1916 0000 59B1     		cbz	r1, .L155
 684:Middlewares/Third_Party/LwIP/src/api/api_lib.c ****   if (buf != NULL) {
 1917              		.loc 1 684 1 view .LVU569
 1918 0002 10B5     		push	{r4, lr}
 1919              	.LCFI49:
 1920              		.cfi_def_cfa_offset 8
 1921              		.cfi_offset 4, -8
 1922              		.cfi_offset 14, -4
 1923 0004 0C46     		mov	r4, r1
 686:Middlewares/Third_Party/LwIP/src/api/api_lib.c ****     buf->port = port;
 1924              		.loc 1 686 5 is_stmt 1 view .LVU570
 1925 0006 32B1     		cbz	r2, .L156
 686:Middlewares/Third_Party/LwIP/src/api/api_lib.c ****     buf->port = port;
 1926              		.loc 1 686 5 is_stmt 0 discriminator 1 view .LVU571
 1927 0008 1268     		ldr	r2, [r2]
 1928              	.LVL188:
 1929              	.L154:
 686:Middlewares/Third_Party/LwIP/src/api/api_lib.c ****     buf->port = port;
 1930              		.loc 1 686 5 discriminator 4 view .LVU572
 1931 000a A260     		str	r2, [r4, #8]
 687:Middlewares/Third_Party/LwIP/src/api/api_lib.c ****     return netconn_send(conn, buf);
 1932              		.loc 1 687 5 is_stmt 1 discriminator 4 view .LVU573
 687:Middlewares/Third_Party/LwIP/src/api/api_lib.c ****     return netconn_send(conn, buf);
 1933              		.loc 1 687 15 is_stmt 0 discriminator 4 view .LVU574
 1934 000c A381     		strh	r3, [r4, #12]	@ movhi
 688:Middlewares/Third_Party/LwIP/src/api/api_lib.c ****   }
 1935              		.loc 1 688 5 is_stmt 1 discriminator 4 view .LVU575
 688:Middlewares/Third_Party/LwIP/src/api/api_lib.c ****   }
ARM GAS  C:\Users\Nina\AppData\Local\Temp\ccYqiCSe.s 			page 60


 1936              		.loc 1 688 12 is_stmt 0 discriminator 4 view .LVU576
 1937 000e 2146     		mov	r1, r4
 1938              	.LVL189:
 688:Middlewares/Third_Party/LwIP/src/api/api_lib.c ****   }
 1939              		.loc 1 688 12 discriminator 4 view .LVU577
 1940 0010 FFF7FEFF 		bl	netconn_send
 1941              	.LVL190:
 691:Middlewares/Third_Party/LwIP/src/api/api_lib.c **** 
 1942              		.loc 1 691 1 discriminator 4 view .LVU578
 1943 0014 10BD     		pop	{r4, pc}
 1944              	.LVL191:
 1945              	.L156:
 686:Middlewares/Third_Party/LwIP/src/api/api_lib.c ****     buf->port = port;
 1946              		.loc 1 686 5 view .LVU579
 1947 0016 0022     		movs	r2, #0
 1948              	.LVL192:
 686:Middlewares/Third_Party/LwIP/src/api/api_lib.c ****     buf->port = port;
 1949              		.loc 1 686 5 view .LVU580
 1950 0018 F7E7     		b	.L154
 1951              	.LVL193:
 1952              	.L155:
 1953              	.LCFI50:
 1954              		.cfi_def_cfa_offset 0
 1955              		.cfi_restore 4
 1956              		.cfi_restore 14
 690:Middlewares/Third_Party/LwIP/src/api/api_lib.c **** }
 1957              		.loc 1 690 10 view .LVU581
 1958 001a 6FF00500 		mvn	r0, #5
 1959              	.LVL194:
 691:Middlewares/Third_Party/LwIP/src/api/api_lib.c **** 
 1960              		.loc 1 691 1 view .LVU582
 1961 001e 7047     		bx	lr
 1962              		.cfi_endproc
 1963              	.LFE177:
 1965              		.section	.rodata.netconn_write_partly.str1.4,"aMS",%progbits,1
 1966              		.align	2
 1967              	.LC22:
 1968 0000 6E657463 		.ascii	"netconn_write: invalid conn\000"
 1968      6F6E6E5F 
 1968      77726974 
 1968      653A2069 
 1968      6E76616C 
 1969              		.align	2
 1970              	.LC23:
 1971 001c 6E657463 		.ascii	"netconn_write: invalid conn->type\000"
 1971      6F6E6E5F 
 1971      77726974 
 1971      653A2069 
 1971      6E76616C 
 1972              		.section	.text.netconn_write_partly,"ax",%progbits
 1973              		.align	1
 1974              		.global	netconn_write_partly
 1975              		.syntax unified
 1976              		.thumb
 1977              		.thumb_func
 1978              		.fpu fpv5-sp-d16
 1980              	netconn_write_partly:
ARM GAS  C:\Users\Nina\AppData\Local\Temp\ccYqiCSe.s 			page 61


 1981              	.LVL195:
 1982              	.LFB179:
 737:Middlewares/Third_Party/LwIP/src/api/api_lib.c ****   API_MSG_VAR_DECLARE(msg);
 1983              		.loc 1 737 1 is_stmt 1 view -0
 1984              		.cfi_startproc
 1985              		@ args = 4, pretend = 0, frame = 24
 1986              		@ frame_needed = 0, uses_anonymous_args = 0
 737:Middlewares/Third_Party/LwIP/src/api/api_lib.c ****   API_MSG_VAR_DECLARE(msg);
 1987              		.loc 1 737 1 is_stmt 0 view .LVU584
 1988 0000 F0B5     		push	{r4, r5, r6, r7, lr}
 1989              	.LCFI51:
 1990              		.cfi_def_cfa_offset 20
 1991              		.cfi_offset 4, -20
 1992              		.cfi_offset 5, -16
 1993              		.cfi_offset 6, -12
 1994              		.cfi_offset 7, -8
 1995              		.cfi_offset 14, -4
 1996 0002 87B0     		sub	sp, sp, #28
 1997              	.LCFI52:
 1998              		.cfi_def_cfa_offset 48
 1999 0004 0C9E     		ldr	r6, [sp, #48]
 738:Middlewares/Third_Party/LwIP/src/api/api_lib.c ****   err_t err;
 2000              		.loc 1 738 3 is_stmt 1 view .LVU585
 739:Middlewares/Third_Party/LwIP/src/api/api_lib.c ****   u8_t dontblock;
 2001              		.loc 1 739 3 view .LVU586
 740:Middlewares/Third_Party/LwIP/src/api/api_lib.c **** 
 2002              		.loc 1 740 3 view .LVU587
 742:Middlewares/Third_Party/LwIP/src/api/api_lib.c ****   LWIP_ERROR("netconn_write: invalid conn->type",  (NETCONNTYPE_GROUP(conn->type)== NETCONN_TCP), r
 2003              		.loc 1 742 3 view .LVU588
 742:Middlewares/Third_Party/LwIP/src/api/api_lib.c ****   LWIP_ERROR("netconn_write: invalid conn->type",  (NETCONNTYPE_GROUP(conn->type)== NETCONN_TCP), r
 2004              		.loc 1 742 3 view .LVU589
 2005 0006 88B1     		cbz	r0, .L172
 2006 0008 1446     		mov	r4, r2
 2007 000a 0546     		mov	r5, r0
 742:Middlewares/Third_Party/LwIP/src/api/api_lib.c ****   LWIP_ERROR("netconn_write: invalid conn->type",  (NETCONNTYPE_GROUP(conn->type)== NETCONN_TCP), r
 2008              		.loc 1 742 3 discriminator 2 view .LVU590
 742:Middlewares/Third_Party/LwIP/src/api/api_lib.c ****   LWIP_ERROR("netconn_write: invalid conn->type",  (NETCONNTYPE_GROUP(conn->type)== NETCONN_TCP), r
 2009              		.loc 1 742 3 discriminator 2 view .LVU591
 743:Middlewares/Third_Party/LwIP/src/api/api_lib.c ****   if (size == 0) {
 2010              		.loc 1 743 3 discriminator 2 view .LVU592
 743:Middlewares/Third_Party/LwIP/src/api/api_lib.c ****   if (size == 0) {
 2011              		.loc 1 743 3 discriminator 2 view .LVU593
 2012 000c 0278     		ldrb	r2, [r0]	@ zero_extendqisi2
 2013              	.LVL196:
 743:Middlewares/Third_Party/LwIP/src/api/api_lib.c ****   if (size == 0) {
 2014              		.loc 1 743 3 is_stmt 0 discriminator 2 view .LVU594
 2015 000e 02F0F002 		and	r2, r2, #240
 2016 0012 102A     		cmp	r2, #16
 2017 0014 14D1     		bne	.L173
 743:Middlewares/Third_Party/LwIP/src/api/api_lib.c ****   if (size == 0) {
 2018              		.loc 1 743 3 is_stmt 1 discriminator 2 view .LVU595
 743:Middlewares/Third_Party/LwIP/src/api/api_lib.c ****   if (size == 0) {
 2019              		.loc 1 743 3 discriminator 2 view .LVU596
 744:Middlewares/Third_Party/LwIP/src/api/api_lib.c ****     return ERR_OK;
 2020              		.loc 1 744 3 discriminator 2 view .LVU597
 744:Middlewares/Third_Party/LwIP/src/api/api_lib.c ****     return ERR_OK;
 2021              		.loc 1 744 6 is_stmt 0 discriminator 2 view .LVU598
ARM GAS  C:\Users\Nina\AppData\Local\Temp\ccYqiCSe.s 			page 62


 2022 0016 002C     		cmp	r4, #0
 2023 0018 3BD0     		beq	.L167
 747:Middlewares/Third_Party/LwIP/src/api/api_lib.c **** #if LWIP_SO_SNDTIMEO
 2024              		.loc 1 747 3 is_stmt 1 view .LVU599
 747:Middlewares/Third_Party/LwIP/src/api/api_lib.c **** #if LWIP_SO_SNDTIMEO
 2025              		.loc 1 747 15 is_stmt 0 view .LVU600
 2026 001a 027F     		ldrb	r2, [r0, #28]	@ zero_extendqisi2
 747:Middlewares/Third_Party/LwIP/src/api/api_lib.c **** #if LWIP_SO_SNDTIMEO
 2027              		.loc 1 747 44 view .LVU601
 2028 001c 12F0020F 		tst	r2, #2
 2029 0020 18D1     		bne	.L168
 747:Middlewares/Third_Party/LwIP/src/api/api_lib.c **** #if LWIP_SO_SNDTIMEO
 2030              		.loc 1 747 44 discriminator 2 view .LVU602
 2031 0022 13F0040F 		tst	r3, #4
 2032 0026 30D0     		beq	.L169
 747:Middlewares/Third_Party/LwIP/src/api/api_lib.c **** #if LWIP_SO_SNDTIMEO
 2033              		.loc 1 747 44 view .LVU603
 2034 0028 0122     		movs	r2, #1
 2035 002a 14E0     		b	.L165
 2036              	.LVL197:
 2037              	.L172:
 742:Middlewares/Third_Party/LwIP/src/api/api_lib.c ****   LWIP_ERROR("netconn_write: invalid conn->type",  (NETCONNTYPE_GROUP(conn->type)== NETCONN_TCP), r
 2038              		.loc 1 742 3 is_stmt 1 discriminator 1 view .LVU604
 742:Middlewares/Third_Party/LwIP/src/api/api_lib.c ****   LWIP_ERROR("netconn_write: invalid conn->type",  (NETCONNTYPE_GROUP(conn->type)== NETCONN_TCP), r
 2039              		.loc 1 742 3 discriminator 1 view .LVU605
 2040 002c 1C4B     		ldr	r3, .L174
 2041              	.LVL198:
 742:Middlewares/Third_Party/LwIP/src/api/api_lib.c ****   LWIP_ERROR("netconn_write: invalid conn->type",  (NETCONNTYPE_GROUP(conn->type)== NETCONN_TCP), r
 2042              		.loc 1 742 3 is_stmt 0 discriminator 1 view .LVU606
 2043 002e 40F2E622 		movw	r2, #742
 2044              	.LVL199:
 742:Middlewares/Third_Party/LwIP/src/api/api_lib.c ****   LWIP_ERROR("netconn_write: invalid conn->type",  (NETCONNTYPE_GROUP(conn->type)== NETCONN_TCP), r
 2045              		.loc 1 742 3 discriminator 1 view .LVU607
 2046 0032 1C49     		ldr	r1, .L174+4
 2047              	.LVL200:
 742:Middlewares/Third_Party/LwIP/src/api/api_lib.c ****   LWIP_ERROR("netconn_write: invalid conn->type",  (NETCONNTYPE_GROUP(conn->type)== NETCONN_TCP), r
 2048              		.loc 1 742 3 discriminator 1 view .LVU608
 2049 0034 1C48     		ldr	r0, .L174+8
 2050              	.LVL201:
 742:Middlewares/Third_Party/LwIP/src/api/api_lib.c ****   LWIP_ERROR("netconn_write: invalid conn->type",  (NETCONNTYPE_GROUP(conn->type)== NETCONN_TCP), r
 2051              		.loc 1 742 3 discriminator 1 view .LVU609
 2052 0036 FFF7FEFF 		bl	printf
 2053              	.LVL202:
 742:Middlewares/Third_Party/LwIP/src/api/api_lib.c ****   LWIP_ERROR("netconn_write: invalid conn->type",  (NETCONNTYPE_GROUP(conn->type)== NETCONN_TCP), r
 2054              		.loc 1 742 3 is_stmt 1 discriminator 1 view .LVU610
 742:Middlewares/Third_Party/LwIP/src/api/api_lib.c ****   LWIP_ERROR("netconn_write: invalid conn->type",  (NETCONNTYPE_GROUP(conn->type)== NETCONN_TCP), r
 2055              		.loc 1 742 3 discriminator 1 view .LVU611
 2056 003a 6FF00F00 		mvn	r0, #15
 2057 003e 29E0     		b	.L163
 2058              	.LVL203:
 2059              	.L173:
 743:Middlewares/Third_Party/LwIP/src/api/api_lib.c ****   if (size == 0) {
 2060              		.loc 1 743 3 discriminator 1 view .LVU612
 743:Middlewares/Third_Party/LwIP/src/api/api_lib.c ****   if (size == 0) {
 2061              		.loc 1 743 3 discriminator 1 view .LVU613
 2062 0040 174B     		ldr	r3, .L174
 2063              	.LVL204:
ARM GAS  C:\Users\Nina\AppData\Local\Temp\ccYqiCSe.s 			page 63


 743:Middlewares/Third_Party/LwIP/src/api/api_lib.c ****   if (size == 0) {
 2064              		.loc 1 743 3 is_stmt 0 discriminator 1 view .LVU614
 2065 0042 40F2E722 		movw	r2, #743
 2066 0046 1949     		ldr	r1, .L174+12
 2067              	.LVL205:
 743:Middlewares/Third_Party/LwIP/src/api/api_lib.c ****   if (size == 0) {
 2068              		.loc 1 743 3 discriminator 1 view .LVU615
 2069 0048 1748     		ldr	r0, .L174+8
 2070              	.LVL206:
 743:Middlewares/Third_Party/LwIP/src/api/api_lib.c ****   if (size == 0) {
 2071              		.loc 1 743 3 discriminator 1 view .LVU616
 2072 004a FFF7FEFF 		bl	printf
 2073              	.LVL207:
 743:Middlewares/Third_Party/LwIP/src/api/api_lib.c ****   if (size == 0) {
 2074              		.loc 1 743 3 is_stmt 1 discriminator 1 view .LVU617
 743:Middlewares/Third_Party/LwIP/src/api/api_lib.c ****   if (size == 0) {
 2075              		.loc 1 743 3 discriminator 1 view .LVU618
 2076 004e 6FF00500 		mvn	r0, #5
 2077 0052 1FE0     		b	.L163
 2078              	.LVL208:
 2079              	.L168:
 747:Middlewares/Third_Party/LwIP/src/api/api_lib.c **** #if LWIP_SO_SNDTIMEO
 2080              		.loc 1 747 44 is_stmt 0 view .LVU619
 2081 0054 0122     		movs	r2, #1
 2082              	.L165:
 2083              	.LVL209:
 753:Middlewares/Third_Party/LwIP/src/api/api_lib.c ****     /* This implies netconn_write() cannot be used for non-blocking send, since
 2084              		.loc 1 753 3 is_stmt 1 discriminator 6 view .LVU620
 753:Middlewares/Third_Party/LwIP/src/api/api_lib.c ****     /* This implies netconn_write() cannot be used for non-blocking send, since
 2085              		.loc 1 753 7 is_stmt 0 discriminator 6 view .LVU621
 2086 0056 02F0FF07 		and	r7, r2, #255
 753:Middlewares/Third_Party/LwIP/src/api/api_lib.c ****     /* This implies netconn_write() cannot be used for non-blocking send, since
 2087              		.loc 1 753 17 discriminator 6 view .LVU622
 2088 005a 002E     		cmp	r6, #0
 2089 005c 18BF     		it	ne
 2090 005e 0022     		movne	r2, #0
 2091              	.LVL210:
 753:Middlewares/Third_Party/LwIP/src/api/api_lib.c ****     /* This implies netconn_write() cannot be used for non-blocking send, since
 2092              		.loc 1 753 6 discriminator 6 view .LVU623
 2093 0060 D2B9     		cbnz	r2, .L170
 759:Middlewares/Third_Party/LwIP/src/api/api_lib.c ****   /* non-blocking write sends as much  */
 2094              		.loc 1 759 25 is_stmt 1 view .LVU624
 761:Middlewares/Third_Party/LwIP/src/api/api_lib.c ****   API_MSG_VAR_REF(msg).msg.w.dataptr = dataptr;
 2095              		.loc 1 761 3 view .LVU625
 761:Middlewares/Third_Party/LwIP/src/api/api_lib.c ****   API_MSG_VAR_REF(msg).msg.w.dataptr = dataptr;
 2096              		.loc 1 761 29 is_stmt 0 view .LVU626
 2097 0062 0195     		str	r5, [sp, #4]
 762:Middlewares/Third_Party/LwIP/src/api/api_lib.c ****   API_MSG_VAR_REF(msg).msg.w.apiflags = apiflags;
 2098              		.loc 1 762 3 is_stmt 1 view .LVU627
 762:Middlewares/Third_Party/LwIP/src/api/api_lib.c ****   API_MSG_VAR_REF(msg).msg.w.apiflags = apiflags;
 2099              		.loc 1 762 38 is_stmt 0 view .LVU628
 2100 0064 0391     		str	r1, [sp, #12]
 763:Middlewares/Third_Party/LwIP/src/api/api_lib.c ****   API_MSG_VAR_REF(msg).msg.w.len = size;
 2101              		.loc 1 763 3 is_stmt 1 view .LVU629
 763:Middlewares/Third_Party/LwIP/src/api/api_lib.c ****   API_MSG_VAR_REF(msg).msg.w.len = size;
 2102              		.loc 1 763 39 is_stmt 0 view .LVU630
 2103 0066 8DF81430 		strb	r3, [sp, #20]
ARM GAS  C:\Users\Nina\AppData\Local\Temp\ccYqiCSe.s 			page 64


 764:Middlewares/Third_Party/LwIP/src/api/api_lib.c **** #if LWIP_SO_SNDTIMEO
 2104              		.loc 1 764 3 is_stmt 1 view .LVU631
 764:Middlewares/Third_Party/LwIP/src/api/api_lib.c **** #if LWIP_SO_SNDTIMEO
 2105              		.loc 1 764 34 is_stmt 0 view .LVU632
 2106 006a 0494     		str	r4, [sp, #16]
 778:Middlewares/Third_Party/LwIP/src/api/api_lib.c ****   if ((err == ERR_OK) && (bytes_written != NULL)) {
 2107              		.loc 1 778 3 is_stmt 1 view .LVU633
 778:Middlewares/Third_Party/LwIP/src/api/api_lib.c ****   if ((err == ERR_OK) && (bytes_written != NULL)) {
 2108              		.loc 1 778 9 is_stmt 0 view .LVU634
 2109 006c 01A9     		add	r1, sp, #4
 2110              	.LVL211:
 778:Middlewares/Third_Party/LwIP/src/api/api_lib.c ****   if ((err == ERR_OK) && (bytes_written != NULL)) {
 2111              		.loc 1 778 9 view .LVU635
 2112 006e 1048     		ldr	r0, .L174+16
 2113              	.LVL212:
 778:Middlewares/Third_Party/LwIP/src/api/api_lib.c ****   if ((err == ERR_OK) && (bytes_written != NULL)) {
 2114              		.loc 1 778 9 view .LVU636
 2115 0070 FFF7FEFF 		bl	netconn_apimsg
 2116              	.LVL213:
 779:Middlewares/Third_Party/LwIP/src/api/api_lib.c ****     if (dontblock) {
 2117              		.loc 1 779 3 is_stmt 1 view .LVU637
 779:Middlewares/Third_Party/LwIP/src/api/api_lib.c ****     if (dontblock) {
 2118              		.loc 1 779 41 is_stmt 0 view .LVU638
 2119 0074 331E     		subs	r3, r6, #0
 2120 0076 18BF     		it	ne
 2121 0078 0123     		movne	r3, #1
 779:Middlewares/Third_Party/LwIP/src/api/api_lib.c ****     if (dontblock) {
 2122              		.loc 1 779 23 view .LVU639
 2123 007a 0028     		cmp	r0, #0
 2124 007c 18BF     		it	ne
 2125 007e 0023     		movne	r3, #0
 779:Middlewares/Third_Party/LwIP/src/api/api_lib.c ****     if (dontblock) {
 2126              		.loc 1 779 6 view .LVU640
 2127 0080 43B1     		cbz	r3, .L163
 780:Middlewares/Third_Party/LwIP/src/api/api_lib.c ****       /* nonblocking write: maybe the data has been sent partly */
 2128              		.loc 1 780 5 is_stmt 1 view .LVU641
 780:Middlewares/Third_Party/LwIP/src/api/api_lib.c ****       /* nonblocking write: maybe the data has been sent partly */
 2129              		.loc 1 780 8 is_stmt 0 view .LVU642
 2130 0082 27B1     		cbz	r7, .L166
 782:Middlewares/Third_Party/LwIP/src/api/api_lib.c ****     } else {
 2131              		.loc 1 782 7 is_stmt 1 view .LVU643
 782:Middlewares/Third_Party/LwIP/src/api/api_lib.c ****     } else {
 2132              		.loc 1 782 50 is_stmt 0 view .LVU644
 2133 0084 049B     		ldr	r3, [sp, #16]
 782:Middlewares/Third_Party/LwIP/src/api/api_lib.c ****     } else {
 2134              		.loc 1 782 22 view .LVU645
 2135 0086 3360     		str	r3, [r6]
 2136 0088 04E0     		b	.L163
 2137              	.LVL214:
 2138              	.L169:
 747:Middlewares/Third_Party/LwIP/src/api/api_lib.c **** #if LWIP_SO_SNDTIMEO
 2139              		.loc 1 747 44 view .LVU646
 2140 008a 0022     		movs	r2, #0
 2141 008c E3E7     		b	.L165
 2142              	.LVL215:
 2143              	.L166:
 785:Middlewares/Third_Party/LwIP/src/api/api_lib.c ****     }
ARM GAS  C:\Users\Nina\AppData\Local\Temp\ccYqiCSe.s 			page 65


 2144              		.loc 1 785 7 is_stmt 1 view .LVU647
 785:Middlewares/Third_Party/LwIP/src/api/api_lib.c ****     }
 2145              		.loc 1 785 22 is_stmt 0 view .LVU648
 2146 008e 3460     		str	r4, [r6]
 2147 0090 00E0     		b	.L163
 2148              	.LVL216:
 2149              	.L167:
 745:Middlewares/Third_Party/LwIP/src/api/api_lib.c ****   }
 2150              		.loc 1 745 12 view .LVU649
 2151 0092 0020     		movs	r0, #0
 2152              	.LVL217:
 2153              	.L163:
 791:Middlewares/Third_Party/LwIP/src/api/api_lib.c **** 
 2154              		.loc 1 791 1 view .LVU650
 2155 0094 07B0     		add	sp, sp, #28
 2156              	.LCFI53:
 2157              		.cfi_remember_state
 2158              		.cfi_def_cfa_offset 20
 2159              		@ sp needed
 2160 0096 F0BD     		pop	{r4, r5, r6, r7, pc}
 2161              	.LVL218:
 2162              	.L170:
 2163              	.LCFI54:
 2164              		.cfi_restore_state
 756:Middlewares/Third_Party/LwIP/src/api/api_lib.c ****   }
 2165              		.loc 1 756 12 view .LVU651
 2166 0098 6FF00500 		mvn	r0, #5
 2167              	.LVL219:
 756:Middlewares/Third_Party/LwIP/src/api/api_lib.c ****   }
 2168              		.loc 1 756 12 view .LVU652
 2169 009c FAE7     		b	.L163
 2170              	.L175:
 2171 009e 00BF     		.align	2
 2172              	.L174:
 2173 00a0 00000000 		.word	.LC0
 2174 00a4 00000000 		.word	.LC22
 2175 00a8 4C000000 		.word	.LC2
 2176 00ac 1C000000 		.word	.LC23
 2177 00b0 00000000 		.word	lwip_netconn_do_write
 2178              		.cfi_endproc
 2179              	.LFE179:
 2181              		.section	.text.netconn_close,"ax",%progbits
 2182              		.align	1
 2183              		.global	netconn_close
 2184              		.syntax unified
 2185              		.thumb
 2186              		.thumb_func
 2187              		.fpu fpv5-sp-d16
 2189              	netconn_close:
 2190              	.LVL220:
 2191              	.LFB181:
 829:Middlewares/Third_Party/LwIP/src/api/api_lib.c **** 
 830:Middlewares/Third_Party/LwIP/src/api/api_lib.c **** /**
 831:Middlewares/Third_Party/LwIP/src/api/api_lib.c ****  * @ingroup netconn_tcp
 832:Middlewares/Third_Party/LwIP/src/api/api_lib.c ****  * Close a TCP netconn (doesn't delete it).
 833:Middlewares/Third_Party/LwIP/src/api/api_lib.c ****  *
 834:Middlewares/Third_Party/LwIP/src/api/api_lib.c ****  * @param conn the TCP netconn to close
ARM GAS  C:\Users\Nina\AppData\Local\Temp\ccYqiCSe.s 			page 66


 835:Middlewares/Third_Party/LwIP/src/api/api_lib.c ****  * @return ERR_OK if the netconn was closed, any other err_t on error
 836:Middlewares/Third_Party/LwIP/src/api/api_lib.c ****  */
 837:Middlewares/Third_Party/LwIP/src/api/api_lib.c **** err_t
 838:Middlewares/Third_Party/LwIP/src/api/api_lib.c **** netconn_close(struct netconn *conn)
 839:Middlewares/Third_Party/LwIP/src/api/api_lib.c **** {
 2192              		.loc 1 839 1 is_stmt 1 view -0
 2193              		.cfi_startproc
 2194              		@ args = 0, pretend = 0, frame = 0
 2195              		@ frame_needed = 0, uses_anonymous_args = 0
 2196              		.loc 1 839 1 is_stmt 0 view .LVU654
 2197 0000 08B5     		push	{r3, lr}
 2198              	.LCFI55:
 2199              		.cfi_def_cfa_offset 8
 2200              		.cfi_offset 3, -8
 2201              		.cfi_offset 14, -4
 840:Middlewares/Third_Party/LwIP/src/api/api_lib.c ****   /* shutting down both ends is the same as closing */
 841:Middlewares/Third_Party/LwIP/src/api/api_lib.c ****   return netconn_close_shutdown(conn, NETCONN_SHUT_RDWR);
 2202              		.loc 1 841 3 is_stmt 1 view .LVU655
 2203              		.loc 1 841 10 is_stmt 0 view .LVU656
 2204 0002 0321     		movs	r1, #3
 2205 0004 FFF7FEFF 		bl	netconn_close_shutdown
 2206              	.LVL221:
 842:Middlewares/Third_Party/LwIP/src/api/api_lib.c **** }
 2207              		.loc 1 842 1 view .LVU657
 2208 0008 08BD     		pop	{r3, pc}
 2209              		.cfi_endproc
 2210              	.LFE181:
 2212              		.section	.text.netconn_shutdown,"ax",%progbits
 2213              		.align	1
 2214              		.global	netconn_shutdown
 2215              		.syntax unified
 2216              		.thumb
 2217              		.thumb_func
 2218              		.fpu fpv5-sp-d16
 2220              	netconn_shutdown:
 2221              	.LVL222:
 2222              	.LFB182:
 843:Middlewares/Third_Party/LwIP/src/api/api_lib.c **** 
 844:Middlewares/Third_Party/LwIP/src/api/api_lib.c **** /**
 845:Middlewares/Third_Party/LwIP/src/api/api_lib.c ****  * @ingroup netconn_tcp
 846:Middlewares/Third_Party/LwIP/src/api/api_lib.c ****  * Shut down one or both sides of a TCP netconn (doesn't delete it).
 847:Middlewares/Third_Party/LwIP/src/api/api_lib.c ****  *
 848:Middlewares/Third_Party/LwIP/src/api/api_lib.c ****  * @param conn the TCP netconn to shut down
 849:Middlewares/Third_Party/LwIP/src/api/api_lib.c ****  * @param shut_rx shut down the RX side (no more read possible after this)
 850:Middlewares/Third_Party/LwIP/src/api/api_lib.c ****  * @param shut_tx shut down the TX side (no more write possible after this)
 851:Middlewares/Third_Party/LwIP/src/api/api_lib.c ****  * @return ERR_OK if the netconn was closed, any other err_t on error
 852:Middlewares/Third_Party/LwIP/src/api/api_lib.c ****  */
 853:Middlewares/Third_Party/LwIP/src/api/api_lib.c **** err_t
 854:Middlewares/Third_Party/LwIP/src/api/api_lib.c **** netconn_shutdown(struct netconn *conn, u8_t shut_rx, u8_t shut_tx)
 855:Middlewares/Third_Party/LwIP/src/api/api_lib.c **** {
 2223              		.loc 1 855 1 is_stmt 1 view -0
 2224              		.cfi_startproc
 2225              		@ args = 0, pretend = 0, frame = 0
 2226              		@ frame_needed = 0, uses_anonymous_args = 0
 2227              		.loc 1 855 1 is_stmt 0 view .LVU659
 2228 0000 08B5     		push	{r3, lr}
 2229              	.LCFI56:
ARM GAS  C:\Users\Nina\AppData\Local\Temp\ccYqiCSe.s 			page 67


 2230              		.cfi_def_cfa_offset 8
 2231              		.cfi_offset 3, -8
 2232              		.cfi_offset 14, -4
 856:Middlewares/Third_Party/LwIP/src/api/api_lib.c ****   return netconn_close_shutdown(conn, (shut_rx ? NETCONN_SHUT_RD : 0) | (shut_tx ? NETCONN_SHUT_WR 
 2233              		.loc 1 856 3 is_stmt 1 view .LVU660
 2234              		.loc 1 856 66 is_stmt 0 view .LVU661
 2235 0002 0039     		subs	r1, r1, #0
 2236              	.LVL223:
 2237              		.loc 1 856 66 view .LVU662
 2238 0004 18BF     		it	ne
 2239 0006 0121     		movne	r1, #1
 2240              		.loc 1 856 71 view .LVU663
 2241 0008 22B1     		cbz	r2, .L180
 2242 000a 0223     		movs	r3, #2
 2243              	.L179:
 2244              		.loc 1 856 10 discriminator 4 view .LVU664
 2245 000c 1943     		orrs	r1, r1, r3
 2246 000e FFF7FEFF 		bl	netconn_close_shutdown
 2247              	.LVL224:
 857:Middlewares/Third_Party/LwIP/src/api/api_lib.c **** }
 2248              		.loc 1 857 1 discriminator 4 view .LVU665
 2249 0012 08BD     		pop	{r3, pc}
 2250              	.LVL225:
 2251              	.L180:
 856:Middlewares/Third_Party/LwIP/src/api/api_lib.c ****   return netconn_close_shutdown(conn, (shut_rx ? NETCONN_SHUT_RD : 0) | (shut_tx ? NETCONN_SHUT_WR 
 2252              		.loc 1 856 71 view .LVU666
 2253 0014 0023     		movs	r3, #0
 2254 0016 F9E7     		b	.L179
 2255              		.cfi_endproc
 2256              	.LFE182:
 2258              		.section	.rodata.netconn_gethostbyname.str1.4,"aMS",%progbits,1
 2259              		.align	2
 2260              	.LC24:
 2261 0000 6E657463 		.ascii	"netconn_gethostbyname: invalid name\000"
 2261      6F6E6E5F 
 2261      67657468 
 2261      6F737462 
 2261      796E616D 
 2262              		.align	2
 2263              	.LC25:
 2264 0024 6E657463 		.ascii	"netconn_gethostbyname: invalid addr\000"
 2264      6F6E6E5F 
 2264      67657468 
 2264      6F737462 
 2264      796E616D 
 2265              		.section	.text.netconn_gethostbyname,"ax",%progbits
 2266              		.align	1
 2267              		.global	netconn_gethostbyname
 2268              		.syntax unified
 2269              		.thumb
 2270              		.thumb_func
 2271              		.fpu fpv5-sp-d16
 2273              	netconn_gethostbyname:
 2274              	.LVL226:
 2275              	.LFB183:
 858:Middlewares/Third_Party/LwIP/src/api/api_lib.c **** 
 859:Middlewares/Third_Party/LwIP/src/api/api_lib.c **** #if LWIP_IGMP || (LWIP_IPV6 && LWIP_IPV6_MLD)
ARM GAS  C:\Users\Nina\AppData\Local\Temp\ccYqiCSe.s 			page 68


 860:Middlewares/Third_Party/LwIP/src/api/api_lib.c **** /**
 861:Middlewares/Third_Party/LwIP/src/api/api_lib.c ****  * @ingroup netconn_udp
 862:Middlewares/Third_Party/LwIP/src/api/api_lib.c ****  * Join multicast groups for UDP netconns.
 863:Middlewares/Third_Party/LwIP/src/api/api_lib.c ****  *
 864:Middlewares/Third_Party/LwIP/src/api/api_lib.c ****  * @param conn the UDP netconn for which to change multicast addresses
 865:Middlewares/Third_Party/LwIP/src/api/api_lib.c ****  * @param multiaddr IP address of the multicast group to join or leave
 866:Middlewares/Third_Party/LwIP/src/api/api_lib.c ****  * @param netif_addr the IP address of the network interface on which to send
 867:Middlewares/Third_Party/LwIP/src/api/api_lib.c ****  *                  the igmp message
 868:Middlewares/Third_Party/LwIP/src/api/api_lib.c ****  * @param join_or_leave flag whether to send a join- or leave-message
 869:Middlewares/Third_Party/LwIP/src/api/api_lib.c ****  * @return ERR_OK if the action was taken, any err_t on error
 870:Middlewares/Third_Party/LwIP/src/api/api_lib.c ****  */
 871:Middlewares/Third_Party/LwIP/src/api/api_lib.c **** err_t
 872:Middlewares/Third_Party/LwIP/src/api/api_lib.c **** netconn_join_leave_group(struct netconn *conn,
 873:Middlewares/Third_Party/LwIP/src/api/api_lib.c ****                          const ip_addr_t *multiaddr,
 874:Middlewares/Third_Party/LwIP/src/api/api_lib.c ****                          const ip_addr_t *netif_addr,
 875:Middlewares/Third_Party/LwIP/src/api/api_lib.c ****                          enum netconn_igmp join_or_leave)
 876:Middlewares/Third_Party/LwIP/src/api/api_lib.c **** {
 877:Middlewares/Third_Party/LwIP/src/api/api_lib.c ****   API_MSG_VAR_DECLARE(msg);
 878:Middlewares/Third_Party/LwIP/src/api/api_lib.c ****   err_t err;
 879:Middlewares/Third_Party/LwIP/src/api/api_lib.c **** 
 880:Middlewares/Third_Party/LwIP/src/api/api_lib.c ****   LWIP_ERROR("netconn_join_leave_group: invalid conn",  (conn != NULL), return ERR_ARG;);
 881:Middlewares/Third_Party/LwIP/src/api/api_lib.c **** 
 882:Middlewares/Third_Party/LwIP/src/api/api_lib.c ****   API_MSG_VAR_ALLOC(msg);
 883:Middlewares/Third_Party/LwIP/src/api/api_lib.c **** 
 884:Middlewares/Third_Party/LwIP/src/api/api_lib.c **** #if LWIP_IPV4
 885:Middlewares/Third_Party/LwIP/src/api/api_lib.c ****   /* Don't propagate NULL pointer (IP_ADDR_ANY alias) to subsequent functions */
 886:Middlewares/Third_Party/LwIP/src/api/api_lib.c ****   if (multiaddr == NULL) {
 887:Middlewares/Third_Party/LwIP/src/api/api_lib.c ****     multiaddr = IP4_ADDR_ANY;
 888:Middlewares/Third_Party/LwIP/src/api/api_lib.c ****   }
 889:Middlewares/Third_Party/LwIP/src/api/api_lib.c ****   if (netif_addr == NULL) {
 890:Middlewares/Third_Party/LwIP/src/api/api_lib.c ****     netif_addr = IP4_ADDR_ANY;
 891:Middlewares/Third_Party/LwIP/src/api/api_lib.c ****   }
 892:Middlewares/Third_Party/LwIP/src/api/api_lib.c **** #endif /* LWIP_IPV4 */
 893:Middlewares/Third_Party/LwIP/src/api/api_lib.c **** 
 894:Middlewares/Third_Party/LwIP/src/api/api_lib.c ****   API_MSG_VAR_REF(msg).conn = conn;
 895:Middlewares/Third_Party/LwIP/src/api/api_lib.c ****   API_MSG_VAR_REF(msg).msg.jl.multiaddr = API_MSG_VAR_REF(multiaddr);
 896:Middlewares/Third_Party/LwIP/src/api/api_lib.c ****   API_MSG_VAR_REF(msg).msg.jl.netif_addr = API_MSG_VAR_REF(netif_addr);
 897:Middlewares/Third_Party/LwIP/src/api/api_lib.c ****   API_MSG_VAR_REF(msg).msg.jl.join_or_leave = join_or_leave;
 898:Middlewares/Third_Party/LwIP/src/api/api_lib.c ****   err = netconn_apimsg(lwip_netconn_do_join_leave_group, &API_MSG_VAR_REF(msg));
 899:Middlewares/Third_Party/LwIP/src/api/api_lib.c ****   API_MSG_VAR_FREE(msg);
 900:Middlewares/Third_Party/LwIP/src/api/api_lib.c **** 
 901:Middlewares/Third_Party/LwIP/src/api/api_lib.c ****   return err;
 902:Middlewares/Third_Party/LwIP/src/api/api_lib.c **** }
 903:Middlewares/Third_Party/LwIP/src/api/api_lib.c **** #endif /* LWIP_IGMP || (LWIP_IPV6 && LWIP_IPV6_MLD) */
 904:Middlewares/Third_Party/LwIP/src/api/api_lib.c **** 
 905:Middlewares/Third_Party/LwIP/src/api/api_lib.c **** #if LWIP_DNS
 906:Middlewares/Third_Party/LwIP/src/api/api_lib.c **** /**
 907:Middlewares/Third_Party/LwIP/src/api/api_lib.c ****  * @ingroup netconn_common
 908:Middlewares/Third_Party/LwIP/src/api/api_lib.c ****  * Execute a DNS query, only one IP address is returned
 909:Middlewares/Third_Party/LwIP/src/api/api_lib.c ****  *
 910:Middlewares/Third_Party/LwIP/src/api/api_lib.c ****  * @param name a string representation of the DNS host name to query
 911:Middlewares/Third_Party/LwIP/src/api/api_lib.c ****  * @param addr a preallocated ip_addr_t where to store the resolved IP address
 912:Middlewares/Third_Party/LwIP/src/api/api_lib.c ****  * @param dns_addrtype IP address type (IPv4 / IPv6)
 913:Middlewares/Third_Party/LwIP/src/api/api_lib.c ****  * @return ERR_OK: resolving succeeded
 914:Middlewares/Third_Party/LwIP/src/api/api_lib.c ****  *         ERR_MEM: memory error, try again later
 915:Middlewares/Third_Party/LwIP/src/api/api_lib.c ****  *         ERR_ARG: dns client not initialized or invalid hostname
 916:Middlewares/Third_Party/LwIP/src/api/api_lib.c ****  *         ERR_VAL: dns server response was invalid
ARM GAS  C:\Users\Nina\AppData\Local\Temp\ccYqiCSe.s 			page 69


 917:Middlewares/Third_Party/LwIP/src/api/api_lib.c ****  */
 918:Middlewares/Third_Party/LwIP/src/api/api_lib.c **** #if LWIP_IPV4 && LWIP_IPV6
 919:Middlewares/Third_Party/LwIP/src/api/api_lib.c **** err_t
 920:Middlewares/Third_Party/LwIP/src/api/api_lib.c **** netconn_gethostbyname_addrtype(const char *name, ip_addr_t *addr, u8_t dns_addrtype)
 921:Middlewares/Third_Party/LwIP/src/api/api_lib.c **** #else
 922:Middlewares/Third_Party/LwIP/src/api/api_lib.c **** err_t
 923:Middlewares/Third_Party/LwIP/src/api/api_lib.c **** netconn_gethostbyname(const char *name, ip_addr_t *addr)
 924:Middlewares/Third_Party/LwIP/src/api/api_lib.c **** #endif
 925:Middlewares/Third_Party/LwIP/src/api/api_lib.c **** {
 2276              		.loc 1 925 1 is_stmt 1 view -0
 2277              		.cfi_startproc
 2278              		@ args = 0, pretend = 0, frame = 24
 2279              		@ frame_needed = 0, uses_anonymous_args = 0
 2280              		.loc 1 925 1 is_stmt 0 view .LVU668
 2281 0000 10B5     		push	{r4, lr}
 2282              	.LCFI57:
 2283              		.cfi_def_cfa_offset 8
 2284              		.cfi_offset 4, -8
 2285              		.cfi_offset 14, -4
 2286 0002 86B0     		sub	sp, sp, #24
 2287              	.LCFI58:
 2288              		.cfi_def_cfa_offset 32
 926:Middlewares/Third_Party/LwIP/src/api/api_lib.c ****   API_VAR_DECLARE(struct dns_api_msg, msg);
 2289              		.loc 1 926 3 is_stmt 1 view .LVU669
 927:Middlewares/Third_Party/LwIP/src/api/api_lib.c **** #if !LWIP_MPU_COMPATIBLE
 928:Middlewares/Third_Party/LwIP/src/api/api_lib.c ****   sys_sem_t sem;
 2290              		.loc 1 928 3 view .LVU670
 929:Middlewares/Third_Party/LwIP/src/api/api_lib.c **** #endif /* LWIP_MPU_COMPATIBLE */
 930:Middlewares/Third_Party/LwIP/src/api/api_lib.c ****   err_t err;
 2291              		.loc 1 930 3 view .LVU671
 931:Middlewares/Third_Party/LwIP/src/api/api_lib.c ****   err_t cberr;
 2292              		.loc 1 931 3 view .LVU672
 932:Middlewares/Third_Party/LwIP/src/api/api_lib.c **** 
 933:Middlewares/Third_Party/LwIP/src/api/api_lib.c ****   LWIP_ERROR("netconn_gethostbyname: invalid name", (name != NULL), return ERR_ARG;);
 2293              		.loc 1 933 3 view .LVU673
 2294              		.loc 1 933 3 view .LVU674
 2295 0004 90B1     		cbz	r0, .L188
 2296 0006 0346     		mov	r3, r0
 2297              		.loc 1 933 3 discriminator 2 view .LVU675
 2298              		.loc 1 933 3 discriminator 2 view .LVU676
 934:Middlewares/Third_Party/LwIP/src/api/api_lib.c ****   LWIP_ERROR("netconn_gethostbyname: invalid addr", (addr != NULL), return ERR_ARG;);
 2299              		.loc 1 934 3 discriminator 2 view .LVU677
 2300              		.loc 1 934 3 discriminator 2 view .LVU678
 2301 0008 D1B1     		cbz	r1, .L189
 2302              		.loc 1 934 3 discriminator 2 view .LVU679
 2303              		.loc 1 934 3 discriminator 2 view .LVU680
 935:Middlewares/Third_Party/LwIP/src/api/api_lib.c **** #if LWIP_MPU_COMPATIBLE
 936:Middlewares/Third_Party/LwIP/src/api/api_lib.c ****   if (strlen(name) >= DNS_MAX_NAME_LENGTH) {
 937:Middlewares/Third_Party/LwIP/src/api/api_lib.c ****     return ERR_ARG;
 938:Middlewares/Third_Party/LwIP/src/api/api_lib.c ****   }
 939:Middlewares/Third_Party/LwIP/src/api/api_lib.c **** #endif
 940:Middlewares/Third_Party/LwIP/src/api/api_lib.c **** 
 941:Middlewares/Third_Party/LwIP/src/api/api_lib.c ****   API_VAR_ALLOC(struct dns_api_msg, MEMP_DNS_API_MSG, msg, ERR_MEM);
 2304              		.loc 1 941 68 discriminator 2 view .LVU681
 942:Middlewares/Third_Party/LwIP/src/api/api_lib.c **** #if LWIP_MPU_COMPATIBLE
 943:Middlewares/Third_Party/LwIP/src/api/api_lib.c ****   strncpy(API_VAR_REF(msg).name, name, DNS_MAX_NAME_LENGTH-1);
 944:Middlewares/Third_Party/LwIP/src/api/api_lib.c ****   API_VAR_REF(msg).name[DNS_MAX_NAME_LENGTH-1] = 0;
ARM GAS  C:\Users\Nina\AppData\Local\Temp\ccYqiCSe.s 			page 70


 945:Middlewares/Third_Party/LwIP/src/api/api_lib.c **** #else /* LWIP_MPU_COMPATIBLE */
 946:Middlewares/Third_Party/LwIP/src/api/api_lib.c ****   msg.err = &err;
 2305              		.loc 1 946 3 discriminator 2 view .LVU682
 2306              		.loc 1 946 11 is_stmt 0 discriminator 2 view .LVU683
 2307 000a 0DF10302 		add	r2, sp, #3
 2308 000e 0592     		str	r2, [sp, #20]
 947:Middlewares/Third_Party/LwIP/src/api/api_lib.c ****   msg.sem = &sem;
 2309              		.loc 1 947 3 is_stmt 1 discriminator 2 view .LVU684
 2310              		.loc 1 947 11 is_stmt 0 discriminator 2 view .LVU685
 2311 0010 01A8     		add	r0, sp, #4
 2312              	.LVL227:
 2313              		.loc 1 947 11 discriminator 2 view .LVU686
 2314 0012 0490     		str	r0, [sp, #16]
 948:Middlewares/Third_Party/LwIP/src/api/api_lib.c ****   API_VAR_REF(msg).addr = API_VAR_REF(addr);
 2315              		.loc 1 948 3 is_stmt 1 discriminator 2 view .LVU687
 2316              		.loc 1 948 25 is_stmt 0 discriminator 2 view .LVU688
 2317 0014 0391     		str	r1, [sp, #12]
 949:Middlewares/Third_Party/LwIP/src/api/api_lib.c ****   API_VAR_REF(msg).name = name;
 2318              		.loc 1 949 3 is_stmt 1 discriminator 2 view .LVU689
 2319              		.loc 1 949 25 is_stmt 0 discriminator 2 view .LVU690
 2320 0016 0293     		str	r3, [sp, #8]
 950:Middlewares/Third_Party/LwIP/src/api/api_lib.c **** #endif /* LWIP_MPU_COMPATIBLE */
 951:Middlewares/Third_Party/LwIP/src/api/api_lib.c **** #if LWIP_IPV4 && LWIP_IPV6
 952:Middlewares/Third_Party/LwIP/src/api/api_lib.c ****   API_VAR_REF(msg).dns_addrtype = dns_addrtype;
 953:Middlewares/Third_Party/LwIP/src/api/api_lib.c **** #endif /* LWIP_IPV4 && LWIP_IPV6 */
 954:Middlewares/Third_Party/LwIP/src/api/api_lib.c **** #if LWIP_NETCONN_SEM_PER_THREAD
 955:Middlewares/Third_Party/LwIP/src/api/api_lib.c ****   API_VAR_REF(msg).sem = LWIP_NETCONN_THREAD_SEM_GET();
 956:Middlewares/Third_Party/LwIP/src/api/api_lib.c **** #else /* LWIP_NETCONN_SEM_PER_THREAD*/
 957:Middlewares/Third_Party/LwIP/src/api/api_lib.c ****   err = sys_sem_new(API_EXPR_REF(API_VAR_REF(msg).sem), 0);
 2321              		.loc 1 957 3 is_stmt 1 discriminator 2 view .LVU691
 2322              		.loc 1 957 9 is_stmt 0 discriminator 2 view .LVU692
 2323 0018 0021     		movs	r1, #0
 2324              	.LVL228:
 2325              		.loc 1 957 9 discriminator 2 view .LVU693
 2326 001a FFF7FEFF 		bl	sys_sem_new
 2327              	.LVL229:
 2328              		.loc 1 957 9 discriminator 2 view .LVU694
 2329 001e 0446     		mov	r4, r0
 2330              		.loc 1 957 7 discriminator 2 view .LVU695
 2331 0020 8DF80300 		strb	r0, [sp, #3]
 958:Middlewares/Third_Party/LwIP/src/api/api_lib.c ****   if (err != ERR_OK) {
 2332              		.loc 1 958 3 is_stmt 1 discriminator 2 view .LVU696
 2333              		.loc 1 958 6 is_stmt 0 discriminator 2 view .LVU697
 2334 0024 B0B1     		cbz	r0, .L190
 2335              	.L184:
 959:Middlewares/Third_Party/LwIP/src/api/api_lib.c ****     API_VAR_FREE(MEMP_DNS_API_MSG, msg);
 960:Middlewares/Third_Party/LwIP/src/api/api_lib.c ****     return err;
 961:Middlewares/Third_Party/LwIP/src/api/api_lib.c ****   }
 962:Middlewares/Third_Party/LwIP/src/api/api_lib.c **** #endif /* LWIP_NETCONN_SEM_PER_THREAD */
 963:Middlewares/Third_Party/LwIP/src/api/api_lib.c **** 
 964:Middlewares/Third_Party/LwIP/src/api/api_lib.c ****   cberr = tcpip_callback(lwip_netconn_do_gethostbyname, &API_VAR_REF(msg));
 965:Middlewares/Third_Party/LwIP/src/api/api_lib.c ****   if (cberr != ERR_OK) {
 966:Middlewares/Third_Party/LwIP/src/api/api_lib.c **** #if !LWIP_NETCONN_SEM_PER_THREAD
 967:Middlewares/Third_Party/LwIP/src/api/api_lib.c ****     sys_sem_free(API_EXPR_REF(API_VAR_REF(msg).sem));
 968:Middlewares/Third_Party/LwIP/src/api/api_lib.c **** #endif /* !LWIP_NETCONN_SEM_PER_THREAD */
 969:Middlewares/Third_Party/LwIP/src/api/api_lib.c ****     API_VAR_FREE(MEMP_DNS_API_MSG, msg);
 970:Middlewares/Third_Party/LwIP/src/api/api_lib.c ****     return cberr;
ARM GAS  C:\Users\Nina\AppData\Local\Temp\ccYqiCSe.s 			page 71


 971:Middlewares/Third_Party/LwIP/src/api/api_lib.c ****   }
 972:Middlewares/Third_Party/LwIP/src/api/api_lib.c ****   sys_sem_wait(API_EXPR_REF_SEM(API_VAR_REF(msg).sem));
 973:Middlewares/Third_Party/LwIP/src/api/api_lib.c **** #if !LWIP_NETCONN_SEM_PER_THREAD
 974:Middlewares/Third_Party/LwIP/src/api/api_lib.c ****   sys_sem_free(API_EXPR_REF(API_VAR_REF(msg).sem));
 975:Middlewares/Third_Party/LwIP/src/api/api_lib.c **** #endif /* !LWIP_NETCONN_SEM_PER_THREAD */
 976:Middlewares/Third_Party/LwIP/src/api/api_lib.c **** 
 977:Middlewares/Third_Party/LwIP/src/api/api_lib.c **** #if LWIP_MPU_COMPATIBLE
 978:Middlewares/Third_Party/LwIP/src/api/api_lib.c ****   *addr = msg->addr;
 979:Middlewares/Third_Party/LwIP/src/api/api_lib.c ****   err = msg->err;
 980:Middlewares/Third_Party/LwIP/src/api/api_lib.c **** #endif /* LWIP_MPU_COMPATIBLE */
 981:Middlewares/Third_Party/LwIP/src/api/api_lib.c **** 
 982:Middlewares/Third_Party/LwIP/src/api/api_lib.c ****   API_VAR_FREE(MEMP_DNS_API_MSG, msg);
 983:Middlewares/Third_Party/LwIP/src/api/api_lib.c ****   return err;
 984:Middlewares/Third_Party/LwIP/src/api/api_lib.c **** }
 2336              		.loc 1 984 1 view .LVU698
 2337 0026 2046     		mov	r0, r4
 2338 0028 06B0     		add	sp, sp, #24
 2339              	.LCFI59:
 2340              		.cfi_remember_state
 2341              		.cfi_def_cfa_offset 8
 2342              		@ sp needed
 2343 002a 10BD     		pop	{r4, pc}
 2344              	.LVL230:
 2345              	.L188:
 2346              	.LCFI60:
 2347              		.cfi_restore_state
 933:Middlewares/Third_Party/LwIP/src/api/api_lib.c ****   LWIP_ERROR("netconn_gethostbyname: invalid addr", (addr != NULL), return ERR_ARG;);
 2348              		.loc 1 933 3 is_stmt 1 discriminator 1 view .LVU699
 933:Middlewares/Third_Party/LwIP/src/api/api_lib.c ****   LWIP_ERROR("netconn_gethostbyname: invalid addr", (addr != NULL), return ERR_ARG;);
 2349              		.loc 1 933 3 discriminator 1 view .LVU700
 2350 002c 144B     		ldr	r3, .L192
 2351 002e 40F2A532 		movw	r2, #933
 2352 0032 1449     		ldr	r1, .L192+4
 2353              	.LVL231:
 933:Middlewares/Third_Party/LwIP/src/api/api_lib.c ****   LWIP_ERROR("netconn_gethostbyname: invalid addr", (addr != NULL), return ERR_ARG;);
 2354              		.loc 1 933 3 is_stmt 0 discriminator 1 view .LVU701
 2355 0034 1448     		ldr	r0, .L192+8
 2356              	.LVL232:
 933:Middlewares/Third_Party/LwIP/src/api/api_lib.c ****   LWIP_ERROR("netconn_gethostbyname: invalid addr", (addr != NULL), return ERR_ARG;);
 2357              		.loc 1 933 3 discriminator 1 view .LVU702
 2358 0036 FFF7FEFF 		bl	printf
 2359              	.LVL233:
 933:Middlewares/Third_Party/LwIP/src/api/api_lib.c ****   LWIP_ERROR("netconn_gethostbyname: invalid addr", (addr != NULL), return ERR_ARG;);
 2360              		.loc 1 933 3 is_stmt 1 discriminator 1 view .LVU703
 933:Middlewares/Third_Party/LwIP/src/api/api_lib.c ****   LWIP_ERROR("netconn_gethostbyname: invalid addr", (addr != NULL), return ERR_ARG;);
 2361              		.loc 1 933 3 discriminator 1 view .LVU704
 2362 003a 6FF00F04 		mvn	r4, #15
 2363 003e F2E7     		b	.L184
 2364              	.LVL234:
 2365              	.L189:
 934:Middlewares/Third_Party/LwIP/src/api/api_lib.c **** #if LWIP_MPU_COMPATIBLE
 2366              		.loc 1 934 3 discriminator 1 view .LVU705
 934:Middlewares/Third_Party/LwIP/src/api/api_lib.c **** #if LWIP_MPU_COMPATIBLE
 2367              		.loc 1 934 3 discriminator 1 view .LVU706
 2368 0040 0F4B     		ldr	r3, .L192
 2369 0042 40F2A632 		movw	r2, #934
 2370 0046 1149     		ldr	r1, .L192+12
ARM GAS  C:\Users\Nina\AppData\Local\Temp\ccYqiCSe.s 			page 72


 2371              	.LVL235:
 934:Middlewares/Third_Party/LwIP/src/api/api_lib.c **** #if LWIP_MPU_COMPATIBLE
 2372              		.loc 1 934 3 is_stmt 0 discriminator 1 view .LVU707
 2373 0048 0F48     		ldr	r0, .L192+8
 2374              	.LVL236:
 934:Middlewares/Third_Party/LwIP/src/api/api_lib.c **** #if LWIP_MPU_COMPATIBLE
 2375              		.loc 1 934 3 discriminator 1 view .LVU708
 2376 004a FFF7FEFF 		bl	printf
 2377              	.LVL237:
 934:Middlewares/Third_Party/LwIP/src/api/api_lib.c **** #if LWIP_MPU_COMPATIBLE
 2378              		.loc 1 934 3 is_stmt 1 discriminator 1 view .LVU709
 934:Middlewares/Third_Party/LwIP/src/api/api_lib.c **** #if LWIP_MPU_COMPATIBLE
 2379              		.loc 1 934 3 discriminator 1 view .LVU710
 2380 004e 6FF00F04 		mvn	r4, #15
 2381 0052 E8E7     		b	.L184
 2382              	.L190:
 964:Middlewares/Third_Party/LwIP/src/api/api_lib.c ****   if (cberr != ERR_OK) {
 2383              		.loc 1 964 3 view .LVU711
 964:Middlewares/Third_Party/LwIP/src/api/api_lib.c ****   if (cberr != ERR_OK) {
 2384              		.loc 1 964 11 is_stmt 0 view .LVU712
 2385 0054 0122     		movs	r2, #1
 2386 0056 02A9     		add	r1, sp, #8
 2387 0058 0D48     		ldr	r0, .L192+16
 2388 005a FFF7FEFF 		bl	tcpip_callback_with_block
 2389              	.LVL238:
 965:Middlewares/Third_Party/LwIP/src/api/api_lib.c **** #if !LWIP_NETCONN_SEM_PER_THREAD
 2390              		.loc 1 965 3 is_stmt 1 view .LVU713
 965:Middlewares/Third_Party/LwIP/src/api/api_lib.c **** #if !LWIP_NETCONN_SEM_PER_THREAD
 2391              		.loc 1 965 6 is_stmt 0 view .LVU714
 2392 005e 0446     		mov	r4, r0
 2393 0060 48B9     		cbnz	r0, .L191
 972:Middlewares/Third_Party/LwIP/src/api/api_lib.c **** #if !LWIP_NETCONN_SEM_PER_THREAD
 2394              		.loc 1 972 3 is_stmt 1 view .LVU715
 2395 0062 0021     		movs	r1, #0
 2396 0064 0498     		ldr	r0, [sp, #16]
 2397              	.LVL239:
 972:Middlewares/Third_Party/LwIP/src/api/api_lib.c **** #if !LWIP_NETCONN_SEM_PER_THREAD
 2398              		.loc 1 972 3 is_stmt 0 view .LVU716
 2399 0066 FFF7FEFF 		bl	sys_arch_sem_wait
 2400              	.LVL240:
 974:Middlewares/Third_Party/LwIP/src/api/api_lib.c **** #endif /* !LWIP_NETCONN_SEM_PER_THREAD */
 2401              		.loc 1 974 3 is_stmt 1 view .LVU717
 2402 006a 0498     		ldr	r0, [sp, #16]
 2403 006c FFF7FEFF 		bl	sys_sem_free
 2404              	.LVL241:
