ARM GAS  C:\Users\Student\AppData\Local\Temp\cckaAu1N.s 			page 1


   1              		.cpu cortex-m7
   2              		.eabi_attribute 27, 1
   3              		.eabi_attribute 28, 1
   4              		.eabi_attribute 20, 1
   5              		.eabi_attribute 21, 1
   6              		.eabi_attribute 23, 3
   7              		.eabi_attribute 24, 1
   8              		.eabi_attribute 25, 1
   9              		.eabi_attribute 26, 1
  10              		.eabi_attribute 30, 1
  11              		.eabi_attribute 34, 1
  12              		.eabi_attribute 18, 4
  13              		.file	"audio_loader.c"
  14              		.text
  15              	.Ltext0:
  16              		.cfi_sections	.debug_frame
  17              		.section	.text.AUDIO_L_CreateAudioDirectory,"ax",%progbits
  18              		.align	1
  19              		.global	AUDIO_L_CreateAudioDirectory
  20              		.syntax unified
  21              		.thumb
  22              		.thumb_func
  23              		.fpu fpv5-sp-d16
  25              	AUDIO_L_CreateAudioDirectory:
  26              	.LFB141:
  27              		.file 1 "Modules/audio_loader.c"
   1:Modules/audio_loader.c **** //
   2:Modules/audio_loader.c **** // Created by olliekrk on 24.10.2019.
   3:Modules/audio_loader.c **** //
   4:Modules/audio_loader.c **** 
   5:Modules/audio_loader.c **** #include <ff.h>
   6:Modules/audio_loader.c **** #include <term_io.h>
   7:Modules/audio_loader.c **** #include "audio_loader.h"
   8:Modules/audio_loader.c **** 
   9:Modules/audio_loader.c **** FRESULT AUDIO_L_CreateAudioDirectory(void) {
  28              		.loc 1 9 0
  29              		.cfi_startproc
  30              		@ args = 0, pretend = 0, frame = 0
  31              		@ frame_needed = 0, uses_anonymous_args = 0
  32 0000 10B5     		push	{r4, lr}
  33              	.LCFI0:
  34              		.cfi_def_cfa_offset 8
  35              		.cfi_offset 4, -8
  36              		.cfi_offset 14, -4
  10:Modules/audio_loader.c ****     FRESULT result = f_mkdir(AUDIO_DIRECTORY_PATH);
  37              		.loc 1 10 0
  38 0002 0648     		ldr	r0, .L5
  39 0004 FFF7FEFF 		bl	f_mkdir
  40              	.LVL0:
  41 0008 0446     		mov	r4, r0
  42              	.LVL1:
  11:Modules/audio_loader.c ****     if (result == FR_EXIST) {
  43              		.loc 1 11 0
  44 000a 0828     		cmp	r0, #8
  45 000c 01D0     		beq	.L4
  46              	.LVL2:
  47              	.L2:
ARM GAS  C:\Users\Student\AppData\Local\Temp\cckaAu1N.s 			page 2


  12:Modules/audio_loader.c ****         xprintf("Audio directory already exists.\r\n");
  13:Modules/audio_loader.c ****     }
  14:Modules/audio_loader.c ****     return result;
  15:Modules/audio_loader.c **** }
  48              		.loc 1 15 0
  49 000e 2046     		mov	r0, r4
  50 0010 10BD     		pop	{r4, pc}
  51              	.LVL3:
  52              	.L4:
  12:Modules/audio_loader.c ****         xprintf("Audio directory already exists.\r\n");
  53              		.loc 1 12 0
  54 0012 0348     		ldr	r0, .L5+4
  55              	.LVL4:
  56 0014 FFF7FEFF 		bl	xprintf
  57              	.LVL5:
  58 0018 F9E7     		b	.L2
  59              	.L6:
  60 001a 00BF     		.align	2
  61              	.L5:
  62 001c 00000000 		.word	.LC0
  63 0020 14000000 		.word	.LC1
  64              		.cfi_endproc
  65              	.LFE141:
  67              		.section	.text.AUDIO_L_ScanAudioDirectory,"ax",%progbits
  68              		.align	1
  69              		.global	AUDIO_L_ScanAudioDirectory
  70              		.syntax unified
  71              		.thumb
  72              		.thumb_func
  73              		.fpu fpv5-sp-d16
  75              	AUDIO_L_ScanAudioDirectory:
  76              	.LFB142:
  16:Modules/audio_loader.c **** 
  17:Modules/audio_loader.c **** int AUDIO_L_ScanAudioDirectory(char **audioFilesNames) {
  77              		.loc 1 17 0
  78              		.cfi_startproc
  79              		@ args = 0, pretend = 0, frame = 336
  80              		@ frame_needed = 0, uses_anonymous_args = 0
  81              	.LVL6:
  82 0000 30B5     		push	{r4, r5, lr}
  83              	.LCFI1:
  84              		.cfi_def_cfa_offset 12
  85              		.cfi_offset 4, -12
  86              		.cfi_offset 5, -8
  87              		.cfi_offset 14, -4
  88 0002 D5B0     		sub	sp, sp, #340
  89              	.LCFI2:
  90              		.cfi_def_cfa_offset 352
  91 0004 0546     		mov	r5, r0
  92              	.LVL7:
  18:Modules/audio_loader.c ****     DIR audioDirectory;
  19:Modules/audio_loader.c ****     FRESULT result;
  20:Modules/audio_loader.c ****     FILINFO fileInfo;
  21:Modules/audio_loader.c ****     int count = 0;
  22:Modules/audio_loader.c **** 
  23:Modules/audio_loader.c ****     result = f_findfirst(&audioDirectory, &fileInfo, AUDIO_DIRECTORY_PATH, "*.wav");
  93              		.loc 1 23 0
ARM GAS  C:\Users\Student\AppData\Local\Temp\cckaAu1N.s 			page 3


  94 0006 224B     		ldr	r3, .L22
  95 0008 224A     		ldr	r2, .L22+4
  96 000a 6946     		mov	r1, sp
  97 000c 46A8     		add	r0, sp, #280
  98              	.LVL8:
  99 000e FFF7FEFF 		bl	f_findfirst
 100              	.LVL9:
  24:Modules/audio_loader.c ****     if (result == FR_OK) {
 101              		.loc 1 24 0
 102 0012 0346     		mov	r3, r0
 103 0014 30B3     		cbz	r0, .L14
  25:Modules/audio_loader.c ****         while (result == FR_OK && strlen(fileInfo.fname) > 0 && count < AUDIO_FILES_LIMIT) {
  26:Modules/audio_loader.c ****             audioFilesNames[count] = malloc((strlen(fileInfo.fname) + 1) * sizeof(char));
  27:Modules/audio_loader.c ****             audioFilesNames[count] = strcpy(audioFilesNames[count], fileInfo.fname);
  28:Modules/audio_loader.c ****             count++;
  29:Modules/audio_loader.c ****             result = f_findnext(&audioDirectory, &fileInfo);
  30:Modules/audio_loader.c ****         }
  31:Modules/audio_loader.c ****         f_closedir(&audioDirectory);
  32:Modules/audio_loader.c ****     } else if (result == FR_NO_PATH) {
 104              		.loc 1 32 0
 105 0016 0528     		cmp	r0, #5
 106 0018 26D0     		beq	.L19
  33:Modules/audio_loader.c ****         xprintf("Empty audio directory will be created.\r\n");
  34:Modules/audio_loader.c ****         result = AUDIO_L_CreateAudioDirectory();
  35:Modules/audio_loader.c ****         if (result != FR_OK) {
  36:Modules/audio_loader.c ****             xprintf("Creation of audio directory has failed.\r\n");
  37:Modules/audio_loader.c ****             return -1;
  38:Modules/audio_loader.c ****         }
  39:Modules/audio_loader.c ****     } else if (result == FR_NO_FILE) {
 107              		.loc 1 39 0
 108 001a 0428     		cmp	r0, #4
 109 001c 32D0     		beq	.L20
  21:Modules/audio_loader.c **** 
 110              		.loc 1 21 0
 111 001e 0024     		movs	r4, #0
 112 0020 1DE0     		b	.L7
 113              	.LVL10:
 114              	.L11:
  26:Modules/audio_loader.c ****             audioFilesNames[count] = strcpy(audioFilesNames[count], fileInfo.fname);
 115              		.loc 1 26 0
 116 0022 0DF11600 		add	r0, sp, #22
 117 0026 FFF7FEFF 		bl	strlen
 118              	.LVL11:
 119 002a 0130     		adds	r0, r0, #1
 120 002c FFF7FEFF 		bl	malloc
 121              	.LVL12:
 122 0030 45F82400 		str	r0, [r5, r4, lsl #2]
  27:Modules/audio_loader.c ****             count++;
 123              		.loc 1 27 0
 124 0034 0DF11601 		add	r1, sp, #22
 125 0038 FFF7FEFF 		bl	strcpy
 126              	.LVL13:
 127 003c 45F82400 		str	r0, [r5, r4, lsl #2]
  28:Modules/audio_loader.c ****             result = f_findnext(&audioDirectory, &fileInfo);
 128              		.loc 1 28 0
 129 0040 0134     		adds	r4, r4, #1
 130              	.LVL14:
ARM GAS  C:\Users\Student\AppData\Local\Temp\cckaAu1N.s 			page 4


  29:Modules/audio_loader.c ****         }
 131              		.loc 1 29 0
 132 0042 6946     		mov	r1, sp
 133 0044 46A8     		add	r0, sp, #280
 134 0046 FFF7FEFF 		bl	f_findnext
 135              	.LVL15:
 136 004a 0346     		mov	r3, r0
 137              	.LVL16:
 138              	.L8:
  25:Modules/audio_loader.c ****             audioFilesNames[count] = malloc((strlen(fileInfo.fname) + 1) * sizeof(char));
 139              		.loc 1 25 0
 140 004c 23B9     		cbnz	r3, .L10
  25:Modules/audio_loader.c ****             audioFilesNames[count] = malloc((strlen(fileInfo.fname) + 1) * sizeof(char));
 141              		.loc 1 25 0 is_stmt 0 discriminator 1
 142 004e 9DF81630 		ldrb	r3, [sp, #22]	@ zero_extendqisi2
 143              	.LVL17:
 144 0052 0BB1     		cbz	r3, .L10
  25:Modules/audio_loader.c ****             audioFilesNames[count] = malloc((strlen(fileInfo.fname) + 1) * sizeof(char));
 145              		.loc 1 25 0 discriminator 2
 146 0054 092C     		cmp	r4, #9
 147 0056 E4DD     		ble	.L11
 148              	.L10:
  31:Modules/audio_loader.c ****     } else if (result == FR_NO_PATH) {
 149              		.loc 1 31 0 is_stmt 1
 150 0058 46A8     		add	r0, sp, #280
 151 005a FFF7FEFF 		bl	f_closedir
 152              	.LVL18:
 153              	.L7:
  40:Modules/audio_loader.c ****         xprintf("Found zero WAV files.");
  41:Modules/audio_loader.c ****     }
  42:Modules/audio_loader.c **** 
  43:Modules/audio_loader.c ****     return count;
  44:Modules/audio_loader.c **** }
 154              		.loc 1 44 0
 155 005e 2046     		mov	r0, r4
 156 0060 55B0     		add	sp, sp, #340
 157              	.LCFI3:
 158              		.cfi_remember_state
 159              		.cfi_def_cfa_offset 12
 160              		@ sp needed
 161 0062 30BD     		pop	{r4, r5, pc}
 162              	.LVL19:
 163              	.L14:
 164              	.LCFI4:
 165              		.cfi_restore_state
 166 0064 0024     		movs	r4, #0
 167 0066 F1E7     		b	.L8
 168              	.L19:
  33:Modules/audio_loader.c ****         result = AUDIO_L_CreateAudioDirectory();
 169              		.loc 1 33 0
 170 0068 0B48     		ldr	r0, .L22+8
 171              	.LVL20:
 172 006a FFF7FEFF 		bl	xprintf
 173              	.LVL21:
  34:Modules/audio_loader.c ****         if (result != FR_OK) {
 174              		.loc 1 34 0
 175 006e FFF7FEFF 		bl	AUDIO_L_CreateAudioDirectory
ARM GAS  C:\Users\Student\AppData\Local\Temp\cckaAu1N.s 			page 5


 176              	.LVL22:
  35:Modules/audio_loader.c ****             xprintf("Creation of audio directory has failed.\r\n");
 177              		.loc 1 35 0
 178 0072 08B9     		cbnz	r0, .L21
  21:Modules/audio_loader.c **** 
 179              		.loc 1 21 0
 180 0074 0024     		movs	r4, #0
 181 0076 F2E7     		b	.L7
 182              	.L21:
  36:Modules/audio_loader.c ****             return -1;
 183              		.loc 1 36 0
 184 0078 0848     		ldr	r0, .L22+12
 185              	.LVL23:
 186 007a FFF7FEFF 		bl	xprintf
 187              	.LVL24:
  37:Modules/audio_loader.c ****         }
 188              		.loc 1 37 0
 189 007e 4FF0FF34 		mov	r4, #-1
 190 0082 ECE7     		b	.L7
 191              	.LVL25:
 192              	.L20:
  40:Modules/audio_loader.c ****     }
 193              		.loc 1 40 0
 194 0084 0648     		ldr	r0, .L22+16
 195              	.LVL26:
 196 0086 FFF7FEFF 		bl	xprintf
 197              	.LVL27:
  21:Modules/audio_loader.c **** 
 198              		.loc 1 21 0
 199 008a 0024     		movs	r4, #0
 200 008c E7E7     		b	.L7
 201              	.L23:
 202 008e 00BF     		.align	2
 203              	.L22:
 204 0090 00000000 		.word	.LC2
 205 0094 00000000 		.word	.LC0
 206 0098 08000000 		.word	.LC3
 207 009c 34000000 		.word	.LC4
 208 00a0 60000000 		.word	.LC5
 209              		.cfi_endproc
 210              	.LFE142:
 212              		.section	.text.AUDIO_L_PerformScan,"ax",%progbits
 213              		.align	1
 214              		.global	AUDIO_L_PerformScan
 215              		.syntax unified
 216              		.thumb
 217              		.thumb_func
 218              		.fpu fpv5-sp-d16
 220              	AUDIO_L_PerformScan:
 221              	.LFB143:
  45:Modules/audio_loader.c **** 
  46:Modules/audio_loader.c **** void AUDIO_L_PerformScan(void) {
 222              		.loc 1 46 0
 223              		.cfi_startproc
 224              		@ args = 0, pretend = 0, frame = 0
 225              		@ frame_needed = 0, uses_anonymous_args = 0
 226 0000 F8B5     		push	{r3, r4, r5, r6, r7, lr}
ARM GAS  C:\Users\Student\AppData\Local\Temp\cckaAu1N.s 			page 6


 227              	.LCFI5:
 228              		.cfi_def_cfa_offset 24
 229              		.cfi_offset 3, -24
 230              		.cfi_offset 4, -20
 231              		.cfi_offset 5, -16
 232              		.cfi_offset 6, -12
 233              		.cfi_offset 7, -8
 234              		.cfi_offset 14, -4
  47:Modules/audio_loader.c ****     char **audioFilesNames = malloc(AUDIO_FILES_LIMIT * sizeof(char *));
 235              		.loc 1 47 0
 236 0002 2820     		movs	r0, #40
 237 0004 FFF7FEFF 		bl	malloc
 238              	.LVL28:
 239 0008 0646     		mov	r6, r0
 240              	.LVL29:
  48:Modules/audio_loader.c ****     FRESULT result = AUDIO_L_CreateAudioDirectory();
 241              		.loc 1 48 0
 242 000a FFF7FEFF 		bl	AUDIO_L_CreateAudioDirectory
 243              	.LVL30:
  49:Modules/audio_loader.c ****     if (result == FR_OK || result == FR_EXIST) {
 244              		.loc 1 49 0
 245 000e 0828     		cmp	r0, #8
 246 0010 18BF     		it	ne
 247 0012 0028     		cmpne	r0, #0
 248 0014 03D0     		beq	.L29
 249              	.LVL31:
 250              	.L25:
  50:Modules/audio_loader.c ****         int filesFound = AUDIO_L_ScanAudioDirectory(audioFilesNames);
  51:Modules/audio_loader.c ****         xprintf("%d WAV files were found.\r\n", filesFound);
  52:Modules/audio_loader.c ****         for (int i = 0; i < filesFound; i++) {
  53:Modules/audio_loader.c ****             xprintf("Found WAV file no. %d: %s\r\n", i + 1, audioFilesNames[i]);
  54:Modules/audio_loader.c ****             free(audioFilesNames[i]);
  55:Modules/audio_loader.c ****         }
  56:Modules/audio_loader.c ****     }
  57:Modules/audio_loader.c ****     free(audioFilesNames);
 251              		.loc 1 57 0
 252 0016 3046     		mov	r0, r6
 253 0018 FFF7FEFF 		bl	free
 254              	.LVL32:
 255 001c F8BD     		pop	{r3, r4, r5, r6, r7, pc}
 256              	.LVL33:
 257              	.L29:
 258              	.LBB2:
  50:Modules/audio_loader.c ****         int filesFound = AUDIO_L_ScanAudioDirectory(audioFilesNames);
 259              		.loc 1 50 0
 260 001e 3046     		mov	r0, r6
 261              	.LVL34:
 262 0020 FFF7FEFF 		bl	AUDIO_L_ScanAudioDirectory
 263              	.LVL35:
 264 0024 0746     		mov	r7, r0
 265              	.LVL36:
  51:Modules/audio_loader.c ****         for (int i = 0; i < filesFound; i++) {
 266              		.loc 1 51 0
 267 0026 0146     		mov	r1, r0
 268 0028 0948     		ldr	r0, .L30
 269              	.LVL37:
 270 002a FFF7FEFF 		bl	xprintf
ARM GAS  C:\Users\Student\AppData\Local\Temp\cckaAu1N.s 			page 7


 271              	.LVL38:
 272              	.LBB3:
  52:Modules/audio_loader.c ****             xprintf("Found WAV file no. %d: %s\r\n", i + 1, audioFilesNames[i]);
 273              		.loc 1 52 0
 274 002e 0024     		movs	r4, #0
 275 0030 0BE0     		b	.L26
 276              	.LVL39:
 277              	.L27:
  53:Modules/audio_loader.c ****             free(audioFilesNames[i]);
 278              		.loc 1 53 0 discriminator 3
 279 0032 651C     		adds	r5, r4, #1
 280 0034 56F82420 		ldr	r2, [r6, r4, lsl #2]
 281 0038 2946     		mov	r1, r5
 282 003a 0648     		ldr	r0, .L30+4
 283 003c FFF7FEFF 		bl	xprintf
 284              	.LVL40:
  54:Modules/audio_loader.c ****         }
 285              		.loc 1 54 0 discriminator 3
 286 0040 56F82400 		ldr	r0, [r6, r4, lsl #2]
 287 0044 FFF7FEFF 		bl	free
 288              	.LVL41:
  52:Modules/audio_loader.c ****             xprintf("Found WAV file no. %d: %s\r\n", i + 1, audioFilesNames[i]);
 289              		.loc 1 52 0 discriminator 3
 290 0048 2C46     		mov	r4, r5
 291              	.LVL42:
 292              	.L26:
  52:Modules/audio_loader.c ****             xprintf("Found WAV file no. %d: %s\r\n", i + 1, audioFilesNames[i]);
 293              		.loc 1 52 0 is_stmt 0 discriminator 1
 294 004a BC42     		cmp	r4, r7
 295 004c F1DB     		blt	.L27
 296 004e E2E7     		b	.L25
 297              	.L31:
 298              		.align	2
 299              	.L30:
 300 0050 00000000 		.word	.LC6
 301 0054 1C000000 		.word	.LC7
 302              	.LBE3:
 303              	.LBE2:
 304              		.cfi_endproc
 305              	.LFE143:
 307              		.section	.rodata.AUDIO_L_CreateAudioDirectory.str1.4,"aMS",%progbits,1
 308              		.align	2
 309              	.LC0:
 310 0000 313A2F41 		.ascii	"1:/AudioDirectory\000"
 310      7564696F 
 310      44697265 
 310      63746F72 
 310      7900
 311 0012 0000     		.space	2
 312              	.LC1:
 313 0014 41756469 		.ascii	"Audio directory already exists.\015\012\000"
 313      6F206469 
 313      72656374 
 313      6F727920 
 313      616C7265 
 314              		.section	.rodata.AUDIO_L_PerformScan.str1.4,"aMS",%progbits,1
 315              		.align	2
ARM GAS  C:\Users\Student\AppData\Local\Temp\cckaAu1N.s 			page 8


 316              	.LC6:
 317 0000 25642057 		.ascii	"%d WAV files were found.\015\012\000"
 317      41562066 
 317      696C6573 
 317      20776572 
 317      6520666F 
 318 001b 00       		.space	1
 319              	.LC7:
 320 001c 466F756E 		.ascii	"Found WAV file no. %d: %s\015\012\000"
 320      64205741 
 320      56206669 
 320      6C65206E 
 320      6F2E2025 
 321              		.section	.rodata.AUDIO_L_ScanAudioDirectory.str1.4,"aMS",%progbits,1
 322              		.align	2
 323              	.LC2:
 324 0000 2A2E7761 		.ascii	"*.wav\000"
 324      7600
 325 0006 0000     		.space	2
 326              	.LC3:
 327 0008 456D7074 		.ascii	"Empty audio directory will be created.\015\012\000"
 327      79206175 
 327      64696F20 
 327      64697265 
 327      63746F72 
 328 0031 000000   		.space	3
 329              	.LC4:
 330 0034 43726561 		.ascii	"Creation of audio directory has failed.\015\012\000"
 330      74696F6E 
 330      206F6620 
 330      61756469 
 330      6F206469 
 331 005e 0000     		.space	2
 332              	.LC5:
 333 0060 466F756E 		.ascii	"Found zero WAV files.\000"
 333      64207A65 
 333      726F2057 
 333      41562066 
 333      696C6573 
 334              		.text
 335              	.Letext0:
 336              		.file 2 "Middlewares/Third_Party/FatFs/src/integer.h"
 337              		.file 3 "c:\\gcc_toolchain\\6_2017-q1-update\\arm-none-eabi\\include\\machine\\_default_types.h"
 338              		.file 4 "c:\\gcc_toolchain\\6_2017-q1-update\\arm-none-eabi\\include\\sys\\_stdint.h"
 339              		.file 5 "Drivers/CMSIS/Include/core_cm7.h"
 340              		.file 6 "Drivers/CMSIS/Device/ST/STM32F7xx/Include/system_stm32f7xx.h"
 341              		.file 7 "c:\\gcc_toolchain\\6_2017-q1-update\\arm-none-eabi\\include\\sys\\lock.h"
 342              		.file 8 "c:\\gcc_toolchain\\6_2017-q1-update\\arm-none-eabi\\include\\sys\\_types.h"
 343              		.file 9 "c:\\gcc_toolchain\\6_2017-q1-update\\lib\\gcc\\arm-none-eabi\\6.3.1\\include\\stddef.h"
 344              		.file 10 "c:\\gcc_toolchain\\6_2017-q1-update\\arm-none-eabi\\include\\sys\\reent.h"
 345              		.file 11 "Middlewares/Third_Party/FreeRTOS/Source/include/task.h"
 346              		.file 12 "Middlewares/Third_Party/FreeRTOS/Source/include/queue.h"
 347              		.file 13 "Middlewares/Third_Party/FreeRTOS/Source/include/semphr.h"
 348              		.file 14 "Middlewares/Third_Party/FreeRTOS/Source/CMSIS_RTOS/cmsis_os.h"
 349              		.file 15 "c:\\gcc_toolchain\\6_2017-q1-update\\arm-none-eabi\\include\\stdlib.h"
 350              		.file 16 "Middlewares/ST/STM32_USB_Host_Library/Core/Inc/usbh_def.h"
 351              		.file 17 "Middlewares/ST/STM32_USB_Host_Library/Core/Inc/usbh_ctlreq.h"
ARM GAS  C:\Users\Student\AppData\Local\Temp\cckaAu1N.s 			page 9


 352              		.file 18 "Middlewares/ST/STM32_USB_Host_Library/Class/MSC/Inc/usbh_msc.h"
 353              		.file 19 "Middlewares/Third_Party/FatFs/src/ff.h"
 354              		.file 20 "Inc/term_io.h"
 355              		.file 21 "c:\\gcc_toolchain\\6_2017-q1-update\\arm-none-eabi\\include\\string.h"
ARM GAS  C:\Users\Student\AppData\Local\Temp\cckaAu1N.s 			page 10


DEFINED SYMBOLS
                            *ABS*:00000000 audio_loader.c
C:\Users\Student\AppData\Local\Temp\cckaAu1N.s:18     .text.AUDIO_L_CreateAudioDirectory:00000000 $t
C:\Users\Student\AppData\Local\Temp\cckaAu1N.s:25     .text.AUDIO_L_CreateAudioDirectory:00000000 AUDIO_L_CreateAudioDirectory
C:\Users\Student\AppData\Local\Temp\cckaAu1N.s:62     .text.AUDIO_L_CreateAudioDirectory:0000001c $d
C:\Users\Student\AppData\Local\Temp\cckaAu1N.s:68     .text.AUDIO_L_ScanAudioDirectory:00000000 $t
C:\Users\Student\AppData\Local\Temp\cckaAu1N.s:75     .text.AUDIO_L_ScanAudioDirectory:00000000 AUDIO_L_ScanAudioDirectory
C:\Users\Student\AppData\Local\Temp\cckaAu1N.s:204    .text.AUDIO_L_ScanAudioDirectory:00000090 $d
C:\Users\Student\AppData\Local\Temp\cckaAu1N.s:213    .text.AUDIO_L_PerformScan:00000000 $t
C:\Users\Student\AppData\Local\Temp\cckaAu1N.s:220    .text.AUDIO_L_PerformScan:00000000 AUDIO_L_PerformScan
C:\Users\Student\AppData\Local\Temp\cckaAu1N.s:300    .text.AUDIO_L_PerformScan:00000050 $d
C:\Users\Student\AppData\Local\Temp\cckaAu1N.s:308    .rodata.AUDIO_L_CreateAudioDirectory.str1.4:00000000 $d
C:\Users\Student\AppData\Local\Temp\cckaAu1N.s:315    .rodata.AUDIO_L_PerformScan.str1.4:00000000 $d
C:\Users\Student\AppData\Local\Temp\cckaAu1N.s:322    .rodata.AUDIO_L_ScanAudioDirectory.str1.4:00000000 $d
                     .debug_frame:00000010 $d

UNDEFINED SYMBOLS
f_mkdir
xprintf
f_findfirst
strlen
malloc
strcpy
f_findnext
f_closedir
free
