ARM GAS  C:\Users\Nina\AppData\Local\Temp\ccpPZZFK.s 			page 1


   1              		.cpu cortex-m7
   2              		.eabi_attribute 27, 1
   3              		.eabi_attribute 28, 1
   4              		.eabi_attribute 20, 1
   5              		.eabi_attribute 21, 1
   6              		.eabi_attribute 23, 3
   7              		.eabi_attribute 24, 1
   8              		.eabi_attribute 25, 1
   9              		.eabi_attribute 26, 1
  10              		.eabi_attribute 30, 1
  11              		.eabi_attribute 34, 1
  12              		.eabi_attribute 18, 4
  13              		.file	"audio_player.c"
  14              		.text
  15              	.Ltext0:
  16              		.cfi_sections	.debug_frame
  17              		.section	.text.AUDIO_P_ChangeFrequency,"ax",%progbits
  18              		.align	1
  19              		.global	AUDIO_P_ChangeFrequency
  20              		.arch armv7e-m
  21              		.syntax unified
  22              		.thumb
  23              		.thumb_func
  24              		.fpu fpv5-sp-d16
  26              	AUDIO_P_ChangeFrequency:
  27              	.LVL0:
  28              	.LFB143:
  29              		.file 1 "Modules/audio_player.c"
   1:Modules/audio_player.c **** //
   2:Modules/audio_player.c **** // Created by olliekrk on 24.11.2019.
   3:Modules/audio_player.c **** //
   4:Modules/audio_player.c **** 
   5:Modules/audio_player.c **** #include <term_io.h>
   6:Modules/audio_player.c **** #include "audio_player.h"
   7:Modules/audio_player.c **** #include "stm32746g_discovery_audio.h"
   8:Modules/audio_player.c **** #include "audio_loader.h"
   9:Modules/audio_player.c **** #include "controls.h"
  10:Modules/audio_player.c **** 
  11:Modules/audio_player.c **** osPoolId audioRequestsPool;
  12:Modules/audio_player.c **** osMessageQId audioRequestsQueue;
  13:Modules/audio_player.c **** int AudioQueueSize = 0;
  14:Modules/audio_player.c **** 
  15:Modules/audio_player.c **** int AUDIO_P_ChangeFrequency(int frequency) {
  30              		.loc 1 15 44 view -0
  31              		.cfi_startproc
  32              		@ args = 0, pretend = 0, frame = 0
  33              		@ frame_needed = 0, uses_anonymous_args = 0
  34              		.loc 1 15 44 is_stmt 0 view .LVU1
  35 0000 10B5     		push	{r4, lr}
  36              	.LCFI0:
  37              		.cfi_def_cfa_offset 8
  38              		.cfi_offset 4, -8
  39              		.cfi_offset 14, -4
  40 0002 0246     		mov	r2, r0
  16:Modules/audio_player.c ****     int status = BSP_AUDIO_OUT_Init(OUTPUT_DEVICE_HEADPHONE1, APP_STATE.VOLUME, frequency);
  41              		.loc 1 16 5 is_stmt 1 view .LVU2
  42              		.loc 1 16 18 is_stmt 0 view .LVU3
ARM GAS  C:\Users\Nina\AppData\Local\Temp\ccpPZZFK.s 			page 2


  43 0004 054B     		ldr	r3, .L3
  44 0006 93F82010 		ldrb	r1, [r3, #32]	@ zero_extendqisi2
  45 000a 0220     		movs	r0, #2
  46              	.LVL1:
  47              		.loc 1 16 18 view .LVU4
  48 000c FFF7FEFF 		bl	BSP_AUDIO_OUT_Init
  49              	.LVL2:
  50              		.loc 1 16 18 view .LVU5
  51 0010 0446     		mov	r4, r0
  52              	.LVL3:
  17:Modules/audio_player.c ****     BSP_AUDIO_OUT_SetAudioFrameSlot(CODEC_AUDIOFRAME_SLOT_02);
  53              		.loc 1 17 5 is_stmt 1 view .LVU6
  54 0012 0520     		movs	r0, #5
  55              	.LVL4:
  56              		.loc 1 17 5 is_stmt 0 view .LVU7
  57 0014 FFF7FEFF 		bl	BSP_AUDIO_OUT_SetAudioFrameSlot
  58              	.LVL5:
  18:Modules/audio_player.c ****     return status;
  59              		.loc 1 18 5 is_stmt 1 view .LVU8
  19:Modules/audio_player.c **** }
  60              		.loc 1 19 1 is_stmt 0 view .LVU9
  61 0018 2046     		mov	r0, r4
  62 001a 10BD     		pop	{r4, pc}
  63              	.LVL6:
  64              	.L4:
  65              		.loc 1 19 1 view .LVU10
  66              		.align	2
  67              	.L3:
  68 001c 00000000 		.word	APP_STATE
  69              		.cfi_endproc
  70              	.LFE143:
  72              		.section	.text.AUDIO_P_VolumeUp,"ax",%progbits
  73              		.align	1
  74              		.global	AUDIO_P_VolumeUp
  75              		.syntax unified
  76              		.thumb
  77              		.thumb_func
  78              		.fpu fpv5-sp-d16
  80              	AUDIO_P_VolumeUp:
  81              	.LFB144:
  20:Modules/audio_player.c **** 
  21:Modules/audio_player.c **** void AUDIO_P_VolumeUp(){
  82              		.loc 1 21 24 is_stmt 1 view -0
  83              		.cfi_startproc
  84              		@ args = 0, pretend = 0, frame = 0
  85              		@ frame_needed = 0, uses_anonymous_args = 0
  86 0000 08B5     		push	{r3, lr}
  87              	.LCFI1:
  88              		.cfi_def_cfa_offset 8
  89              		.cfi_offset 3, -8
  90              		.cfi_offset 14, -4
  22:Modules/audio_player.c ****     if (APP_STATE.VOLUME < AUDIO_VOLUME_LIMIT) APP_STATE.VOLUME += AUDIO_VOLUME_UNIT;
  91              		.loc 1 22 5 view .LVU12
  92              		.loc 1 22 18 is_stmt 0 view .LVU13
  93 0002 064B     		ldr	r3, .L8
  94 0004 1B6A     		ldr	r3, [r3, #32]
  95              		.loc 1 22 8 view .LVU14
ARM GAS  C:\Users\Nina\AppData\Local\Temp\ccpPZZFK.s 			page 3


  96 0006 592B     		cmp	r3, #89
  97 0008 02DC     		bgt	.L6
  98              		.loc 1 22 48 is_stmt 1 discriminator 1 view .LVU15
  99              		.loc 1 22 65 is_stmt 0 discriminator 1 view .LVU16
 100 000a 0533     		adds	r3, r3, #5
 101 000c 034A     		ldr	r2, .L8
 102 000e 1362     		str	r3, [r2, #32]
 103              	.L6:
  23:Modules/audio_player.c ****     BSP_AUDIO_OUT_SetVolume(APP_STATE.VOLUME);
 104              		.loc 1 23 5 is_stmt 1 view .LVU17
 105 0010 024B     		ldr	r3, .L8
 106 0012 93F82000 		ldrb	r0, [r3, #32]	@ zero_extendqisi2
 107 0016 FFF7FEFF 		bl	BSP_AUDIO_OUT_SetVolume
 108              	.LVL7:
  24:Modules/audio_player.c **** }
 109              		.loc 1 24 1 is_stmt 0 view .LVU18
 110 001a 08BD     		pop	{r3, pc}
 111              	.L9:
 112              		.align	2
 113              	.L8:
 114 001c 00000000 		.word	APP_STATE
 115              		.cfi_endproc
 116              	.LFE144:
 118              		.section	.text.AUDIO_P_VolumeDown,"ax",%progbits
 119              		.align	1
 120              		.global	AUDIO_P_VolumeDown
 121              		.syntax unified
 122              		.thumb
 123              		.thumb_func
 124              		.fpu fpv5-sp-d16
 126              	AUDIO_P_VolumeDown:
 127              	.LFB145:
  25:Modules/audio_player.c **** 
  26:Modules/audio_player.c **** void AUDIO_P_VolumeDown(){
 128              		.loc 1 26 26 is_stmt 1 view -0
 129              		.cfi_startproc
 130              		@ args = 0, pretend = 0, frame = 0
 131              		@ frame_needed = 0, uses_anonymous_args = 0
 132 0000 08B5     		push	{r3, lr}
 133              	.LCFI2:
 134              		.cfi_def_cfa_offset 8
 135              		.cfi_offset 3, -8
 136              		.cfi_offset 14, -4
  27:Modules/audio_player.c ****     if (APP_STATE.VOLUME > 0) APP_STATE.VOLUME -= AUDIO_VOLUME_UNIT;
 137              		.loc 1 27 5 view .LVU20
 138              		.loc 1 27 18 is_stmt 0 view .LVU21
 139 0002 064B     		ldr	r3, .L13
 140 0004 1B6A     		ldr	r3, [r3, #32]
 141              		.loc 1 27 8 view .LVU22
 142 0006 002B     		cmp	r3, #0
 143 0008 02DD     		ble	.L11
 144              		.loc 1 27 31 is_stmt 1 discriminator 1 view .LVU23
 145              		.loc 1 27 48 is_stmt 0 discriminator 1 view .LVU24
 146 000a 053B     		subs	r3, r3, #5
 147 000c 034A     		ldr	r2, .L13
 148 000e 1362     		str	r3, [r2, #32]
 149              	.L11:
ARM GAS  C:\Users\Nina\AppData\Local\Temp\ccpPZZFK.s 			page 4


  28:Modules/audio_player.c ****     BSP_AUDIO_OUT_SetVolume(APP_STATE.VOLUME);
 150              		.loc 1 28 5 is_stmt 1 view .LVU25
 151 0010 024B     		ldr	r3, .L13
 152 0012 93F82000 		ldrb	r0, [r3, #32]	@ zero_extendqisi2
 153 0016 FFF7FEFF 		bl	BSP_AUDIO_OUT_SetVolume
 154              	.LVL8:
  29:Modules/audio_player.c **** }
 155              		.loc 1 29 1 is_stmt 0 view .LVU26
 156 001a 08BD     		pop	{r3, pc}
 157              	.L14:
 158              		.align	2
 159              	.L13:
 160 001c 00000000 		.word	APP_STATE
 161              		.cfi_endproc
 162              	.LFE145:
 164              		.section	.text.AUDIO_P_AddToQueue,"ax",%progbits
 165              		.align	1
 166              		.global	AUDIO_P_AddToQueue
 167              		.syntax unified
 168              		.thumb
 169              		.thumb_func
 170              		.fpu fpv5-sp-d16
 172              	AUDIO_P_AddToQueue:
 173              	.LVL9:
 174              	.LFB146:
  30:Modules/audio_player.c **** 
  31:Modules/audio_player.c **** void AUDIO_P_AddToQueue(int audioIndex) {
 175              		.loc 1 31 41 is_stmt 1 view -0
 176              		.cfi_startproc
 177              		@ args = 0, pretend = 0, frame = 0
 178              		@ frame_needed = 0, uses_anonymous_args = 0
 179              		.loc 1 31 41 is_stmt 0 view .LVU28
 180 0000 10B5     		push	{r4, lr}
 181              	.LCFI3:
 182              		.cfi_def_cfa_offset 8
 183              		.cfi_offset 4, -8
 184              		.cfi_offset 14, -4
 185 0002 0446     		mov	r4, r0
  32:Modules/audio_player.c ****     AudioRequest *request;
 186              		.loc 1 32 5 is_stmt 1 view .LVU29
  33:Modules/audio_player.c ****     request = osPoolAlloc(audioRequestsPool);
 187              		.loc 1 33 5 view .LVU30
 188              		.loc 1 33 15 is_stmt 0 view .LVU31
 189 0004 074B     		ldr	r3, .L17
 190 0006 1868     		ldr	r0, [r3]
 191              	.LVL10:
 192              		.loc 1 33 15 view .LVU32
 193 0008 FFF7FEFF 		bl	osPoolAlloc
 194              	.LVL11:
 195 000c 0146     		mov	r1, r0
 196              	.LVL12:
  34:Modules/audio_player.c ****     request->audioIndex = audioIndex;
 197              		.loc 1 34 5 is_stmt 1 view .LVU33
 198              		.loc 1 34 25 is_stmt 0 view .LVU34
 199 000e 0460     		str	r4, [r0]
  35:Modules/audio_player.c ****     osMessagePut(audioRequestsQueue, (uint32_t) request, 0);
 200              		.loc 1 35 5 is_stmt 1 view .LVU35
ARM GAS  C:\Users\Nina\AppData\Local\Temp\ccpPZZFK.s 			page 5


 201 0010 0022     		movs	r2, #0
 202 0012 054B     		ldr	r3, .L17+4
 203 0014 1868     		ldr	r0, [r3]
 204              	.LVL13:
 205              		.loc 1 35 5 is_stmt 0 view .LVU36
 206 0016 FFF7FEFF 		bl	osMessagePut
 207              	.LVL14:
  36:Modules/audio_player.c **** 	AudioQueueSize++;
 208              		.loc 1 36 2 is_stmt 1 view .LVU37
 209              		.loc 1 36 16 is_stmt 0 view .LVU38
 210 001a 044A     		ldr	r2, .L17+8
 211 001c 1368     		ldr	r3, [r2]
 212 001e 0133     		adds	r3, r3, #1
 213 0020 1360     		str	r3, [r2]
  37:Modules/audio_player.c **** }
 214              		.loc 1 37 1 view .LVU39
 215 0022 10BD     		pop	{r4, pc}
 216              	.LVL15:
 217              	.L18:
 218              		.loc 1 37 1 view .LVU40
 219              		.align	2
 220              	.L17:
 221 0024 00000000 		.word	audioRequestsPool
 222 0028 00000000 		.word	audioRequestsQueue
 223 002c 00000000 		.word	.LANCHOR0
 224              		.cfi_endproc
 225              	.LFE146:
 227              		.section	.rodata.AUDIO_P_Play.str1.4,"aMS",%progbits,1
 228              		.align	2
 229              	.LC0:
 230 0000 506C6179 		.ascii	"Playing: %d\015\012\000"
 230      696E673A 
 230      2025640D 
 230      0A00
 231              		.section	.text.AUDIO_P_Play,"ax",%progbits
 232              		.align	1
 233              		.global	AUDIO_P_Play
 234              		.syntax unified
 235              		.thumb
 236              		.thumb_func
 237              		.fpu fpv5-sp-d16
 239              	AUDIO_P_Play:
 240              	.LVL16:
 241              	.LFB147:
  38:Modules/audio_player.c **** 
  39:Modules/audio_player.c **** void AUDIO_P_Play(int audioIndex) {
 242              		.loc 1 39 35 is_stmt 1 view -0
 243              		.cfi_startproc
 244              		@ args = 0, pretend = 0, frame = 0
 245              		@ frame_needed = 0, uses_anonymous_args = 0
 246              		.loc 1 39 35 is_stmt 0 view .LVU42
 247 0000 10B5     		push	{r4, lr}
 248              	.LCFI4:
 249              		.cfi_def_cfa_offset 8
 250              		.cfi_offset 4, -8
 251              		.cfi_offset 14, -4
 252 0002 0446     		mov	r4, r0
ARM GAS  C:\Users\Nina\AppData\Local\Temp\ccpPZZFK.s 			page 6


  40:Modules/audio_player.c **** 	AudioQueueSize--;
 253              		.loc 1 40 2 is_stmt 1 view .LVU43
 254              		.loc 1 40 16 is_stmt 0 view .LVU44
 255 0004 0C4A     		ldr	r2, .L23
 256 0006 1368     		ldr	r3, [r2]
 257 0008 013B     		subs	r3, r3, #1
 258 000a 1360     		str	r3, [r2]
  41:Modules/audio_player.c ****     int frequency = APP_BUTTONS_STATE.configs[audioIndex].sampleRate;
 259              		.loc 1 41 5 is_stmt 1 view .LVU45
 260              		.loc 1 41 38 is_stmt 0 view .LVU46
 261 000c 0B4B     		ldr	r3, .L23+4
 262 000e 1B68     		ldr	r3, [r3]
 263              		.loc 1 41 46 view .LVU47
 264 0010 03EB0013 		add	r3, r3, r0, lsl #4
 265              	.LVL17:
  42:Modules/audio_player.c ****     if (AUDIO_P_ChangeFrequency(frequency) == AUDIO_OK) {
 266              		.loc 1 42 5 is_stmt 1 view .LVU48
 267              		.loc 1 42 9 is_stmt 0 view .LVU49
 268 0014 D888     		ldrh	r0, [r3, #6]
 269              	.LVL18:
 270              		.loc 1 42 9 view .LVU50
 271 0016 FFF7FEFF 		bl	AUDIO_P_ChangeFrequency
 272              	.LVL19:
 273              		.loc 1 42 8 view .LVU51
 274 001a 00B1     		cbz	r0, .L22
 275              	.L19:
  43:Modules/audio_player.c ****         xprintf("Playing: %d\r\n", audioIndex);
  44:Modules/audio_player.c ****         BSP_AUDIO_OUT_Play(
  45:Modules/audio_player.c ****                 (uint16_t *) &AUDIO_BUFFER[audioIndex * BUFFER_LIMIT_PER_BUTTON],
  46:Modules/audio_player.c ****                 BUFFER_LIMIT_PER_BUTTON
  47:Modules/audio_player.c ****         );
  48:Modules/audio_player.c ****     }
  49:Modules/audio_player.c **** }
 276              		.loc 1 49 1 view .LVU52
 277 001c 10BD     		pop	{r4, pc}
 278              	.LVL20:
 279              	.L22:
  43:Modules/audio_player.c ****         xprintf("Playing: %d\r\n", audioIndex);
 280              		.loc 1 43 9 is_stmt 1 view .LVU53
 281 001e 2146     		mov	r1, r4
 282 0020 0748     		ldr	r0, .L23+8
 283 0022 FFF7FEFF 		bl	xprintf
 284              	.LVL21:
  44:Modules/audio_player.c ****                 (uint16_t *) &AUDIO_BUFFER[audioIndex * BUFFER_LIMIT_PER_BUTTON],
 285              		.loc 1 44 9 view .LVU54
 286 0026 4FF40031 		mov	r1, #131072
 287 002a 0648     		ldr	r0, .L23+12
 288 002c 00EB4440 		add	r0, r0, r4, lsl #17
 289 0030 FFF7FEFF 		bl	BSP_AUDIO_OUT_Play
 290              	.LVL22:
 291              		.loc 1 49 1 is_stmt 0 view .LVU55
 292 0034 F2E7     		b	.L19
 293              	.L24:
 294 0036 00BF     		.align	2
 295              	.L23:
 296 0038 00000000 		.word	.LANCHOR0
 297 003c 00000000 		.word	APP_BUTTONS_STATE
ARM GAS  C:\Users\Nina\AppData\Local\Temp\ccpPZZFK.s 			page 7


 298 0040 00000000 		.word	.LC0
 299 0044 00000000 		.word	AUDIO_BUFFER
 300              		.cfi_endproc
 301              	.LFE147:
 303              		.section	.text.AUDIO_P_End,"ax",%progbits
 304              		.align	1
 305              		.global	AUDIO_P_End
 306              		.syntax unified
 307              		.thumb
 308              		.thumb_func
 309              		.fpu fpv5-sp-d16
 311              	AUDIO_P_End:
 312              	.LFB148:
  50:Modules/audio_player.c **** 
  51:Modules/audio_player.c **** void AUDIO_P_End(){
 313              		.loc 1 51 19 is_stmt 1 view -0
 314              		.cfi_startproc
 315              		@ args = 0, pretend = 0, frame = 0
 316              		@ frame_needed = 0, uses_anonymous_args = 0
 317 0000 08B5     		push	{r3, lr}
 318              	.LCFI5:
 319              		.cfi_def_cfa_offset 8
 320              		.cfi_offset 3, -8
 321              		.cfi_offset 14, -4
  52:Modules/audio_player.c **** 	APP_STATE.IS_PLAYING = 0;
 322              		.loc 1 52 2 view .LVU57
 323              		.loc 1 52 23 is_stmt 0 view .LVU58
 324 0002 054B     		ldr	r3, .L29
 325 0004 0022     		movs	r2, #0
 326 0006 DA60     		str	r2, [r3, #12]
  53:Modules/audio_player.c **** 	if (AudioQueueSize == 0) {
 327              		.loc 1 53 2 is_stmt 1 view .LVU59
 328              		.loc 1 53 21 is_stmt 0 view .LVU60
 329 0008 044B     		ldr	r3, .L29+4
 330 000a 1B68     		ldr	r3, [r3]
 331              		.loc 1 53 5 view .LVU61
 332 000c 03B1     		cbz	r3, .L28
 333              	.L25:
  54:Modules/audio_player.c **** 		BSP_AUDIO_OUT_Stop(CODEC_PDWN_SW);
  55:Modules/audio_player.c **** 	}
  56:Modules/audio_player.c **** }
 334              		.loc 1 56 1 view .LVU62
 335 000e 08BD     		pop	{r3, pc}
 336              	.L28:
  54:Modules/audio_player.c **** 		BSP_AUDIO_OUT_Stop(CODEC_PDWN_SW);
 337              		.loc 1 54 3 is_stmt 1 view .LVU63
 338 0010 0220     		movs	r0, #2
 339 0012 FFF7FEFF 		bl	BSP_AUDIO_OUT_Stop
 340              	.LVL23:
 341              		.loc 1 56 1 is_stmt 0 view .LVU64
 342 0016 FAE7     		b	.L25
 343              	.L30:
 344              		.align	2
 345              	.L29:
 346 0018 00000000 		.word	APP_STATE
 347 001c 00000000 		.word	.LANCHOR0
 348              		.cfi_endproc
ARM GAS  C:\Users\Nina\AppData\Local\Temp\ccpPZZFK.s 			page 8


 349              	.LFE148:
 351              		.global	AudioQueueSize
 352              		.comm	audioRequestsQueue,4,4
 353              		.comm	audioRequestsPool,4,4
 354              		.section	.bss.AudioQueueSize,"aw",%nobits
 355              		.align	2
 356              		.set	.LANCHOR0,. + 0
 359              	AudioQueueSize:
 360 0000 00000000 		.space	4
 361              		.text
 362              	.Letext0:
 363              		.file 2 "c:\\program files (x86)\\gnu tools arm embedded\\9 2019-q4-major\\arm-none-eabi\\include\
 364              		.file 3 "c:\\program files (x86)\\gnu tools arm embedded\\9 2019-q4-major\\arm-none-eabi\\include\
 365              		.file 4 "Drivers/CMSIS/Include/core_cm7.h"
 366              		.file 5 "Drivers/CMSIS/Device/ST/STM32F7xx/Include/system_stm32f7xx.h"
 367              		.file 6 "c:\\program files (x86)\\gnu tools arm embedded\\9 2019-q4-major\\arm-none-eabi\\include\
 368              		.file 7 "c:\\program files (x86)\\gnu tools arm embedded\\9 2019-q4-major\\arm-none-eabi\\include\
 369              		.file 8 "c:\\program files (x86)\\gnu tools arm embedded\\9 2019-q4-major\\lib\\gcc\\arm-none-eabi
 370              		.file 9 "c:\\program files (x86)\\gnu tools arm embedded\\9 2019-q4-major\\arm-none-eabi\\include\
 371              		.file 10 "Middlewares/Third_Party/FreeRTOS/Source/include/task.h"
 372              		.file 11 "Middlewares/Third_Party/FreeRTOS/Source/include/queue.h"
 373              		.file 12 "Middlewares/Third_Party/FreeRTOS/Source/include/semphr.h"
 374              		.file 13 "Middlewares/Third_Party/FreeRTOS/Source/CMSIS_RTOS/cmsis_os.h"
 375              		.file 14 "c:\\program files (x86)\\gnu tools arm embedded\\9 2019-q4-major\\arm-none-eabi\\include
 376              		.file 15 "Middlewares/ST/STM32_USB_Host_Library/Core/Inc/usbh_def.h"
 377              		.file 16 "Middlewares/ST/STM32_USB_Host_Library/Core/Inc/usbh_ctlreq.h"
 378              		.file 17 "Middlewares/ST/STM32_USB_Host_Library/Class/MSC/Inc/usbh_msc.h"
 379              		.file 18 "Modules/audio_player.h"
 380              		.file 19 "Drivers/BSP/STM32746G-Discovery/../Components/wm8994/../Common/audio.h"
 381              		.file 20 "Drivers/BSP/STM32746G-Discovery/../Components/wm8994/wm8994.h"
 382              		.file 21 "Drivers/BSP/STM32746G-Discovery/stm32746g_discovery_audio.h"
 383              		.file 22 "Middlewares/Third_Party/FatFs/src/integer.h"
 384              		.file 23 "Middlewares/Third_Party/FatFs/src/ff.h"
 385              		.file 24 "Modules/audio_loader.h"
 386              		.file 25 "Modules/controls.h"
 387              		.file 26 "Inc/term_io.h"
ARM GAS  C:\Users\Nina\AppData\Local\Temp\ccpPZZFK.s 			page 9

