ARM GAS  C:\Users\Nina\AppData\Local\Temp\ccU0HpAq.s 			page 1


   1              		.cpu cortex-m7
   2              		.eabi_attribute 27, 1
   3              		.eabi_attribute 28, 1
   4              		.eabi_attribute 20, 1
   5              		.eabi_attribute 21, 1
   6              		.eabi_attribute 23, 3
   7              		.eabi_attribute 24, 1
   8              		.eabi_attribute 25, 1
   9              		.eabi_attribute 26, 1
  10              		.eabi_attribute 30, 1
  11              		.eabi_attribute 34, 1
  12              		.eabi_attribute 18, 4
  13              		.file	"dbgu.c"
  14              		.text
  15              	.Ltext0:
  16              		.cfi_sections	.debug_frame
  17              		.section	.text.debug_shdn,"ax",%progbits
  18              		.align	1
  19              		.global	debug_shdn
  20              		.arch armv7e-m
  21              		.syntax unified
  22              		.thumb
  23              		.thumb_func
  24              		.fpu fpv5-sp-d16
  26              	debug_shdn:
  27              	.LVL0:
  28              	.LFB138:
  29              		.file 1 "Src/dbgu.c"
   1:Src/dbgu.c    **** /*
   2:Src/dbgu.c    **** * The MIT License (MIT)
   3:Src/dbgu.c    **** * Copyright (c) 2017 Robert Brzoza-Woch
   4:Src/dbgu.c    **** * Permission is hereby granted, free of charge, to any person obtaining 
   5:Src/dbgu.c    **** * a copy of this software and associated documentation files (the "Software"), 
   6:Src/dbgu.c    **** * to deal in the Software without restriction, including without limitation
   7:Src/dbgu.c    **** * the rights to use, copy, modify, merge, publish, distribute, sublicense,
   8:Src/dbgu.c    **** * and/or sell copies of the Software, and to permit persons to whom the
   9:Src/dbgu.c    **** * Software is furnished to do so, subject to the following conditions:
  10:Src/dbgu.c    **** * 
  11:Src/dbgu.c    **** * The above copyright notice and this permission notice shall be
  12:Src/dbgu.c    **** * included in all copies or substantial portions of the Software.
  13:Src/dbgu.c    **** * 
  14:Src/dbgu.c    **** * THE SOFTWARE IS PROVIDED "AS IS", WITHOUT WARRANTY OF ANY KIND,
  15:Src/dbgu.c    **** * EXPRESS OR IMPLIED, INCLUDING BUT NOT LIMITED TO THE WARRANTIES
  16:Src/dbgu.c    **** * OF MERCHANTABILITY, FITNESS FOR A PARTICULAR PURPOSE AND NONINFRINGEMENT.
  17:Src/dbgu.c    **** * IN NO EVENT SHALL THE AUTHORS OR COPYRIGHT HOLDERS BE LIABLE FOR ANY CLAIM,
  18:Src/dbgu.c    **** * DAMAGES OR OTHER LIABILITY, WHETHER IN AN ACTION OF CONTRACT, TORT OR
  19:Src/dbgu.c    **** * OTHERWISE, ARISING FROM, OUT OF OR IN CONNECTION WITH THE SOFTWARE OR
  20:Src/dbgu.c    **** * THE USE OR OTHER DEALINGS IN THE SOFTWARE.
  21:Src/dbgu.c    **** */
  22:Src/dbgu.c    **** 
  23:Src/dbgu.c    **** #include "dbgu.h"
  24:Src/dbgu.c    **** #include "term_io.h"
  25:Src/dbgu.c    **** #include "stm32f7xx_hal.h"
  26:Src/dbgu.c    **** #include "stm32f7xx_hal_gpio.h"
  27:Src/dbgu.c    **** #include "stm32f7xx_hal_uart.h"
  28:Src/dbgu.c    **** 
  29:Src/dbgu.c    **** #define USE_HAL		0
ARM GAS  C:\Users\Nina\AppData\Local\Temp\ccU0HpAq.s 			page 2


  30:Src/dbgu.c    **** 
  31:Src/dbgu.c    **** UART_HandleTypeDef* pUart = NULL;
  32:Src/dbgu.c    **** 
  33:Src/dbgu.c    **** void debug_shdn(uint32_t shdn_on)
  34:Src/dbgu.c    **** {
  30              		.loc 1 34 1 view -0
  31              		.cfi_startproc
  32              		@ args = 0, pretend = 0, frame = 0
  33              		@ frame_needed = 0, uses_anonymous_args = 0
  34              		@ link register save eliminated.
  35:Src/dbgu.c    **** 	if(shdn_on)
  35              		.loc 1 35 2 view .LVU1
  36:Src/dbgu.c    **** 	{
  37:Src/dbgu.c    **** 	}
  38:Src/dbgu.c    **** 	else
  39:Src/dbgu.c    **** 	{
  40:Src/dbgu.c    **** 	}
  36              		.loc 1 40 2 view .LVU2
  41:Src/dbgu.c    **** 	
  42:Src/dbgu.c    **** 	
  43:Src/dbgu.c    **** }
  37              		.loc 1 43 1 is_stmt 0 view .LVU3
  38 0000 7047     		bx	lr
  39              		.cfi_endproc
  40              	.LFE138:
  42              		.section	.text.debug_init,"ax",%progbits
  43              		.align	1
  44              		.global	debug_init
  45              		.syntax unified
  46              		.thumb
  47              		.thumb_func
  48              		.fpu fpv5-sp-d16
  50              	debug_init:
  51              	.LVL1:
  52              	.LFB139:
  44:Src/dbgu.c    **** 
  45:Src/dbgu.c    **** void debug_init(UART_HandleTypeDef* handler)
  46:Src/dbgu.c    **** {
  53              		.loc 1 46 1 is_stmt 1 view -0
  54              		.cfi_startproc
  55              		@ args = 0, pretend = 0, frame = 0
  56              		@ frame_needed = 0, uses_anonymous_args = 0
  57              		@ link register save eliminated.
  47:Src/dbgu.c    **** 	pUart = handler;
  58              		.loc 1 47 2 view .LVU5
  59              		.loc 1 47 8 is_stmt 0 view .LVU6
  60 0000 014B     		ldr	r3, .L3
  61 0002 1860     		str	r0, [r3]
  48:Src/dbgu.c    **** }
  62              		.loc 1 48 1 view .LVU7
  63 0004 7047     		bx	lr
  64              	.L4:
  65 0006 00BF     		.align	2
  66              	.L3:
  67 0008 00000000 		.word	.LANCHOR0
  68              		.cfi_endproc
  69              	.LFE139:
ARM GAS  C:\Users\Nina\AppData\Local\Temp\ccU0HpAq.s 			page 3


  71              		.section	.text.debug_chr,"ax",%progbits
  72              		.align	1
  73              		.global	debug_chr
  74              		.syntax unified
  75              		.thumb
  76              		.thumb_func
  77              		.fpu fpv5-sp-d16
  79              	debug_chr:
  80              	.LFB140:
  49:Src/dbgu.c    **** 
  50:Src/dbgu.c    **** //send chr via UART (platform dependent)
  51:Src/dbgu.c    **** void debug_chr(char chr)
  52:Src/dbgu.c    **** {
  81              		.loc 1 52 1 is_stmt 1 view -0
  82              		.cfi_startproc
  83              		@ args = 0, pretend = 0, frame = 0
  84              		@ frame_needed = 0, uses_anonymous_args = 0
  85              		@ link register save eliminated.
  86              	.LVL2:
  87              	.L6:
  53:Src/dbgu.c    **** 	#if USE_HAL
  54:Src/dbgu.c    **** 	HAL_UART_Transmit(pUart,
  55:Src/dbgu.c    **** 	(uint8_t*)&chr, 1, 1000);
  56:Src/dbgu.c    **** 	#else
  57:Src/dbgu.c    **** 	while(__HAL_UART_GET_FLAG(pUart, UART_FLAG_TXE) == RESET) { ; }
  88              		.loc 1 57 62 discriminator 1 view .LVU9
  89              		.loc 1 57 7 discriminator 1 view .LVU10
  90              		.loc 1 57 8 is_stmt 0 discriminator 1 view .LVU11
  91 0000 044B     		ldr	r3, .L7
  92 0002 1B68     		ldr	r3, [r3]
  93 0004 1B68     		ldr	r3, [r3]
  94 0006 DA69     		ldr	r2, [r3, #28]
  95              		.loc 1 57 7 discriminator 1 view .LVU12
  96 0008 12F0800F 		tst	r2, #128
  97 000c F8D0     		beq	.L6
  58:Src/dbgu.c    **** 	pUart->Instance->TDR = (uint16_t)chr;
  98              		.loc 1 58 2 is_stmt 1 view .LVU13
  99              		.loc 1 58 23 is_stmt 0 view .LVU14
 100 000e 9862     		str	r0, [r3, #40]
  59:Src/dbgu.c    **** 	#endif
  60:Src/dbgu.c    **** }
 101              		.loc 1 60 1 view .LVU15
 102 0010 7047     		bx	lr
 103              	.L8:
 104 0012 00BF     		.align	2
 105              	.L7:
 106 0014 00000000 		.word	.LANCHOR0
 107              		.cfi_endproc
 108              	.LFE140:
 110              		.section	.text.debug_inkey,"ax",%progbits
 111              		.align	1
 112              		.global	debug_inkey
 113              		.syntax unified
 114              		.thumb
 115              		.thumb_func
 116              		.fpu fpv5-sp-d16
 118              	debug_inkey:
ARM GAS  C:\Users\Nina\AppData\Local\Temp\ccU0HpAq.s 			page 4


 119              	.LFB141:
  61:Src/dbgu.c    **** 
  62:Src/dbgu.c    **** 
  63:Src/dbgu.c    **** //returns ascii value of last char received
  64:Src/dbgu.c    **** //returns 0 if no char was received since last debug_inkey call
  65:Src/dbgu.c    **** //(platform dependent)
  66:Src/dbgu.c    **** char debug_inkey(void)
  67:Src/dbgu.c    **** {
 120              		.loc 1 67 1 is_stmt 1 view -0
 121              		.cfi_startproc
 122              		@ args = 0, pretend = 0, frame = 0
 123              		@ frame_needed = 0, uses_anonymous_args = 0
 124              		@ link register save eliminated.
  68:Src/dbgu.c    **** 	uint32_t flags = pUart->Instance->ISR;
 125              		.loc 1 68 2 view .LVU17
 126              		.loc 1 68 24 is_stmt 0 view .LVU18
 127 0000 074B     		ldr	r3, .L12
 128 0002 1B68     		ldr	r3, [r3]
 129 0004 1A68     		ldr	r2, [r3]
 130              		.loc 1 68 11 view .LVU19
 131 0006 D169     		ldr	r1, [r2, #28]
 132              	.LVL3:
  69:Src/dbgu.c    **** 	
  70:Src/dbgu.c    **** 	if((flags & UART_FLAG_RXNE) || (flags & UART_FLAG_ORE))
 133              		.loc 1 70 2 is_stmt 1 view .LVU20
 134              		.loc 1 70 4 is_stmt 0 view .LVU21
 135 0008 11F0280F 		tst	r1, #40
 136 000c 05D0     		beq	.L11
  71:Src/dbgu.c    **** 	{
  72:Src/dbgu.c    **** 		__HAL_UART_CLEAR_OREFLAG(pUart);
 137              		.loc 1 72 3 is_stmt 1 view .LVU22
 138 000e 0821     		movs	r1, #8
 139              	.LVL4:
 140              		.loc 1 72 3 is_stmt 0 view .LVU23
 141 0010 1162     		str	r1, [r2, #32]
  73:Src/dbgu.c    **** 		return (pUart->Instance->RDR);
 142              		.loc 1 73 3 is_stmt 1 view .LVU24
 143              		.loc 1 73 16 is_stmt 0 view .LVU25
 144 0012 1B68     		ldr	r3, [r3]
 145              		.loc 1 73 26 view .LVU26
 146 0014 586A     		ldr	r0, [r3, #36]
 147 0016 C0B2     		uxtb	r0, r0
 148 0018 7047     		bx	lr
 149              	.LVL5:
 150              	.L11:
  74:Src/dbgu.c    **** 	}
  75:Src/dbgu.c    **** 	else
  76:Src/dbgu.c    **** 		return 0;
 151              		.loc 1 76 10 view .LVU27
 152 001a 0020     		movs	r0, #0
  77:Src/dbgu.c    **** }
 153              		.loc 1 77 1 view .LVU28
 154 001c 7047     		bx	lr
 155              	.L13:
 156 001e 00BF     		.align	2
 157              	.L12:
 158 0020 00000000 		.word	.LANCHOR0
ARM GAS  C:\Users\Nina\AppData\Local\Temp\ccU0HpAq.s 			page 5


 159              		.cfi_endproc
 160              	.LFE141:
 162              		.section	.text.debug_waitkey,"ax",%progbits
 163              		.align	1
 164              		.global	debug_waitkey
 165              		.syntax unified
 166              		.thumb
 167              		.thumb_func
 168              		.fpu fpv5-sp-d16
 170              	debug_waitkey:
 171              	.LFB142:
  78:Src/dbgu.c    **** 
  79:Src/dbgu.c    **** //halts program/task execution until char is received
  80:Src/dbgu.c    **** //(platform dependent)
  81:Src/dbgu.c    **** char debug_waitkey(void)
  82:Src/dbgu.c    **** {
 172              		.loc 1 82 1 is_stmt 1 view -0
 173              		.cfi_startproc
 174              		@ args = 0, pretend = 0, frame = 8
 175              		@ frame_needed = 0, uses_anonymous_args = 0
 176 0000 00B5     		push	{lr}
 177              	.LCFI0:
 178              		.cfi_def_cfa_offset 4
 179              		.cfi_offset 14, -4
 180 0002 83B0     		sub	sp, sp, #12
 181              	.LCFI1:
 182              		.cfi_def_cfa_offset 16
 183              	.L15:
  83:Src/dbgu.c    **** 	uint8_t rxed;
 184              		.loc 1 83 2 discriminator 1 view .LVU30
  84:Src/dbgu.c    **** 	HAL_StatusTypeDef res;
 185              		.loc 1 84 2 discriminator 1 view .LVU31
  85:Src/dbgu.c    **** 	
  86:Src/dbgu.c    **** 	do
 186              		.loc 1 86 2 discriminator 1 view .LVU32
  87:Src/dbgu.c    **** 	{
  88:Src/dbgu.c    **** 		res = HAL_UART_Receive(pUart,&rxed,1,HAL_MAX_DELAY);
 187              		.loc 1 88 3 discriminator 1 view .LVU33
 188              		.loc 1 88 9 is_stmt 0 discriminator 1 view .LVU34
 189 0004 4FF0FF33 		mov	r3, #-1
 190 0008 0122     		movs	r2, #1
 191 000a 0DF10701 		add	r1, sp, #7
 192 000e 0548     		ldr	r0, .L17
 193 0010 0068     		ldr	r0, [r0]
 194 0012 FFF7FEFF 		bl	HAL_UART_Receive
 195              	.LVL6:
  89:Src/dbgu.c    **** 	}
  90:Src/dbgu.c    **** 	while(res != HAL_OK);
 196              		.loc 1 90 7 is_stmt 1 discriminator 1 view .LVU35
 197              		.loc 1 90 2 is_stmt 0 discriminator 1 view .LVU36
 198 0016 0028     		cmp	r0, #0
 199 0018 F4D1     		bne	.L15
  91:Src/dbgu.c    **** 	return rxed;
 200              		.loc 1 91 2 is_stmt 1 view .LVU37
  92:Src/dbgu.c    **** }
 201              		.loc 1 92 1 is_stmt 0 view .LVU38
 202 001a 9DF80700 		ldrb	r0, [sp, #7]	@ zero_extendqisi2
ARM GAS  C:\Users\Nina\AppData\Local\Temp\ccU0HpAq.s 			page 6


 203              	.LVL7:
 204              		.loc 1 92 1 view .LVU39
 205 001e 03B0     		add	sp, sp, #12
 206              	.LCFI2:
 207              		.cfi_def_cfa_offset 4
 208              		@ sp needed
 209 0020 5DF804FB 		ldr	pc, [sp], #4
 210              	.L18:
 211              		.align	2
 212              	.L17:
 213 0024 00000000 		.word	.LANCHOR0
 214              		.cfi_endproc
 215              	.LFE142:
 217              		.section	.text.debug_txt,"ax",%progbits
 218              		.align	1
 219              		.global	debug_txt
 220              		.syntax unified
 221              		.thumb
 222              		.thumb_func
 223              		.fpu fpv5-sp-d16
 225              	debug_txt:
 226              	.LVL8:
 227              	.LFB144:
  93:Src/dbgu.c    **** 
  94:Src/dbgu.c    **** 
  95:Src/dbgu.c    **** //platform independent funcs
  96:Src/dbgu.c    **** 
  97:Src/dbgu.c    **** 
  98:Src/dbgu.c    **** //prints text starting at str
  99:Src/dbgu.c    **** //adds new line at end
 100:Src/dbgu.c    **** void debug_msg(const char *str)
 101:Src/dbgu.c    **** {
 102:Src/dbgu.c    **** 	debug_txt(str);
 103:Src/dbgu.c    **** 	debug_chr('\r');
 104:Src/dbgu.c    **** 	debug_chr('\n');
 105:Src/dbgu.c    **** }
 106:Src/dbgu.c    **** 
 107:Src/dbgu.c    **** //prints text starting at str
 108:Src/dbgu.c    **** void debug_txt(const char *str)
 109:Src/dbgu.c    **** {
 228              		.loc 1 109 1 is_stmt 1 view -0
 229              		.cfi_startproc
 230              		@ args = 0, pretend = 0, frame = 0
 231              		@ frame_needed = 0, uses_anonymous_args = 0
 232              		.loc 1 109 1 is_stmt 0 view .LVU41
 233 0000 10B5     		push	{r4, lr}
 234              	.LCFI3:
 235              		.cfi_def_cfa_offset 8
 236              		.cfi_offset 4, -8
 237              		.cfi_offset 14, -4
 238 0002 0446     		mov	r4, r0
 110:Src/dbgu.c    **** 	while(*str) debug_chr(*str++);
 239              		.loc 1 110 2 is_stmt 1 view .LVU42
 240              	.LVL9:
 241              	.L20:
 242              		.loc 1 110 7 discriminator 1 view .LVU43
 243              		.loc 1 110 8 is_stmt 0 discriminator 1 view .LVU44
ARM GAS  C:\Users\Nina\AppData\Local\Temp\ccU0HpAq.s 			page 7


 244 0004 2078     		ldrb	r0, [r4]	@ zero_extendqisi2
 245              		.loc 1 110 7 discriminator 1 view .LVU45
 246 0006 18B1     		cbz	r0, .L23
 247              		.loc 1 110 14 is_stmt 1 discriminator 2 view .LVU46
 248              		.loc 1 110 28 is_stmt 0 discriminator 2 view .LVU47
 249 0008 0134     		adds	r4, r4, #1
 250              	.LVL10:
 251              		.loc 1 110 14 discriminator 2 view .LVU48
 252 000a FFF7FEFF 		bl	debug_chr
 253              	.LVL11:
 254 000e F9E7     		b	.L20
 255              	.L23:
 111:Src/dbgu.c    **** }
 256              		.loc 1 111 1 view .LVU49
 257 0010 10BD     		pop	{r4, pc}
 258              		.loc 1 111 1 view .LVU50
 259              		.cfi_endproc
 260              	.LFE144:
 262              		.section	.text.debug_msg,"ax",%progbits
 263              		.align	1
 264              		.global	debug_msg
 265              		.syntax unified
 266              		.thumb
 267              		.thumb_func
 268              		.fpu fpv5-sp-d16
 270              	debug_msg:
 271              	.LVL12:
 272              	.LFB143:
 101:Src/dbgu.c    **** 	debug_txt(str);
 273              		.loc 1 101 1 is_stmt 1 view -0
 274              		.cfi_startproc
 275              		@ args = 0, pretend = 0, frame = 0
 276              		@ frame_needed = 0, uses_anonymous_args = 0
 101:Src/dbgu.c    **** 	debug_txt(str);
 277              		.loc 1 101 1 is_stmt 0 view .LVU52
 278 0000 08B5     		push	{r3, lr}
 279              	.LCFI4:
 280              		.cfi_def_cfa_offset 8
 281              		.cfi_offset 3, -8
 282              		.cfi_offset 14, -4
 102:Src/dbgu.c    **** 	debug_chr('\r');
 283              		.loc 1 102 2 is_stmt 1 view .LVU53
 284 0002 FFF7FEFF 		bl	debug_txt
 285              	.LVL13:
 103:Src/dbgu.c    **** 	debug_chr('\n');
 286              		.loc 1 103 2 view .LVU54
 287 0006 0D20     		movs	r0, #13
 288 0008 FFF7FEFF 		bl	debug_chr
 289              	.LVL14:
 104:Src/dbgu.c    **** }
 290              		.loc 1 104 2 view .LVU55
 291 000c 0A20     		movs	r0, #10
 292 000e FFF7FEFF 		bl	debug_chr
 293              	.LVL15:
 105:Src/dbgu.c    **** 
 294              		.loc 1 105 1 is_stmt 0 view .LVU56
 295 0012 08BD     		pop	{r3, pc}
ARM GAS  C:\Users\Nina\AppData\Local\Temp\ccU0HpAq.s 			page 8


 296              		.cfi_endproc
 297              	.LFE143:
 299              		.section	.text.debug_ascii,"ax",%progbits
 300              		.align	1
 301              		.global	debug_ascii
 302              		.syntax unified
 303              		.thumb
 304              		.thumb_func
 305              		.fpu fpv5-sp-d16
 307              	debug_ascii:
 308              	.LVL16:
 309              	.LFB146:
 112:Src/dbgu.c    **** 
 113:Src/dbgu.c    **** //prints text starting at str
 114:Src/dbgu.c    **** //prints exactly len chars
 115:Src/dbgu.c    **** void debug_txt_limit(const char *str, uint8_t len)
 116:Src/dbgu.c    **** {
 117:Src/dbgu.c    **** 	while(len)
 118:Src/dbgu.c    **** 	{
 119:Src/dbgu.c    **** 		debug_ascii(*str);
 120:Src/dbgu.c    **** 		str++;
 121:Src/dbgu.c    **** 		len--;
 122:Src/dbgu.c    **** 	}
 123:Src/dbgu.c    **** }
 124:Src/dbgu.c    **** 
 125:Src/dbgu.c    **** 
 126:Src/dbgu.c    **** //sends char b over pDbgu UART. Replaces values that can change cursor pos. on terminal
 127:Src/dbgu.c    **** void debug_ascii(uint8_t b)
 128:Src/dbgu.c    **** {
 310              		.loc 1 128 1 is_stmt 1 view -0
 311              		.cfi_startproc
 312              		@ args = 0, pretend = 0, frame = 0
 313              		@ frame_needed = 0, uses_anonymous_args = 0
 314              		.loc 1 128 1 is_stmt 0 view .LVU58
 315 0000 08B5     		push	{r3, lr}
 316              	.LCFI5:
 317              		.cfi_def_cfa_offset 8
 318              		.cfi_offset 3, -8
 319              		.cfi_offset 14, -4
 129:Src/dbgu.c    **** 	switch(b)
 320              		.loc 1 129 2 is_stmt 1 view .LVU59
 321 0002 0A28     		cmp	r0, #10
 322 0004 06D8     		bhi	.L27
 323 0006 0828     		cmp	r0, #8
 324 0008 09D2     		bcs	.L28
 325 000a 28B9     		cbnz	r0, .L30
 130:Src/dbgu.c    **** 	{
 131:Src/dbgu.c    **** 		case 0:
 132:Src/dbgu.c    **** 		{
 133:Src/dbgu.c    **** 			debug_chr('.');	//replace 0 with dot
 326              		.loc 1 133 4 view .LVU60
 327 000c 2E20     		movs	r0, #46
 328              	.LVL17:
 329              		.loc 1 133 4 is_stmt 0 view .LVU61
 330 000e FFF7FEFF 		bl	debug_chr
 331              	.LVL18:
 134:Src/dbgu.c    **** 			break;
ARM GAS  C:\Users\Nina\AppData\Local\Temp\ccU0HpAq.s 			page 9


 332              		.loc 1 134 4 is_stmt 1 view .LVU62
 333              	.L26:
 135:Src/dbgu.c    **** 		}
 136:Src/dbgu.c    **** 		case 8:
 137:Src/dbgu.c    **** 		case 9:
 138:Src/dbgu.c    **** 		case 10:
 139:Src/dbgu.c    **** 		case 13:
 140:Src/dbgu.c    **** 		{
 141:Src/dbgu.c    **** 			//avoid other chars that modify terminal cursor
 142:Src/dbgu.c    **** 			//replace them with space
 143:Src/dbgu.c    **** 			debug_chr(' ');
 144:Src/dbgu.c    **** 			break;
 145:Src/dbgu.c    **** 		}
 146:Src/dbgu.c    **** 		default:
 147:Src/dbgu.c    **** 		{
 148:Src/dbgu.c    **** 			debug_chr(b);
 149:Src/dbgu.c    **** 		}
 150:Src/dbgu.c    **** 	}//switch(chr)
 151:Src/dbgu.c    **** }
 334              		.loc 1 151 1 is_stmt 0 view .LVU63
 335 0012 08BD     		pop	{r3, pc}
 336              	.LVL19:
 337              	.L27:
 129:Src/dbgu.c    **** 	{
 338              		.loc 1 129 2 view .LVU64
 339 0014 0D28     		cmp	r0, #13
 340 0016 02D0     		beq	.L28
 341              	.L30:
 148:Src/dbgu.c    **** 		}
 342              		.loc 1 148 4 is_stmt 1 view .LVU65
 343 0018 FFF7FEFF 		bl	debug_chr
 344              	.LVL20:
 345              		.loc 1 151 1 is_stmt 0 view .LVU66
 346 001c F9E7     		b	.L26
 347              	.LVL21:
 348              	.L28:
 143:Src/dbgu.c    **** 			break;
 349              		.loc 1 143 4 is_stmt 1 view .LVU67
 350 001e 2020     		movs	r0, #32
 351              	.LVL22:
 143:Src/dbgu.c    **** 			break;
 352              		.loc 1 143 4 is_stmt 0 view .LVU68
 353 0020 FFF7FEFF 		bl	debug_chr
 354              	.LVL23:
 144:Src/dbgu.c    **** 		}
 355              		.loc 1 144 4 is_stmt 1 view .LVU69
 356 0024 F5E7     		b	.L26
 357              		.cfi_endproc
 358              	.LFE146:
 360              		.section	.text.debug_txt_limit,"ax",%progbits
 361              		.align	1
 362              		.global	debug_txt_limit
 363              		.syntax unified
 364              		.thumb
 365              		.thumb_func
 366              		.fpu fpv5-sp-d16
 368              	debug_txt_limit:
ARM GAS  C:\Users\Nina\AppData\Local\Temp\ccU0HpAq.s 			page 10


 369              	.LVL24:
 370              	.LFB145:
 116:Src/dbgu.c    **** 	while(len)
 371              		.loc 1 116 1 view -0
 372              		.cfi_startproc
 373              		@ args = 0, pretend = 0, frame = 0
 374              		@ frame_needed = 0, uses_anonymous_args = 0
 116:Src/dbgu.c    **** 	while(len)
 375              		.loc 1 116 1 is_stmt 0 view .LVU71
 376 0000 38B5     		push	{r3, r4, r5, lr}
 377              	.LCFI6:
 378              		.cfi_def_cfa_offset 16
 379              		.cfi_offset 3, -16
 380              		.cfi_offset 4, -12
 381              		.cfi_offset 5, -8
 382              		.cfi_offset 14, -4
 383 0002 0546     		mov	r5, r0
 384 0004 0C46     		mov	r4, r1
 117:Src/dbgu.c    **** 	{
 385              		.loc 1 117 2 is_stmt 1 view .LVU72
 386              	.LVL25:
 387              	.L34:
 117:Src/dbgu.c    **** 	{
 388              		.loc 1 117 7 view .LVU73
 389 0006 34B1     		cbz	r4, .L37
 119:Src/dbgu.c    **** 		str++;
 390              		.loc 1 119 3 view .LVU74
 391 0008 15F8010B 		ldrb	r0, [r5], #1	@ zero_extendqisi2
 392              	.LVL26:
 119:Src/dbgu.c    **** 		str++;
 393              		.loc 1 119 3 is_stmt 0 view .LVU75
 394 000c FFF7FEFF 		bl	debug_ascii
 395              	.LVL27:
 120:Src/dbgu.c    **** 		len--;
 396              		.loc 1 120 3 is_stmt 1 view .LVU76
 121:Src/dbgu.c    **** 	}
 397              		.loc 1 121 3 view .LVU77
 121:Src/dbgu.c    **** 	}
 398              		.loc 1 121 6 is_stmt 0 view .LVU78
 399 0010 013C     		subs	r4, r4, #1
 400              	.LVL28:
 121:Src/dbgu.c    **** 	}
 401              		.loc 1 121 6 view .LVU79
 402 0012 E4B2     		uxtb	r4, r4
 403              	.LVL29:
 121:Src/dbgu.c    **** 	}
 404              		.loc 1 121 6 view .LVU80
 405 0014 F7E7     		b	.L34
 406              	.L37:
 123:Src/dbgu.c    **** 
 407              		.loc 1 123 1 view .LVU81
 408 0016 38BD     		pop	{r3, r4, r5, pc}
 123:Src/dbgu.c    **** 
 409              		.loc 1 123 1 view .LVU82
 410              		.cfi_endproc
 411              	.LFE145:
 413              		.section	.rodata.debug_dump.str1.4,"aMS",%progbits,1
ARM GAS  C:\Users\Nina\AppData\Local\Temp\ccU0HpAq.s 			page 11


 414              		.align	2
 415              	.LC0:
 416 0000 44656275 		.ascii	"Debug dump @ %08X\012\000"
 416      67206475 
 416      6D702040 
 416      20253038 
 416      580A00
 417 0013 00       		.align	2
 418              	.LC1:
 419 0014 25303858 		.ascii	"%08X %04X: \000"
 419      20253034 
 419      583A2000 
 420              		.align	2
 421              	.LC2:
 422 0020 25303258 		.ascii	"%02X \000"
 422      2000
 423 0026 0000     		.align	2
 424              	.LC3:
 425 0028 20202000 		.ascii	"   \000"
 426              		.align	2
 427              	.LC4:
 428 002c 2000     		.ascii	" \000"
 429 002e 0000     		.align	2
 430              	.LC5:
 431 0030 25303858 		.ascii	"%08X %04X:   \000"
 431      20253034 
 431      583A2020 
 431      2000
 432 003e 0000     		.align	2
 433              	.LC6:
 434 0040 456E6420 		.ascii	"End of dump\000"
 434      6F662064 
 434      756D7000 
 435              		.section	.text.debug_dump,"ax",%progbits
 436              		.align	1
 437              		.global	debug_dump
 438              		.syntax unified
 439              		.thumb
 440              		.thumb_func
 441              		.fpu fpv5-sp-d16
 443              	debug_dump:
 444              	.LVL30:
 445              	.LFB147:
 152:Src/dbgu.c    **** 
 153:Src/dbgu.c    **** 
 154:Src/dbgu.c    **** 
 155:Src/dbgu.c    **** 
 156:Src/dbgu.c    **** 
 157:Src/dbgu.c    **** void debug_dump(void *address, uint16_t len)
 158:Src/dbgu.c    **** {
 446              		.loc 1 158 1 is_stmt 1 view -0
 447              		.cfi_startproc
 448              		@ args = 0, pretend = 0, frame = 0
 449              		@ frame_needed = 0, uses_anonymous_args = 0
 450              		.loc 1 158 1 is_stmt 0 view .LVU84
 451 0000 F8B5     		push	{r3, r4, r5, r6, r7, lr}
 452              	.LCFI7:
ARM GAS  C:\Users\Nina\AppData\Local\Temp\ccU0HpAq.s 			page 12


 453              		.cfi_def_cfa_offset 24
 454              		.cfi_offset 3, -24
 455              		.cfi_offset 4, -20
 456              		.cfi_offset 5, -16
 457              		.cfi_offset 6, -12
 458              		.cfi_offset 7, -8
 459              		.cfi_offset 14, -4
 460 0002 0546     		mov	r5, r0
 461 0004 0F46     		mov	r7, r1
 159:Src/dbgu.c    **** 	uint8_t *buf = address;
 462              		.loc 1 159 2 is_stmt 1 view .LVU85
 463              	.LVL31:
 160:Src/dbgu.c    **** 	const uint16_t bytesInLine = 16;
 464              		.loc 1 160 2 view .LVU86
 161:Src/dbgu.c    **** 	const uint16_t spaceBetweenDumpAndASCII = 4;
 465              		.loc 1 161 2 view .LVU87
 162:Src/dbgu.c    **** 	uint16_t i, counter=len;
 466              		.loc 1 162 2 view .LVU88
 163:Src/dbgu.c    **** 	
 164:Src/dbgu.c    **** 	xprintf("Debug dump @ %08X\n",(unsigned int)address);
 467              		.loc 1 164 2 view .LVU89
 468 0006 0146     		mov	r1, r0
 469              	.LVL32:
 470              		.loc 1 164 2 is_stmt 0 view .LVU90
 471 0008 3948     		ldr	r0, .L68
 472              	.LVL33:
 473              		.loc 1 164 2 view .LVU91
 474 000a FFF7FEFF 		bl	xprintf
 475              	.LVL34:
 162:Src/dbgu.c    **** 	uint16_t i, counter=len;
 476              		.loc 1 162 14 view .LVU92
 477 000e 3E46     		mov	r6, r7
 478 0010 65E0     		b	.L59
 479              	.LVL35:
 480              	.L67:
 165:Src/dbgu.c    **** 	
 166:Src/dbgu.c    **** 	while(1)
 167:Src/dbgu.c    **** 	{
 168:Src/dbgu.c    **** 		//insert last line (may be shorter than full line)
 169:Src/dbgu.c    **** 		if(counter < bytesInLine)
 170:Src/dbgu.c    **** 		{
 171:Src/dbgu.c    **** 			xprintf("%08X %04X: ",(unsigned int)buf,(unsigned int)(len-counter));
 481              		.loc 1 171 4 is_stmt 1 view .LVU93
 482 0012 BA1B     		subs	r2, r7, r6
 483 0014 2946     		mov	r1, r5
 484 0016 3748     		ldr	r0, .L68+4
 485 0018 FFF7FEFF 		bl	xprintf
 486              	.LVL36:
 172:Src/dbgu.c    **** 			
 173:Src/dbgu.c    **** 			//contents in hex
 174:Src/dbgu.c    **** 			for(i=0;i<bytesInLine;i++)
 487              		.loc 1 174 4 view .LVU94
 488              		.loc 1 174 9 is_stmt 0 view .LVU95
 489 001c 0024     		movs	r4, #0
 490              		.loc 1 174 4 view .LVU96
 491 001e 08E0     		b	.L40
 492              	.LVL37:
ARM GAS  C:\Users\Nina\AppData\Local\Temp\ccU0HpAq.s 			page 13


 493              	.L41:
 175:Src/dbgu.c    **** 			{
 176:Src/dbgu.c    **** 				if(i<counter)
 177:Src/dbgu.c    **** 				{
 178:Src/dbgu.c    **** 					xprintf("%02X ",(unsigned int)(buf[i]));
 179:Src/dbgu.c    **** 				}
 180:Src/dbgu.c    **** 				else
 181:Src/dbgu.c    **** 				{
 182:Src/dbgu.c    **** 					xprintf("   ");
 494              		.loc 1 182 6 is_stmt 1 view .LVU97
 495 0020 3548     		ldr	r0, .L68+8
 496 0022 FFF7FEFF 		bl	xprintf
 497              	.LVL38:
 498              	.L42:
 183:Src/dbgu.c    **** 				}
 184:Src/dbgu.c    **** 				if(i%8==7) xprintf(" ");
 499              		.loc 1 184 5 view .LVU98
 500              		.loc 1 184 11 is_stmt 0 view .LVU99
 501 0026 04F00703 		and	r3, r4, #7
 502              		.loc 1 184 7 view .LVU100
 503 002a 072B     		cmp	r3, #7
 504 002c 0AD0     		beq	.L61
 505              	.L43:
 174:Src/dbgu.c    **** 			{
 506              		.loc 1 174 26 is_stmt 1 discriminator 2 view .LVU101
 174:Src/dbgu.c    **** 			{
 507              		.loc 1 174 27 is_stmt 0 discriminator 2 view .LVU102
 508 002e 0134     		adds	r4, r4, #1
 509              	.LVL39:
 174:Src/dbgu.c    **** 			{
 510              		.loc 1 174 27 discriminator 2 view .LVU103
 511 0030 A4B2     		uxth	r4, r4
 512              	.LVL40:
 513              	.L40:
 174:Src/dbgu.c    **** 			{
 514              		.loc 1 174 12 is_stmt 1 discriminator 1 view .LVU104
 174:Src/dbgu.c    **** 			{
 515              		.loc 1 174 4 is_stmt 0 discriminator 1 view .LVU105
 516 0032 0F2C     		cmp	r4, #15
 517 0034 0AD8     		bhi	.L62
 176:Src/dbgu.c    **** 				{
 518              		.loc 1 176 5 is_stmt 1 view .LVU106
 176:Src/dbgu.c    **** 				{
 519              		.loc 1 176 7 is_stmt 0 view .LVU107
 520 0036 B442     		cmp	r4, r6
 521 0038 F2D2     		bcs	.L41
 178:Src/dbgu.c    **** 				}
 522              		.loc 1 178 6 is_stmt 1 view .LVU108
 523 003a 295D     		ldrb	r1, [r5, r4]	@ zero_extendqisi2
 524 003c 2F48     		ldr	r0, .L68+12
 525 003e FFF7FEFF 		bl	xprintf
 526              	.LVL41:
 527 0042 F0E7     		b	.L42
 528              	.L61:
 529              		.loc 1 184 16 discriminator 1 view .LVU109
 530 0044 2E48     		ldr	r0, .L68+16
 531 0046 FFF7FEFF 		bl	xprintf
ARM GAS  C:\Users\Nina\AppData\Local\Temp\ccU0HpAq.s 			page 14


 532              	.LVL42:
 533 004a F0E7     		b	.L43
 534              	.L62:
 185:Src/dbgu.c    **** 			}
 186:Src/dbgu.c    **** 			
 187:Src/dbgu.c    **** 			//space
 188:Src/dbgu.c    **** 			for(i=0;i<spaceBetweenDumpAndASCII;i++)
 535              		.loc 1 188 9 is_stmt 0 view .LVU110
 536 004c 0024     		movs	r4, #0
 537              	.LVL43:
 538              		.loc 1 188 9 view .LVU111
 539 004e 04E0     		b	.L45
 540              	.LVL44:
 541              	.L46:
 189:Src/dbgu.c    **** 			{
 190:Src/dbgu.c    **** 				xprintf(" ");
 542              		.loc 1 190 5 is_stmt 1 discriminator 3 view .LVU112
 543 0050 2B48     		ldr	r0, .L68+16
 544 0052 FFF7FEFF 		bl	xprintf
 545              	.LVL45:
 188:Src/dbgu.c    **** 			{
 546              		.loc 1 188 39 discriminator 3 view .LVU113
 188:Src/dbgu.c    **** 			{
 547              		.loc 1 188 40 is_stmt 0 discriminator 3 view .LVU114
 548 0056 0134     		adds	r4, r4, #1
 549              	.LVL46:
 188:Src/dbgu.c    **** 			{
 550              		.loc 1 188 40 discriminator 3 view .LVU115
 551 0058 A4B2     		uxth	r4, r4
 552              	.LVL47:
 553              	.L45:
 188:Src/dbgu.c    **** 			{
 554              		.loc 1 188 12 is_stmt 1 discriminator 1 view .LVU116
 188:Src/dbgu.c    **** 			{
 555              		.loc 1 188 4 is_stmt 0 discriminator 1 view .LVU117
 556 005a 032C     		cmp	r4, #3
 557 005c F8D9     		bls	.L46
 191:Src/dbgu.c    **** 			}
 192:Src/dbgu.c    **** 			
 193:Src/dbgu.c    **** 			//contents in ASCII
 194:Src/dbgu.c    **** 			for(i=0;i<bytesInLine;i++)
 558              		.loc 1 194 9 view .LVU118
 559 005e 0024     		movs	r4, #0
 560              	.LVL48:
 561              		.loc 1 194 9 view .LVU119
 562 0060 04E0     		b	.L47
 563              	.LVL49:
 564              	.L48:
 195:Src/dbgu.c    **** 			{
 196:Src/dbgu.c    **** 				if(i<counter)
 197:Src/dbgu.c    **** 				{
 198:Src/dbgu.c    **** 					debug_ascii(buf[i]);
 199:Src/dbgu.c    **** 				}
 200:Src/dbgu.c    **** 				else
 201:Src/dbgu.c    **** 				{
 202:Src/dbgu.c    **** 					debug_chr(' ');
 565              		.loc 1 202 6 is_stmt 1 view .LVU120
ARM GAS  C:\Users\Nina\AppData\Local\Temp\ccU0HpAq.s 			page 15


 566 0062 2020     		movs	r0, #32
 567 0064 FFF7FEFF 		bl	debug_chr
 568              	.LVL50:
 569              	.L49:
 194:Src/dbgu.c    **** 			{
 570              		.loc 1 194 26 discriminator 2 view .LVU121
 194:Src/dbgu.c    **** 			{
 571              		.loc 1 194 27 is_stmt 0 discriminator 2 view .LVU122
 572 0068 0134     		adds	r4, r4, #1
 573              	.LVL51:
 194:Src/dbgu.c    **** 			{
 574              		.loc 1 194 27 discriminator 2 view .LVU123
 575 006a A4B2     		uxth	r4, r4
 576              	.LVL52:
 577              	.L47:
 194:Src/dbgu.c    **** 			{
 578              		.loc 1 194 12 is_stmt 1 discriminator 1 view .LVU124
 194:Src/dbgu.c    **** 			{
 579              		.loc 1 194 4 is_stmt 0 discriminator 1 view .LVU125
 580 006c 0F2C     		cmp	r4, #15
 581 006e 05D8     		bhi	.L63
 196:Src/dbgu.c    **** 				{
 582              		.loc 1 196 5 is_stmt 1 view .LVU126
 196:Src/dbgu.c    **** 				{
 583              		.loc 1 196 7 is_stmt 0 view .LVU127
 584 0070 B442     		cmp	r4, r6
 585 0072 F6D2     		bcs	.L48
 198:Src/dbgu.c    **** 				}
 586              		.loc 1 198 6 is_stmt 1 view .LVU128
 587 0074 285D     		ldrb	r0, [r5, r4]	@ zero_extendqisi2
 588 0076 FFF7FEFF 		bl	debug_ascii
 589              	.LVL53:
 590 007a F5E7     		b	.L49
 591              	.L63:
 203:Src/dbgu.c    **** 				}
 204:Src/dbgu.c    **** 			}
 205:Src/dbgu.c    **** 			
 206:Src/dbgu.c    **** 			debug_chr('\n');
 592              		.loc 1 206 4 view .LVU129
 593 007c 0A20     		movs	r0, #10
 594 007e FFF7FEFF 		bl	debug_chr
 595              	.LVL54:
 207:Src/dbgu.c    **** 			
 208:Src/dbgu.c    **** 			break;
 596              		.loc 1 208 4 view .LVU130
 597              	.L51:
 209:Src/dbgu.c    **** 		}
 210:Src/dbgu.c    **** 		
 211:Src/dbgu.c    **** 		xprintf("%08X %04X:   ",(unsigned int)buf,(unsigned int)(len-counter));
 212:Src/dbgu.c    **** 		
 213:Src/dbgu.c    **** 		
 214:Src/dbgu.c    **** 		for(i=0;i<bytesInLine;i++)
 215:Src/dbgu.c    **** 		{
 216:Src/dbgu.c    **** 			xprintf("%02X ",(unsigned int)(buf[i]));
 217:Src/dbgu.c    **** 			if(i%8==7) debug_chr(' ');
 218:Src/dbgu.c    **** 		}
 219:Src/dbgu.c    **** 		
ARM GAS  C:\Users\Nina\AppData\Local\Temp\ccU0HpAq.s 			page 16


 220:Src/dbgu.c    **** 		//space
 221:Src/dbgu.c    **** 		for(i=0;i<spaceBetweenDumpAndASCII;i++)
 222:Src/dbgu.c    **** 		{
 223:Src/dbgu.c    **** 			debug_chr(' ');
 224:Src/dbgu.c    **** 		}
 225:Src/dbgu.c    **** 		
 226:Src/dbgu.c    **** 		//contents in ASCII
 227:Src/dbgu.c    **** 		for(i=0;i<bytesInLine;i++)
 228:Src/dbgu.c    **** 		{
 229:Src/dbgu.c    **** 			debug_ascii(buf[i]);
 230:Src/dbgu.c    **** 		}
 231:Src/dbgu.c    **** 		
 232:Src/dbgu.c    **** 		buf += bytesInLine;
 233:Src/dbgu.c    **** 		if(counter >= bytesInLine)
 234:Src/dbgu.c    **** 		{
 235:Src/dbgu.c    **** 			counter -= bytesInLine;
 236:Src/dbgu.c    **** 		}
 237:Src/dbgu.c    **** 		
 238:Src/dbgu.c    **** 		debug_chr('\n');
 239:Src/dbgu.c    **** 			
 240:Src/dbgu.c    **** 		if(counter == 0) break;
 241:Src/dbgu.c    **** 		
 242:Src/dbgu.c    **** 	}	//while(counter)
 243:Src/dbgu.c    **** 	//footer
 244:Src/dbgu.c    **** 	xprintf("End of dump");
 598              		.loc 1 244 2 view .LVU131
 599 0082 2048     		ldr	r0, .L68+20
 600 0084 FFF7FEFF 		bl	xprintf
 601              	.LVL55:
 245:Src/dbgu.c    **** 	
 246:Src/dbgu.c    **** }
 602              		.loc 1 246 1 is_stmt 0 view .LVU132
 603 0088 F8BD     		pop	{r3, r4, r5, r6, r7, pc}
 604              	.LVL56:
 605              	.L65:
 217:Src/dbgu.c    **** 		}
 606              		.loc 1 217 15 is_stmt 1 discriminator 1 view .LVU133
 607 008a 2020     		movs	r0, #32
 608 008c FFF7FEFF 		bl	debug_chr
 609              	.LVL57:
 610              	.L53:
 214:Src/dbgu.c    **** 		{
 611              		.loc 1 214 25 discriminator 2 view .LVU134
 214:Src/dbgu.c    **** 		{
 612              		.loc 1 214 26 is_stmt 0 discriminator 2 view .LVU135
 613 0090 0134     		adds	r4, r4, #1
 614              	.LVL58:
 214:Src/dbgu.c    **** 		{
 615              		.loc 1 214 26 discriminator 2 view .LVU136
 616 0092 A4B2     		uxth	r4, r4
 617              	.LVL59:
 618              	.L52:
 214:Src/dbgu.c    **** 		{
 619              		.loc 1 214 11 is_stmt 1 discriminator 1 view .LVU137
 214:Src/dbgu.c    **** 		{
 620              		.loc 1 214 3 is_stmt 0 discriminator 1 view .LVU138
 621 0094 0F2C     		cmp	r4, #15
ARM GAS  C:\Users\Nina\AppData\Local\Temp\ccU0HpAq.s 			page 17


 622 0096 08D8     		bhi	.L64
 216:Src/dbgu.c    **** 			if(i%8==7) debug_chr(' ');
 623              		.loc 1 216 4 is_stmt 1 view .LVU139
 624 0098 295D     		ldrb	r1, [r5, r4]	@ zero_extendqisi2
 625 009a 1848     		ldr	r0, .L68+12
 626 009c FFF7FEFF 		bl	xprintf
 627              	.LVL60:
 217:Src/dbgu.c    **** 		}
 628              		.loc 1 217 4 view .LVU140
 217:Src/dbgu.c    **** 		}
 629              		.loc 1 217 10 is_stmt 0 view .LVU141
 630 00a0 04F00703 		and	r3, r4, #7
 217:Src/dbgu.c    **** 		}
 631              		.loc 1 217 6 view .LVU142
 632 00a4 072B     		cmp	r3, #7
 633 00a6 F3D1     		bne	.L53
 217:Src/dbgu.c    **** 		}
 634              		.loc 1 217 6 view .LVU143
 635 00a8 EFE7     		b	.L65
 636              	.L64:
 221:Src/dbgu.c    **** 		{
 637              		.loc 1 221 8 view .LVU144
 638 00aa 0024     		movs	r4, #0
 639              	.LVL61:
 221:Src/dbgu.c    **** 		{
 640              		.loc 1 221 8 view .LVU145
 641 00ac 04E0     		b	.L55
 642              	.LVL62:
 643              	.L56:
 223:Src/dbgu.c    **** 		}
 644              		.loc 1 223 4 is_stmt 1 discriminator 3 view .LVU146
 645 00ae 2020     		movs	r0, #32
 646 00b0 FFF7FEFF 		bl	debug_chr
 647              	.LVL63:
 221:Src/dbgu.c    **** 		{
 648              		.loc 1 221 38 discriminator 3 view .LVU147
 221:Src/dbgu.c    **** 		{
 649              		.loc 1 221 39 is_stmt 0 discriminator 3 view .LVU148
 650 00b4 0134     		adds	r4, r4, #1
 651              	.LVL64:
 221:Src/dbgu.c    **** 		{
 652              		.loc 1 221 39 discriminator 3 view .LVU149
 653 00b6 A4B2     		uxth	r4, r4
 654              	.LVL65:
 655              	.L55:
 221:Src/dbgu.c    **** 		{
 656              		.loc 1 221 11 is_stmt 1 discriminator 1 view .LVU150
 221:Src/dbgu.c    **** 		{
 657              		.loc 1 221 3 is_stmt 0 discriminator 1 view .LVU151
 658 00b8 032C     		cmp	r4, #3
 659 00ba F8D9     		bls	.L56
 227:Src/dbgu.c    **** 		{
 660              		.loc 1 227 8 view .LVU152
 661 00bc 0024     		movs	r4, #0
 662              	.LVL66:
 663              	.L57:
 227:Src/dbgu.c    **** 		{
ARM GAS  C:\Users\Nina\AppData\Local\Temp\ccU0HpAq.s 			page 18


 664              		.loc 1 227 11 is_stmt 1 discriminator 1 view .LVU153
 227:Src/dbgu.c    **** 		{
 665              		.loc 1 227 3 is_stmt 0 discriminator 1 view .LVU154
 666 00be 0F2C     		cmp	r4, #15
 667 00c0 05D8     		bhi	.L66
 229:Src/dbgu.c    **** 		}
 668              		.loc 1 229 4 is_stmt 1 discriminator 3 view .LVU155
 669 00c2 285D     		ldrb	r0, [r5, r4]	@ zero_extendqisi2
 670 00c4 FFF7FEFF 		bl	debug_ascii
 671              	.LVL67:
 227:Src/dbgu.c    **** 		{
 672              		.loc 1 227 25 discriminator 3 view .LVU156
 227:Src/dbgu.c    **** 		{
 673              		.loc 1 227 26 is_stmt 0 discriminator 3 view .LVU157
 674 00c8 0134     		adds	r4, r4, #1
 675              	.LVL68:
 227:Src/dbgu.c    **** 		{
 676              		.loc 1 227 26 discriminator 3 view .LVU158
 677 00ca A4B2     		uxth	r4, r4
 678              	.LVL69:
 227:Src/dbgu.c    **** 		{
 679              		.loc 1 227 26 discriminator 3 view .LVU159
 680 00cc F7E7     		b	.L57
 681              	.L66:
 232:Src/dbgu.c    **** 		if(counter >= bytesInLine)
 682              		.loc 1 232 3 is_stmt 1 view .LVU160
 232:Src/dbgu.c    **** 		if(counter >= bytesInLine)
 683              		.loc 1 232 7 is_stmt 0 view .LVU161
 684 00ce 1035     		adds	r5, r5, #16
 685              	.LVL70:
 233:Src/dbgu.c    **** 		{
 686              		.loc 1 233 3 is_stmt 1 view .LVU162
 235:Src/dbgu.c    **** 		}
 687              		.loc 1 235 4 view .LVU163
 235:Src/dbgu.c    **** 		}
 688              		.loc 1 235 12 is_stmt 0 view .LVU164
 689 00d0 103E     		subs	r6, r6, #16
 690              	.LVL71:
 235:Src/dbgu.c    **** 		}
 691              		.loc 1 235 12 view .LVU165
 692 00d2 B6B2     		uxth	r6, r6
 693              	.LVL72:
 238:Src/dbgu.c    **** 			
 694              		.loc 1 238 3 is_stmt 1 view .LVU166
 695 00d4 0A20     		movs	r0, #10
 696 00d6 FFF7FEFF 		bl	debug_chr
 697              	.LVL73:
 240:Src/dbgu.c    **** 		
 698              		.loc 1 240 3 view .LVU167
 240:Src/dbgu.c    **** 		
 699              		.loc 1 240 5 is_stmt 0 view .LVU168
 700 00da 002E     		cmp	r6, #0
 701 00dc D1D0     		beq	.L51
 702              	.LVL74:
 703              	.L59:
 166:Src/dbgu.c    **** 	{
 704              		.loc 1 166 2 is_stmt 1 view .LVU169
ARM GAS  C:\Users\Nina\AppData\Local\Temp\ccU0HpAq.s 			page 19


 169:Src/dbgu.c    **** 		{
 705              		.loc 1 169 3 view .LVU170
 169:Src/dbgu.c    **** 		{
 706              		.loc 1 169 5 is_stmt 0 view .LVU171
 707 00de 0F2E     		cmp	r6, #15
 708 00e0 97D9     		bls	.L67
 211:Src/dbgu.c    **** 		
 709              		.loc 1 211 3 is_stmt 1 view .LVU172
 710 00e2 BA1B     		subs	r2, r7, r6
 711 00e4 2946     		mov	r1, r5
 712 00e6 0848     		ldr	r0, .L68+24
 713 00e8 FFF7FEFF 		bl	xprintf
 714              	.LVL75:
 214:Src/dbgu.c    **** 		{
 715              		.loc 1 214 3 view .LVU173
 214:Src/dbgu.c    **** 		{
 716              		.loc 1 214 8 is_stmt 0 view .LVU174
 717 00ec 0024     		movs	r4, #0
 214:Src/dbgu.c    **** 		{
 718              		.loc 1 214 3 view .LVU175
 719 00ee D1E7     		b	.L52
 720              	.L69:
 721              		.align	2
 722              	.L68:
 723 00f0 00000000 		.word	.LC0
 724 00f4 14000000 		.word	.LC1
 725 00f8 28000000 		.word	.LC3
 726 00fc 20000000 		.word	.LC2
 727 0100 2C000000 		.word	.LC4
 728 0104 40000000 		.word	.LC6
 729 0108 30000000 		.word	.LC5
 730              		.cfi_endproc
 731              	.LFE147:
 733              		.global	pUart
 734              		.section	.bss.pUart,"aw",%nobits
 735              		.align	2
 736              		.set	.LANCHOR0,. + 0
 739              	pUart:
 740 0000 00000000 		.space	4
 741              		.text
 742              	.Letext0:
 743              		.file 2 "c:\\program files (x86)\\gnu tools arm embedded\\9 2019-q4-major\\arm-none-eabi\\include\
 744              		.file 3 "c:\\program files (x86)\\gnu tools arm embedded\\9 2019-q4-major\\arm-none-eabi\\include\
 745              		.file 4 "Drivers/CMSIS/Include/core_cm7.h"
 746              		.file 5 "Drivers/CMSIS/Device/ST/STM32F7xx/Include/system_stm32f7xx.h"
 747              		.file 6 "Drivers/CMSIS/Device/ST/STM32F7xx/Include/stm32f746xx.h"
 748              		.file 7 "c:\\program files (x86)\\gnu tools arm embedded\\9 2019-q4-major\\arm-none-eabi\\include\
 749              		.file 8 "c:\\program files (x86)\\gnu tools arm embedded\\9 2019-q4-major\\arm-none-eabi\\include\
 750              		.file 9 "c:\\program files (x86)\\gnu tools arm embedded\\9 2019-q4-major\\lib\\gcc\\arm-none-eabi
 751              		.file 10 "c:\\program files (x86)\\gnu tools arm embedded\\9 2019-q4-major\\arm-none-eabi\\include
 752              		.file 11 "Drivers/CMSIS/Device/ST/STM32F7xx/Include/stm32f7xx.h"
 753              		.file 12 "Drivers/STM32F7xx_HAL_Driver/Inc/stm32f7xx_hal_def.h"
 754              		.file 13 "Drivers/STM32F7xx_HAL_Driver/Inc/stm32f7xx_hal_dma.h"
 755              		.file 14 "Drivers/STM32F7xx_HAL_Driver/Inc/stm32f7xx_hal_uart.h"
 756              		.file 15 "Inc/term_io.h"
ARM GAS  C:\Users\Nina\AppData\Local\Temp\ccU0HpAq.s 			page 20

