ARM GAS  C:\Users\Nina\AppData\Local\Temp\ccVMz8wR.s 			page 1


   1              		.cpu cortex-m7
   2              		.eabi_attribute 27, 1
   3              		.eabi_attribute 28, 1
   4              		.eabi_attribute 20, 1
   5              		.eabi_attribute 21, 1
   6              		.eabi_attribute 23, 3
   7              		.eabi_attribute 24, 1
   8              		.eabi_attribute 25, 1
   9              		.eabi_attribute 26, 1
  10              		.eabi_attribute 30, 1
  11              		.eabi_attribute 34, 1
  12              		.eabi_attribute 18, 4
  13              		.file	"event_groups.c"
  14              		.text
  15              	.Ltext0:
  16              		.cfi_sections	.debug_frame
  17              		.section	.text.prvTestWaitCondition,"ax",%progbits
  18              		.align	1
  19              		.arch armv7e-m
  20              		.syntax unified
  21              		.thumb
  22              		.thumb_func
  23              		.fpu fpv5-sp-d16
  25              	prvTestWaitCondition:
  26              	.LVL0:
  27              	.LFB14:
  28              		.file 1 "Middlewares/Third_Party/FreeRTOS/Source/event_groups.c"
   1:Middlewares/Third_Party/FreeRTOS/Source/event_groups.c **** /*
   2:Middlewares/Third_Party/FreeRTOS/Source/event_groups.c ****     FreeRTOS V9.0.0 - Copyright (C) 2016 Real Time Engineers Ltd.
   3:Middlewares/Third_Party/FreeRTOS/Source/event_groups.c ****     All rights reserved
   4:Middlewares/Third_Party/FreeRTOS/Source/event_groups.c **** 
   5:Middlewares/Third_Party/FreeRTOS/Source/event_groups.c ****     VISIT http://www.FreeRTOS.org TO ENSURE YOU ARE USING THE LATEST VERSION.
   6:Middlewares/Third_Party/FreeRTOS/Source/event_groups.c **** 
   7:Middlewares/Third_Party/FreeRTOS/Source/event_groups.c ****     This file is part of the FreeRTOS distribution.
   8:Middlewares/Third_Party/FreeRTOS/Source/event_groups.c **** 
   9:Middlewares/Third_Party/FreeRTOS/Source/event_groups.c ****     FreeRTOS is free software; you can redistribute it and/or modify it under
  10:Middlewares/Third_Party/FreeRTOS/Source/event_groups.c ****     the terms of the GNU General Public License (version 2) as published by the
  11:Middlewares/Third_Party/FreeRTOS/Source/event_groups.c ****     Free Software Foundation >>>> AND MODIFIED BY <<<< the FreeRTOS exception.
  12:Middlewares/Third_Party/FreeRTOS/Source/event_groups.c **** 
  13:Middlewares/Third_Party/FreeRTOS/Source/event_groups.c ****     ***************************************************************************
  14:Middlewares/Third_Party/FreeRTOS/Source/event_groups.c ****     >>!   NOTE: The modification to the GPL is included to allow you to     !<<
  15:Middlewares/Third_Party/FreeRTOS/Source/event_groups.c ****     >>!   distribute a combined work that includes FreeRTOS without being   !<<
  16:Middlewares/Third_Party/FreeRTOS/Source/event_groups.c ****     >>!   obliged to provide the source code for proprietary components     !<<
  17:Middlewares/Third_Party/FreeRTOS/Source/event_groups.c ****     >>!   outside of the FreeRTOS kernel.                                   !<<
  18:Middlewares/Third_Party/FreeRTOS/Source/event_groups.c ****     ***************************************************************************
  19:Middlewares/Third_Party/FreeRTOS/Source/event_groups.c **** 
  20:Middlewares/Third_Party/FreeRTOS/Source/event_groups.c ****     FreeRTOS is distributed in the hope that it will be useful, but WITHOUT ANY
  21:Middlewares/Third_Party/FreeRTOS/Source/event_groups.c ****     WARRANTY; without even the implied warranty of MERCHANTABILITY or FITNESS
  22:Middlewares/Third_Party/FreeRTOS/Source/event_groups.c ****     FOR A PARTICULAR PURPOSE.  Full license text is available on the following
  23:Middlewares/Third_Party/FreeRTOS/Source/event_groups.c ****     link: http://www.freertos.org/a00114.html
  24:Middlewares/Third_Party/FreeRTOS/Source/event_groups.c **** 
  25:Middlewares/Third_Party/FreeRTOS/Source/event_groups.c ****     ***************************************************************************
  26:Middlewares/Third_Party/FreeRTOS/Source/event_groups.c ****      *                                                                       *
  27:Middlewares/Third_Party/FreeRTOS/Source/event_groups.c ****      *    FreeRTOS provides completely free yet professionally developed,    *
  28:Middlewares/Third_Party/FreeRTOS/Source/event_groups.c ****      *    robust, strictly quality controlled, supported, and cross          *
  29:Middlewares/Third_Party/FreeRTOS/Source/event_groups.c ****      *    platform software that is more than just the market leader, it     *
  30:Middlewares/Third_Party/FreeRTOS/Source/event_groups.c ****      *    is the industry's de facto standard.                               *
ARM GAS  C:\Users\Nina\AppData\Local\Temp\ccVMz8wR.s 			page 2


  31:Middlewares/Third_Party/FreeRTOS/Source/event_groups.c ****      *                                                                       *
  32:Middlewares/Third_Party/FreeRTOS/Source/event_groups.c ****      *    Help yourself get started quickly while simultaneously helping     *
  33:Middlewares/Third_Party/FreeRTOS/Source/event_groups.c ****      *    to support the FreeRTOS project by purchasing a FreeRTOS           *
  34:Middlewares/Third_Party/FreeRTOS/Source/event_groups.c ****      *    tutorial book, reference manual, or both:                          *
  35:Middlewares/Third_Party/FreeRTOS/Source/event_groups.c ****      *    http://www.FreeRTOS.org/Documentation                              *
  36:Middlewares/Third_Party/FreeRTOS/Source/event_groups.c ****      *                                                                       *
  37:Middlewares/Third_Party/FreeRTOS/Source/event_groups.c ****     ***************************************************************************
  38:Middlewares/Third_Party/FreeRTOS/Source/event_groups.c **** 
  39:Middlewares/Third_Party/FreeRTOS/Source/event_groups.c ****     http://www.FreeRTOS.org/FAQHelp.html - Having a problem?  Start by reading
  40:Middlewares/Third_Party/FreeRTOS/Source/event_groups.c ****     the FAQ page "My application does not run, what could be wrong?".  Have you
  41:Middlewares/Third_Party/FreeRTOS/Source/event_groups.c ****     defined configASSERT()?
  42:Middlewares/Third_Party/FreeRTOS/Source/event_groups.c **** 
  43:Middlewares/Third_Party/FreeRTOS/Source/event_groups.c ****     http://www.FreeRTOS.org/support - In return for receiving this top quality
  44:Middlewares/Third_Party/FreeRTOS/Source/event_groups.c ****     embedded software for free we request you assist our global community by
  45:Middlewares/Third_Party/FreeRTOS/Source/event_groups.c ****     participating in the support forum.
  46:Middlewares/Third_Party/FreeRTOS/Source/event_groups.c **** 
  47:Middlewares/Third_Party/FreeRTOS/Source/event_groups.c ****     http://www.FreeRTOS.org/training - Investing in training allows your team to
  48:Middlewares/Third_Party/FreeRTOS/Source/event_groups.c ****     be as productive as possible as early as possible.  Now you can receive
  49:Middlewares/Third_Party/FreeRTOS/Source/event_groups.c ****     FreeRTOS training directly from Richard Barry, CEO of Real Time Engineers
  50:Middlewares/Third_Party/FreeRTOS/Source/event_groups.c ****     Ltd, and the world's leading authority on the world's leading RTOS.
  51:Middlewares/Third_Party/FreeRTOS/Source/event_groups.c **** 
  52:Middlewares/Third_Party/FreeRTOS/Source/event_groups.c ****     http://www.FreeRTOS.org/plus - A selection of FreeRTOS ecosystem products,
  53:Middlewares/Third_Party/FreeRTOS/Source/event_groups.c ****     including FreeRTOS+Trace - an indispensable productivity tool, a DOS
  54:Middlewares/Third_Party/FreeRTOS/Source/event_groups.c ****     compatible FAT file system, and our tiny thread aware UDP/IP stack.
  55:Middlewares/Third_Party/FreeRTOS/Source/event_groups.c **** 
  56:Middlewares/Third_Party/FreeRTOS/Source/event_groups.c ****     http://www.FreeRTOS.org/labs - Where new FreeRTOS products go to incubate.
  57:Middlewares/Third_Party/FreeRTOS/Source/event_groups.c ****     Come and try FreeRTOS+TCP, our new open source TCP/IP stack for FreeRTOS.
  58:Middlewares/Third_Party/FreeRTOS/Source/event_groups.c **** 
  59:Middlewares/Third_Party/FreeRTOS/Source/event_groups.c ****     http://www.OpenRTOS.com - Real Time Engineers ltd. license FreeRTOS to High
  60:Middlewares/Third_Party/FreeRTOS/Source/event_groups.c ****     Integrity Systems ltd. to sell under the OpenRTOS brand.  Low cost OpenRTOS
  61:Middlewares/Third_Party/FreeRTOS/Source/event_groups.c ****     licenses offer ticketed support, indemnification and commercial middleware.
  62:Middlewares/Third_Party/FreeRTOS/Source/event_groups.c **** 
  63:Middlewares/Third_Party/FreeRTOS/Source/event_groups.c ****     http://www.SafeRTOS.com - High Integrity Systems also provide a safety
  64:Middlewares/Third_Party/FreeRTOS/Source/event_groups.c ****     engineered and independently SIL3 certified version for use in safety and
  65:Middlewares/Third_Party/FreeRTOS/Source/event_groups.c ****     mission critical applications that require provable dependability.
  66:Middlewares/Third_Party/FreeRTOS/Source/event_groups.c **** 
  67:Middlewares/Third_Party/FreeRTOS/Source/event_groups.c ****     1 tab == 4 spaces!
  68:Middlewares/Third_Party/FreeRTOS/Source/event_groups.c **** */
  69:Middlewares/Third_Party/FreeRTOS/Source/event_groups.c **** 
  70:Middlewares/Third_Party/FreeRTOS/Source/event_groups.c **** /* Standard includes. */
  71:Middlewares/Third_Party/FreeRTOS/Source/event_groups.c **** #include <stdlib.h>
  72:Middlewares/Third_Party/FreeRTOS/Source/event_groups.c **** 
  73:Middlewares/Third_Party/FreeRTOS/Source/event_groups.c **** /* Defining MPU_WRAPPERS_INCLUDED_FROM_API_FILE prevents task.h from redefining
  74:Middlewares/Third_Party/FreeRTOS/Source/event_groups.c **** all the API functions to use the MPU wrappers.  That should only be done when
  75:Middlewares/Third_Party/FreeRTOS/Source/event_groups.c **** task.h is included from an application file. */
  76:Middlewares/Third_Party/FreeRTOS/Source/event_groups.c **** #define MPU_WRAPPERS_INCLUDED_FROM_API_FILE
  77:Middlewares/Third_Party/FreeRTOS/Source/event_groups.c **** 
  78:Middlewares/Third_Party/FreeRTOS/Source/event_groups.c **** /* FreeRTOS includes. */
  79:Middlewares/Third_Party/FreeRTOS/Source/event_groups.c **** #include "FreeRTOS.h"
  80:Middlewares/Third_Party/FreeRTOS/Source/event_groups.c **** #include "task.h"
  81:Middlewares/Third_Party/FreeRTOS/Source/event_groups.c **** #include "timers.h"
  82:Middlewares/Third_Party/FreeRTOS/Source/event_groups.c **** #include "event_groups.h"
  83:Middlewares/Third_Party/FreeRTOS/Source/event_groups.c **** 
  84:Middlewares/Third_Party/FreeRTOS/Source/event_groups.c **** /* Lint e961 and e750 are suppressed as a MISRA exception justified because the
  85:Middlewares/Third_Party/FreeRTOS/Source/event_groups.c **** MPU ports require MPU_WRAPPERS_INCLUDED_FROM_API_FILE to be defined for the
  86:Middlewares/Third_Party/FreeRTOS/Source/event_groups.c **** header files above, but not in this file, in order to generate the correct
  87:Middlewares/Third_Party/FreeRTOS/Source/event_groups.c **** privileged Vs unprivileged linkage and placement. */
ARM GAS  C:\Users\Nina\AppData\Local\Temp\ccVMz8wR.s 			page 3


  88:Middlewares/Third_Party/FreeRTOS/Source/event_groups.c **** #undef MPU_WRAPPERS_INCLUDED_FROM_API_FILE /*lint !e961 !e750. */
  89:Middlewares/Third_Party/FreeRTOS/Source/event_groups.c **** 
  90:Middlewares/Third_Party/FreeRTOS/Source/event_groups.c **** /* The following bit fields convey control information in a task's event list
  91:Middlewares/Third_Party/FreeRTOS/Source/event_groups.c **** item value.  It is important they don't clash with the
  92:Middlewares/Third_Party/FreeRTOS/Source/event_groups.c **** taskEVENT_LIST_ITEM_VALUE_IN_USE definition. */
  93:Middlewares/Third_Party/FreeRTOS/Source/event_groups.c **** #if configUSE_16_BIT_TICKS == 1
  94:Middlewares/Third_Party/FreeRTOS/Source/event_groups.c **** 	#define eventCLEAR_EVENTS_ON_EXIT_BIT	0x0100U
  95:Middlewares/Third_Party/FreeRTOS/Source/event_groups.c **** 	#define eventUNBLOCKED_DUE_TO_BIT_SET	0x0200U
  96:Middlewares/Third_Party/FreeRTOS/Source/event_groups.c **** 	#define eventWAIT_FOR_ALL_BITS			0x0400U
  97:Middlewares/Third_Party/FreeRTOS/Source/event_groups.c **** 	#define eventEVENT_BITS_CONTROL_BYTES	0xff00U
  98:Middlewares/Third_Party/FreeRTOS/Source/event_groups.c **** #else
  99:Middlewares/Third_Party/FreeRTOS/Source/event_groups.c **** 	#define eventCLEAR_EVENTS_ON_EXIT_BIT	0x01000000UL
 100:Middlewares/Third_Party/FreeRTOS/Source/event_groups.c **** 	#define eventUNBLOCKED_DUE_TO_BIT_SET	0x02000000UL
 101:Middlewares/Third_Party/FreeRTOS/Source/event_groups.c **** 	#define eventWAIT_FOR_ALL_BITS			0x04000000UL
 102:Middlewares/Third_Party/FreeRTOS/Source/event_groups.c **** 	#define eventEVENT_BITS_CONTROL_BYTES	0xff000000UL
 103:Middlewares/Third_Party/FreeRTOS/Source/event_groups.c **** #endif
 104:Middlewares/Third_Party/FreeRTOS/Source/event_groups.c **** 
 105:Middlewares/Third_Party/FreeRTOS/Source/event_groups.c **** typedef struct xEventGroupDefinition
 106:Middlewares/Third_Party/FreeRTOS/Source/event_groups.c **** {
 107:Middlewares/Third_Party/FreeRTOS/Source/event_groups.c **** 	EventBits_t uxEventBits;
 108:Middlewares/Third_Party/FreeRTOS/Source/event_groups.c **** 	List_t xTasksWaitingForBits;		/*< List of tasks waiting for a bit to be set. */
 109:Middlewares/Third_Party/FreeRTOS/Source/event_groups.c **** 
 110:Middlewares/Third_Party/FreeRTOS/Source/event_groups.c **** 	#if( configUSE_TRACE_FACILITY == 1 )
 111:Middlewares/Third_Party/FreeRTOS/Source/event_groups.c **** 		UBaseType_t uxEventGroupNumber;
 112:Middlewares/Third_Party/FreeRTOS/Source/event_groups.c **** 	#endif
 113:Middlewares/Third_Party/FreeRTOS/Source/event_groups.c **** 
 114:Middlewares/Third_Party/FreeRTOS/Source/event_groups.c **** 	#if( ( configSUPPORT_STATIC_ALLOCATION == 1 ) && ( configSUPPORT_DYNAMIC_ALLOCATION == 1 ) )
 115:Middlewares/Third_Party/FreeRTOS/Source/event_groups.c **** 		uint8_t ucStaticallyAllocated; /*< Set to pdTRUE if the event group is statically allocated to en
 116:Middlewares/Third_Party/FreeRTOS/Source/event_groups.c **** 	#endif
 117:Middlewares/Third_Party/FreeRTOS/Source/event_groups.c **** } EventGroup_t;
 118:Middlewares/Third_Party/FreeRTOS/Source/event_groups.c **** 
 119:Middlewares/Third_Party/FreeRTOS/Source/event_groups.c **** /*-----------------------------------------------------------*/
 120:Middlewares/Third_Party/FreeRTOS/Source/event_groups.c **** 
 121:Middlewares/Third_Party/FreeRTOS/Source/event_groups.c **** /*
 122:Middlewares/Third_Party/FreeRTOS/Source/event_groups.c ****  * Test the bits set in uxCurrentEventBits to see if the wait condition is met.
 123:Middlewares/Third_Party/FreeRTOS/Source/event_groups.c ****  * The wait condition is defined by xWaitForAllBits.  If xWaitForAllBits is
 124:Middlewares/Third_Party/FreeRTOS/Source/event_groups.c ****  * pdTRUE then the wait condition is met if all the bits set in uxBitsToWaitFor
 125:Middlewares/Third_Party/FreeRTOS/Source/event_groups.c ****  * are also set in uxCurrentEventBits.  If xWaitForAllBits is pdFALSE then the
 126:Middlewares/Third_Party/FreeRTOS/Source/event_groups.c ****  * wait condition is met if any of the bits set in uxBitsToWait for are also set
 127:Middlewares/Third_Party/FreeRTOS/Source/event_groups.c ****  * in uxCurrentEventBits.
 128:Middlewares/Third_Party/FreeRTOS/Source/event_groups.c ****  */
 129:Middlewares/Third_Party/FreeRTOS/Source/event_groups.c **** PRIVILEGED_FUNCTION static BaseType_t prvTestWaitCondition( const EventBits_t uxCurrentEventBits, c
 130:Middlewares/Third_Party/FreeRTOS/Source/event_groups.c **** 
 131:Middlewares/Third_Party/FreeRTOS/Source/event_groups.c **** /*-----------------------------------------------------------*/
 132:Middlewares/Third_Party/FreeRTOS/Source/event_groups.c **** 
 133:Middlewares/Third_Party/FreeRTOS/Source/event_groups.c **** #if( configSUPPORT_STATIC_ALLOCATION == 1 )
 134:Middlewares/Third_Party/FreeRTOS/Source/event_groups.c **** 
 135:Middlewares/Third_Party/FreeRTOS/Source/event_groups.c **** 	EventGroupHandle_t xEventGroupCreateStatic( StaticEventGroup_t *pxEventGroupBuffer )
 136:Middlewares/Third_Party/FreeRTOS/Source/event_groups.c **** 	{
 137:Middlewares/Third_Party/FreeRTOS/Source/event_groups.c **** 	EventGroup_t *pxEventBits;
 138:Middlewares/Third_Party/FreeRTOS/Source/event_groups.c **** 
 139:Middlewares/Third_Party/FreeRTOS/Source/event_groups.c **** 		/* A StaticEventGroup_t object must be provided. */
 140:Middlewares/Third_Party/FreeRTOS/Source/event_groups.c **** 		configASSERT( pxEventGroupBuffer );
 141:Middlewares/Third_Party/FreeRTOS/Source/event_groups.c **** 
 142:Middlewares/Third_Party/FreeRTOS/Source/event_groups.c **** 		/* The user has provided a statically allocated event group - use it. */
 143:Middlewares/Third_Party/FreeRTOS/Source/event_groups.c **** 		pxEventBits = ( EventGroup_t * ) pxEventGroupBuffer; /*lint !e740 EventGroup_t and StaticEventGro
 144:Middlewares/Third_Party/FreeRTOS/Source/event_groups.c **** 
ARM GAS  C:\Users\Nina\AppData\Local\Temp\ccVMz8wR.s 			page 4


 145:Middlewares/Third_Party/FreeRTOS/Source/event_groups.c **** 		if( pxEventBits != NULL )
 146:Middlewares/Third_Party/FreeRTOS/Source/event_groups.c **** 		{
 147:Middlewares/Third_Party/FreeRTOS/Source/event_groups.c **** 			pxEventBits->uxEventBits = 0;
 148:Middlewares/Third_Party/FreeRTOS/Source/event_groups.c **** 			vListInitialise( &( pxEventBits->xTasksWaitingForBits ) );
 149:Middlewares/Third_Party/FreeRTOS/Source/event_groups.c **** 
 150:Middlewares/Third_Party/FreeRTOS/Source/event_groups.c **** 			#if( configSUPPORT_DYNAMIC_ALLOCATION == 1 )
 151:Middlewares/Third_Party/FreeRTOS/Source/event_groups.c **** 			{
 152:Middlewares/Third_Party/FreeRTOS/Source/event_groups.c **** 				/* Both static and dynamic allocation can be used, so note that
 153:Middlewares/Third_Party/FreeRTOS/Source/event_groups.c **** 				this event group was created statically in case the event group
 154:Middlewares/Third_Party/FreeRTOS/Source/event_groups.c **** 				is later deleted. */
 155:Middlewares/Third_Party/FreeRTOS/Source/event_groups.c **** 				pxEventBits->ucStaticallyAllocated = pdTRUE;
 156:Middlewares/Third_Party/FreeRTOS/Source/event_groups.c **** 			}
 157:Middlewares/Third_Party/FreeRTOS/Source/event_groups.c **** 			#endif /* configSUPPORT_DYNAMIC_ALLOCATION */
 158:Middlewares/Third_Party/FreeRTOS/Source/event_groups.c **** 
 159:Middlewares/Third_Party/FreeRTOS/Source/event_groups.c **** 			traceEVENT_GROUP_CREATE( pxEventBits );
 160:Middlewares/Third_Party/FreeRTOS/Source/event_groups.c **** 		}
 161:Middlewares/Third_Party/FreeRTOS/Source/event_groups.c **** 		else
 162:Middlewares/Third_Party/FreeRTOS/Source/event_groups.c **** 		{
 163:Middlewares/Third_Party/FreeRTOS/Source/event_groups.c **** 			traceEVENT_GROUP_CREATE_FAILED();
 164:Middlewares/Third_Party/FreeRTOS/Source/event_groups.c **** 		}
 165:Middlewares/Third_Party/FreeRTOS/Source/event_groups.c **** 
 166:Middlewares/Third_Party/FreeRTOS/Source/event_groups.c **** 		return ( EventGroupHandle_t ) pxEventBits;
 167:Middlewares/Third_Party/FreeRTOS/Source/event_groups.c **** 	}
 168:Middlewares/Third_Party/FreeRTOS/Source/event_groups.c **** 
 169:Middlewares/Third_Party/FreeRTOS/Source/event_groups.c **** #endif /* configSUPPORT_STATIC_ALLOCATION */
 170:Middlewares/Third_Party/FreeRTOS/Source/event_groups.c **** /*-----------------------------------------------------------*/
 171:Middlewares/Third_Party/FreeRTOS/Source/event_groups.c **** 
 172:Middlewares/Third_Party/FreeRTOS/Source/event_groups.c **** #if( configSUPPORT_DYNAMIC_ALLOCATION == 1 )
 173:Middlewares/Third_Party/FreeRTOS/Source/event_groups.c **** 
 174:Middlewares/Third_Party/FreeRTOS/Source/event_groups.c **** 	EventGroupHandle_t xEventGroupCreate( void )
 175:Middlewares/Third_Party/FreeRTOS/Source/event_groups.c **** 	{
 176:Middlewares/Third_Party/FreeRTOS/Source/event_groups.c **** 	EventGroup_t *pxEventBits;
 177:Middlewares/Third_Party/FreeRTOS/Source/event_groups.c **** 
 178:Middlewares/Third_Party/FreeRTOS/Source/event_groups.c **** 		/* Allocate the event group. */
 179:Middlewares/Third_Party/FreeRTOS/Source/event_groups.c **** 		pxEventBits = ( EventGroup_t * ) pvPortMalloc( sizeof( EventGroup_t ) );
 180:Middlewares/Third_Party/FreeRTOS/Source/event_groups.c **** 
 181:Middlewares/Third_Party/FreeRTOS/Source/event_groups.c **** 		if( pxEventBits != NULL )
 182:Middlewares/Third_Party/FreeRTOS/Source/event_groups.c **** 		{
 183:Middlewares/Third_Party/FreeRTOS/Source/event_groups.c **** 			pxEventBits->uxEventBits = 0;
 184:Middlewares/Third_Party/FreeRTOS/Source/event_groups.c **** 			vListInitialise( &( pxEventBits->xTasksWaitingForBits ) );
 185:Middlewares/Third_Party/FreeRTOS/Source/event_groups.c **** 
 186:Middlewares/Third_Party/FreeRTOS/Source/event_groups.c **** 			#if( configSUPPORT_STATIC_ALLOCATION == 1 )
 187:Middlewares/Third_Party/FreeRTOS/Source/event_groups.c **** 			{
 188:Middlewares/Third_Party/FreeRTOS/Source/event_groups.c **** 				/* Both static and dynamic allocation can be used, so note this
 189:Middlewares/Third_Party/FreeRTOS/Source/event_groups.c **** 				event group was allocated statically in case the event group is
 190:Middlewares/Third_Party/FreeRTOS/Source/event_groups.c **** 				later deleted. */
 191:Middlewares/Third_Party/FreeRTOS/Source/event_groups.c **** 				pxEventBits->ucStaticallyAllocated = pdFALSE;
 192:Middlewares/Third_Party/FreeRTOS/Source/event_groups.c **** 			}
 193:Middlewares/Third_Party/FreeRTOS/Source/event_groups.c **** 			#endif /* configSUPPORT_STATIC_ALLOCATION */
 194:Middlewares/Third_Party/FreeRTOS/Source/event_groups.c **** 
 195:Middlewares/Third_Party/FreeRTOS/Source/event_groups.c **** 			traceEVENT_GROUP_CREATE( pxEventBits );
 196:Middlewares/Third_Party/FreeRTOS/Source/event_groups.c **** 		}
 197:Middlewares/Third_Party/FreeRTOS/Source/event_groups.c **** 		else
 198:Middlewares/Third_Party/FreeRTOS/Source/event_groups.c **** 		{
 199:Middlewares/Third_Party/FreeRTOS/Source/event_groups.c **** 			traceEVENT_GROUP_CREATE_FAILED();
 200:Middlewares/Third_Party/FreeRTOS/Source/event_groups.c **** 		}
 201:Middlewares/Third_Party/FreeRTOS/Source/event_groups.c **** 
ARM GAS  C:\Users\Nina\AppData\Local\Temp\ccVMz8wR.s 			page 5


 202:Middlewares/Third_Party/FreeRTOS/Source/event_groups.c **** 		return ( EventGroupHandle_t ) pxEventBits;
 203:Middlewares/Third_Party/FreeRTOS/Source/event_groups.c **** 	}
 204:Middlewares/Third_Party/FreeRTOS/Source/event_groups.c **** 
 205:Middlewares/Third_Party/FreeRTOS/Source/event_groups.c **** #endif /* configSUPPORT_DYNAMIC_ALLOCATION */
 206:Middlewares/Third_Party/FreeRTOS/Source/event_groups.c **** /*-----------------------------------------------------------*/
 207:Middlewares/Third_Party/FreeRTOS/Source/event_groups.c **** 
 208:Middlewares/Third_Party/FreeRTOS/Source/event_groups.c **** EventBits_t xEventGroupSync( EventGroupHandle_t xEventGroup, const EventBits_t uxBitsToSet, const E
 209:Middlewares/Third_Party/FreeRTOS/Source/event_groups.c **** {
 210:Middlewares/Third_Party/FreeRTOS/Source/event_groups.c **** EventBits_t uxOriginalBitValue, uxReturn;
 211:Middlewares/Third_Party/FreeRTOS/Source/event_groups.c **** EventGroup_t *pxEventBits = ( EventGroup_t * ) xEventGroup;
 212:Middlewares/Third_Party/FreeRTOS/Source/event_groups.c **** BaseType_t xAlreadyYielded;
 213:Middlewares/Third_Party/FreeRTOS/Source/event_groups.c **** BaseType_t xTimeoutOccurred = pdFALSE;
 214:Middlewares/Third_Party/FreeRTOS/Source/event_groups.c **** 
 215:Middlewares/Third_Party/FreeRTOS/Source/event_groups.c **** 	configASSERT( ( uxBitsToWaitFor & eventEVENT_BITS_CONTROL_BYTES ) == 0 );
 216:Middlewares/Third_Party/FreeRTOS/Source/event_groups.c **** 	configASSERT( uxBitsToWaitFor != 0 );
 217:Middlewares/Third_Party/FreeRTOS/Source/event_groups.c **** 	#if ( ( INCLUDE_xTaskGetSchedulerState == 1 ) || ( configUSE_TIMERS == 1 ) )
 218:Middlewares/Third_Party/FreeRTOS/Source/event_groups.c **** 	{
 219:Middlewares/Third_Party/FreeRTOS/Source/event_groups.c **** 		configASSERT( !( ( xTaskGetSchedulerState() == taskSCHEDULER_SUSPENDED ) && ( xTicksToWait != 0 )
 220:Middlewares/Third_Party/FreeRTOS/Source/event_groups.c **** 	}
 221:Middlewares/Third_Party/FreeRTOS/Source/event_groups.c **** 	#endif
 222:Middlewares/Third_Party/FreeRTOS/Source/event_groups.c **** 
 223:Middlewares/Third_Party/FreeRTOS/Source/event_groups.c **** 	vTaskSuspendAll();
 224:Middlewares/Third_Party/FreeRTOS/Source/event_groups.c **** 	{
 225:Middlewares/Third_Party/FreeRTOS/Source/event_groups.c **** 		uxOriginalBitValue = pxEventBits->uxEventBits;
 226:Middlewares/Third_Party/FreeRTOS/Source/event_groups.c **** 
 227:Middlewares/Third_Party/FreeRTOS/Source/event_groups.c **** 		( void ) xEventGroupSetBits( xEventGroup, uxBitsToSet );
 228:Middlewares/Third_Party/FreeRTOS/Source/event_groups.c **** 
 229:Middlewares/Third_Party/FreeRTOS/Source/event_groups.c **** 		if( ( ( uxOriginalBitValue | uxBitsToSet ) & uxBitsToWaitFor ) == uxBitsToWaitFor )
 230:Middlewares/Third_Party/FreeRTOS/Source/event_groups.c **** 		{
 231:Middlewares/Third_Party/FreeRTOS/Source/event_groups.c **** 			/* All the rendezvous bits are now set - no need to block. */
 232:Middlewares/Third_Party/FreeRTOS/Source/event_groups.c **** 			uxReturn = ( uxOriginalBitValue | uxBitsToSet );
 233:Middlewares/Third_Party/FreeRTOS/Source/event_groups.c **** 
 234:Middlewares/Third_Party/FreeRTOS/Source/event_groups.c **** 			/* Rendezvous always clear the bits.  They will have been cleared
 235:Middlewares/Third_Party/FreeRTOS/Source/event_groups.c **** 			already unless this is the only task in the rendezvous. */
 236:Middlewares/Third_Party/FreeRTOS/Source/event_groups.c **** 			pxEventBits->uxEventBits &= ~uxBitsToWaitFor;
 237:Middlewares/Third_Party/FreeRTOS/Source/event_groups.c **** 
 238:Middlewares/Third_Party/FreeRTOS/Source/event_groups.c **** 			xTicksToWait = 0;
 239:Middlewares/Third_Party/FreeRTOS/Source/event_groups.c **** 		}
 240:Middlewares/Third_Party/FreeRTOS/Source/event_groups.c **** 		else
 241:Middlewares/Third_Party/FreeRTOS/Source/event_groups.c **** 		{
 242:Middlewares/Third_Party/FreeRTOS/Source/event_groups.c **** 			if( xTicksToWait != ( TickType_t ) 0 )
 243:Middlewares/Third_Party/FreeRTOS/Source/event_groups.c **** 			{
 244:Middlewares/Third_Party/FreeRTOS/Source/event_groups.c **** 				traceEVENT_GROUP_SYNC_BLOCK( xEventGroup, uxBitsToSet, uxBitsToWaitFor );
 245:Middlewares/Third_Party/FreeRTOS/Source/event_groups.c **** 
 246:Middlewares/Third_Party/FreeRTOS/Source/event_groups.c **** 				/* Store the bits that the calling task is waiting for in the
 247:Middlewares/Third_Party/FreeRTOS/Source/event_groups.c **** 				task's event list item so the kernel knows when a match is
 248:Middlewares/Third_Party/FreeRTOS/Source/event_groups.c **** 				found.  Then enter the blocked state. */
 249:Middlewares/Third_Party/FreeRTOS/Source/event_groups.c **** 				vTaskPlaceOnUnorderedEventList( &( pxEventBits->xTasksWaitingForBits ), ( uxBitsToWaitFor | eve
 250:Middlewares/Third_Party/FreeRTOS/Source/event_groups.c **** 
 251:Middlewares/Third_Party/FreeRTOS/Source/event_groups.c **** 				/* This assignment is obsolete as uxReturn will get set after
 252:Middlewares/Third_Party/FreeRTOS/Source/event_groups.c **** 				the task unblocks, but some compilers mistakenly generate a
 253:Middlewares/Third_Party/FreeRTOS/Source/event_groups.c **** 				warning about uxReturn being returned without being set if the
 254:Middlewares/Third_Party/FreeRTOS/Source/event_groups.c **** 				assignment is omitted. */
 255:Middlewares/Third_Party/FreeRTOS/Source/event_groups.c **** 				uxReturn = 0;
 256:Middlewares/Third_Party/FreeRTOS/Source/event_groups.c **** 			}
 257:Middlewares/Third_Party/FreeRTOS/Source/event_groups.c **** 			else
 258:Middlewares/Third_Party/FreeRTOS/Source/event_groups.c **** 			{
ARM GAS  C:\Users\Nina\AppData\Local\Temp\ccVMz8wR.s 			page 6


 259:Middlewares/Third_Party/FreeRTOS/Source/event_groups.c **** 				/* The rendezvous bits were not set, but no block time was
 260:Middlewares/Third_Party/FreeRTOS/Source/event_groups.c **** 				specified - just return the current event bit value. */
 261:Middlewares/Third_Party/FreeRTOS/Source/event_groups.c **** 				uxReturn = pxEventBits->uxEventBits;
 262:Middlewares/Third_Party/FreeRTOS/Source/event_groups.c **** 			}
 263:Middlewares/Third_Party/FreeRTOS/Source/event_groups.c **** 		}
 264:Middlewares/Third_Party/FreeRTOS/Source/event_groups.c **** 	}
 265:Middlewares/Third_Party/FreeRTOS/Source/event_groups.c **** 	xAlreadyYielded = xTaskResumeAll();
 266:Middlewares/Third_Party/FreeRTOS/Source/event_groups.c **** 
 267:Middlewares/Third_Party/FreeRTOS/Source/event_groups.c **** 	if( xTicksToWait != ( TickType_t ) 0 )
 268:Middlewares/Third_Party/FreeRTOS/Source/event_groups.c **** 	{
 269:Middlewares/Third_Party/FreeRTOS/Source/event_groups.c **** 		if( xAlreadyYielded == pdFALSE )
 270:Middlewares/Third_Party/FreeRTOS/Source/event_groups.c **** 		{
 271:Middlewares/Third_Party/FreeRTOS/Source/event_groups.c **** 			portYIELD_WITHIN_API();
 272:Middlewares/Third_Party/FreeRTOS/Source/event_groups.c **** 		}
 273:Middlewares/Third_Party/FreeRTOS/Source/event_groups.c **** 		else
 274:Middlewares/Third_Party/FreeRTOS/Source/event_groups.c **** 		{
 275:Middlewares/Third_Party/FreeRTOS/Source/event_groups.c **** 			mtCOVERAGE_TEST_MARKER();
 276:Middlewares/Third_Party/FreeRTOS/Source/event_groups.c **** 		}
 277:Middlewares/Third_Party/FreeRTOS/Source/event_groups.c **** 
 278:Middlewares/Third_Party/FreeRTOS/Source/event_groups.c **** 		/* The task blocked to wait for its required bits to be set - at this
 279:Middlewares/Third_Party/FreeRTOS/Source/event_groups.c **** 		point either the required bits were set or the block time expired.  If
 280:Middlewares/Third_Party/FreeRTOS/Source/event_groups.c **** 		the required bits were set they will have been stored in the task's
 281:Middlewares/Third_Party/FreeRTOS/Source/event_groups.c **** 		event list item, and they should now be retrieved then cleared. */
 282:Middlewares/Third_Party/FreeRTOS/Source/event_groups.c **** 		uxReturn = uxTaskResetEventItemValue();
 283:Middlewares/Third_Party/FreeRTOS/Source/event_groups.c **** 
 284:Middlewares/Third_Party/FreeRTOS/Source/event_groups.c **** 		if( ( uxReturn & eventUNBLOCKED_DUE_TO_BIT_SET ) == ( EventBits_t ) 0 )
 285:Middlewares/Third_Party/FreeRTOS/Source/event_groups.c **** 		{
 286:Middlewares/Third_Party/FreeRTOS/Source/event_groups.c **** 			/* The task timed out, just return the current event bit value. */
 287:Middlewares/Third_Party/FreeRTOS/Source/event_groups.c **** 			taskENTER_CRITICAL();
 288:Middlewares/Third_Party/FreeRTOS/Source/event_groups.c **** 			{
 289:Middlewares/Third_Party/FreeRTOS/Source/event_groups.c **** 				uxReturn = pxEventBits->uxEventBits;
 290:Middlewares/Third_Party/FreeRTOS/Source/event_groups.c **** 
 291:Middlewares/Third_Party/FreeRTOS/Source/event_groups.c **** 				/* Although the task got here because it timed out before the
 292:Middlewares/Third_Party/FreeRTOS/Source/event_groups.c **** 				bits it was waiting for were set, it is possible that since it
 293:Middlewares/Third_Party/FreeRTOS/Source/event_groups.c **** 				unblocked another task has set the bits.  If this is the case
 294:Middlewares/Third_Party/FreeRTOS/Source/event_groups.c **** 				then it needs to clear the bits before exiting. */
 295:Middlewares/Third_Party/FreeRTOS/Source/event_groups.c **** 				if( ( uxReturn & uxBitsToWaitFor ) == uxBitsToWaitFor )
 296:Middlewares/Third_Party/FreeRTOS/Source/event_groups.c **** 				{
 297:Middlewares/Third_Party/FreeRTOS/Source/event_groups.c **** 					pxEventBits->uxEventBits &= ~uxBitsToWaitFor;
 298:Middlewares/Third_Party/FreeRTOS/Source/event_groups.c **** 				}
 299:Middlewares/Third_Party/FreeRTOS/Source/event_groups.c **** 				else
 300:Middlewares/Third_Party/FreeRTOS/Source/event_groups.c **** 				{
 301:Middlewares/Third_Party/FreeRTOS/Source/event_groups.c **** 					mtCOVERAGE_TEST_MARKER();
 302:Middlewares/Third_Party/FreeRTOS/Source/event_groups.c **** 				}
 303:Middlewares/Third_Party/FreeRTOS/Source/event_groups.c **** 			}
 304:Middlewares/Third_Party/FreeRTOS/Source/event_groups.c **** 			taskEXIT_CRITICAL();
 305:Middlewares/Third_Party/FreeRTOS/Source/event_groups.c **** 
 306:Middlewares/Third_Party/FreeRTOS/Source/event_groups.c **** 			xTimeoutOccurred = pdTRUE;
 307:Middlewares/Third_Party/FreeRTOS/Source/event_groups.c **** 		}
 308:Middlewares/Third_Party/FreeRTOS/Source/event_groups.c **** 		else
 309:Middlewares/Third_Party/FreeRTOS/Source/event_groups.c **** 		{
 310:Middlewares/Third_Party/FreeRTOS/Source/event_groups.c **** 			/* The task unblocked because the bits were set. */
 311:Middlewares/Third_Party/FreeRTOS/Source/event_groups.c **** 		}
 312:Middlewares/Third_Party/FreeRTOS/Source/event_groups.c **** 
 313:Middlewares/Third_Party/FreeRTOS/Source/event_groups.c **** 		/* Control bits might be set as the task had blocked should not be
 314:Middlewares/Third_Party/FreeRTOS/Source/event_groups.c **** 		returned. */
 315:Middlewares/Third_Party/FreeRTOS/Source/event_groups.c **** 		uxReturn &= ~eventEVENT_BITS_CONTROL_BYTES;
ARM GAS  C:\Users\Nina\AppData\Local\Temp\ccVMz8wR.s 			page 7


 316:Middlewares/Third_Party/FreeRTOS/Source/event_groups.c **** 	}
 317:Middlewares/Third_Party/FreeRTOS/Source/event_groups.c **** 
 318:Middlewares/Third_Party/FreeRTOS/Source/event_groups.c **** 	traceEVENT_GROUP_SYNC_END( xEventGroup, uxBitsToSet, uxBitsToWaitFor, xTimeoutOccurred );
 319:Middlewares/Third_Party/FreeRTOS/Source/event_groups.c **** 
 320:Middlewares/Third_Party/FreeRTOS/Source/event_groups.c **** 	return uxReturn;
 321:Middlewares/Third_Party/FreeRTOS/Source/event_groups.c **** }
 322:Middlewares/Third_Party/FreeRTOS/Source/event_groups.c **** /*-----------------------------------------------------------*/
 323:Middlewares/Third_Party/FreeRTOS/Source/event_groups.c **** 
 324:Middlewares/Third_Party/FreeRTOS/Source/event_groups.c **** EventBits_t xEventGroupWaitBits( EventGroupHandle_t xEventGroup, const EventBits_t uxBitsToWaitFor,
 325:Middlewares/Third_Party/FreeRTOS/Source/event_groups.c **** {
 326:Middlewares/Third_Party/FreeRTOS/Source/event_groups.c **** EventGroup_t *pxEventBits = ( EventGroup_t * ) xEventGroup;
 327:Middlewares/Third_Party/FreeRTOS/Source/event_groups.c **** EventBits_t uxReturn, uxControlBits = 0;
 328:Middlewares/Third_Party/FreeRTOS/Source/event_groups.c **** BaseType_t xWaitConditionMet, xAlreadyYielded;
 329:Middlewares/Third_Party/FreeRTOS/Source/event_groups.c **** BaseType_t xTimeoutOccurred = pdFALSE;
 330:Middlewares/Third_Party/FreeRTOS/Source/event_groups.c **** 
 331:Middlewares/Third_Party/FreeRTOS/Source/event_groups.c **** 	/* Check the user is not attempting to wait on the bits used by the kernel
 332:Middlewares/Third_Party/FreeRTOS/Source/event_groups.c **** 	itself, and that at least one bit is being requested. */
 333:Middlewares/Third_Party/FreeRTOS/Source/event_groups.c **** 	configASSERT( xEventGroup );
 334:Middlewares/Third_Party/FreeRTOS/Source/event_groups.c **** 	configASSERT( ( uxBitsToWaitFor & eventEVENT_BITS_CONTROL_BYTES ) == 0 );
 335:Middlewares/Third_Party/FreeRTOS/Source/event_groups.c **** 	configASSERT( uxBitsToWaitFor != 0 );
 336:Middlewares/Third_Party/FreeRTOS/Source/event_groups.c **** 	#if ( ( INCLUDE_xTaskGetSchedulerState == 1 ) || ( configUSE_TIMERS == 1 ) )
 337:Middlewares/Third_Party/FreeRTOS/Source/event_groups.c **** 	{
 338:Middlewares/Third_Party/FreeRTOS/Source/event_groups.c **** 		configASSERT( !( ( xTaskGetSchedulerState() == taskSCHEDULER_SUSPENDED ) && ( xTicksToWait != 0 )
 339:Middlewares/Third_Party/FreeRTOS/Source/event_groups.c **** 	}
 340:Middlewares/Third_Party/FreeRTOS/Source/event_groups.c **** 	#endif
 341:Middlewares/Third_Party/FreeRTOS/Source/event_groups.c **** 
 342:Middlewares/Third_Party/FreeRTOS/Source/event_groups.c **** 	vTaskSuspendAll();
 343:Middlewares/Third_Party/FreeRTOS/Source/event_groups.c **** 	{
 344:Middlewares/Third_Party/FreeRTOS/Source/event_groups.c **** 		const EventBits_t uxCurrentEventBits = pxEventBits->uxEventBits;
 345:Middlewares/Third_Party/FreeRTOS/Source/event_groups.c **** 
 346:Middlewares/Third_Party/FreeRTOS/Source/event_groups.c **** 		/* Check to see if the wait condition is already met or not. */
 347:Middlewares/Third_Party/FreeRTOS/Source/event_groups.c **** 		xWaitConditionMet = prvTestWaitCondition( uxCurrentEventBits, uxBitsToWaitFor, xWaitForAllBits );
 348:Middlewares/Third_Party/FreeRTOS/Source/event_groups.c **** 
 349:Middlewares/Third_Party/FreeRTOS/Source/event_groups.c **** 		if( xWaitConditionMet != pdFALSE )
 350:Middlewares/Third_Party/FreeRTOS/Source/event_groups.c **** 		{
 351:Middlewares/Third_Party/FreeRTOS/Source/event_groups.c **** 			/* The wait condition has already been met so there is no need to
 352:Middlewares/Third_Party/FreeRTOS/Source/event_groups.c **** 			block. */
 353:Middlewares/Third_Party/FreeRTOS/Source/event_groups.c **** 			uxReturn = uxCurrentEventBits;
 354:Middlewares/Third_Party/FreeRTOS/Source/event_groups.c **** 			xTicksToWait = ( TickType_t ) 0;
 355:Middlewares/Third_Party/FreeRTOS/Source/event_groups.c **** 
 356:Middlewares/Third_Party/FreeRTOS/Source/event_groups.c **** 			/* Clear the wait bits if requested to do so. */
 357:Middlewares/Third_Party/FreeRTOS/Source/event_groups.c **** 			if( xClearOnExit != pdFALSE )
 358:Middlewares/Third_Party/FreeRTOS/Source/event_groups.c **** 			{
 359:Middlewares/Third_Party/FreeRTOS/Source/event_groups.c **** 				pxEventBits->uxEventBits &= ~uxBitsToWaitFor;
 360:Middlewares/Third_Party/FreeRTOS/Source/event_groups.c **** 			}
 361:Middlewares/Third_Party/FreeRTOS/Source/event_groups.c **** 			else
 362:Middlewares/Third_Party/FreeRTOS/Source/event_groups.c **** 			{
 363:Middlewares/Third_Party/FreeRTOS/Source/event_groups.c **** 				mtCOVERAGE_TEST_MARKER();
 364:Middlewares/Third_Party/FreeRTOS/Source/event_groups.c **** 			}
 365:Middlewares/Third_Party/FreeRTOS/Source/event_groups.c **** 		}
 366:Middlewares/Third_Party/FreeRTOS/Source/event_groups.c **** 		else if( xTicksToWait == ( TickType_t ) 0 )
 367:Middlewares/Third_Party/FreeRTOS/Source/event_groups.c **** 		{
 368:Middlewares/Third_Party/FreeRTOS/Source/event_groups.c **** 			/* The wait condition has not been met, but no block time was
 369:Middlewares/Third_Party/FreeRTOS/Source/event_groups.c **** 			specified, so just return the current value. */
 370:Middlewares/Third_Party/FreeRTOS/Source/event_groups.c **** 			uxReturn = uxCurrentEventBits;
 371:Middlewares/Third_Party/FreeRTOS/Source/event_groups.c **** 		}
 372:Middlewares/Third_Party/FreeRTOS/Source/event_groups.c **** 		else
ARM GAS  C:\Users\Nina\AppData\Local\Temp\ccVMz8wR.s 			page 8


 373:Middlewares/Third_Party/FreeRTOS/Source/event_groups.c **** 		{
 374:Middlewares/Third_Party/FreeRTOS/Source/event_groups.c **** 			/* The task is going to block to wait for its required bits to be
 375:Middlewares/Third_Party/FreeRTOS/Source/event_groups.c **** 			set.  uxControlBits are used to remember the specified behaviour of
 376:Middlewares/Third_Party/FreeRTOS/Source/event_groups.c **** 			this call to xEventGroupWaitBits() - for use when the event bits
 377:Middlewares/Third_Party/FreeRTOS/Source/event_groups.c **** 			unblock the task. */
 378:Middlewares/Third_Party/FreeRTOS/Source/event_groups.c **** 			if( xClearOnExit != pdFALSE )
 379:Middlewares/Third_Party/FreeRTOS/Source/event_groups.c **** 			{
 380:Middlewares/Third_Party/FreeRTOS/Source/event_groups.c **** 				uxControlBits |= eventCLEAR_EVENTS_ON_EXIT_BIT;
 381:Middlewares/Third_Party/FreeRTOS/Source/event_groups.c **** 			}
 382:Middlewares/Third_Party/FreeRTOS/Source/event_groups.c **** 			else
 383:Middlewares/Third_Party/FreeRTOS/Source/event_groups.c **** 			{
 384:Middlewares/Third_Party/FreeRTOS/Source/event_groups.c **** 				mtCOVERAGE_TEST_MARKER();
 385:Middlewares/Third_Party/FreeRTOS/Source/event_groups.c **** 			}
 386:Middlewares/Third_Party/FreeRTOS/Source/event_groups.c **** 
 387:Middlewares/Third_Party/FreeRTOS/Source/event_groups.c **** 			if( xWaitForAllBits != pdFALSE )
 388:Middlewares/Third_Party/FreeRTOS/Source/event_groups.c **** 			{
 389:Middlewares/Third_Party/FreeRTOS/Source/event_groups.c **** 				uxControlBits |= eventWAIT_FOR_ALL_BITS;
 390:Middlewares/Third_Party/FreeRTOS/Source/event_groups.c **** 			}
 391:Middlewares/Third_Party/FreeRTOS/Source/event_groups.c **** 			else
 392:Middlewares/Third_Party/FreeRTOS/Source/event_groups.c **** 			{
 393:Middlewares/Third_Party/FreeRTOS/Source/event_groups.c **** 				mtCOVERAGE_TEST_MARKER();
 394:Middlewares/Third_Party/FreeRTOS/Source/event_groups.c **** 			}
 395:Middlewares/Third_Party/FreeRTOS/Source/event_groups.c **** 
 396:Middlewares/Third_Party/FreeRTOS/Source/event_groups.c **** 			/* Store the bits that the calling task is waiting for in the
 397:Middlewares/Third_Party/FreeRTOS/Source/event_groups.c **** 			task's event list item so the kernel knows when a match is
 398:Middlewares/Third_Party/FreeRTOS/Source/event_groups.c **** 			found.  Then enter the blocked state. */
 399:Middlewares/Third_Party/FreeRTOS/Source/event_groups.c **** 			vTaskPlaceOnUnorderedEventList( &( pxEventBits->xTasksWaitingForBits ), ( uxBitsToWaitFor | uxCo
 400:Middlewares/Third_Party/FreeRTOS/Source/event_groups.c **** 
 401:Middlewares/Third_Party/FreeRTOS/Source/event_groups.c **** 			/* This is obsolete as it will get set after the task unblocks, but
 402:Middlewares/Third_Party/FreeRTOS/Source/event_groups.c **** 			some compilers mistakenly generate a warning about the variable
 403:Middlewares/Third_Party/FreeRTOS/Source/event_groups.c **** 			being returned without being set if it is not done. */
 404:Middlewares/Third_Party/FreeRTOS/Source/event_groups.c **** 			uxReturn = 0;
 405:Middlewares/Third_Party/FreeRTOS/Source/event_groups.c **** 
 406:Middlewares/Third_Party/FreeRTOS/Source/event_groups.c **** 			traceEVENT_GROUP_WAIT_BITS_BLOCK( xEventGroup, uxBitsToWaitFor );
 407:Middlewares/Third_Party/FreeRTOS/Source/event_groups.c **** 		}
 408:Middlewares/Third_Party/FreeRTOS/Source/event_groups.c **** 	}
 409:Middlewares/Third_Party/FreeRTOS/Source/event_groups.c **** 	xAlreadyYielded = xTaskResumeAll();
 410:Middlewares/Third_Party/FreeRTOS/Source/event_groups.c **** 
 411:Middlewares/Third_Party/FreeRTOS/Source/event_groups.c **** 	if( xTicksToWait != ( TickType_t ) 0 )
 412:Middlewares/Third_Party/FreeRTOS/Source/event_groups.c **** 	{
 413:Middlewares/Third_Party/FreeRTOS/Source/event_groups.c **** 		if( xAlreadyYielded == pdFALSE )
 414:Middlewares/Third_Party/FreeRTOS/Source/event_groups.c **** 		{
 415:Middlewares/Third_Party/FreeRTOS/Source/event_groups.c **** 			portYIELD_WITHIN_API();
 416:Middlewares/Third_Party/FreeRTOS/Source/event_groups.c **** 		}
 417:Middlewares/Third_Party/FreeRTOS/Source/event_groups.c **** 		else
 418:Middlewares/Third_Party/FreeRTOS/Source/event_groups.c **** 		{
 419:Middlewares/Third_Party/FreeRTOS/Source/event_groups.c **** 			mtCOVERAGE_TEST_MARKER();
 420:Middlewares/Third_Party/FreeRTOS/Source/event_groups.c **** 		}
 421:Middlewares/Third_Party/FreeRTOS/Source/event_groups.c **** 
 422:Middlewares/Third_Party/FreeRTOS/Source/event_groups.c **** 		/* The task blocked to wait for its required bits to be set - at this
 423:Middlewares/Third_Party/FreeRTOS/Source/event_groups.c **** 		point either the required bits were set or the block time expired.  If
 424:Middlewares/Third_Party/FreeRTOS/Source/event_groups.c **** 		the required bits were set they will have been stored in the task's
 425:Middlewares/Third_Party/FreeRTOS/Source/event_groups.c **** 		event list item, and they should now be retrieved then cleared. */
 426:Middlewares/Third_Party/FreeRTOS/Source/event_groups.c **** 		uxReturn = uxTaskResetEventItemValue();
 427:Middlewares/Third_Party/FreeRTOS/Source/event_groups.c **** 
 428:Middlewares/Third_Party/FreeRTOS/Source/event_groups.c **** 		if( ( uxReturn & eventUNBLOCKED_DUE_TO_BIT_SET ) == ( EventBits_t ) 0 )
 429:Middlewares/Third_Party/FreeRTOS/Source/event_groups.c **** 		{
ARM GAS  C:\Users\Nina\AppData\Local\Temp\ccVMz8wR.s 			page 9


 430:Middlewares/Third_Party/FreeRTOS/Source/event_groups.c **** 			taskENTER_CRITICAL();
 431:Middlewares/Third_Party/FreeRTOS/Source/event_groups.c **** 			{
 432:Middlewares/Third_Party/FreeRTOS/Source/event_groups.c **** 				/* The task timed out, just return the current event bit value. */
 433:Middlewares/Third_Party/FreeRTOS/Source/event_groups.c **** 				uxReturn = pxEventBits->uxEventBits;
 434:Middlewares/Third_Party/FreeRTOS/Source/event_groups.c **** 
 435:Middlewares/Third_Party/FreeRTOS/Source/event_groups.c **** 				/* It is possible that the event bits were updated between this
 436:Middlewares/Third_Party/FreeRTOS/Source/event_groups.c **** 				task leaving the Blocked state and running again. */
 437:Middlewares/Third_Party/FreeRTOS/Source/event_groups.c **** 				if( prvTestWaitCondition( uxReturn, uxBitsToWaitFor, xWaitForAllBits ) != pdFALSE )
 438:Middlewares/Third_Party/FreeRTOS/Source/event_groups.c **** 				{
 439:Middlewares/Third_Party/FreeRTOS/Source/event_groups.c **** 					if( xClearOnExit != pdFALSE )
 440:Middlewares/Third_Party/FreeRTOS/Source/event_groups.c **** 					{
 441:Middlewares/Third_Party/FreeRTOS/Source/event_groups.c **** 						pxEventBits->uxEventBits &= ~uxBitsToWaitFor;
 442:Middlewares/Third_Party/FreeRTOS/Source/event_groups.c **** 					}
 443:Middlewares/Third_Party/FreeRTOS/Source/event_groups.c **** 					else
 444:Middlewares/Third_Party/FreeRTOS/Source/event_groups.c **** 					{
 445:Middlewares/Third_Party/FreeRTOS/Source/event_groups.c **** 						mtCOVERAGE_TEST_MARKER();
 446:Middlewares/Third_Party/FreeRTOS/Source/event_groups.c **** 					}
 447:Middlewares/Third_Party/FreeRTOS/Source/event_groups.c **** 				}
 448:Middlewares/Third_Party/FreeRTOS/Source/event_groups.c **** 				else
 449:Middlewares/Third_Party/FreeRTOS/Source/event_groups.c **** 				{
 450:Middlewares/Third_Party/FreeRTOS/Source/event_groups.c **** 					mtCOVERAGE_TEST_MARKER();
 451:Middlewares/Third_Party/FreeRTOS/Source/event_groups.c **** 				}
 452:Middlewares/Third_Party/FreeRTOS/Source/event_groups.c **** 			}
 453:Middlewares/Third_Party/FreeRTOS/Source/event_groups.c **** 			taskEXIT_CRITICAL();
 454:Middlewares/Third_Party/FreeRTOS/Source/event_groups.c **** 
 455:Middlewares/Third_Party/FreeRTOS/Source/event_groups.c **** 			/* Prevent compiler warnings when trace macros are not used. */
 456:Middlewares/Third_Party/FreeRTOS/Source/event_groups.c **** 			xTimeoutOccurred = pdFALSE;
 457:Middlewares/Third_Party/FreeRTOS/Source/event_groups.c **** 		}
 458:Middlewares/Third_Party/FreeRTOS/Source/event_groups.c **** 		else
 459:Middlewares/Third_Party/FreeRTOS/Source/event_groups.c **** 		{
 460:Middlewares/Third_Party/FreeRTOS/Source/event_groups.c **** 			/* The task unblocked because the bits were set. */
 461:Middlewares/Third_Party/FreeRTOS/Source/event_groups.c **** 		}
 462:Middlewares/Third_Party/FreeRTOS/Source/event_groups.c **** 
 463:Middlewares/Third_Party/FreeRTOS/Source/event_groups.c **** 		/* The task blocked so control bits may have been set. */
 464:Middlewares/Third_Party/FreeRTOS/Source/event_groups.c **** 		uxReturn &= ~eventEVENT_BITS_CONTROL_BYTES;
 465:Middlewares/Third_Party/FreeRTOS/Source/event_groups.c **** 	}
 466:Middlewares/Third_Party/FreeRTOS/Source/event_groups.c **** 	traceEVENT_GROUP_WAIT_BITS_END( xEventGroup, uxBitsToWaitFor, xTimeoutOccurred );
 467:Middlewares/Third_Party/FreeRTOS/Source/event_groups.c **** 
 468:Middlewares/Third_Party/FreeRTOS/Source/event_groups.c **** 	return uxReturn;
 469:Middlewares/Third_Party/FreeRTOS/Source/event_groups.c **** }
 470:Middlewares/Third_Party/FreeRTOS/Source/event_groups.c **** /*-----------------------------------------------------------*/
 471:Middlewares/Third_Party/FreeRTOS/Source/event_groups.c **** 
 472:Middlewares/Third_Party/FreeRTOS/Source/event_groups.c **** EventBits_t xEventGroupClearBits( EventGroupHandle_t xEventGroup, const EventBits_t uxBitsToClear )
 473:Middlewares/Third_Party/FreeRTOS/Source/event_groups.c **** {
 474:Middlewares/Third_Party/FreeRTOS/Source/event_groups.c **** EventGroup_t *pxEventBits = ( EventGroup_t * ) xEventGroup;
 475:Middlewares/Third_Party/FreeRTOS/Source/event_groups.c **** EventBits_t uxReturn;
 476:Middlewares/Third_Party/FreeRTOS/Source/event_groups.c **** 
 477:Middlewares/Third_Party/FreeRTOS/Source/event_groups.c **** 	/* Check the user is not attempting to clear the bits used by the kernel
 478:Middlewares/Third_Party/FreeRTOS/Source/event_groups.c **** 	itself. */
 479:Middlewares/Third_Party/FreeRTOS/Source/event_groups.c **** 	configASSERT( xEventGroup );
 480:Middlewares/Third_Party/FreeRTOS/Source/event_groups.c **** 	configASSERT( ( uxBitsToClear & eventEVENT_BITS_CONTROL_BYTES ) == 0 );
 481:Middlewares/Third_Party/FreeRTOS/Source/event_groups.c **** 
 482:Middlewares/Third_Party/FreeRTOS/Source/event_groups.c **** 	taskENTER_CRITICAL();
 483:Middlewares/Third_Party/FreeRTOS/Source/event_groups.c **** 	{
 484:Middlewares/Third_Party/FreeRTOS/Source/event_groups.c **** 		traceEVENT_GROUP_CLEAR_BITS( xEventGroup, uxBitsToClear );
 485:Middlewares/Third_Party/FreeRTOS/Source/event_groups.c **** 
 486:Middlewares/Third_Party/FreeRTOS/Source/event_groups.c **** 		/* The value returned is the event group value prior to the bits being
ARM GAS  C:\Users\Nina\AppData\Local\Temp\ccVMz8wR.s 			page 10


 487:Middlewares/Third_Party/FreeRTOS/Source/event_groups.c **** 		cleared. */
 488:Middlewares/Third_Party/FreeRTOS/Source/event_groups.c **** 		uxReturn = pxEventBits->uxEventBits;
 489:Middlewares/Third_Party/FreeRTOS/Source/event_groups.c **** 
 490:Middlewares/Third_Party/FreeRTOS/Source/event_groups.c **** 		/* Clear the bits. */
 491:Middlewares/Third_Party/FreeRTOS/Source/event_groups.c **** 		pxEventBits->uxEventBits &= ~uxBitsToClear;
 492:Middlewares/Third_Party/FreeRTOS/Source/event_groups.c **** 	}
 493:Middlewares/Third_Party/FreeRTOS/Source/event_groups.c **** 	taskEXIT_CRITICAL();
 494:Middlewares/Third_Party/FreeRTOS/Source/event_groups.c **** 
 495:Middlewares/Third_Party/FreeRTOS/Source/event_groups.c **** 	return uxReturn;
 496:Middlewares/Third_Party/FreeRTOS/Source/event_groups.c **** }
 497:Middlewares/Third_Party/FreeRTOS/Source/event_groups.c **** /*-----------------------------------------------------------*/
 498:Middlewares/Third_Party/FreeRTOS/Source/event_groups.c **** 
 499:Middlewares/Third_Party/FreeRTOS/Source/event_groups.c **** #if ( ( configUSE_TRACE_FACILITY == 1 ) && ( INCLUDE_xTimerPendFunctionCall == 1 ) && ( configUSE_T
 500:Middlewares/Third_Party/FreeRTOS/Source/event_groups.c **** 
 501:Middlewares/Third_Party/FreeRTOS/Source/event_groups.c **** 	BaseType_t xEventGroupClearBitsFromISR( EventGroupHandle_t xEventGroup, const EventBits_t uxBitsTo
 502:Middlewares/Third_Party/FreeRTOS/Source/event_groups.c **** 	{
 503:Middlewares/Third_Party/FreeRTOS/Source/event_groups.c **** 		BaseType_t xReturn;
 504:Middlewares/Third_Party/FreeRTOS/Source/event_groups.c **** 
 505:Middlewares/Third_Party/FreeRTOS/Source/event_groups.c **** 		traceEVENT_GROUP_CLEAR_BITS_FROM_ISR( xEventGroup, uxBitsToClear );
 506:Middlewares/Third_Party/FreeRTOS/Source/event_groups.c **** 		xReturn = xTimerPendFunctionCallFromISR( vEventGroupClearBitsCallback, ( void * ) xEventGroup, ( 
 507:Middlewares/Third_Party/FreeRTOS/Source/event_groups.c **** 
 508:Middlewares/Third_Party/FreeRTOS/Source/event_groups.c **** 		return xReturn;
 509:Middlewares/Third_Party/FreeRTOS/Source/event_groups.c **** 	}
 510:Middlewares/Third_Party/FreeRTOS/Source/event_groups.c **** 
 511:Middlewares/Third_Party/FreeRTOS/Source/event_groups.c **** #endif
 512:Middlewares/Third_Party/FreeRTOS/Source/event_groups.c **** /*-----------------------------------------------------------*/
 513:Middlewares/Third_Party/FreeRTOS/Source/event_groups.c **** 
 514:Middlewares/Third_Party/FreeRTOS/Source/event_groups.c **** EventBits_t xEventGroupGetBitsFromISR( EventGroupHandle_t xEventGroup )
 515:Middlewares/Third_Party/FreeRTOS/Source/event_groups.c **** {
 516:Middlewares/Third_Party/FreeRTOS/Source/event_groups.c **** UBaseType_t uxSavedInterruptStatus;
 517:Middlewares/Third_Party/FreeRTOS/Source/event_groups.c **** EventGroup_t *pxEventBits = ( EventGroup_t * ) xEventGroup;
 518:Middlewares/Third_Party/FreeRTOS/Source/event_groups.c **** EventBits_t uxReturn;
 519:Middlewares/Third_Party/FreeRTOS/Source/event_groups.c **** 
 520:Middlewares/Third_Party/FreeRTOS/Source/event_groups.c **** 	uxSavedInterruptStatus = portSET_INTERRUPT_MASK_FROM_ISR();
 521:Middlewares/Third_Party/FreeRTOS/Source/event_groups.c **** 	{
 522:Middlewares/Third_Party/FreeRTOS/Source/event_groups.c **** 		uxReturn = pxEventBits->uxEventBits;
 523:Middlewares/Third_Party/FreeRTOS/Source/event_groups.c **** 	}
 524:Middlewares/Third_Party/FreeRTOS/Source/event_groups.c **** 	portCLEAR_INTERRUPT_MASK_FROM_ISR( uxSavedInterruptStatus );
 525:Middlewares/Third_Party/FreeRTOS/Source/event_groups.c **** 
 526:Middlewares/Third_Party/FreeRTOS/Source/event_groups.c **** 	return uxReturn;
 527:Middlewares/Third_Party/FreeRTOS/Source/event_groups.c **** }
 528:Middlewares/Third_Party/FreeRTOS/Source/event_groups.c **** /*-----------------------------------------------------------*/
 529:Middlewares/Third_Party/FreeRTOS/Source/event_groups.c **** 
 530:Middlewares/Third_Party/FreeRTOS/Source/event_groups.c **** EventBits_t xEventGroupSetBits( EventGroupHandle_t xEventGroup, const EventBits_t uxBitsToSet )
 531:Middlewares/Third_Party/FreeRTOS/Source/event_groups.c **** {
 532:Middlewares/Third_Party/FreeRTOS/Source/event_groups.c **** ListItem_t *pxListItem, *pxNext;
 533:Middlewares/Third_Party/FreeRTOS/Source/event_groups.c **** ListItem_t const *pxListEnd;
 534:Middlewares/Third_Party/FreeRTOS/Source/event_groups.c **** List_t *pxList;
 535:Middlewares/Third_Party/FreeRTOS/Source/event_groups.c **** EventBits_t uxBitsToClear = 0, uxBitsWaitedFor, uxControlBits;
 536:Middlewares/Third_Party/FreeRTOS/Source/event_groups.c **** EventGroup_t *pxEventBits = ( EventGroup_t * ) xEventGroup;
 537:Middlewares/Third_Party/FreeRTOS/Source/event_groups.c **** BaseType_t xMatchFound = pdFALSE;
 538:Middlewares/Third_Party/FreeRTOS/Source/event_groups.c **** 
 539:Middlewares/Third_Party/FreeRTOS/Source/event_groups.c **** 	/* Check the user is not attempting to set the bits used by the kernel
 540:Middlewares/Third_Party/FreeRTOS/Source/event_groups.c **** 	itself. */
 541:Middlewares/Third_Party/FreeRTOS/Source/event_groups.c **** 	configASSERT( xEventGroup );
 542:Middlewares/Third_Party/FreeRTOS/Source/event_groups.c **** 	configASSERT( ( uxBitsToSet & eventEVENT_BITS_CONTROL_BYTES ) == 0 );
 543:Middlewares/Third_Party/FreeRTOS/Source/event_groups.c **** 
ARM GAS  C:\Users\Nina\AppData\Local\Temp\ccVMz8wR.s 			page 11


 544:Middlewares/Third_Party/FreeRTOS/Source/event_groups.c **** 	pxList = &( pxEventBits->xTasksWaitingForBits );
 545:Middlewares/Third_Party/FreeRTOS/Source/event_groups.c **** 	pxListEnd = listGET_END_MARKER( pxList ); /*lint !e826 !e740 The mini list structure is used as th
 546:Middlewares/Third_Party/FreeRTOS/Source/event_groups.c **** 	vTaskSuspendAll();
 547:Middlewares/Third_Party/FreeRTOS/Source/event_groups.c **** 	{
 548:Middlewares/Third_Party/FreeRTOS/Source/event_groups.c **** 		traceEVENT_GROUP_SET_BITS( xEventGroup, uxBitsToSet );
 549:Middlewares/Third_Party/FreeRTOS/Source/event_groups.c **** 
 550:Middlewares/Third_Party/FreeRTOS/Source/event_groups.c **** 		pxListItem = listGET_HEAD_ENTRY( pxList );
 551:Middlewares/Third_Party/FreeRTOS/Source/event_groups.c **** 
 552:Middlewares/Third_Party/FreeRTOS/Source/event_groups.c **** 		/* Set the bits. */
 553:Middlewares/Third_Party/FreeRTOS/Source/event_groups.c **** 		pxEventBits->uxEventBits |= uxBitsToSet;
 554:Middlewares/Third_Party/FreeRTOS/Source/event_groups.c **** 
 555:Middlewares/Third_Party/FreeRTOS/Source/event_groups.c **** 		/* See if the new bit value should unblock any tasks. */
 556:Middlewares/Third_Party/FreeRTOS/Source/event_groups.c **** 		while( pxListItem != pxListEnd )
 557:Middlewares/Third_Party/FreeRTOS/Source/event_groups.c **** 		{
 558:Middlewares/Third_Party/FreeRTOS/Source/event_groups.c **** 			pxNext = listGET_NEXT( pxListItem );
 559:Middlewares/Third_Party/FreeRTOS/Source/event_groups.c **** 			uxBitsWaitedFor = listGET_LIST_ITEM_VALUE( pxListItem );
 560:Middlewares/Third_Party/FreeRTOS/Source/event_groups.c **** 			xMatchFound = pdFALSE;
 561:Middlewares/Third_Party/FreeRTOS/Source/event_groups.c **** 
 562:Middlewares/Third_Party/FreeRTOS/Source/event_groups.c **** 			/* Split the bits waited for from the control bits. */
 563:Middlewares/Third_Party/FreeRTOS/Source/event_groups.c **** 			uxControlBits = uxBitsWaitedFor & eventEVENT_BITS_CONTROL_BYTES;
 564:Middlewares/Third_Party/FreeRTOS/Source/event_groups.c **** 			uxBitsWaitedFor &= ~eventEVENT_BITS_CONTROL_BYTES;
 565:Middlewares/Third_Party/FreeRTOS/Source/event_groups.c **** 
 566:Middlewares/Third_Party/FreeRTOS/Source/event_groups.c **** 			if( ( uxControlBits & eventWAIT_FOR_ALL_BITS ) == ( EventBits_t ) 0 )
 567:Middlewares/Third_Party/FreeRTOS/Source/event_groups.c **** 			{
 568:Middlewares/Third_Party/FreeRTOS/Source/event_groups.c **** 				/* Just looking for single bit being set. */
 569:Middlewares/Third_Party/FreeRTOS/Source/event_groups.c **** 				if( ( uxBitsWaitedFor & pxEventBits->uxEventBits ) != ( EventBits_t ) 0 )
 570:Middlewares/Third_Party/FreeRTOS/Source/event_groups.c **** 				{
 571:Middlewares/Third_Party/FreeRTOS/Source/event_groups.c **** 					xMatchFound = pdTRUE;
 572:Middlewares/Third_Party/FreeRTOS/Source/event_groups.c **** 				}
 573:Middlewares/Third_Party/FreeRTOS/Source/event_groups.c **** 				else
 574:Middlewares/Third_Party/FreeRTOS/Source/event_groups.c **** 				{
 575:Middlewares/Third_Party/FreeRTOS/Source/event_groups.c **** 					mtCOVERAGE_TEST_MARKER();
 576:Middlewares/Third_Party/FreeRTOS/Source/event_groups.c **** 				}
 577:Middlewares/Third_Party/FreeRTOS/Source/event_groups.c **** 			}
 578:Middlewares/Third_Party/FreeRTOS/Source/event_groups.c **** 			else if( ( uxBitsWaitedFor & pxEventBits->uxEventBits ) == uxBitsWaitedFor )
 579:Middlewares/Third_Party/FreeRTOS/Source/event_groups.c **** 			{
 580:Middlewares/Third_Party/FreeRTOS/Source/event_groups.c **** 				/* All bits are set. */
 581:Middlewares/Third_Party/FreeRTOS/Source/event_groups.c **** 				xMatchFound = pdTRUE;
 582:Middlewares/Third_Party/FreeRTOS/Source/event_groups.c **** 			}
 583:Middlewares/Third_Party/FreeRTOS/Source/event_groups.c **** 			else
 584:Middlewares/Third_Party/FreeRTOS/Source/event_groups.c **** 			{
 585:Middlewares/Third_Party/FreeRTOS/Source/event_groups.c **** 				/* Need all bits to be set, but not all the bits were set. */
 586:Middlewares/Third_Party/FreeRTOS/Source/event_groups.c **** 			}
 587:Middlewares/Third_Party/FreeRTOS/Source/event_groups.c **** 
 588:Middlewares/Third_Party/FreeRTOS/Source/event_groups.c **** 			if( xMatchFound != pdFALSE )
 589:Middlewares/Third_Party/FreeRTOS/Source/event_groups.c **** 			{
 590:Middlewares/Third_Party/FreeRTOS/Source/event_groups.c **** 				/* The bits match.  Should the bits be cleared on exit? */
 591:Middlewares/Third_Party/FreeRTOS/Source/event_groups.c **** 				if( ( uxControlBits & eventCLEAR_EVENTS_ON_EXIT_BIT ) != ( EventBits_t ) 0 )
 592:Middlewares/Third_Party/FreeRTOS/Source/event_groups.c **** 				{
 593:Middlewares/Third_Party/FreeRTOS/Source/event_groups.c **** 					uxBitsToClear |= uxBitsWaitedFor;
 594:Middlewares/Third_Party/FreeRTOS/Source/event_groups.c **** 				}
 595:Middlewares/Third_Party/FreeRTOS/Source/event_groups.c **** 				else
 596:Middlewares/Third_Party/FreeRTOS/Source/event_groups.c **** 				{
 597:Middlewares/Third_Party/FreeRTOS/Source/event_groups.c **** 					mtCOVERAGE_TEST_MARKER();
 598:Middlewares/Third_Party/FreeRTOS/Source/event_groups.c **** 				}
 599:Middlewares/Third_Party/FreeRTOS/Source/event_groups.c **** 
 600:Middlewares/Third_Party/FreeRTOS/Source/event_groups.c **** 				/* Store the actual event flag value in the task's event list
ARM GAS  C:\Users\Nina\AppData\Local\Temp\ccVMz8wR.s 			page 12


 601:Middlewares/Third_Party/FreeRTOS/Source/event_groups.c **** 				item before removing the task from the event list.  The
 602:Middlewares/Third_Party/FreeRTOS/Source/event_groups.c **** 				eventUNBLOCKED_DUE_TO_BIT_SET bit is set so the task knows
 603:Middlewares/Third_Party/FreeRTOS/Source/event_groups.c **** 				that is was unblocked due to its required bits matching, rather
 604:Middlewares/Third_Party/FreeRTOS/Source/event_groups.c **** 				than because it timed out. */
 605:Middlewares/Third_Party/FreeRTOS/Source/event_groups.c **** 				( void ) xTaskRemoveFromUnorderedEventList( pxListItem, pxEventBits->uxEventBits | eventUNBLOCK
 606:Middlewares/Third_Party/FreeRTOS/Source/event_groups.c **** 			}
 607:Middlewares/Third_Party/FreeRTOS/Source/event_groups.c **** 
 608:Middlewares/Third_Party/FreeRTOS/Source/event_groups.c **** 			/* Move onto the next list item.  Note pxListItem->pxNext is not
 609:Middlewares/Third_Party/FreeRTOS/Source/event_groups.c **** 			used here as the list item may have been removed from the event list
 610:Middlewares/Third_Party/FreeRTOS/Source/event_groups.c **** 			and inserted into the ready/pending reading list. */
 611:Middlewares/Third_Party/FreeRTOS/Source/event_groups.c **** 			pxListItem = pxNext;
 612:Middlewares/Third_Party/FreeRTOS/Source/event_groups.c **** 		}
 613:Middlewares/Third_Party/FreeRTOS/Source/event_groups.c **** 
 614:Middlewares/Third_Party/FreeRTOS/Source/event_groups.c **** 		/* Clear any bits that matched when the eventCLEAR_EVENTS_ON_EXIT_BIT
 615:Middlewares/Third_Party/FreeRTOS/Source/event_groups.c **** 		bit was set in the control word. */
 616:Middlewares/Third_Party/FreeRTOS/Source/event_groups.c **** 		pxEventBits->uxEventBits &= ~uxBitsToClear;
 617:Middlewares/Third_Party/FreeRTOS/Source/event_groups.c **** 	}
 618:Middlewares/Third_Party/FreeRTOS/Source/event_groups.c **** 	( void ) xTaskResumeAll();
 619:Middlewares/Third_Party/FreeRTOS/Source/event_groups.c **** 
 620:Middlewares/Third_Party/FreeRTOS/Source/event_groups.c **** 	return pxEventBits->uxEventBits;
 621:Middlewares/Third_Party/FreeRTOS/Source/event_groups.c **** }
 622:Middlewares/Third_Party/FreeRTOS/Source/event_groups.c **** /*-----------------------------------------------------------*/
 623:Middlewares/Third_Party/FreeRTOS/Source/event_groups.c **** 
 624:Middlewares/Third_Party/FreeRTOS/Source/event_groups.c **** void vEventGroupDelete( EventGroupHandle_t xEventGroup )
 625:Middlewares/Third_Party/FreeRTOS/Source/event_groups.c **** {
 626:Middlewares/Third_Party/FreeRTOS/Source/event_groups.c **** EventGroup_t *pxEventBits = ( EventGroup_t * ) xEventGroup;
 627:Middlewares/Third_Party/FreeRTOS/Source/event_groups.c **** const List_t *pxTasksWaitingForBits = &( pxEventBits->xTasksWaitingForBits );
 628:Middlewares/Third_Party/FreeRTOS/Source/event_groups.c **** 
 629:Middlewares/Third_Party/FreeRTOS/Source/event_groups.c **** 	vTaskSuspendAll();
 630:Middlewares/Third_Party/FreeRTOS/Source/event_groups.c **** 	{
 631:Middlewares/Third_Party/FreeRTOS/Source/event_groups.c **** 		traceEVENT_GROUP_DELETE( xEventGroup );
 632:Middlewares/Third_Party/FreeRTOS/Source/event_groups.c **** 
 633:Middlewares/Third_Party/FreeRTOS/Source/event_groups.c **** 		while( listCURRENT_LIST_LENGTH( pxTasksWaitingForBits ) > ( UBaseType_t ) 0 )
 634:Middlewares/Third_Party/FreeRTOS/Source/event_groups.c **** 		{
 635:Middlewares/Third_Party/FreeRTOS/Source/event_groups.c **** 			/* Unblock the task, returning 0 as the event list is being deleted
 636:Middlewares/Third_Party/FreeRTOS/Source/event_groups.c **** 			and	cannot therefore have any bits set. */
 637:Middlewares/Third_Party/FreeRTOS/Source/event_groups.c **** 			configASSERT( pxTasksWaitingForBits->xListEnd.pxNext != ( ListItem_t * ) &( pxTasksWaitingForBit
 638:Middlewares/Third_Party/FreeRTOS/Source/event_groups.c **** 			( void ) xTaskRemoveFromUnorderedEventList( pxTasksWaitingForBits->xListEnd.pxNext, eventUNBLOCK
 639:Middlewares/Third_Party/FreeRTOS/Source/event_groups.c **** 		}
 640:Middlewares/Third_Party/FreeRTOS/Source/event_groups.c **** 
 641:Middlewares/Third_Party/FreeRTOS/Source/event_groups.c **** 		#if( ( configSUPPORT_DYNAMIC_ALLOCATION == 1 ) && ( configSUPPORT_STATIC_ALLOCATION == 0 ) )
 642:Middlewares/Third_Party/FreeRTOS/Source/event_groups.c **** 		{
 643:Middlewares/Third_Party/FreeRTOS/Source/event_groups.c **** 			/* The event group can only have been allocated dynamically - free
 644:Middlewares/Third_Party/FreeRTOS/Source/event_groups.c **** 			it again. */
 645:Middlewares/Third_Party/FreeRTOS/Source/event_groups.c **** 			vPortFree( pxEventBits );
 646:Middlewares/Third_Party/FreeRTOS/Source/event_groups.c **** 		}
 647:Middlewares/Third_Party/FreeRTOS/Source/event_groups.c **** 		#elif( ( configSUPPORT_DYNAMIC_ALLOCATION == 1 ) && ( configSUPPORT_STATIC_ALLOCATION == 1 ) )
 648:Middlewares/Third_Party/FreeRTOS/Source/event_groups.c **** 		{
 649:Middlewares/Third_Party/FreeRTOS/Source/event_groups.c **** 			/* The event group could have been allocated statically or
 650:Middlewares/Third_Party/FreeRTOS/Source/event_groups.c **** 			dynamically, so check before attempting to free the memory. */
 651:Middlewares/Third_Party/FreeRTOS/Source/event_groups.c **** 			if( pxEventBits->ucStaticallyAllocated == ( uint8_t ) pdFALSE )
 652:Middlewares/Third_Party/FreeRTOS/Source/event_groups.c **** 			{
 653:Middlewares/Third_Party/FreeRTOS/Source/event_groups.c **** 				vPortFree( pxEventBits );
 654:Middlewares/Third_Party/FreeRTOS/Source/event_groups.c **** 			}
 655:Middlewares/Third_Party/FreeRTOS/Source/event_groups.c **** 			else
 656:Middlewares/Third_Party/FreeRTOS/Source/event_groups.c **** 			{
 657:Middlewares/Third_Party/FreeRTOS/Source/event_groups.c **** 				mtCOVERAGE_TEST_MARKER();
ARM GAS  C:\Users\Nina\AppData\Local\Temp\ccVMz8wR.s 			page 13


 658:Middlewares/Third_Party/FreeRTOS/Source/event_groups.c **** 			}
 659:Middlewares/Third_Party/FreeRTOS/Source/event_groups.c **** 		}
 660:Middlewares/Third_Party/FreeRTOS/Source/event_groups.c **** 		#endif /* configSUPPORT_DYNAMIC_ALLOCATION */
 661:Middlewares/Third_Party/FreeRTOS/Source/event_groups.c **** 	}
 662:Middlewares/Third_Party/FreeRTOS/Source/event_groups.c **** 	( void ) xTaskResumeAll();
 663:Middlewares/Third_Party/FreeRTOS/Source/event_groups.c **** }
 664:Middlewares/Third_Party/FreeRTOS/Source/event_groups.c **** /*-----------------------------------------------------------*/
 665:Middlewares/Third_Party/FreeRTOS/Source/event_groups.c **** 
 666:Middlewares/Third_Party/FreeRTOS/Source/event_groups.c **** /* For internal use only - execute a 'set bits' command that was pended from
 667:Middlewares/Third_Party/FreeRTOS/Source/event_groups.c **** an interrupt. */
 668:Middlewares/Third_Party/FreeRTOS/Source/event_groups.c **** void vEventGroupSetBitsCallback( void *pvEventGroup, const uint32_t ulBitsToSet )
 669:Middlewares/Third_Party/FreeRTOS/Source/event_groups.c **** {
 670:Middlewares/Third_Party/FreeRTOS/Source/event_groups.c **** 	( void ) xEventGroupSetBits( pvEventGroup, ( EventBits_t ) ulBitsToSet );
 671:Middlewares/Third_Party/FreeRTOS/Source/event_groups.c **** }
 672:Middlewares/Third_Party/FreeRTOS/Source/event_groups.c **** /*-----------------------------------------------------------*/
 673:Middlewares/Third_Party/FreeRTOS/Source/event_groups.c **** 
 674:Middlewares/Third_Party/FreeRTOS/Source/event_groups.c **** /* For internal use only - execute a 'clear bits' command that was pended from
 675:Middlewares/Third_Party/FreeRTOS/Source/event_groups.c **** an interrupt. */
 676:Middlewares/Third_Party/FreeRTOS/Source/event_groups.c **** void vEventGroupClearBitsCallback( void *pvEventGroup, const uint32_t ulBitsToClear )
 677:Middlewares/Third_Party/FreeRTOS/Source/event_groups.c **** {
 678:Middlewares/Third_Party/FreeRTOS/Source/event_groups.c **** 	( void ) xEventGroupClearBits( pvEventGroup, ( EventBits_t ) ulBitsToClear );
 679:Middlewares/Third_Party/FreeRTOS/Source/event_groups.c **** }
 680:Middlewares/Third_Party/FreeRTOS/Source/event_groups.c **** /*-----------------------------------------------------------*/
 681:Middlewares/Third_Party/FreeRTOS/Source/event_groups.c **** 
 682:Middlewares/Third_Party/FreeRTOS/Source/event_groups.c **** static BaseType_t prvTestWaitCondition( const EventBits_t uxCurrentEventBits, const EventBits_t uxB
 683:Middlewares/Third_Party/FreeRTOS/Source/event_groups.c **** {
  29              		.loc 1 683 1 view -0
  30              		.cfi_startproc
  31              		@ args = 0, pretend = 0, frame = 0
  32              		@ frame_needed = 0, uses_anonymous_args = 0
  33              		@ link register save eliminated.
 684:Middlewares/Third_Party/FreeRTOS/Source/event_groups.c **** BaseType_t xWaitConditionMet = pdFALSE;
  34              		.loc 1 684 1 view .LVU1
 685:Middlewares/Third_Party/FreeRTOS/Source/event_groups.c **** 
 686:Middlewares/Third_Party/FreeRTOS/Source/event_groups.c **** 	if( xWaitForAllBits == pdFALSE )
  35              		.loc 1 686 2 view .LVU2
  36              		.loc 1 686 4 is_stmt 0 view .LVU3
  37 0000 1AB9     		cbnz	r2, .L2
 687:Middlewares/Third_Party/FreeRTOS/Source/event_groups.c **** 	{
 688:Middlewares/Third_Party/FreeRTOS/Source/event_groups.c **** 		/* Task only has to wait for one bit within uxBitsToWaitFor to be
 689:Middlewares/Third_Party/FreeRTOS/Source/event_groups.c **** 		set.  Is one already set? */
 690:Middlewares/Third_Party/FreeRTOS/Source/event_groups.c **** 		if( ( uxCurrentEventBits & uxBitsToWaitFor ) != ( EventBits_t ) 0 )
  38              		.loc 1 690 3 is_stmt 1 view .LVU4
  39              		.loc 1 690 5 is_stmt 0 view .LVU5
  40 0002 0842     		tst	r0, r1
  41 0004 06D1     		bne	.L4
 684:Middlewares/Third_Party/FreeRTOS/Source/event_groups.c **** 
  42              		.loc 1 684 12 view .LVU6
  43 0006 1046     		mov	r0, r2
  44              	.LVL1:
 684:Middlewares/Third_Party/FreeRTOS/Source/event_groups.c **** 
  45              		.loc 1 684 12 view .LVU7
  46 0008 7047     		bx	lr
  47              	.LVL2:
  48              	.L2:
 691:Middlewares/Third_Party/FreeRTOS/Source/event_groups.c **** 		{
 692:Middlewares/Third_Party/FreeRTOS/Source/event_groups.c **** 			xWaitConditionMet = pdTRUE;
ARM GAS  C:\Users\Nina\AppData\Local\Temp\ccVMz8wR.s 			page 14


 693:Middlewares/Third_Party/FreeRTOS/Source/event_groups.c **** 		}
 694:Middlewares/Third_Party/FreeRTOS/Source/event_groups.c **** 		else
 695:Middlewares/Third_Party/FreeRTOS/Source/event_groups.c **** 		{
 696:Middlewares/Third_Party/FreeRTOS/Source/event_groups.c **** 			mtCOVERAGE_TEST_MARKER();
 697:Middlewares/Third_Party/FreeRTOS/Source/event_groups.c **** 		}
 698:Middlewares/Third_Party/FreeRTOS/Source/event_groups.c **** 	}
 699:Middlewares/Third_Party/FreeRTOS/Source/event_groups.c **** 	else
 700:Middlewares/Third_Party/FreeRTOS/Source/event_groups.c **** 	{
 701:Middlewares/Third_Party/FreeRTOS/Source/event_groups.c **** 		/* Task has to wait for all the bits in uxBitsToWaitFor to be set.
 702:Middlewares/Third_Party/FreeRTOS/Source/event_groups.c **** 		Are they set already? */
 703:Middlewares/Third_Party/FreeRTOS/Source/event_groups.c **** 		if( ( uxCurrentEventBits & uxBitsToWaitFor ) == uxBitsToWaitFor )
  49              		.loc 1 703 3 is_stmt 1 view .LVU8
  50              		.loc 1 703 5 is_stmt 0 view .LVU9
  51 000a 31EA0003 		bics	r3, r1, r0
  52 000e 03D0     		beq	.L5
 684:Middlewares/Third_Party/FreeRTOS/Source/event_groups.c **** 
  53              		.loc 1 684 12 view .LVU10
  54 0010 0020     		movs	r0, #0
  55              	.LVL3:
 684:Middlewares/Third_Party/FreeRTOS/Source/event_groups.c **** 
  56              		.loc 1 684 12 view .LVU11
  57 0012 7047     		bx	lr
  58              	.LVL4:
  59              	.L4:
 692:Middlewares/Third_Party/FreeRTOS/Source/event_groups.c **** 		}
  60              		.loc 1 692 22 view .LVU12
  61 0014 0120     		movs	r0, #1
  62              	.LVL5:
 692:Middlewares/Third_Party/FreeRTOS/Source/event_groups.c **** 		}
  63              		.loc 1 692 22 view .LVU13
  64 0016 7047     		bx	lr
  65              	.LVL6:
  66              	.L5:
 704:Middlewares/Third_Party/FreeRTOS/Source/event_groups.c **** 		{
 705:Middlewares/Third_Party/FreeRTOS/Source/event_groups.c **** 			xWaitConditionMet = pdTRUE;
  67              		.loc 1 705 22 view .LVU14
  68 0018 0120     		movs	r0, #1
  69              	.LVL7:
 706:Middlewares/Third_Party/FreeRTOS/Source/event_groups.c **** 		}
 707:Middlewares/Third_Party/FreeRTOS/Source/event_groups.c **** 		else
 708:Middlewares/Third_Party/FreeRTOS/Source/event_groups.c **** 		{
 709:Middlewares/Third_Party/FreeRTOS/Source/event_groups.c **** 			mtCOVERAGE_TEST_MARKER();
  70              		.loc 1 709 28 is_stmt 1 view .LVU15
 710:Middlewares/Third_Party/FreeRTOS/Source/event_groups.c **** 		}
 711:Middlewares/Third_Party/FreeRTOS/Source/event_groups.c **** 	}
 712:Middlewares/Third_Party/FreeRTOS/Source/event_groups.c **** 
 713:Middlewares/Third_Party/FreeRTOS/Source/event_groups.c **** 	return xWaitConditionMet;
  71              		.loc 1 713 2 view .LVU16
 714:Middlewares/Third_Party/FreeRTOS/Source/event_groups.c **** }
  72              		.loc 1 714 1 is_stmt 0 view .LVU17
  73 001a 7047     		bx	lr
  74              		.cfi_endproc
  75              	.LFE14:
  77              		.section	.text.xEventGroupCreate,"ax",%progbits
  78              		.align	1
  79              		.global	xEventGroupCreate
  80              		.syntax unified
ARM GAS  C:\Users\Nina\AppData\Local\Temp\ccVMz8wR.s 			page 15


  81              		.thumb
  82              		.thumb_func
  83              		.fpu fpv5-sp-d16
  85              	xEventGroupCreate:
  86              	.LFB5:
 175:Middlewares/Third_Party/FreeRTOS/Source/event_groups.c **** 	EventGroup_t *pxEventBits;
  87              		.loc 1 175 2 is_stmt 1 view -0
  88              		.cfi_startproc
  89              		@ args = 0, pretend = 0, frame = 0
  90              		@ frame_needed = 0, uses_anonymous_args = 0
  91 0000 10B5     		push	{r4, lr}
  92              	.LCFI0:
  93              		.cfi_def_cfa_offset 8
  94              		.cfi_offset 4, -8
  95              		.cfi_offset 14, -4
 176:Middlewares/Third_Party/FreeRTOS/Source/event_groups.c **** 
  96              		.loc 1 176 2 view .LVU19
 179:Middlewares/Third_Party/FreeRTOS/Source/event_groups.c **** 
  97              		.loc 1 179 3 view .LVU20
 179:Middlewares/Third_Party/FreeRTOS/Source/event_groups.c **** 
  98              		.loc 1 179 36 is_stmt 0 view .LVU21
  99 0002 1820     		movs	r0, #24
 100 0004 FFF7FEFF 		bl	pvPortMalloc
 101              	.LVL8:
 181:Middlewares/Third_Party/FreeRTOS/Source/event_groups.c **** 		{
 102              		.loc 1 181 3 is_stmt 1 view .LVU22
 181:Middlewares/Third_Party/FreeRTOS/Source/event_groups.c **** 		{
 103              		.loc 1 181 5 is_stmt 0 view .LVU23
 104 0008 0446     		mov	r4, r0
 105 000a 20B1     		cbz	r0, .L6
 183:Middlewares/Third_Party/FreeRTOS/Source/event_groups.c **** 			vListInitialise( &( pxEventBits->xTasksWaitingForBits ) );
 106              		.loc 1 183 4 is_stmt 1 view .LVU24
 183:Middlewares/Third_Party/FreeRTOS/Source/event_groups.c **** 			vListInitialise( &( pxEventBits->xTasksWaitingForBits ) );
 107              		.loc 1 183 29 is_stmt 0 view .LVU25
 108 000c 0023     		movs	r3, #0
 109 000e 40F8043B 		str	r3, [r0], #4
 110              	.LVL9:
 184:Middlewares/Third_Party/FreeRTOS/Source/event_groups.c **** 
 111              		.loc 1 184 4 is_stmt 1 view .LVU26
 112 0012 FFF7FEFF 		bl	vListInitialise
 113              	.LVL10:
 195:Middlewares/Third_Party/FreeRTOS/Source/event_groups.c **** 		}
 114              		.loc 1 195 42 view .LVU27
 199:Middlewares/Third_Party/FreeRTOS/Source/event_groups.c **** 		}
 115              		.loc 1 199 36 view .LVU28
 202:Middlewares/Third_Party/FreeRTOS/Source/event_groups.c **** 	}
 116              		.loc 1 202 3 view .LVU29
 117              	.L6:
 203:Middlewares/Third_Party/FreeRTOS/Source/event_groups.c **** 
 118              		.loc 1 203 2 is_stmt 0 view .LVU30
 119 0016 2046     		mov	r0, r4
 120 0018 10BD     		pop	{r4, pc}
 203:Middlewares/Third_Party/FreeRTOS/Source/event_groups.c **** 
 121              		.loc 1 203 2 view .LVU31
 122              		.cfi_endproc
 123              	.LFE5:
 125              		.section	.text.xEventGroupWaitBits,"ax",%progbits
ARM GAS  C:\Users\Nina\AppData\Local\Temp\ccVMz8wR.s 			page 16


 126              		.align	1
 127              		.global	xEventGroupWaitBits
 128              		.syntax unified
 129              		.thumb
 130              		.thumb_func
 131              		.fpu fpv5-sp-d16
 133              	xEventGroupWaitBits:
 134              	.LVL11:
 135              	.LFB7:
 325:Middlewares/Third_Party/FreeRTOS/Source/event_groups.c **** EventGroup_t *pxEventBits = ( EventGroup_t * ) xEventGroup;
 136              		.loc 1 325 1 is_stmt 1 view -0
 137              		.cfi_startproc
 138              		@ args = 4, pretend = 0, frame = 0
 139              		@ frame_needed = 0, uses_anonymous_args = 0
 325:Middlewares/Third_Party/FreeRTOS/Source/event_groups.c **** EventGroup_t *pxEventBits = ( EventGroup_t * ) xEventGroup;
 140              		.loc 1 325 1 is_stmt 0 view .LVU33
 141 0000 2DE9F047 		push	{r4, r5, r6, r7, r8, r9, r10, lr}
 142              	.LCFI1:
 143              		.cfi_def_cfa_offset 32
 144              		.cfi_offset 4, -32
 145              		.cfi_offset 5, -28
 146              		.cfi_offset 6, -24
 147              		.cfi_offset 7, -20
 148              		.cfi_offset 8, -16
 149              		.cfi_offset 9, -12
 150              		.cfi_offset 10, -8
 151              		.cfi_offset 14, -4
 152 0004 DDF820A0 		ldr	r10, [sp, #32]
 326:Middlewares/Third_Party/FreeRTOS/Source/event_groups.c **** EventBits_t uxReturn, uxControlBits = 0;
 153              		.loc 1 326 1 is_stmt 1 view .LVU34
 154              	.LVL12:
 327:Middlewares/Third_Party/FreeRTOS/Source/event_groups.c **** BaseType_t xWaitConditionMet, xAlreadyYielded;
 155              		.loc 1 327 1 view .LVU35
 328:Middlewares/Third_Party/FreeRTOS/Source/event_groups.c **** BaseType_t xTimeoutOccurred = pdFALSE;
 156              		.loc 1 328 1 view .LVU36
 329:Middlewares/Third_Party/FreeRTOS/Source/event_groups.c **** 
 157              		.loc 1 329 1 view .LVU37
 333:Middlewares/Third_Party/FreeRTOS/Source/event_groups.c **** 	configASSERT( ( uxBitsToWaitFor & eventEVENT_BITS_CONTROL_BYTES ) == 0 );
 158              		.loc 1 333 2 view .LVU38
 159 0008 88B1     		cbz	r0, .L29
 160 000a 0D46     		mov	r5, r1
 161 000c 1746     		mov	r7, r2
 162 000e 9846     		mov	r8, r3
 163 0010 0646     		mov	r6, r0
 333:Middlewares/Third_Party/FreeRTOS/Source/event_groups.c **** 	configASSERT( ( uxBitsToWaitFor & eventEVENT_BITS_CONTROL_BYTES ) == 0 );
 164              		.loc 1 333 29 discriminator 2 view .LVU39
 334:Middlewares/Third_Party/FreeRTOS/Source/event_groups.c **** 	configASSERT( uxBitsToWaitFor != 0 );
 165              		.loc 1 334 2 discriminator 2 view .LVU40
 166 0012 11F07F49 		ands	r9, r1, #-16777216
 167 0016 15D0     		beq	.L12
 334:Middlewares/Third_Party/FreeRTOS/Source/event_groups.c **** 	configASSERT( uxBitsToWaitFor != 0 );
 168              		.loc 1 334 2 view .LVU41
 169              	.LBB31:
 170              	.LBI31:
 171              		.file 2 "Middlewares/Third_Party/FreeRTOS/Source/portable/GCC/ARM_CM7/r0p1/portmacro.h"
   1:Middlewares/Third_Party/FreeRTOS/Source/portable/GCC/ARM_CM7/r0p1/portmacro.h **** /*
   2:Middlewares/Third_Party/FreeRTOS/Source/portable/GCC/ARM_CM7/r0p1/portmacro.h ****     FreeRTOS V9.0.0 - Copyright (C) 2016 Real Time Engineers Ltd.
ARM GAS  C:\Users\Nina\AppData\Local\Temp\ccVMz8wR.s 			page 17


   3:Middlewares/Third_Party/FreeRTOS/Source/portable/GCC/ARM_CM7/r0p1/portmacro.h ****     All rights reserved
   4:Middlewares/Third_Party/FreeRTOS/Source/portable/GCC/ARM_CM7/r0p1/portmacro.h **** 
   5:Middlewares/Third_Party/FreeRTOS/Source/portable/GCC/ARM_CM7/r0p1/portmacro.h ****     VISIT http://www.FreeRTOS.org TO ENSURE YOU ARE USING THE LATEST VERSION.
   6:Middlewares/Third_Party/FreeRTOS/Source/portable/GCC/ARM_CM7/r0p1/portmacro.h **** 
   7:Middlewares/Third_Party/FreeRTOS/Source/portable/GCC/ARM_CM7/r0p1/portmacro.h ****     This file is part of the FreeRTOS distribution.
   8:Middlewares/Third_Party/FreeRTOS/Source/portable/GCC/ARM_CM7/r0p1/portmacro.h **** 
   9:Middlewares/Third_Party/FreeRTOS/Source/portable/GCC/ARM_CM7/r0p1/portmacro.h ****     FreeRTOS is free software; you can redistribute it and/or modify it under
  10:Middlewares/Third_Party/FreeRTOS/Source/portable/GCC/ARM_CM7/r0p1/portmacro.h ****     the terms of the GNU General Public License (version 2) as published by the
  11:Middlewares/Third_Party/FreeRTOS/Source/portable/GCC/ARM_CM7/r0p1/portmacro.h ****     Free Software Foundation >>>> AND MODIFIED BY <<<< the FreeRTOS exception.
  12:Middlewares/Third_Party/FreeRTOS/Source/portable/GCC/ARM_CM7/r0p1/portmacro.h **** 
  13:Middlewares/Third_Party/FreeRTOS/Source/portable/GCC/ARM_CM7/r0p1/portmacro.h ****     ***************************************************************************
  14:Middlewares/Third_Party/FreeRTOS/Source/portable/GCC/ARM_CM7/r0p1/portmacro.h ****     >>!   NOTE: The modification to the GPL is included to allow you to     !<<
  15:Middlewares/Third_Party/FreeRTOS/Source/portable/GCC/ARM_CM7/r0p1/portmacro.h ****     >>!   distribute a combined work that includes FreeRTOS without being   !<<
  16:Middlewares/Third_Party/FreeRTOS/Source/portable/GCC/ARM_CM7/r0p1/portmacro.h ****     >>!   obliged to provide the source code for proprietary components     !<<
  17:Middlewares/Third_Party/FreeRTOS/Source/portable/GCC/ARM_CM7/r0p1/portmacro.h ****     >>!   outside of the FreeRTOS kernel.                                   !<<
  18:Middlewares/Third_Party/FreeRTOS/Source/portable/GCC/ARM_CM7/r0p1/portmacro.h ****     ***************************************************************************
  19:Middlewares/Third_Party/FreeRTOS/Source/portable/GCC/ARM_CM7/r0p1/portmacro.h **** 
  20:Middlewares/Third_Party/FreeRTOS/Source/portable/GCC/ARM_CM7/r0p1/portmacro.h ****     FreeRTOS is distributed in the hope that it will be useful, but WITHOUT ANY
  21:Middlewares/Third_Party/FreeRTOS/Source/portable/GCC/ARM_CM7/r0p1/portmacro.h ****     WARRANTY; without even the implied warranty of MERCHANTABILITY or FITNESS
  22:Middlewares/Third_Party/FreeRTOS/Source/portable/GCC/ARM_CM7/r0p1/portmacro.h ****     FOR A PARTICULAR PURPOSE.  Full license text is available on the following
  23:Middlewares/Third_Party/FreeRTOS/Source/portable/GCC/ARM_CM7/r0p1/portmacro.h ****     link: http://www.freertos.org/a00114.html
  24:Middlewares/Third_Party/FreeRTOS/Source/portable/GCC/ARM_CM7/r0p1/portmacro.h **** 
  25:Middlewares/Third_Party/FreeRTOS/Source/portable/GCC/ARM_CM7/r0p1/portmacro.h ****     ***************************************************************************
  26:Middlewares/Third_Party/FreeRTOS/Source/portable/GCC/ARM_CM7/r0p1/portmacro.h ****      *                                                                       *
  27:Middlewares/Third_Party/FreeRTOS/Source/portable/GCC/ARM_CM7/r0p1/portmacro.h ****      *    FreeRTOS provides completely free yet professionally developed,    *
  28:Middlewares/Third_Party/FreeRTOS/Source/portable/GCC/ARM_CM7/r0p1/portmacro.h ****      *    robust, strictly quality controlled, supported, and cross          *
  29:Middlewares/Third_Party/FreeRTOS/Source/portable/GCC/ARM_CM7/r0p1/portmacro.h ****      *    platform software that is more than just the market leader, it     *
  30:Middlewares/Third_Party/FreeRTOS/Source/portable/GCC/ARM_CM7/r0p1/portmacro.h ****      *    is the industry's de facto standard.                               *
  31:Middlewares/Third_Party/FreeRTOS/Source/portable/GCC/ARM_CM7/r0p1/portmacro.h ****      *                                                                       *
  32:Middlewares/Third_Party/FreeRTOS/Source/portable/GCC/ARM_CM7/r0p1/portmacro.h ****      *    Help yourself get started quickly while simultaneously helping     *
  33:Middlewares/Third_Party/FreeRTOS/Source/portable/GCC/ARM_CM7/r0p1/portmacro.h ****      *    to support the FreeRTOS project by purchasing a FreeRTOS           *
  34:Middlewares/Third_Party/FreeRTOS/Source/portable/GCC/ARM_CM7/r0p1/portmacro.h ****      *    tutorial book, reference manual, or both:                          *
  35:Middlewares/Third_Party/FreeRTOS/Source/portable/GCC/ARM_CM7/r0p1/portmacro.h ****      *    http://www.FreeRTOS.org/Documentation                              *
  36:Middlewares/Third_Party/FreeRTOS/Source/portable/GCC/ARM_CM7/r0p1/portmacro.h ****      *                                                                       *
  37:Middlewares/Third_Party/FreeRTOS/Source/portable/GCC/ARM_CM7/r0p1/portmacro.h ****     ***************************************************************************
  38:Middlewares/Third_Party/FreeRTOS/Source/portable/GCC/ARM_CM7/r0p1/portmacro.h **** 
  39:Middlewares/Third_Party/FreeRTOS/Source/portable/GCC/ARM_CM7/r0p1/portmacro.h ****     http://www.FreeRTOS.org/FAQHelp.html - Having a problem?  Start by reading
  40:Middlewares/Third_Party/FreeRTOS/Source/portable/GCC/ARM_CM7/r0p1/portmacro.h ****     the FAQ page "My application does not run, what could be wrong?".  Have you
  41:Middlewares/Third_Party/FreeRTOS/Source/portable/GCC/ARM_CM7/r0p1/portmacro.h ****     defined configASSERT()?
  42:Middlewares/Third_Party/FreeRTOS/Source/portable/GCC/ARM_CM7/r0p1/portmacro.h **** 
  43:Middlewares/Third_Party/FreeRTOS/Source/portable/GCC/ARM_CM7/r0p1/portmacro.h ****     http://www.FreeRTOS.org/support - In return for receiving this top quality
  44:Middlewares/Third_Party/FreeRTOS/Source/portable/GCC/ARM_CM7/r0p1/portmacro.h ****     embedded software for free we request you assist our global community by
  45:Middlewares/Third_Party/FreeRTOS/Source/portable/GCC/ARM_CM7/r0p1/portmacro.h ****     participating in the support forum.
  46:Middlewares/Third_Party/FreeRTOS/Source/portable/GCC/ARM_CM7/r0p1/portmacro.h **** 
  47:Middlewares/Third_Party/FreeRTOS/Source/portable/GCC/ARM_CM7/r0p1/portmacro.h ****     http://www.FreeRTOS.org/training - Investing in training allows your team to
  48:Middlewares/Third_Party/FreeRTOS/Source/portable/GCC/ARM_CM7/r0p1/portmacro.h ****     be as productive as possible as early as possible.  Now you can receive
  49:Middlewares/Third_Party/FreeRTOS/Source/portable/GCC/ARM_CM7/r0p1/portmacro.h ****     FreeRTOS training directly from Richard Barry, CEO of Real Time Engineers
  50:Middlewares/Third_Party/FreeRTOS/Source/portable/GCC/ARM_CM7/r0p1/portmacro.h ****     Ltd, and the world's leading authority on the world's leading RTOS.
  51:Middlewares/Third_Party/FreeRTOS/Source/portable/GCC/ARM_CM7/r0p1/portmacro.h **** 
  52:Middlewares/Third_Party/FreeRTOS/Source/portable/GCC/ARM_CM7/r0p1/portmacro.h ****     http://www.FreeRTOS.org/plus - A selection of FreeRTOS ecosystem products,
  53:Middlewares/Third_Party/FreeRTOS/Source/portable/GCC/ARM_CM7/r0p1/portmacro.h ****     including FreeRTOS+Trace - an indispensable productivity tool, a DOS
  54:Middlewares/Third_Party/FreeRTOS/Source/portable/GCC/ARM_CM7/r0p1/portmacro.h ****     compatible FAT file system, and our tiny thread aware UDP/IP stack.
  55:Middlewares/Third_Party/FreeRTOS/Source/portable/GCC/ARM_CM7/r0p1/portmacro.h **** 
  56:Middlewares/Third_Party/FreeRTOS/Source/portable/GCC/ARM_CM7/r0p1/portmacro.h ****     http://www.FreeRTOS.org/labs - Where new FreeRTOS products go to incubate.
  57:Middlewares/Third_Party/FreeRTOS/Source/portable/GCC/ARM_CM7/r0p1/portmacro.h ****     Come and try FreeRTOS+TCP, our new open source TCP/IP stack for FreeRTOS.
  58:Middlewares/Third_Party/FreeRTOS/Source/portable/GCC/ARM_CM7/r0p1/portmacro.h **** 
  59:Middlewares/Third_Party/FreeRTOS/Source/portable/GCC/ARM_CM7/r0p1/portmacro.h ****     http://www.OpenRTOS.com - Real Time Engineers ltd. license FreeRTOS to High
ARM GAS  C:\Users\Nina\AppData\Local\Temp\ccVMz8wR.s 			page 18


  60:Middlewares/Third_Party/FreeRTOS/Source/portable/GCC/ARM_CM7/r0p1/portmacro.h ****     Integrity Systems ltd. to sell under the OpenRTOS brand.  Low cost OpenRTOS
  61:Middlewares/Third_Party/FreeRTOS/Source/portable/GCC/ARM_CM7/r0p1/portmacro.h ****     licenses offer ticketed support, indemnification and commercial middleware.
  62:Middlewares/Third_Party/FreeRTOS/Source/portable/GCC/ARM_CM7/r0p1/portmacro.h **** 
  63:Middlewares/Third_Party/FreeRTOS/Source/portable/GCC/ARM_CM7/r0p1/portmacro.h ****     http://www.SafeRTOS.com - High Integrity Systems also provide a safety
  64:Middlewares/Third_Party/FreeRTOS/Source/portable/GCC/ARM_CM7/r0p1/portmacro.h ****     engineered and independently SIL3 certified version for use in safety and
  65:Middlewares/Third_Party/FreeRTOS/Source/portable/GCC/ARM_CM7/r0p1/portmacro.h ****     mission critical applications that require provable dependability.
  66:Middlewares/Third_Party/FreeRTOS/Source/portable/GCC/ARM_CM7/r0p1/portmacro.h **** 
  67:Middlewares/Third_Party/FreeRTOS/Source/portable/GCC/ARM_CM7/r0p1/portmacro.h ****     1 tab == 4 spaces!
  68:Middlewares/Third_Party/FreeRTOS/Source/portable/GCC/ARM_CM7/r0p1/portmacro.h **** */
  69:Middlewares/Third_Party/FreeRTOS/Source/portable/GCC/ARM_CM7/r0p1/portmacro.h **** 
  70:Middlewares/Third_Party/FreeRTOS/Source/portable/GCC/ARM_CM7/r0p1/portmacro.h **** 
  71:Middlewares/Third_Party/FreeRTOS/Source/portable/GCC/ARM_CM7/r0p1/portmacro.h **** #ifndef PORTMACRO_H
  72:Middlewares/Third_Party/FreeRTOS/Source/portable/GCC/ARM_CM7/r0p1/portmacro.h **** #define PORTMACRO_H
  73:Middlewares/Third_Party/FreeRTOS/Source/portable/GCC/ARM_CM7/r0p1/portmacro.h **** 
  74:Middlewares/Third_Party/FreeRTOS/Source/portable/GCC/ARM_CM7/r0p1/portmacro.h **** #ifdef __cplusplus
  75:Middlewares/Third_Party/FreeRTOS/Source/portable/GCC/ARM_CM7/r0p1/portmacro.h **** extern "C" {
  76:Middlewares/Third_Party/FreeRTOS/Source/portable/GCC/ARM_CM7/r0p1/portmacro.h **** #endif
  77:Middlewares/Third_Party/FreeRTOS/Source/portable/GCC/ARM_CM7/r0p1/portmacro.h **** 
  78:Middlewares/Third_Party/FreeRTOS/Source/portable/GCC/ARM_CM7/r0p1/portmacro.h **** /*-----------------------------------------------------------
  79:Middlewares/Third_Party/FreeRTOS/Source/portable/GCC/ARM_CM7/r0p1/portmacro.h ****  * Port specific definitions.
  80:Middlewares/Third_Party/FreeRTOS/Source/portable/GCC/ARM_CM7/r0p1/portmacro.h ****  *
  81:Middlewares/Third_Party/FreeRTOS/Source/portable/GCC/ARM_CM7/r0p1/portmacro.h ****  * The settings in this file configure FreeRTOS correctly for the
  82:Middlewares/Third_Party/FreeRTOS/Source/portable/GCC/ARM_CM7/r0p1/portmacro.h ****  * given hardware and compiler.
  83:Middlewares/Third_Party/FreeRTOS/Source/portable/GCC/ARM_CM7/r0p1/portmacro.h ****  *
  84:Middlewares/Third_Party/FreeRTOS/Source/portable/GCC/ARM_CM7/r0p1/portmacro.h ****  * These settings should not be altered.
  85:Middlewares/Third_Party/FreeRTOS/Source/portable/GCC/ARM_CM7/r0p1/portmacro.h ****  *-----------------------------------------------------------
  86:Middlewares/Third_Party/FreeRTOS/Source/portable/GCC/ARM_CM7/r0p1/portmacro.h ****  */
  87:Middlewares/Third_Party/FreeRTOS/Source/portable/GCC/ARM_CM7/r0p1/portmacro.h **** 
  88:Middlewares/Third_Party/FreeRTOS/Source/portable/GCC/ARM_CM7/r0p1/portmacro.h **** /* Type definitions. */
  89:Middlewares/Third_Party/FreeRTOS/Source/portable/GCC/ARM_CM7/r0p1/portmacro.h **** #define portCHAR		char
  90:Middlewares/Third_Party/FreeRTOS/Source/portable/GCC/ARM_CM7/r0p1/portmacro.h **** #define portFLOAT		float
  91:Middlewares/Third_Party/FreeRTOS/Source/portable/GCC/ARM_CM7/r0p1/portmacro.h **** #define portDOUBLE		double
  92:Middlewares/Third_Party/FreeRTOS/Source/portable/GCC/ARM_CM7/r0p1/portmacro.h **** #define portLONG		long
  93:Middlewares/Third_Party/FreeRTOS/Source/portable/GCC/ARM_CM7/r0p1/portmacro.h **** #define portSHORT		short
  94:Middlewares/Third_Party/FreeRTOS/Source/portable/GCC/ARM_CM7/r0p1/portmacro.h **** #define portSTACK_TYPE	uint32_t
  95:Middlewares/Third_Party/FreeRTOS/Source/portable/GCC/ARM_CM7/r0p1/portmacro.h **** #define portBASE_TYPE	long
  96:Middlewares/Third_Party/FreeRTOS/Source/portable/GCC/ARM_CM7/r0p1/portmacro.h **** 
  97:Middlewares/Third_Party/FreeRTOS/Source/portable/GCC/ARM_CM7/r0p1/portmacro.h **** typedef portSTACK_TYPE StackType_t;
  98:Middlewares/Third_Party/FreeRTOS/Source/portable/GCC/ARM_CM7/r0p1/portmacro.h **** typedef long BaseType_t;
  99:Middlewares/Third_Party/FreeRTOS/Source/portable/GCC/ARM_CM7/r0p1/portmacro.h **** typedef unsigned long UBaseType_t;
 100:Middlewares/Third_Party/FreeRTOS/Source/portable/GCC/ARM_CM7/r0p1/portmacro.h **** 
 101:Middlewares/Third_Party/FreeRTOS/Source/portable/GCC/ARM_CM7/r0p1/portmacro.h **** #if( configUSE_16_BIT_TICKS == 1 )
 102:Middlewares/Third_Party/FreeRTOS/Source/portable/GCC/ARM_CM7/r0p1/portmacro.h **** 	typedef uint16_t TickType_t;
 103:Middlewares/Third_Party/FreeRTOS/Source/portable/GCC/ARM_CM7/r0p1/portmacro.h **** 	#define portMAX_DELAY ( TickType_t ) 0xffff
 104:Middlewares/Third_Party/FreeRTOS/Source/portable/GCC/ARM_CM7/r0p1/portmacro.h **** #else
 105:Middlewares/Third_Party/FreeRTOS/Source/portable/GCC/ARM_CM7/r0p1/portmacro.h **** 	typedef uint32_t TickType_t;
 106:Middlewares/Third_Party/FreeRTOS/Source/portable/GCC/ARM_CM7/r0p1/portmacro.h **** 	#define portMAX_DELAY ( TickType_t ) 0xffffffffUL
 107:Middlewares/Third_Party/FreeRTOS/Source/portable/GCC/ARM_CM7/r0p1/portmacro.h **** 
 108:Middlewares/Third_Party/FreeRTOS/Source/portable/GCC/ARM_CM7/r0p1/portmacro.h **** 	/* 32-bit tick type on a 32-bit architecture, so reads of the tick count do
 109:Middlewares/Third_Party/FreeRTOS/Source/portable/GCC/ARM_CM7/r0p1/portmacro.h **** 	not need to be guarded with a critical section. */
 110:Middlewares/Third_Party/FreeRTOS/Source/portable/GCC/ARM_CM7/r0p1/portmacro.h **** 	#define portTICK_TYPE_IS_ATOMIC 1
 111:Middlewares/Third_Party/FreeRTOS/Source/portable/GCC/ARM_CM7/r0p1/portmacro.h **** #endif
 112:Middlewares/Third_Party/FreeRTOS/Source/portable/GCC/ARM_CM7/r0p1/portmacro.h **** /*-----------------------------------------------------------*/
 113:Middlewares/Third_Party/FreeRTOS/Source/portable/GCC/ARM_CM7/r0p1/portmacro.h **** 
 114:Middlewares/Third_Party/FreeRTOS/Source/portable/GCC/ARM_CM7/r0p1/portmacro.h **** /* Architecture specifics. */
 115:Middlewares/Third_Party/FreeRTOS/Source/portable/GCC/ARM_CM7/r0p1/portmacro.h **** #define portSTACK_GROWTH			( -1 )
 116:Middlewares/Third_Party/FreeRTOS/Source/portable/GCC/ARM_CM7/r0p1/portmacro.h **** #define portTICK_PERIOD_MS			( ( TickType_t ) 1000 / configTICK_RATE_HZ )
ARM GAS  C:\Users\Nina\AppData\Local\Temp\ccVMz8wR.s 			page 19


 117:Middlewares/Third_Party/FreeRTOS/Source/portable/GCC/ARM_CM7/r0p1/portmacro.h **** #define portBYTE_ALIGNMENT			8
 118:Middlewares/Third_Party/FreeRTOS/Source/portable/GCC/ARM_CM7/r0p1/portmacro.h **** /*-----------------------------------------------------------*/
 119:Middlewares/Third_Party/FreeRTOS/Source/portable/GCC/ARM_CM7/r0p1/portmacro.h **** 
 120:Middlewares/Third_Party/FreeRTOS/Source/portable/GCC/ARM_CM7/r0p1/portmacro.h **** /* Scheduler utilities. */
 121:Middlewares/Third_Party/FreeRTOS/Source/portable/GCC/ARM_CM7/r0p1/portmacro.h **** #define portYIELD() 															\
 122:Middlewares/Third_Party/FreeRTOS/Source/portable/GCC/ARM_CM7/r0p1/portmacro.h **** {																				\
 123:Middlewares/Third_Party/FreeRTOS/Source/portable/GCC/ARM_CM7/r0p1/portmacro.h **** 	/* Set a PendSV to request a context switch. */								\
 124:Middlewares/Third_Party/FreeRTOS/Source/portable/GCC/ARM_CM7/r0p1/portmacro.h **** 	portNVIC_INT_CTRL_REG = portNVIC_PENDSVSET_BIT;								\
 125:Middlewares/Third_Party/FreeRTOS/Source/portable/GCC/ARM_CM7/r0p1/portmacro.h **** 																				\
 126:Middlewares/Third_Party/FreeRTOS/Source/portable/GCC/ARM_CM7/r0p1/portmacro.h **** 	/* Barriers are normally not required but do ensure the code is completely	\
 127:Middlewares/Third_Party/FreeRTOS/Source/portable/GCC/ARM_CM7/r0p1/portmacro.h **** 	within the specified behaviour for the architecture. */						\
 128:Middlewares/Third_Party/FreeRTOS/Source/portable/GCC/ARM_CM7/r0p1/portmacro.h **** 	__asm volatile( "dsb" );													\
 129:Middlewares/Third_Party/FreeRTOS/Source/portable/GCC/ARM_CM7/r0p1/portmacro.h **** 	__asm volatile( "isb" );													\
 130:Middlewares/Third_Party/FreeRTOS/Source/portable/GCC/ARM_CM7/r0p1/portmacro.h **** }
 131:Middlewares/Third_Party/FreeRTOS/Source/portable/GCC/ARM_CM7/r0p1/portmacro.h **** 
 132:Middlewares/Third_Party/FreeRTOS/Source/portable/GCC/ARM_CM7/r0p1/portmacro.h **** #define portNVIC_INT_CTRL_REG		( * ( ( volatile uint32_t * ) 0xe000ed04 ) )
 133:Middlewares/Third_Party/FreeRTOS/Source/portable/GCC/ARM_CM7/r0p1/portmacro.h **** #define portNVIC_PENDSVSET_BIT		( 1UL << 28UL )
 134:Middlewares/Third_Party/FreeRTOS/Source/portable/GCC/ARM_CM7/r0p1/portmacro.h **** #define portEND_SWITCHING_ISR( xSwitchRequired ) if( xSwitchRequired != pdFALSE ) portYIELD()
 135:Middlewares/Third_Party/FreeRTOS/Source/portable/GCC/ARM_CM7/r0p1/portmacro.h **** #define portYIELD_FROM_ISR( x ) portEND_SWITCHING_ISR( x )
 136:Middlewares/Third_Party/FreeRTOS/Source/portable/GCC/ARM_CM7/r0p1/portmacro.h **** /*-----------------------------------------------------------*/
 137:Middlewares/Third_Party/FreeRTOS/Source/portable/GCC/ARM_CM7/r0p1/portmacro.h **** 
 138:Middlewares/Third_Party/FreeRTOS/Source/portable/GCC/ARM_CM7/r0p1/portmacro.h **** /* Critical section management. */
 139:Middlewares/Third_Party/FreeRTOS/Source/portable/GCC/ARM_CM7/r0p1/portmacro.h **** extern void vPortEnterCritical( void );
 140:Middlewares/Third_Party/FreeRTOS/Source/portable/GCC/ARM_CM7/r0p1/portmacro.h **** extern void vPortExitCritical( void );
 141:Middlewares/Third_Party/FreeRTOS/Source/portable/GCC/ARM_CM7/r0p1/portmacro.h **** #define portSET_INTERRUPT_MASK_FROM_ISR()		ulPortRaiseBASEPRI()
 142:Middlewares/Third_Party/FreeRTOS/Source/portable/GCC/ARM_CM7/r0p1/portmacro.h **** #define portCLEAR_INTERRUPT_MASK_FROM_ISR(x)	vPortSetBASEPRI(x)
 143:Middlewares/Third_Party/FreeRTOS/Source/portable/GCC/ARM_CM7/r0p1/portmacro.h **** #define portDISABLE_INTERRUPTS()				vPortRaiseBASEPRI()
 144:Middlewares/Third_Party/FreeRTOS/Source/portable/GCC/ARM_CM7/r0p1/portmacro.h **** #define portENABLE_INTERRUPTS()					vPortSetBASEPRI(0)
 145:Middlewares/Third_Party/FreeRTOS/Source/portable/GCC/ARM_CM7/r0p1/portmacro.h **** #define portENTER_CRITICAL()					vPortEnterCritical()
 146:Middlewares/Third_Party/FreeRTOS/Source/portable/GCC/ARM_CM7/r0p1/portmacro.h **** #define portEXIT_CRITICAL()						vPortExitCritical()
 147:Middlewares/Third_Party/FreeRTOS/Source/portable/GCC/ARM_CM7/r0p1/portmacro.h **** 
 148:Middlewares/Third_Party/FreeRTOS/Source/portable/GCC/ARM_CM7/r0p1/portmacro.h **** /*-----------------------------------------------------------*/
 149:Middlewares/Third_Party/FreeRTOS/Source/portable/GCC/ARM_CM7/r0p1/portmacro.h **** 
 150:Middlewares/Third_Party/FreeRTOS/Source/portable/GCC/ARM_CM7/r0p1/portmacro.h **** /* Task function macros as described on the FreeRTOS.org WEB site.  These are
 151:Middlewares/Third_Party/FreeRTOS/Source/portable/GCC/ARM_CM7/r0p1/portmacro.h **** not necessary for to use this port.  They are defined so the common demo files
 152:Middlewares/Third_Party/FreeRTOS/Source/portable/GCC/ARM_CM7/r0p1/portmacro.h **** (which build with all the ports) will build. */
 153:Middlewares/Third_Party/FreeRTOS/Source/portable/GCC/ARM_CM7/r0p1/portmacro.h **** #define portTASK_FUNCTION_PROTO( vFunction, pvParameters ) void vFunction( void *pvParameters )
 154:Middlewares/Third_Party/FreeRTOS/Source/portable/GCC/ARM_CM7/r0p1/portmacro.h **** #define portTASK_FUNCTION( vFunction, pvParameters ) void vFunction( void *pvParameters )
 155:Middlewares/Third_Party/FreeRTOS/Source/portable/GCC/ARM_CM7/r0p1/portmacro.h **** /*-----------------------------------------------------------*/
 156:Middlewares/Third_Party/FreeRTOS/Source/portable/GCC/ARM_CM7/r0p1/portmacro.h **** 
 157:Middlewares/Third_Party/FreeRTOS/Source/portable/GCC/ARM_CM7/r0p1/portmacro.h **** /* Tickless idle/low power functionality. */
 158:Middlewares/Third_Party/FreeRTOS/Source/portable/GCC/ARM_CM7/r0p1/portmacro.h **** #ifndef portSUPPRESS_TICKS_AND_SLEEP
 159:Middlewares/Third_Party/FreeRTOS/Source/portable/GCC/ARM_CM7/r0p1/portmacro.h **** 	extern void vPortSuppressTicksAndSleep( TickType_t xExpectedIdleTime );
 160:Middlewares/Third_Party/FreeRTOS/Source/portable/GCC/ARM_CM7/r0p1/portmacro.h **** 	#define portSUPPRESS_TICKS_AND_SLEEP( xExpectedIdleTime ) vPortSuppressTicksAndSleep( xExpectedIdl
 161:Middlewares/Third_Party/FreeRTOS/Source/portable/GCC/ARM_CM7/r0p1/portmacro.h **** #endif
 162:Middlewares/Third_Party/FreeRTOS/Source/portable/GCC/ARM_CM7/r0p1/portmacro.h **** /*-----------------------------------------------------------*/
 163:Middlewares/Third_Party/FreeRTOS/Source/portable/GCC/ARM_CM7/r0p1/portmacro.h **** 
 164:Middlewares/Third_Party/FreeRTOS/Source/portable/GCC/ARM_CM7/r0p1/portmacro.h **** /* Architecture specific optimisations. */
 165:Middlewares/Third_Party/FreeRTOS/Source/portable/GCC/ARM_CM7/r0p1/portmacro.h **** #ifndef configUSE_PORT_OPTIMISED_TASK_SELECTION
 166:Middlewares/Third_Party/FreeRTOS/Source/portable/GCC/ARM_CM7/r0p1/portmacro.h **** 	#define configUSE_PORT_OPTIMISED_TASK_SELECTION 1
 167:Middlewares/Third_Party/FreeRTOS/Source/portable/GCC/ARM_CM7/r0p1/portmacro.h **** #endif
 168:Middlewares/Third_Party/FreeRTOS/Source/portable/GCC/ARM_CM7/r0p1/portmacro.h **** 
 169:Middlewares/Third_Party/FreeRTOS/Source/portable/GCC/ARM_CM7/r0p1/portmacro.h **** #if configUSE_PORT_OPTIMISED_TASK_SELECTION == 1
 170:Middlewares/Third_Party/FreeRTOS/Source/portable/GCC/ARM_CM7/r0p1/portmacro.h **** 
 171:Middlewares/Third_Party/FreeRTOS/Source/portable/GCC/ARM_CM7/r0p1/portmacro.h **** 	/* Generic helper function. */
 172:Middlewares/Third_Party/FreeRTOS/Source/portable/GCC/ARM_CM7/r0p1/portmacro.h **** 	__attribute__( ( always_inline ) ) static inline uint8_t ucPortCountLeadingZeros( uint32_t ulBitma
 173:Middlewares/Third_Party/FreeRTOS/Source/portable/GCC/ARM_CM7/r0p1/portmacro.h **** 	{
ARM GAS  C:\Users\Nina\AppData\Local\Temp\ccVMz8wR.s 			page 20


 174:Middlewares/Third_Party/FreeRTOS/Source/portable/GCC/ARM_CM7/r0p1/portmacro.h **** 	uint8_t ucReturn;
 175:Middlewares/Third_Party/FreeRTOS/Source/portable/GCC/ARM_CM7/r0p1/portmacro.h **** 
 176:Middlewares/Third_Party/FreeRTOS/Source/portable/GCC/ARM_CM7/r0p1/portmacro.h **** 		__asm volatile ( "clz %0, %1" : "=r" ( ucReturn ) : "r" ( ulBitmap ) );
 177:Middlewares/Third_Party/FreeRTOS/Source/portable/GCC/ARM_CM7/r0p1/portmacro.h **** 		return ucReturn;
 178:Middlewares/Third_Party/FreeRTOS/Source/portable/GCC/ARM_CM7/r0p1/portmacro.h **** 	}
 179:Middlewares/Third_Party/FreeRTOS/Source/portable/GCC/ARM_CM7/r0p1/portmacro.h **** 
 180:Middlewares/Third_Party/FreeRTOS/Source/portable/GCC/ARM_CM7/r0p1/portmacro.h **** 	/* Check the configuration. */
 181:Middlewares/Third_Party/FreeRTOS/Source/portable/GCC/ARM_CM7/r0p1/portmacro.h **** 	#if( configMAX_PRIORITIES > 32 )
 182:Middlewares/Third_Party/FreeRTOS/Source/portable/GCC/ARM_CM7/r0p1/portmacro.h **** 		#error configUSE_PORT_OPTIMISED_TASK_SELECTION can only be set to 1 when configMAX_PRIORITIES is 
 183:Middlewares/Third_Party/FreeRTOS/Source/portable/GCC/ARM_CM7/r0p1/portmacro.h **** 	#endif
 184:Middlewares/Third_Party/FreeRTOS/Source/portable/GCC/ARM_CM7/r0p1/portmacro.h **** 
 185:Middlewares/Third_Party/FreeRTOS/Source/portable/GCC/ARM_CM7/r0p1/portmacro.h **** 	/* Store/clear the ready priorities in a bit map. */
 186:Middlewares/Third_Party/FreeRTOS/Source/portable/GCC/ARM_CM7/r0p1/portmacro.h **** 	#define portRECORD_READY_PRIORITY( uxPriority, uxReadyPriorities ) ( uxReadyPriorities ) |= ( 1UL 
 187:Middlewares/Third_Party/FreeRTOS/Source/portable/GCC/ARM_CM7/r0p1/portmacro.h **** 	#define portRESET_READY_PRIORITY( uxPriority, uxReadyPriorities ) ( uxReadyPriorities ) &= ~( 1UL 
 188:Middlewares/Third_Party/FreeRTOS/Source/portable/GCC/ARM_CM7/r0p1/portmacro.h **** 
 189:Middlewares/Third_Party/FreeRTOS/Source/portable/GCC/ARM_CM7/r0p1/portmacro.h **** 	/*-----------------------------------------------------------*/
 190:Middlewares/Third_Party/FreeRTOS/Source/portable/GCC/ARM_CM7/r0p1/portmacro.h **** 
 191:Middlewares/Third_Party/FreeRTOS/Source/portable/GCC/ARM_CM7/r0p1/portmacro.h **** 	#define portGET_HIGHEST_PRIORITY( uxTopPriority, uxReadyPriorities ) uxTopPriority = ( 31UL - ( ui
 192:Middlewares/Third_Party/FreeRTOS/Source/portable/GCC/ARM_CM7/r0p1/portmacro.h **** 
 193:Middlewares/Third_Party/FreeRTOS/Source/portable/GCC/ARM_CM7/r0p1/portmacro.h **** #endif /* configUSE_PORT_OPTIMISED_TASK_SELECTION */
 194:Middlewares/Third_Party/FreeRTOS/Source/portable/GCC/ARM_CM7/r0p1/portmacro.h **** 
 195:Middlewares/Third_Party/FreeRTOS/Source/portable/GCC/ARM_CM7/r0p1/portmacro.h **** /*-----------------------------------------------------------*/
 196:Middlewares/Third_Party/FreeRTOS/Source/portable/GCC/ARM_CM7/r0p1/portmacro.h **** 
 197:Middlewares/Third_Party/FreeRTOS/Source/portable/GCC/ARM_CM7/r0p1/portmacro.h **** #ifdef configASSERT
 198:Middlewares/Third_Party/FreeRTOS/Source/portable/GCC/ARM_CM7/r0p1/portmacro.h **** 	void vPortValidateInterruptPriority( void );
 199:Middlewares/Third_Party/FreeRTOS/Source/portable/GCC/ARM_CM7/r0p1/portmacro.h **** 	#define portASSERT_IF_INTERRUPT_PRIORITY_INVALID() 	vPortValidateInterruptPriority()
 200:Middlewares/Third_Party/FreeRTOS/Source/portable/GCC/ARM_CM7/r0p1/portmacro.h **** #endif
 201:Middlewares/Third_Party/FreeRTOS/Source/portable/GCC/ARM_CM7/r0p1/portmacro.h **** 
 202:Middlewares/Third_Party/FreeRTOS/Source/portable/GCC/ARM_CM7/r0p1/portmacro.h **** /* portNOP() is not required by this port. */
 203:Middlewares/Third_Party/FreeRTOS/Source/portable/GCC/ARM_CM7/r0p1/portmacro.h **** #define portNOP()
 204:Middlewares/Third_Party/FreeRTOS/Source/portable/GCC/ARM_CM7/r0p1/portmacro.h **** 
 205:Middlewares/Third_Party/FreeRTOS/Source/portable/GCC/ARM_CM7/r0p1/portmacro.h **** #define portINLINE	__inline
 206:Middlewares/Third_Party/FreeRTOS/Source/portable/GCC/ARM_CM7/r0p1/portmacro.h **** 
 207:Middlewares/Third_Party/FreeRTOS/Source/portable/GCC/ARM_CM7/r0p1/portmacro.h **** #ifndef portFORCE_INLINE
 208:Middlewares/Third_Party/FreeRTOS/Source/portable/GCC/ARM_CM7/r0p1/portmacro.h **** 	#define portFORCE_INLINE inline __attribute__(( always_inline))
 209:Middlewares/Third_Party/FreeRTOS/Source/portable/GCC/ARM_CM7/r0p1/portmacro.h **** #endif
 210:Middlewares/Third_Party/FreeRTOS/Source/portable/GCC/ARM_CM7/r0p1/portmacro.h **** 
 211:Middlewares/Third_Party/FreeRTOS/Source/portable/GCC/ARM_CM7/r0p1/portmacro.h **** portFORCE_INLINE static BaseType_t xPortIsInsideInterrupt( void )
 212:Middlewares/Third_Party/FreeRTOS/Source/portable/GCC/ARM_CM7/r0p1/portmacro.h **** {
 213:Middlewares/Third_Party/FreeRTOS/Source/portable/GCC/ARM_CM7/r0p1/portmacro.h **** uint32_t ulCurrentInterrupt;
 214:Middlewares/Third_Party/FreeRTOS/Source/portable/GCC/ARM_CM7/r0p1/portmacro.h **** BaseType_t xReturn;
 215:Middlewares/Third_Party/FreeRTOS/Source/portable/GCC/ARM_CM7/r0p1/portmacro.h **** 
 216:Middlewares/Third_Party/FreeRTOS/Source/portable/GCC/ARM_CM7/r0p1/portmacro.h **** 	/* Obtain the number of the currently executing interrupt. */
 217:Middlewares/Third_Party/FreeRTOS/Source/portable/GCC/ARM_CM7/r0p1/portmacro.h **** 	__asm volatile( "mrs %0, ipsr" : "=r"( ulCurrentInterrupt ) );
 218:Middlewares/Third_Party/FreeRTOS/Source/portable/GCC/ARM_CM7/r0p1/portmacro.h **** 
 219:Middlewares/Third_Party/FreeRTOS/Source/portable/GCC/ARM_CM7/r0p1/portmacro.h **** 	if( ulCurrentInterrupt == 0 )
 220:Middlewares/Third_Party/FreeRTOS/Source/portable/GCC/ARM_CM7/r0p1/portmacro.h **** 	{
 221:Middlewares/Third_Party/FreeRTOS/Source/portable/GCC/ARM_CM7/r0p1/portmacro.h **** 		xReturn = pdFALSE;
 222:Middlewares/Third_Party/FreeRTOS/Source/portable/GCC/ARM_CM7/r0p1/portmacro.h **** 	}
 223:Middlewares/Third_Party/FreeRTOS/Source/portable/GCC/ARM_CM7/r0p1/portmacro.h **** 	else
 224:Middlewares/Third_Party/FreeRTOS/Source/portable/GCC/ARM_CM7/r0p1/portmacro.h **** 	{
 225:Middlewares/Third_Party/FreeRTOS/Source/portable/GCC/ARM_CM7/r0p1/portmacro.h **** 		xReturn = pdTRUE;
 226:Middlewares/Third_Party/FreeRTOS/Source/portable/GCC/ARM_CM7/r0p1/portmacro.h **** 	}
 227:Middlewares/Third_Party/FreeRTOS/Source/portable/GCC/ARM_CM7/r0p1/portmacro.h **** 
 228:Middlewares/Third_Party/FreeRTOS/Source/portable/GCC/ARM_CM7/r0p1/portmacro.h **** 	return xReturn;
 229:Middlewares/Third_Party/FreeRTOS/Source/portable/GCC/ARM_CM7/r0p1/portmacro.h **** }
 230:Middlewares/Third_Party/FreeRTOS/Source/portable/GCC/ARM_CM7/r0p1/portmacro.h **** 
ARM GAS  C:\Users\Nina\AppData\Local\Temp\ccVMz8wR.s 			page 21


 231:Middlewares/Third_Party/FreeRTOS/Source/portable/GCC/ARM_CM7/r0p1/portmacro.h **** /*-----------------------------------------------------------*/
 232:Middlewares/Third_Party/FreeRTOS/Source/portable/GCC/ARM_CM7/r0p1/portmacro.h **** 
 233:Middlewares/Third_Party/FreeRTOS/Source/portable/GCC/ARM_CM7/r0p1/portmacro.h **** portFORCE_INLINE static void vPortRaiseBASEPRI( void )
 172              		.loc 2 233 30 view .LVU42
 173              	.LBB32:
 234:Middlewares/Third_Party/FreeRTOS/Source/portable/GCC/ARM_CM7/r0p1/portmacro.h **** {
 235:Middlewares/Third_Party/FreeRTOS/Source/portable/GCC/ARM_CM7/r0p1/portmacro.h **** uint32_t ulNewBASEPRI;
 174              		.loc 2 235 1 view .LVU43
 236:Middlewares/Third_Party/FreeRTOS/Source/portable/GCC/ARM_CM7/r0p1/portmacro.h **** 
 237:Middlewares/Third_Party/FreeRTOS/Source/portable/GCC/ARM_CM7/r0p1/portmacro.h **** 	__asm volatile
 175              		.loc 2 237 2 view .LVU44
 176              		.syntax unified
 177              	@ 237 "Middlewares/Third_Party/FreeRTOS/Source/portable/GCC/ARM_CM7/r0p1/portmacro.h" 1
 178 0018 4FF05003 			mov r3, #80												
 179 001c 72B6     		cpsid i													
 180 001e 83F31188 		msr basepri, r3											
 181 0022 BFF36F8F 		isb														
 182 0026 BFF34F8F 		dsb														
 183 002a 62B6     		cpsie i													
 184              	
 185              	@ 0 "" 2
 186              	.LVL13:
 187              		.thumb
 188              		.syntax unified
 189              	.L13:
 190              		.loc 2 237 2 is_stmt 0 view .LVU45
 191              	.LBE32:
 192              	.LBE31:
 334:Middlewares/Third_Party/FreeRTOS/Source/event_groups.c **** 	configASSERT( uxBitsToWaitFor != 0 );
 193              		.loc 1 334 2 is_stmt 1 discriminator 2 view .LVU46
 334:Middlewares/Third_Party/FreeRTOS/Source/event_groups.c **** 	configASSERT( uxBitsToWaitFor != 0 );
 194              		.loc 1 334 2 discriminator 2 view .LVU47
 334:Middlewares/Third_Party/FreeRTOS/Source/event_groups.c **** 	configASSERT( uxBitsToWaitFor != 0 );
 195              		.loc 1 334 2 discriminator 2 view .LVU48
 196 002c FEE7     		b	.L13
 197              	.LVL14:
 198              	.L29:
 333:Middlewares/Third_Party/FreeRTOS/Source/event_groups.c **** 	configASSERT( ( uxBitsToWaitFor & eventEVENT_BITS_CONTROL_BYTES ) == 0 );
 199              		.loc 1 333 2 view .LVU49
 200              	.LBB33:
 201              	.LBI33:
 233:Middlewares/Third_Party/FreeRTOS/Source/portable/GCC/ARM_CM7/r0p1/portmacro.h **** {
 202              		.loc 2 233 30 view .LVU50
 203              	.LBB34:
 235:Middlewares/Third_Party/FreeRTOS/Source/portable/GCC/ARM_CM7/r0p1/portmacro.h **** 
 204              		.loc 2 235 1 view .LVU51
 205              		.loc 2 237 2 view .LVU52
 206              		.syntax unified
 207              	@ 237 "Middlewares/Third_Party/FreeRTOS/Source/portable/GCC/ARM_CM7/r0p1/portmacro.h" 1
 208 002e 4FF05003 			mov r3, #80												
 209 0032 72B6     		cpsid i													
 210 0034 83F31188 		msr basepri, r3											
 211 0038 BFF36F8F 		isb														
 212 003c BFF34F8F 		dsb														
 213 0040 62B6     		cpsie i													
 214              	
 215              	@ 0 "" 2
ARM GAS  C:\Users\Nina\AppData\Local\Temp\ccVMz8wR.s 			page 22


 216              	.LVL15:
 217              		.thumb
 218              		.syntax unified
 219              	.L11:
 220              		.loc 2 237 2 is_stmt 0 view .LVU53
 221              	.LBE34:
 222              	.LBE33:
 333:Middlewares/Third_Party/FreeRTOS/Source/event_groups.c **** 	configASSERT( ( uxBitsToWaitFor & eventEVENT_BITS_CONTROL_BYTES ) == 0 );
 223              		.loc 1 333 2 is_stmt 1 discriminator 1 view .LVU54
 333:Middlewares/Third_Party/FreeRTOS/Source/event_groups.c **** 	configASSERT( ( uxBitsToWaitFor & eventEVENT_BITS_CONTROL_BYTES ) == 0 );
 224              		.loc 1 333 2 discriminator 1 view .LVU55
 333:Middlewares/Third_Party/FreeRTOS/Source/event_groups.c **** 	configASSERT( ( uxBitsToWaitFor & eventEVENT_BITS_CONTROL_BYTES ) == 0 );
 225              		.loc 1 333 2 discriminator 1 view .LVU56
 226 0042 FEE7     		b	.L11
 227              	.LVL16:
 228              	.L12:
 334:Middlewares/Third_Party/FreeRTOS/Source/event_groups.c **** 	configASSERT( uxBitsToWaitFor != 0 );
 229              		.loc 1 334 74 discriminator 2 view .LVU57
 335:Middlewares/Third_Party/FreeRTOS/Source/event_groups.c **** 	#if ( ( INCLUDE_xTaskGetSchedulerState == 1 ) || ( configUSE_TIMERS == 1 ) )
 230              		.loc 1 335 2 discriminator 2 view .LVU58
 231 0044 51B9     		cbnz	r1, .L14
 335:Middlewares/Third_Party/FreeRTOS/Source/event_groups.c **** 	#if ( ( INCLUDE_xTaskGetSchedulerState == 1 ) || ( configUSE_TIMERS == 1 ) )
 232              		.loc 1 335 2 view .LVU59
 233              	.LBB35:
 234              	.LBI35:
 233:Middlewares/Third_Party/FreeRTOS/Source/portable/GCC/ARM_CM7/r0p1/portmacro.h **** {
 235              		.loc 2 233 30 view .LVU60
 236              	.LBB36:
 235:Middlewares/Third_Party/FreeRTOS/Source/portable/GCC/ARM_CM7/r0p1/portmacro.h **** 
 237              		.loc 2 235 1 view .LVU61
 238              		.loc 2 237 2 view .LVU62
 239              		.syntax unified
 240              	@ 237 "Middlewares/Third_Party/FreeRTOS/Source/portable/GCC/ARM_CM7/r0p1/portmacro.h" 1
 241 0046 4FF05003 			mov r3, #80												
 242 004a 72B6     		cpsid i													
 243 004c 83F31188 		msr basepri, r3											
 244 0050 BFF36F8F 		isb														
 245 0054 BFF34F8F 		dsb														
 246 0058 62B6     		cpsie i													
 247              	
 248              	@ 0 "" 2
 249              	.LVL17:
 250              		.thumb
 251              		.syntax unified
 252              	.L15:
 253              		.loc 2 237 2 is_stmt 0 view .LVU63
 254              	.LBE36:
 255              	.LBE35:
 335:Middlewares/Third_Party/FreeRTOS/Source/event_groups.c **** 	#if ( ( INCLUDE_xTaskGetSchedulerState == 1 ) || ( configUSE_TIMERS == 1 ) )
 256              		.loc 1 335 2 is_stmt 1 discriminator 3 view .LVU64
 335:Middlewares/Third_Party/FreeRTOS/Source/event_groups.c **** 	#if ( ( INCLUDE_xTaskGetSchedulerState == 1 ) || ( configUSE_TIMERS == 1 ) )
 257              		.loc 1 335 2 discriminator 3 view .LVU65
 335:Middlewares/Third_Party/FreeRTOS/Source/event_groups.c **** 	#if ( ( INCLUDE_xTaskGetSchedulerState == 1 ) || ( configUSE_TIMERS == 1 ) )
 258              		.loc 1 335 2 discriminator 3 view .LVU66
 259 005a FEE7     		b	.L15
 260              	.LVL18:
 261              	.L14:
ARM GAS  C:\Users\Nina\AppData\Local\Temp\ccVMz8wR.s 			page 23


 335:Middlewares/Third_Party/FreeRTOS/Source/event_groups.c **** 	#if ( ( INCLUDE_xTaskGetSchedulerState == 1 ) || ( configUSE_TIMERS == 1 ) )
 262              		.loc 1 335 38 discriminator 2 view .LVU67
 338:Middlewares/Third_Party/FreeRTOS/Source/event_groups.c **** 	}
 263              		.loc 1 338 3 discriminator 2 view .LVU68
 264 005c FFF7FEFF 		bl	xTaskGetSchedulerState
 265              	.LVL19:
 338:Middlewares/Third_Party/FreeRTOS/Source/event_groups.c **** 	}
 266              		.loc 1 338 3 is_stmt 0 discriminator 2 view .LVU69
 267 0060 68B9     		cbnz	r0, .L16
 268 0062 BAF1000F 		cmp	r10, #0
 269 0066 0AD0     		beq	.L16
 338:Middlewares/Third_Party/FreeRTOS/Source/event_groups.c **** 	}
 270              		.loc 1 338 3 is_stmt 1 view .LVU70
 271              	.LBB37:
 272              	.LBI37:
 233:Middlewares/Third_Party/FreeRTOS/Source/portable/GCC/ARM_CM7/r0p1/portmacro.h **** {
 273              		.loc 2 233 30 view .LVU71
 274              	.LBB38:
 235:Middlewares/Third_Party/FreeRTOS/Source/portable/GCC/ARM_CM7/r0p1/portmacro.h **** 
 275              		.loc 2 235 1 view .LVU72
 276              		.loc 2 237 2 view .LVU73
 277              		.syntax unified
 278              	@ 237 "Middlewares/Third_Party/FreeRTOS/Source/portable/GCC/ARM_CM7/r0p1/portmacro.h" 1
 279 0068 4FF05003 			mov r3, #80												
 280 006c 72B6     		cpsid i													
 281 006e 83F31188 		msr basepri, r3											
 282 0072 BFF36F8F 		isb														
 283 0076 BFF34F8F 		dsb														
 284 007a 62B6     		cpsie i													
 285              	
 286              	@ 0 "" 2
 287              	.LVL20:
 288              		.thumb
 289              		.syntax unified
 290              	.L17:
 291              		.loc 2 237 2 is_stmt 0 view .LVU74
 292              	.LBE38:
 293              	.LBE37:
 338:Middlewares/Third_Party/FreeRTOS/Source/event_groups.c **** 	}
 294              		.loc 1 338 3 is_stmt 1 discriminator 4 view .LVU75
 338:Middlewares/Third_Party/FreeRTOS/Source/event_groups.c **** 	}
 295              		.loc 1 338 3 discriminator 4 view .LVU76
 338:Middlewares/Third_Party/FreeRTOS/Source/event_groups.c **** 	}
 296              		.loc 1 338 3 discriminator 4 view .LVU77
 297 007c FEE7     		b	.L17
 298              	.L16:
 338:Middlewares/Third_Party/FreeRTOS/Source/event_groups.c **** 	}
 299              		.loc 1 338 104 discriminator 8 view .LVU78
 342:Middlewares/Third_Party/FreeRTOS/Source/event_groups.c **** 	{
 300              		.loc 1 342 2 discriminator 8 view .LVU79
 301 007e FFF7FEFF 		bl	vTaskSuspendAll
 302              	.LVL21:
 303              	.LBB39:
 344:Middlewares/Third_Party/FreeRTOS/Source/event_groups.c **** 
 304              		.loc 1 344 3 discriminator 8 view .LVU80
 344:Middlewares/Third_Party/FreeRTOS/Source/event_groups.c **** 
 305              		.loc 1 344 21 is_stmt 0 discriminator 8 view .LVU81
ARM GAS  C:\Users\Nina\AppData\Local\Temp\ccVMz8wR.s 			page 24


 306 0082 3468     		ldr	r4, [r6]
 307              	.LVL22:
 347:Middlewares/Third_Party/FreeRTOS/Source/event_groups.c **** 
 308              		.loc 1 347 3 is_stmt 1 discriminator 8 view .LVU82
 347:Middlewares/Third_Party/FreeRTOS/Source/event_groups.c **** 
 309              		.loc 1 347 23 is_stmt 0 discriminator 8 view .LVU83
 310 0084 4246     		mov	r2, r8
 311 0086 2946     		mov	r1, r5
 312 0088 2046     		mov	r0, r4
 313 008a FFF7FEFF 		bl	prvTestWaitCondition
 314              	.LVL23:
 349:Middlewares/Third_Party/FreeRTOS/Source/event_groups.c **** 		{
 315              		.loc 1 349 3 is_stmt 1 discriminator 8 view .LVU84
 349:Middlewares/Third_Party/FreeRTOS/Source/event_groups.c **** 		{
 316              		.loc 1 349 5 is_stmt 0 discriminator 8 view .LVU85
 317 008e E0B1     		cbz	r0, .L18
 353:Middlewares/Third_Party/FreeRTOS/Source/event_groups.c **** 			xTicksToWait = ( TickType_t ) 0;
 318              		.loc 1 353 4 is_stmt 1 view .LVU86
 319              	.LVL24:
 354:Middlewares/Third_Party/FreeRTOS/Source/event_groups.c **** 
 320              		.loc 1 354 4 view .LVU87
 357:Middlewares/Third_Party/FreeRTOS/Source/event_groups.c **** 			{
 321              		.loc 1 357 4 view .LVU88
 357:Middlewares/Third_Party/FreeRTOS/Source/event_groups.c **** 			{
 322              		.loc 1 357 6 is_stmt 0 view .LVU89
 323 0090 17B1     		cbz	r7, .L19
 359:Middlewares/Third_Party/FreeRTOS/Source/event_groups.c **** 			}
 324              		.loc 1 359 5 is_stmt 1 view .LVU90
 359:Middlewares/Third_Party/FreeRTOS/Source/event_groups.c **** 			}
 325              		.loc 1 359 30 is_stmt 0 view .LVU91
 326 0092 24EA0503 		bic	r3, r4, r5
 327 0096 3360     		str	r3, [r6]
 328              	.LVL25:
 329              	.L19:
 406:Middlewares/Third_Party/FreeRTOS/Source/event_groups.c **** 		}
 330              		.loc 1 406 68 is_stmt 1 view .LVU92
 331              	.LBE39:
 409:Middlewares/Third_Party/FreeRTOS/Source/event_groups.c **** 
 332              		.loc 1 409 2 view .LVU93
 409:Middlewares/Third_Party/FreeRTOS/Source/event_groups.c **** 
 333              		.loc 1 409 20 is_stmt 0 view .LVU94
 334 0098 FFF7FEFF 		bl	xTaskResumeAll
 335              	.LVL26:
 411:Middlewares/Third_Party/FreeRTOS/Source/event_groups.c **** 	{
 336              		.loc 1 411 2 is_stmt 1 view .LVU95
 411:Middlewares/Third_Party/FreeRTOS/Source/event_groups.c **** 	{
 337              		.loc 1 411 4 is_stmt 0 view .LVU96
 338 009c B9F1000F 		cmp	r9, #0
 339 00a0 10D0     		beq	.L9
 413:Middlewares/Third_Party/FreeRTOS/Source/event_groups.c **** 		{
 340              		.loc 1 413 3 is_stmt 1 view .LVU97
 413:Middlewares/Third_Party/FreeRTOS/Source/event_groups.c **** 		{
 341              		.loc 1 413 5 is_stmt 0 view .LVU98
 342 00a2 38B9     		cbnz	r0, .L23
 415:Middlewares/Third_Party/FreeRTOS/Source/event_groups.c **** 		}
 343              		.loc 1 415 4 is_stmt 1 view .LVU99
 344 00a4 1C4B     		ldr	r3, .L31
ARM GAS  C:\Users\Nina\AppData\Local\Temp\ccVMz8wR.s 			page 25


 345 00a6 4FF08052 		mov	r2, #268435456
 346 00aa 1A60     		str	r2, [r3]
 415:Middlewares/Third_Party/FreeRTOS/Source/event_groups.c **** 		}
 347              		.loc 1 415 4 view .LVU100
 348              		.syntax unified
 349              	@ 415 "Middlewares/Third_Party/FreeRTOS/Source/event_groups.c" 1
 350 00ac BFF34F8F 		dsb
 351              	@ 0 "" 2
 415:Middlewares/Third_Party/FreeRTOS/Source/event_groups.c **** 		}
 352              		.loc 1 415 4 view .LVU101
 353              	@ 415 "Middlewares/Third_Party/FreeRTOS/Source/event_groups.c" 1
 354 00b0 BFF36F8F 		isb
 355              	@ 0 "" 2
 415:Middlewares/Third_Party/FreeRTOS/Source/event_groups.c **** 		}
 356              		.loc 1 415 26 view .LVU102
 357              		.thumb
 358              		.syntax unified
 359              	.L23:
 419:Middlewares/Third_Party/FreeRTOS/Source/event_groups.c **** 		}
 360              		.loc 1 419 28 view .LVU103
 426:Middlewares/Third_Party/FreeRTOS/Source/event_groups.c **** 
 361              		.loc 1 426 3 view .LVU104
 426:Middlewares/Third_Party/FreeRTOS/Source/event_groups.c **** 
 362              		.loc 1 426 14 is_stmt 0 view .LVU105
 363 00b4 FFF7FEFF 		bl	uxTaskResetEventItemValue
 364              	.LVL27:
 426:Middlewares/Third_Party/FreeRTOS/Source/event_groups.c **** 
 365              		.loc 1 426 14 view .LVU106
 366 00b8 0446     		mov	r4, r0
 367              	.LVL28:
 428:Middlewares/Third_Party/FreeRTOS/Source/event_groups.c **** 		{
 368              		.loc 1 428 3 is_stmt 1 view .LVU107
 428:Middlewares/Third_Party/FreeRTOS/Source/event_groups.c **** 		{
 369              		.loc 1 428 5 is_stmt 0 view .LVU108
 370 00ba 10F0007F 		tst	r0, #33554432
 371 00be 1BD0     		beq	.L30
 372              	.LVL29:
 373              	.L24:
 461:Middlewares/Third_Party/FreeRTOS/Source/event_groups.c **** 
 374              		.loc 1 461 3 is_stmt 1 view .LVU109
 464:Middlewares/Third_Party/FreeRTOS/Source/event_groups.c **** 	}
 375              		.loc 1 464 3 view .LVU110
 464:Middlewares/Third_Party/FreeRTOS/Source/event_groups.c **** 	}
 376              		.loc 1 464 12 is_stmt 0 view .LVU111
 377 00c0 24F07F44 		bic	r4, r4, #-16777216
 378              	.LVL30:
 466:Middlewares/Third_Party/FreeRTOS/Source/event_groups.c **** 
 379              		.loc 1 466 2 is_stmt 1 view .LVU112
 468:Middlewares/Third_Party/FreeRTOS/Source/event_groups.c **** }
 380              		.loc 1 468 2 view .LVU113
 381              	.L9:
 469:Middlewares/Third_Party/FreeRTOS/Source/event_groups.c **** /*-----------------------------------------------------------*/
 382              		.loc 1 469 1 is_stmt 0 view .LVU114
 383 00c4 2046     		mov	r0, r4
 384 00c6 BDE8F087 		pop	{r4, r5, r6, r7, r8, r9, r10, pc}
 385              	.LVL31:
 386              	.L18:
ARM GAS  C:\Users\Nina\AppData\Local\Temp\ccVMz8wR.s 			page 26


 387              	.LBB40:
 366:Middlewares/Third_Party/FreeRTOS/Source/event_groups.c **** 		{
 388              		.loc 1 366 8 is_stmt 1 view .LVU115
 366:Middlewares/Third_Party/FreeRTOS/Source/event_groups.c **** 		{
 389              		.loc 1 366 10 is_stmt 0 view .LVU116
 390 00ca BAF1000F 		cmp	r10, #0
 391 00ce 11D0     		beq	.L26
 378:Middlewares/Third_Party/FreeRTOS/Source/event_groups.c **** 			{
 392              		.loc 1 378 4 is_stmt 1 view .LVU117
 378:Middlewares/Third_Party/FreeRTOS/Source/event_groups.c **** 			{
 393              		.loc 1 378 6 is_stmt 0 view .LVU118
 394 00d0 6FB9     		cbnz	r7, .L27
 395              	.LBE40:
 327:Middlewares/Third_Party/FreeRTOS/Source/event_groups.c **** BaseType_t xWaitConditionMet, xAlreadyYielded;
 396              		.loc 1 327 23 view .LVU119
 397 00d2 4946     		mov	r1, r9
 398              	.L20:
 399              	.LVL32:
 400              	.LBB41:
 384:Middlewares/Third_Party/FreeRTOS/Source/event_groups.c **** 			}
 401              		.loc 1 384 29 is_stmt 1 view .LVU120
 387:Middlewares/Third_Party/FreeRTOS/Source/event_groups.c **** 			{
 402              		.loc 1 387 4 view .LVU121
 387:Middlewares/Third_Party/FreeRTOS/Source/event_groups.c **** 			{
 403              		.loc 1 387 6 is_stmt 0 view .LVU122
 404 00d4 B8F1000F 		cmp	r8, #0
 405 00d8 01D0     		beq	.L21
 389:Middlewares/Third_Party/FreeRTOS/Source/event_groups.c **** 			}
 406              		.loc 1 389 5 is_stmt 1 view .LVU123
 389:Middlewares/Third_Party/FreeRTOS/Source/event_groups.c **** 			}
 407              		.loc 1 389 19 is_stmt 0 view .LVU124
 408 00da 41F08061 		orr	r1, r1, #67108864
 409              	.LVL33:
 410              	.L21:
 393:Middlewares/Third_Party/FreeRTOS/Source/event_groups.c **** 			}
 411              		.loc 1 393 29 is_stmt 1 view .LVU125
 399:Middlewares/Third_Party/FreeRTOS/Source/event_groups.c **** 
 412              		.loc 1 399 4 view .LVU126
 413 00de 5246     		mov	r2, r10
 414 00e0 2943     		orrs	r1, r1, r5
 415              	.LVL34:
 399:Middlewares/Third_Party/FreeRTOS/Source/event_groups.c **** 
 416              		.loc 1 399 4 is_stmt 0 view .LVU127
 417 00e2 301D     		adds	r0, r6, #4
 418              	.LVL35:
 399:Middlewares/Third_Party/FreeRTOS/Source/event_groups.c **** 
 419              		.loc 1 399 4 view .LVU128
 420 00e4 FFF7FEFF 		bl	vTaskPlaceOnUnorderedEventList
 421              	.LVL36:
 404:Middlewares/Third_Party/FreeRTOS/Source/event_groups.c **** 
 422              		.loc 1 404 4 is_stmt 1 view .LVU129
 404:Middlewares/Third_Party/FreeRTOS/Source/event_groups.c **** 
 423              		.loc 1 404 13 is_stmt 0 view .LVU130
 424 00e8 4C46     		mov	r4, r9
 425              	.LVL37:
 399:Middlewares/Third_Party/FreeRTOS/Source/event_groups.c **** 
 426              		.loc 1 399 4 view .LVU131
ARM GAS  C:\Users\Nina\AppData\Local\Temp\ccVMz8wR.s 			page 27


 427 00ea D146     		mov	r9, r10
 428 00ec D4E7     		b	.L19
 429              	.LVL38:
 430              	.L27:
 380:Middlewares/Third_Party/FreeRTOS/Source/event_groups.c **** 			}
 431              		.loc 1 380 19 view .LVU132
 432 00ee 4FF08071 		mov	r1, #16777216
 433 00f2 EFE7     		b	.L20
 434              	.L26:
 435 00f4 D146     		mov	r9, r10
 436 00f6 CFE7     		b	.L19
 437              	.LVL39:
 438              	.L30:
 380:Middlewares/Third_Party/FreeRTOS/Source/event_groups.c **** 			}
 439              		.loc 1 380 19 view .LVU133
 440              	.LBE41:
 430:Middlewares/Third_Party/FreeRTOS/Source/event_groups.c **** 			{
 441              		.loc 1 430 4 is_stmt 1 view .LVU134
 442 00f8 FFF7FEFF 		bl	vPortEnterCritical
 443              	.LVL40:
 433:Middlewares/Third_Party/FreeRTOS/Source/event_groups.c **** 
 444              		.loc 1 433 5 view .LVU135
 433:Middlewares/Third_Party/FreeRTOS/Source/event_groups.c **** 
 445              		.loc 1 433 14 is_stmt 0 view .LVU136
 446 00fc 3468     		ldr	r4, [r6]
 447              	.LVL41:
 437:Middlewares/Third_Party/FreeRTOS/Source/event_groups.c **** 				{
 448              		.loc 1 437 5 is_stmt 1 view .LVU137
 437:Middlewares/Third_Party/FreeRTOS/Source/event_groups.c **** 				{
 449              		.loc 1 437 9 is_stmt 0 view .LVU138
 450 00fe 4246     		mov	r2, r8
 451 0100 2946     		mov	r1, r5
 452 0102 2046     		mov	r0, r4
 453 0104 FFF7FEFF 		bl	prvTestWaitCondition
 454              	.LVL42:
 437:Middlewares/Third_Party/FreeRTOS/Source/event_groups.c **** 				{
 455              		.loc 1 437 7 view .LVU139
 456 0108 18B1     		cbz	r0, .L25
 439:Middlewares/Third_Party/FreeRTOS/Source/event_groups.c **** 					{
 457              		.loc 1 439 6 is_stmt 1 view .LVU140
 439:Middlewares/Third_Party/FreeRTOS/Source/event_groups.c **** 					{
 458              		.loc 1 439 8 is_stmt 0 view .LVU141
 459 010a 17B1     		cbz	r7, .L25
 441:Middlewares/Third_Party/FreeRTOS/Source/event_groups.c **** 					}
 460              		.loc 1 441 7 is_stmt 1 view .LVU142
 441:Middlewares/Third_Party/FreeRTOS/Source/event_groups.c **** 					}
 461              		.loc 1 441 32 is_stmt 0 view .LVU143
 462 010c 24EA0505 		bic	r5, r4, r5
 463              	.LVL43:
 441:Middlewares/Third_Party/FreeRTOS/Source/event_groups.c **** 					}
 464              		.loc 1 441 32 view .LVU144
 465 0110 3560     		str	r5, [r6]
 466              	.L25:
 450:Middlewares/Third_Party/FreeRTOS/Source/event_groups.c **** 				}
 467              		.loc 1 450 30 is_stmt 1 view .LVU145
 453:Middlewares/Third_Party/FreeRTOS/Source/event_groups.c **** 
 468              		.loc 1 453 4 view .LVU146
ARM GAS  C:\Users\Nina\AppData\Local\Temp\ccVMz8wR.s 			page 28


 469 0112 FFF7FEFF 		bl	vPortExitCritical
 470              	.LVL44:
 456:Middlewares/Third_Party/FreeRTOS/Source/event_groups.c **** 		}
 471              		.loc 1 456 4 view .LVU147
 456:Middlewares/Third_Party/FreeRTOS/Source/event_groups.c **** 		}
 472              		.loc 1 456 4 is_stmt 0 view .LVU148
 473 0116 D3E7     		b	.L24
 474              	.L32:
 475              		.align	2
 476              	.L31:
 477 0118 04ED00E0 		.word	-536810236
 478              		.cfi_endproc
 479              	.LFE7:
 481              		.section	.text.xEventGroupClearBits,"ax",%progbits
 482              		.align	1
 483              		.global	xEventGroupClearBits
 484              		.syntax unified
 485              		.thumb
 486              		.thumb_func
 487              		.fpu fpv5-sp-d16
 489              	xEventGroupClearBits:
 490              	.LVL45:
 491              	.LFB8:
 473:Middlewares/Third_Party/FreeRTOS/Source/event_groups.c **** EventGroup_t *pxEventBits = ( EventGroup_t * ) xEventGroup;
 492              		.loc 1 473 1 is_stmt 1 view -0
 493              		.cfi_startproc
 494              		@ args = 0, pretend = 0, frame = 0
 495              		@ frame_needed = 0, uses_anonymous_args = 0
 474:Middlewares/Third_Party/FreeRTOS/Source/event_groups.c **** EventBits_t uxReturn;
 496              		.loc 1 474 1 view .LVU150
 475:Middlewares/Third_Party/FreeRTOS/Source/event_groups.c **** 
 497              		.loc 1 475 1 view .LVU151
 479:Middlewares/Third_Party/FreeRTOS/Source/event_groups.c **** 	configASSERT( ( uxBitsToClear & eventEVENT_BITS_CONTROL_BYTES ) == 0 );
 498              		.loc 1 479 2 view .LVU152
 499 0000 80B1     		cbz	r0, .L40
 473:Middlewares/Third_Party/FreeRTOS/Source/event_groups.c **** EventGroup_t *pxEventBits = ( EventGroup_t * ) xEventGroup;
 500              		.loc 1 473 1 is_stmt 0 discriminator 2 view .LVU153
 501 0002 70B5     		push	{r4, r5, r6, lr}
 502              	.LCFI2:
 503              		.cfi_def_cfa_offset 16
 504              		.cfi_offset 4, -16
 505              		.cfi_offset 5, -12
 506              		.cfi_offset 6, -8
 507              		.cfi_offset 14, -4
 508 0004 0C46     		mov	r4, r1
 509 0006 0646     		mov	r6, r0
 479:Middlewares/Third_Party/FreeRTOS/Source/event_groups.c **** 	configASSERT( ( uxBitsToClear & eventEVENT_BITS_CONTROL_BYTES ) == 0 );
 510              		.loc 1 479 29 is_stmt 1 discriminator 2 view .LVU154
 480:Middlewares/Third_Party/FreeRTOS/Source/event_groups.c **** 
 511              		.loc 1 480 2 discriminator 2 view .LVU155
 512 0008 11F07F4F 		tst	r1, #-16777216
 513 000c 15D0     		beq	.L36
 480:Middlewares/Third_Party/FreeRTOS/Source/event_groups.c **** 
 514              		.loc 1 480 2 view .LVU156
 515              	.LBB42:
 516              	.LBI42:
 233:Middlewares/Third_Party/FreeRTOS/Source/portable/GCC/ARM_CM7/r0p1/portmacro.h **** {
ARM GAS  C:\Users\Nina\AppData\Local\Temp\ccVMz8wR.s 			page 29


 517              		.loc 2 233 30 view .LVU157
 518              	.LBB43:
 235:Middlewares/Third_Party/FreeRTOS/Source/portable/GCC/ARM_CM7/r0p1/portmacro.h **** 
 519              		.loc 2 235 1 view .LVU158
 520              		.loc 2 237 2 view .LVU159
 521              		.syntax unified
 522              	@ 237 "Middlewares/Third_Party/FreeRTOS/Source/portable/GCC/ARM_CM7/r0p1/portmacro.h" 1
 523 000e 4FF05003 			mov r3, #80												
 524 0012 72B6     		cpsid i													
 525 0014 83F31188 		msr basepri, r3											
 526 0018 BFF36F8F 		isb														
 527 001c BFF34F8F 		dsb														
 528 0020 62B6     		cpsie i													
 529              	
 530              	@ 0 "" 2
 531              	.LVL46:
 532              		.thumb
 533              		.syntax unified
 534              	.L37:
 535              		.loc 2 237 2 is_stmt 0 view .LVU160
 536              	.LBE43:
 537              	.LBE42:
 480:Middlewares/Third_Party/FreeRTOS/Source/event_groups.c **** 
 538              		.loc 1 480 2 is_stmt 1 discriminator 2 view .LVU161
 480:Middlewares/Third_Party/FreeRTOS/Source/event_groups.c **** 
 539              		.loc 1 480 2 discriminator 2 view .LVU162
 480:Middlewares/Third_Party/FreeRTOS/Source/event_groups.c **** 
 540              		.loc 1 480 2 discriminator 2 view .LVU163
 541 0022 FEE7     		b	.L37
 542              	.L40:
 543              	.LCFI3:
 544              		.cfi_def_cfa_offset 0
 545              		.cfi_restore 4
 546              		.cfi_restore 5
 547              		.cfi_restore 6
 548              		.cfi_restore 14
 479:Middlewares/Third_Party/FreeRTOS/Source/event_groups.c **** 	configASSERT( ( uxBitsToClear & eventEVENT_BITS_CONTROL_BYTES ) == 0 );
 549              		.loc 1 479 2 view .LVU164
 550              	.LBB44:
 551              	.LBI44:
 233:Middlewares/Third_Party/FreeRTOS/Source/portable/GCC/ARM_CM7/r0p1/portmacro.h **** {
 552              		.loc 2 233 30 view .LVU165
 553              	.LBB45:
 235:Middlewares/Third_Party/FreeRTOS/Source/portable/GCC/ARM_CM7/r0p1/portmacro.h **** 
 554              		.loc 2 235 1 view .LVU166
 555              		.loc 2 237 2 view .LVU167
 556              		.syntax unified
 557              	@ 237 "Middlewares/Third_Party/FreeRTOS/Source/portable/GCC/ARM_CM7/r0p1/portmacro.h" 1
 558 0024 4FF05003 			mov r3, #80												
 559 0028 72B6     		cpsid i													
 560 002a 83F31188 		msr basepri, r3											
 561 002e BFF36F8F 		isb														
 562 0032 BFF34F8F 		dsb														
 563 0036 62B6     		cpsie i													
 564              	
 565              	@ 0 "" 2
 566              	.LVL47:
ARM GAS  C:\Users\Nina\AppData\Local\Temp\ccVMz8wR.s 			page 30


 567              		.thumb
 568              		.syntax unified
 569              	.L35:
 570              		.loc 2 237 2 is_stmt 0 view .LVU168
 571              	.LBE45:
 572              	.LBE44:
 479:Middlewares/Third_Party/FreeRTOS/Source/event_groups.c **** 	configASSERT( ( uxBitsToClear & eventEVENT_BITS_CONTROL_BYTES ) == 0 );
 573              		.loc 1 479 2 is_stmt 1 discriminator 1 view .LVU169
 479:Middlewares/Third_Party/FreeRTOS/Source/event_groups.c **** 	configASSERT( ( uxBitsToClear & eventEVENT_BITS_CONTROL_BYTES ) == 0 );
 574              		.loc 1 479 2 discriminator 1 view .LVU170
 479:Middlewares/Third_Party/FreeRTOS/Source/event_groups.c **** 	configASSERT( ( uxBitsToClear & eventEVENT_BITS_CONTROL_BYTES ) == 0 );
 575              		.loc 1 479 2 discriminator 1 view .LVU171
 576 0038 FEE7     		b	.L35
 577              	.L36:
 578              	.LCFI4:
 579              		.cfi_def_cfa_offset 16
 580              		.cfi_offset 4, -16
 581              		.cfi_offset 5, -12
 582              		.cfi_offset 6, -8
 583              		.cfi_offset 14, -4
 480:Middlewares/Third_Party/FreeRTOS/Source/event_groups.c **** 
 584              		.loc 1 480 72 discriminator 2 view .LVU172
 482:Middlewares/Third_Party/FreeRTOS/Source/event_groups.c **** 	{
 585              		.loc 1 482 2 discriminator 2 view .LVU173
 586 003a FFF7FEFF 		bl	vPortEnterCritical
 587              	.LVL48:
 484:Middlewares/Third_Party/FreeRTOS/Source/event_groups.c **** 
 588              		.loc 1 484 60 discriminator 2 view .LVU174
 488:Middlewares/Third_Party/FreeRTOS/Source/event_groups.c **** 
 589              		.loc 1 488 3 discriminator 2 view .LVU175
 488:Middlewares/Third_Party/FreeRTOS/Source/event_groups.c **** 
 590              		.loc 1 488 12 is_stmt 0 discriminator 2 view .LVU176
 591 003e 3568     		ldr	r5, [r6]
 592              	.LVL49:
 491:Middlewares/Third_Party/FreeRTOS/Source/event_groups.c **** 	}
 593              		.loc 1 491 3 is_stmt 1 discriminator 2 view .LVU177
 491:Middlewares/Third_Party/FreeRTOS/Source/event_groups.c **** 	}
 594              		.loc 1 491 28 is_stmt 0 discriminator 2 view .LVU178
 595 0040 25EA0404 		bic	r4, r5, r4
 596              	.LVL50:
 491:Middlewares/Third_Party/FreeRTOS/Source/event_groups.c **** 	}
 597              		.loc 1 491 28 discriminator 2 view .LVU179
 598 0044 3460     		str	r4, [r6]
 493:Middlewares/Third_Party/FreeRTOS/Source/event_groups.c **** 
 599              		.loc 1 493 2 is_stmt 1 discriminator 2 view .LVU180
 600 0046 FFF7FEFF 		bl	vPortExitCritical
 601              	.LVL51:
 495:Middlewares/Third_Party/FreeRTOS/Source/event_groups.c **** }
 602              		.loc 1 495 2 discriminator 2 view .LVU181
 496:Middlewares/Third_Party/FreeRTOS/Source/event_groups.c **** /*-----------------------------------------------------------*/
 603              		.loc 1 496 1 is_stmt 0 discriminator 2 view .LVU182
 604 004a 2846     		mov	r0, r5
 605 004c 70BD     		pop	{r4, r5, r6, pc}
 496:Middlewares/Third_Party/FreeRTOS/Source/event_groups.c **** /*-----------------------------------------------------------*/
 606              		.loc 1 496 1 discriminator 2 view .LVU183
 607              		.cfi_endproc
 608              	.LFE8:
ARM GAS  C:\Users\Nina\AppData\Local\Temp\ccVMz8wR.s 			page 31


 610              		.section	.text.xEventGroupGetBitsFromISR,"ax",%progbits
 611              		.align	1
 612              		.global	xEventGroupGetBitsFromISR
 613              		.syntax unified
 614              		.thumb
 615              		.thumb_func
 616              		.fpu fpv5-sp-d16
 618              	xEventGroupGetBitsFromISR:
 619              	.LVL52:
 620              	.LFB9:
 515:Middlewares/Third_Party/FreeRTOS/Source/event_groups.c **** UBaseType_t uxSavedInterruptStatus;
 621              		.loc 1 515 1 is_stmt 1 view -0
 622              		.cfi_startproc
 623              		@ args = 0, pretend = 0, frame = 0
 624              		@ frame_needed = 0, uses_anonymous_args = 0
 625              		@ link register save eliminated.
 516:Middlewares/Third_Party/FreeRTOS/Source/event_groups.c **** EventGroup_t *pxEventBits = ( EventGroup_t * ) xEventGroup;
 626              		.loc 1 516 1 view .LVU185
 517:Middlewares/Third_Party/FreeRTOS/Source/event_groups.c **** EventBits_t uxReturn;
 627              		.loc 1 517 1 view .LVU186
 518:Middlewares/Third_Party/FreeRTOS/Source/event_groups.c **** 
 628              		.loc 1 518 1 view .LVU187
 520:Middlewares/Third_Party/FreeRTOS/Source/event_groups.c **** 	{
 629              		.loc 1 520 2 view .LVU188
 630              	.LBB46:
 631              	.LBI46:
 238:Middlewares/Third_Party/FreeRTOS/Source/portable/GCC/ARM_CM7/r0p1/portmacro.h **** 	(
 239:Middlewares/Third_Party/FreeRTOS/Source/portable/GCC/ARM_CM7/r0p1/portmacro.h **** 		"	mov %0, %1												\n"	\
 240:Middlewares/Third_Party/FreeRTOS/Source/portable/GCC/ARM_CM7/r0p1/portmacro.h **** 		"	cpsid i													\n" \
 241:Middlewares/Third_Party/FreeRTOS/Source/portable/GCC/ARM_CM7/r0p1/portmacro.h **** 		"	msr basepri, %0											\n" \
 242:Middlewares/Third_Party/FreeRTOS/Source/portable/GCC/ARM_CM7/r0p1/portmacro.h **** 		"	isb														\n" \
 243:Middlewares/Third_Party/FreeRTOS/Source/portable/GCC/ARM_CM7/r0p1/portmacro.h **** 		"	dsb														\n" \
 244:Middlewares/Third_Party/FreeRTOS/Source/portable/GCC/ARM_CM7/r0p1/portmacro.h **** 		"	cpsie i													\n" \
 245:Middlewares/Third_Party/FreeRTOS/Source/portable/GCC/ARM_CM7/r0p1/portmacro.h **** 		:"=r" (ulNewBASEPRI) : "i" ( configMAX_SYSCALL_INTERRUPT_PRIORITY )
 246:Middlewares/Third_Party/FreeRTOS/Source/portable/GCC/ARM_CM7/r0p1/portmacro.h **** 	);
 247:Middlewares/Third_Party/FreeRTOS/Source/portable/GCC/ARM_CM7/r0p1/portmacro.h **** }
 248:Middlewares/Third_Party/FreeRTOS/Source/portable/GCC/ARM_CM7/r0p1/portmacro.h **** 
 249:Middlewares/Third_Party/FreeRTOS/Source/portable/GCC/ARM_CM7/r0p1/portmacro.h **** /*-----------------------------------------------------------*/
 250:Middlewares/Third_Party/FreeRTOS/Source/portable/GCC/ARM_CM7/r0p1/portmacro.h **** 
 251:Middlewares/Third_Party/FreeRTOS/Source/portable/GCC/ARM_CM7/r0p1/portmacro.h **** portFORCE_INLINE static uint32_t ulPortRaiseBASEPRI( void )
 632              		.loc 2 251 34 view .LVU189
 633              	.LBB47:
 252:Middlewares/Third_Party/FreeRTOS/Source/portable/GCC/ARM_CM7/r0p1/portmacro.h **** {
 253:Middlewares/Third_Party/FreeRTOS/Source/portable/GCC/ARM_CM7/r0p1/portmacro.h **** uint32_t ulOriginalBASEPRI, ulNewBASEPRI;
 634              		.loc 2 253 1 view .LVU190
 254:Middlewares/Third_Party/FreeRTOS/Source/portable/GCC/ARM_CM7/r0p1/portmacro.h **** 
 255:Middlewares/Third_Party/FreeRTOS/Source/portable/GCC/ARM_CM7/r0p1/portmacro.h **** 	__asm volatile
 635              		.loc 2 255 2 view .LVU191
 636              		.syntax unified
 637              	@ 255 "Middlewares/Third_Party/FreeRTOS/Source/portable/GCC/ARM_CM7/r0p1/portmacro.h" 1
 638 0000 EFF31183 			mrs r3, basepri											
 639 0004 4FF05002 		mov r2, #80												
 640 0008 72B6     		cpsid i													
 641 000a 82F31188 		msr basepri, r2											
 642 000e BFF36F8F 		isb														
 643 0012 BFF34F8F 		dsb														
 644 0016 62B6     		cpsie i													
ARM GAS  C:\Users\Nina\AppData\Local\Temp\ccVMz8wR.s 			page 32


 645              	
 646              	@ 0 "" 2
 647              	.LVL53:
 256:Middlewares/Third_Party/FreeRTOS/Source/portable/GCC/ARM_CM7/r0p1/portmacro.h **** 	(
 257:Middlewares/Third_Party/FreeRTOS/Source/portable/GCC/ARM_CM7/r0p1/portmacro.h **** 		"	mrs %0, basepri											\n" \
 258:Middlewares/Third_Party/FreeRTOS/Source/portable/GCC/ARM_CM7/r0p1/portmacro.h **** 		"	mov %1, %2												\n"	\
 259:Middlewares/Third_Party/FreeRTOS/Source/portable/GCC/ARM_CM7/r0p1/portmacro.h **** 		"	cpsid i													\n" \
 260:Middlewares/Third_Party/FreeRTOS/Source/portable/GCC/ARM_CM7/r0p1/portmacro.h **** 		"	msr basepri, %1											\n" \
 261:Middlewares/Third_Party/FreeRTOS/Source/portable/GCC/ARM_CM7/r0p1/portmacro.h **** 		"	isb														\n" \
 262:Middlewares/Third_Party/FreeRTOS/Source/portable/GCC/ARM_CM7/r0p1/portmacro.h **** 		"	dsb														\n" \
 263:Middlewares/Third_Party/FreeRTOS/Source/portable/GCC/ARM_CM7/r0p1/portmacro.h **** 		"	cpsie i													\n" \
 264:Middlewares/Third_Party/FreeRTOS/Source/portable/GCC/ARM_CM7/r0p1/portmacro.h **** 		:"=r" (ulOriginalBASEPRI), "=r" (ulNewBASEPRI) : "i" ( configMAX_SYSCALL_INTERRUPT_PRIORITY )
 265:Middlewares/Third_Party/FreeRTOS/Source/portable/GCC/ARM_CM7/r0p1/portmacro.h **** 	);
 266:Middlewares/Third_Party/FreeRTOS/Source/portable/GCC/ARM_CM7/r0p1/portmacro.h **** 
 267:Middlewares/Third_Party/FreeRTOS/Source/portable/GCC/ARM_CM7/r0p1/portmacro.h **** 	/* This return will not be reached but is necessary to prevent compiler
 268:Middlewares/Third_Party/FreeRTOS/Source/portable/GCC/ARM_CM7/r0p1/portmacro.h **** 	warnings. */
 269:Middlewares/Third_Party/FreeRTOS/Source/portable/GCC/ARM_CM7/r0p1/portmacro.h **** 	return ulOriginalBASEPRI;
 648              		.loc 2 269 2 view .LVU192
 649              		.loc 2 269 2 is_stmt 0 view .LVU193
 650              		.thumb
 651              		.syntax unified
 652              	.LBE47:
 653              	.LBE46:
 522:Middlewares/Third_Party/FreeRTOS/Source/event_groups.c **** 	}
 654              		.loc 1 522 3 is_stmt 1 view .LVU194
 522:Middlewares/Third_Party/FreeRTOS/Source/event_groups.c **** 	}
 655              		.loc 1 522 12 is_stmt 0 view .LVU195
 656 0018 0068     		ldr	r0, [r0]
 657              	.LVL54:
 524:Middlewares/Third_Party/FreeRTOS/Source/event_groups.c **** 
 658              		.loc 1 524 2 is_stmt 1 view .LVU196
 659              	.LBB48:
 660              	.LBI48:
 270:Middlewares/Third_Party/FreeRTOS/Source/portable/GCC/ARM_CM7/r0p1/portmacro.h **** }
 271:Middlewares/Third_Party/FreeRTOS/Source/portable/GCC/ARM_CM7/r0p1/portmacro.h **** /*-----------------------------------------------------------*/
 272:Middlewares/Third_Party/FreeRTOS/Source/portable/GCC/ARM_CM7/r0p1/portmacro.h **** 
 273:Middlewares/Third_Party/FreeRTOS/Source/portable/GCC/ARM_CM7/r0p1/portmacro.h **** portFORCE_INLINE static void vPortSetBASEPRI( uint32_t ulNewMaskValue )
 661              		.loc 2 273 30 view .LVU197
 662              	.LBB49:
 274:Middlewares/Third_Party/FreeRTOS/Source/portable/GCC/ARM_CM7/r0p1/portmacro.h **** {
 275:Middlewares/Third_Party/FreeRTOS/Source/portable/GCC/ARM_CM7/r0p1/portmacro.h **** 	__asm volatile
 663              		.loc 2 275 2 view .LVU198
 664              		.syntax unified
 665              	@ 275 "Middlewares/Third_Party/FreeRTOS/Source/portable/GCC/ARM_CM7/r0p1/portmacro.h" 1
 666 001a 83F31188 			msr basepri, r3	
 667              	@ 0 "" 2
 668              	.LVL55:
 669              		.loc 2 275 2 is_stmt 0 view .LVU199
 670              		.thumb
 671              		.syntax unified
 672              	.LBE49:
 673              	.LBE48:
 526:Middlewares/Third_Party/FreeRTOS/Source/event_groups.c **** }
 674              		.loc 1 526 2 is_stmt 1 view .LVU200
 527:Middlewares/Third_Party/FreeRTOS/Source/event_groups.c **** /*-----------------------------------------------------------*/
 675              		.loc 1 527 1 is_stmt 0 view .LVU201
 676 001e 7047     		bx	lr
ARM GAS  C:\Users\Nina\AppData\Local\Temp\ccVMz8wR.s 			page 33


 677              		.cfi_endproc
 678              	.LFE9:
 680              		.section	.text.xEventGroupSetBits,"ax",%progbits
 681              		.align	1
 682              		.global	xEventGroupSetBits
 683              		.syntax unified
 684              		.thumb
 685              		.thumb_func
 686              		.fpu fpv5-sp-d16
 688              	xEventGroupSetBits:
 689              	.LVL56:
 690              	.LFB10:
 531:Middlewares/Third_Party/FreeRTOS/Source/event_groups.c **** ListItem_t *pxListItem, *pxNext;
 691              		.loc 1 531 1 is_stmt 1 view -0
 692              		.cfi_startproc
 693              		@ args = 0, pretend = 0, frame = 0
 694              		@ frame_needed = 0, uses_anonymous_args = 0
 531:Middlewares/Third_Party/FreeRTOS/Source/event_groups.c **** ListItem_t *pxListItem, *pxNext;
 695              		.loc 1 531 1 is_stmt 0 view .LVU203
 696 0000 F8B5     		push	{r3, r4, r5, r6, r7, lr}
 697              	.LCFI5:
 698              		.cfi_def_cfa_offset 24
 699              		.cfi_offset 3, -24
 700              		.cfi_offset 4, -20
 701              		.cfi_offset 5, -16
 702              		.cfi_offset 6, -12
 703              		.cfi_offset 7, -8
 704              		.cfi_offset 14, -4
 532:Middlewares/Third_Party/FreeRTOS/Source/event_groups.c **** ListItem_t const *pxListEnd;
 705              		.loc 1 532 1 is_stmt 1 view .LVU204
 533:Middlewares/Third_Party/FreeRTOS/Source/event_groups.c **** List_t *pxList;
 706              		.loc 1 533 1 view .LVU205
 534:Middlewares/Third_Party/FreeRTOS/Source/event_groups.c **** EventBits_t uxBitsToClear = 0, uxBitsWaitedFor, uxControlBits;
 707              		.loc 1 534 1 view .LVU206
 535:Middlewares/Third_Party/FreeRTOS/Source/event_groups.c **** EventGroup_t *pxEventBits = ( EventGroup_t * ) xEventGroup;
 708              		.loc 1 535 1 view .LVU207
 709              	.LVL57:
 536:Middlewares/Third_Party/FreeRTOS/Source/event_groups.c **** BaseType_t xMatchFound = pdFALSE;
 710              		.loc 1 536 1 view .LVU208
 537:Middlewares/Third_Party/FreeRTOS/Source/event_groups.c **** 
 711              		.loc 1 537 1 view .LVU209
 541:Middlewares/Third_Party/FreeRTOS/Source/event_groups.c **** 	configASSERT( ( uxBitsToSet & eventEVENT_BITS_CONTROL_BYTES ) == 0 );
 712              		.loc 1 541 2 view .LVU210
 713 0002 78B1     		cbz	r0, .L54
 714 0004 0D46     		mov	r5, r1
 715 0006 0446     		mov	r4, r0
 541:Middlewares/Third_Party/FreeRTOS/Source/event_groups.c **** 	configASSERT( ( uxBitsToSet & eventEVENT_BITS_CONTROL_BYTES ) == 0 );
 716              		.loc 1 541 29 discriminator 2 view .LVU211
 542:Middlewares/Third_Party/FreeRTOS/Source/event_groups.c **** 
 717              		.loc 1 542 2 discriminator 2 view .LVU212
 718 0008 11F07F46 		ands	r6, r1, #-16777216
 719 000c 15D0     		beq	.L45
 542:Middlewares/Third_Party/FreeRTOS/Source/event_groups.c **** 
 720              		.loc 1 542 2 view .LVU213
 721              	.LBB50:
 722              	.LBI50:
 233:Middlewares/Third_Party/FreeRTOS/Source/portable/GCC/ARM_CM7/r0p1/portmacro.h **** {
ARM GAS  C:\Users\Nina\AppData\Local\Temp\ccVMz8wR.s 			page 34


 723              		.loc 2 233 30 view .LVU214
 724              	.LBB51:
 235:Middlewares/Third_Party/FreeRTOS/Source/portable/GCC/ARM_CM7/r0p1/portmacro.h **** 
 725              		.loc 2 235 1 view .LVU215
 237:Middlewares/Third_Party/FreeRTOS/Source/portable/GCC/ARM_CM7/r0p1/portmacro.h **** 	(
 726              		.loc 2 237 2 view .LVU216
 727              		.syntax unified
 728              	@ 237 "Middlewares/Third_Party/FreeRTOS/Source/portable/GCC/ARM_CM7/r0p1/portmacro.h" 1
 729 000e 4FF05003 			mov r3, #80												
 730 0012 72B6     		cpsid i													
 731 0014 83F31188 		msr basepri, r3											
 732 0018 BFF36F8F 		isb														
 733 001c BFF34F8F 		dsb														
 734 0020 62B6     		cpsie i													
 735              	
 736              	@ 0 "" 2
 737              	.LVL58:
 738              		.thumb
 739              		.syntax unified
 740              	.L46:
 237:Middlewares/Third_Party/FreeRTOS/Source/portable/GCC/ARM_CM7/r0p1/portmacro.h **** 	(
 741              		.loc 2 237 2 is_stmt 0 view .LVU217
 742              	.LBE51:
 743              	.LBE50:
 542:Middlewares/Third_Party/FreeRTOS/Source/event_groups.c **** 
 744              		.loc 1 542 2 is_stmt 1 discriminator 2 view .LVU218
 542:Middlewares/Third_Party/FreeRTOS/Source/event_groups.c **** 
 745              		.loc 1 542 2 discriminator 2 view .LVU219
 542:Middlewares/Third_Party/FreeRTOS/Source/event_groups.c **** 
 746              		.loc 1 542 2 discriminator 2 view .LVU220
 747 0022 FEE7     		b	.L46
 748              	.L54:
 541:Middlewares/Third_Party/FreeRTOS/Source/event_groups.c **** 	configASSERT( ( uxBitsToSet & eventEVENT_BITS_CONTROL_BYTES ) == 0 );
 749              		.loc 1 541 2 view .LVU221
 750              	.LBB52:
 751              	.LBI52:
 233:Middlewares/Third_Party/FreeRTOS/Source/portable/GCC/ARM_CM7/r0p1/portmacro.h **** {
 752              		.loc 2 233 30 view .LVU222
 753              	.LBB53:
 235:Middlewares/Third_Party/FreeRTOS/Source/portable/GCC/ARM_CM7/r0p1/portmacro.h **** 
 754              		.loc 2 235 1 view .LVU223
 237:Middlewares/Third_Party/FreeRTOS/Source/portable/GCC/ARM_CM7/r0p1/portmacro.h **** 	(
 755              		.loc 2 237 2 view .LVU224
 756              		.syntax unified
 757              	@ 237 "Middlewares/Third_Party/FreeRTOS/Source/portable/GCC/ARM_CM7/r0p1/portmacro.h" 1
 758 0024 4FF05003 			mov r3, #80												
 759 0028 72B6     		cpsid i													
 760 002a 83F31188 		msr basepri, r3											
 761 002e BFF36F8F 		isb														
 762 0032 BFF34F8F 		dsb														
 763 0036 62B6     		cpsie i													
 764              	
 765              	@ 0 "" 2
 766              	.LVL59:
 767              		.thumb
 768              		.syntax unified
 769              	.L44:
ARM GAS  C:\Users\Nina\AppData\Local\Temp\ccVMz8wR.s 			page 35


 237:Middlewares/Third_Party/FreeRTOS/Source/portable/GCC/ARM_CM7/r0p1/portmacro.h **** 	(
 770              		.loc 2 237 2 is_stmt 0 view .LVU225
 771              	.LBE53:
 772              	.LBE52:
 541:Middlewares/Third_Party/FreeRTOS/Source/event_groups.c **** 	configASSERT( ( uxBitsToSet & eventEVENT_BITS_CONTROL_BYTES ) == 0 );
 773              		.loc 1 541 2 is_stmt 1 discriminator 1 view .LVU226
 541:Middlewares/Third_Party/FreeRTOS/Source/event_groups.c **** 	configASSERT( ( uxBitsToSet & eventEVENT_BITS_CONTROL_BYTES ) == 0 );
 774              		.loc 1 541 2 discriminator 1 view .LVU227
 541:Middlewares/Third_Party/FreeRTOS/Source/event_groups.c **** 	configASSERT( ( uxBitsToSet & eventEVENT_BITS_CONTROL_BYTES ) == 0 );
 775              		.loc 1 541 2 discriminator 1 view .LVU228
 776 0038 FEE7     		b	.L44
 777              	.L45:
 542:Middlewares/Third_Party/FreeRTOS/Source/event_groups.c **** 
 778              		.loc 1 542 70 discriminator 2 view .LVU229
 544:Middlewares/Third_Party/FreeRTOS/Source/event_groups.c **** 	pxListEnd = listGET_END_MARKER( pxList ); /*lint !e826 !e740 The mini list structure is used as th
 779              		.loc 1 544 2 discriminator 2 view .LVU230
 780              	.LVL60:
 545:Middlewares/Third_Party/FreeRTOS/Source/event_groups.c **** 	vTaskSuspendAll();
 781              		.loc 1 545 2 discriminator 2 view .LVU231
 545:Middlewares/Third_Party/FreeRTOS/Source/event_groups.c **** 	vTaskSuspendAll();
 782              		.loc 1 545 12 is_stmt 0 discriminator 2 view .LVU232
 783 003a 00F10C07 		add	r7, r0, #12
 784              	.LVL61:
 546:Middlewares/Third_Party/FreeRTOS/Source/event_groups.c **** 	{
 785              		.loc 1 546 2 is_stmt 1 discriminator 2 view .LVU233
 786 003e FFF7FEFF 		bl	vTaskSuspendAll
 787              	.LVL62:
 548:Middlewares/Third_Party/FreeRTOS/Source/event_groups.c **** 
 788              		.loc 1 548 56 discriminator 2 view .LVU234
 550:Middlewares/Third_Party/FreeRTOS/Source/event_groups.c **** 
 789              		.loc 1 550 3 discriminator 2 view .LVU235
 550:Middlewares/Third_Party/FreeRTOS/Source/event_groups.c **** 
 790              		.loc 1 550 14 is_stmt 0 discriminator 2 view .LVU236
 791 0042 2069     		ldr	r0, [r4, #16]
 792              	.LVL63:
 553:Middlewares/Third_Party/FreeRTOS/Source/event_groups.c **** 
 793              		.loc 1 553 3 is_stmt 1 discriminator 2 view .LVU237
 553:Middlewares/Third_Party/FreeRTOS/Source/event_groups.c **** 
 794              		.loc 1 553 28 is_stmt 0 discriminator 2 view .LVU238
 795 0044 2368     		ldr	r3, [r4]
 796 0046 2B43     		orrs	r3, r3, r5
 797 0048 2360     		str	r3, [r4]
 556:Middlewares/Third_Party/FreeRTOS/Source/event_groups.c **** 		{
 798              		.loc 1 556 3 is_stmt 1 discriminator 2 view .LVU239
 556:Middlewares/Third_Party/FreeRTOS/Source/event_groups.c **** 		{
 799              		.loc 1 556 8 is_stmt 0 discriminator 2 view .LVU240
 800 004a 0AE0     		b	.L47
 801              	.LVL64:
 802              	.L48:
 578:Middlewares/Third_Party/FreeRTOS/Source/event_groups.c **** 			{
 803              		.loc 1 578 9 is_stmt 1 view .LVU241
 578:Middlewares/Third_Party/FreeRTOS/Source/event_groups.c **** 			{
 804              		.loc 1 578 44 is_stmt 0 view .LVU242
 805 004c 2168     		ldr	r1, [r4]
 578:Middlewares/Third_Party/FreeRTOS/Source/event_groups.c **** 			{
 806              		.loc 1 578 11 view .LVU243
 807 004e 33EA0101 		bics	r1, r3, r1
ARM GAS  C:\Users\Nina\AppData\Local\Temp\ccVMz8wR.s 			page 36


 808 0052 05D1     		bne	.L50
 578:Middlewares/Third_Party/FreeRTOS/Source/event_groups.c **** 			{
 809              		.loc 1 578 11 view .LVU244
 810 0054 11E0     		b	.L49
 811              	.LVL65:
 812              	.L51:
 597:Middlewares/Third_Party/FreeRTOS/Source/event_groups.c **** 				}
 813              		.loc 1 597 30 is_stmt 1 view .LVU245
 605:Middlewares/Third_Party/FreeRTOS/Source/event_groups.c **** 			}
 814              		.loc 1 605 5 view .LVU246
 605:Middlewares/Third_Party/FreeRTOS/Source/event_groups.c **** 			}
 815              		.loc 1 605 72 is_stmt 0 view .LVU247
 816 0056 2168     		ldr	r1, [r4]
 605:Middlewares/Third_Party/FreeRTOS/Source/event_groups.c **** 			}
 817              		.loc 1 605 14 view .LVU248
 818 0058 41F00071 		orr	r1, r1, #33554432
 819 005c FFF7FEFF 		bl	xTaskRemoveFromUnorderedEventList
 820              	.LVL66:
 821              	.L50:
 531:Middlewares/Third_Party/FreeRTOS/Source/event_groups.c **** ListItem_t *pxListItem, *pxNext;
 822              		.loc 1 531 1 view .LVU249
 823 0060 2846     		mov	r0, r5
 824              	.LVL67:
 825              	.L47:
 556:Middlewares/Third_Party/FreeRTOS/Source/event_groups.c **** 		{
 826              		.loc 1 556 8 is_stmt 1 view .LVU250
 827 0062 B842     		cmp	r0, r7
 828 0064 0ED0     		beq	.L55
 558:Middlewares/Third_Party/FreeRTOS/Source/event_groups.c **** 			uxBitsWaitedFor = listGET_LIST_ITEM_VALUE( pxListItem );
 829              		.loc 1 558 4 view .LVU251
 558:Middlewares/Third_Party/FreeRTOS/Source/event_groups.c **** 			uxBitsWaitedFor = listGET_LIST_ITEM_VALUE( pxListItem );
 830              		.loc 1 558 11 is_stmt 0 view .LVU252
 831 0066 4568     		ldr	r5, [r0, #4]
 832              	.LVL68:
 559:Middlewares/Third_Party/FreeRTOS/Source/event_groups.c **** 			xMatchFound = pdFALSE;
 833              		.loc 1 559 4 is_stmt 1 view .LVU253
 559:Middlewares/Third_Party/FreeRTOS/Source/event_groups.c **** 			xMatchFound = pdFALSE;
 834              		.loc 1 559 20 is_stmt 0 view .LVU254
 835 0068 0268     		ldr	r2, [r0]
 836              	.LVL69:
 560:Middlewares/Third_Party/FreeRTOS/Source/event_groups.c **** 
 837              		.loc 1 560 4 is_stmt 1 view .LVU255
 563:Middlewares/Third_Party/FreeRTOS/Source/event_groups.c **** 			uxBitsWaitedFor &= ~eventEVENT_BITS_CONTROL_BYTES;
 838              		.loc 1 563 4 view .LVU256
 564:Middlewares/Third_Party/FreeRTOS/Source/event_groups.c **** 
 839              		.loc 1 564 4 view .LVU257
 564:Middlewares/Third_Party/FreeRTOS/Source/event_groups.c **** 
 840              		.loc 1 564 20 is_stmt 0 view .LVU258
 841 006a 22F07F43 		bic	r3, r2, #-16777216
 842              	.LVL70:
 566:Middlewares/Third_Party/FreeRTOS/Source/event_groups.c **** 			{
 843              		.loc 1 566 4 is_stmt 1 view .LVU259
 566:Middlewares/Third_Party/FreeRTOS/Source/event_groups.c **** 			{
 844              		.loc 1 566 6 is_stmt 0 view .LVU260
 845 006e 12F0806F 		tst	r2, #67108864
 846 0072 EBD1     		bne	.L48
 569:Middlewares/Third_Party/FreeRTOS/Source/event_groups.c **** 				{
ARM GAS  C:\Users\Nina\AppData\Local\Temp\ccVMz8wR.s 			page 37


 847              		.loc 1 569 5 is_stmt 1 view .LVU261
 569:Middlewares/Third_Party/FreeRTOS/Source/event_groups.c **** 				{
 848              		.loc 1 569 40 is_stmt 0 view .LVU262
 849 0074 2168     		ldr	r1, [r4]
 569:Middlewares/Third_Party/FreeRTOS/Source/event_groups.c **** 				{
 850              		.loc 1 569 7 view .LVU263
 851 0076 1942     		tst	r1, r3
 852 0078 F2D0     		beq	.L50
 853              	.L49:
 854              	.LVL71:
 591:Middlewares/Third_Party/FreeRTOS/Source/event_groups.c **** 				{
 855              		.loc 1 591 5 is_stmt 1 view .LVU264
 591:Middlewares/Third_Party/FreeRTOS/Source/event_groups.c **** 				{
 856              		.loc 1 591 7 is_stmt 0 view .LVU265
 857 007a 12F0807F 		tst	r2, #16777216
 858 007e EAD0     		beq	.L51
 593:Middlewares/Third_Party/FreeRTOS/Source/event_groups.c **** 				}
 859              		.loc 1 593 6 is_stmt 1 view .LVU266
 593:Middlewares/Third_Party/FreeRTOS/Source/event_groups.c **** 				}
 860              		.loc 1 593 20 is_stmt 0 view .LVU267
 861 0080 1E43     		orrs	r6, r6, r3
 862              	.LVL72:
 593:Middlewares/Third_Party/FreeRTOS/Source/event_groups.c **** 				}
 863              		.loc 1 593 20 view .LVU268
 864 0082 E8E7     		b	.L51
 865              	.LVL73:
 866              	.L55:
 616:Middlewares/Third_Party/FreeRTOS/Source/event_groups.c **** 	}
 867              		.loc 1 616 3 is_stmt 1 view .LVU269
 616:Middlewares/Third_Party/FreeRTOS/Source/event_groups.c **** 	}
 868              		.loc 1 616 28 is_stmt 0 view .LVU270
 869 0084 2368     		ldr	r3, [r4]
 870 0086 23EA0603 		bic	r3, r3, r6
 871 008a 2360     		str	r3, [r4]
 618:Middlewares/Third_Party/FreeRTOS/Source/event_groups.c **** 
 872              		.loc 1 618 2 is_stmt 1 view .LVU271
 618:Middlewares/Third_Party/FreeRTOS/Source/event_groups.c **** 
 873              		.loc 1 618 11 is_stmt 0 view .LVU272
 874 008c FFF7FEFF 		bl	xTaskResumeAll
 875              	.LVL74:
 620:Middlewares/Third_Party/FreeRTOS/Source/event_groups.c **** }
 876              		.loc 1 620 2 is_stmt 1 view .LVU273
 621:Middlewares/Third_Party/FreeRTOS/Source/event_groups.c **** /*-----------------------------------------------------------*/
 877              		.loc 1 621 1 is_stmt 0 view .LVU274
 878 0090 2068     		ldr	r0, [r4]
 879 0092 F8BD     		pop	{r3, r4, r5, r6, r7, pc}
 621:Middlewares/Third_Party/FreeRTOS/Source/event_groups.c **** /*-----------------------------------------------------------*/
 880              		.loc 1 621 1 view .LVU275
 881              		.cfi_endproc
 882              	.LFE10:
 884              		.section	.text.xEventGroupSync,"ax",%progbits
 885              		.align	1
 886              		.global	xEventGroupSync
 887              		.syntax unified
 888              		.thumb
 889              		.thumb_func
 890              		.fpu fpv5-sp-d16
ARM GAS  C:\Users\Nina\AppData\Local\Temp\ccVMz8wR.s 			page 38


 892              	xEventGroupSync:
 893              	.LVL75:
 894              	.LFB6:
 209:Middlewares/Third_Party/FreeRTOS/Source/event_groups.c **** EventBits_t uxOriginalBitValue, uxReturn;
 895              		.loc 1 209 1 is_stmt 1 view -0
 896              		.cfi_startproc
 897              		@ args = 0, pretend = 0, frame = 0
 898              		@ frame_needed = 0, uses_anonymous_args = 0
 209:Middlewares/Third_Party/FreeRTOS/Source/event_groups.c **** EventBits_t uxOriginalBitValue, uxReturn;
 899              		.loc 1 209 1 is_stmt 0 view .LVU277
 900 0000 2DE9F843 		push	{r3, r4, r5, r6, r7, r8, r9, lr}
 901              	.LCFI6:
 902              		.cfi_def_cfa_offset 32
 903              		.cfi_offset 3, -32
 904              		.cfi_offset 4, -28
 905              		.cfi_offset 5, -24
 906              		.cfi_offset 6, -20
 907              		.cfi_offset 7, -16
 908              		.cfi_offset 8, -12
 909              		.cfi_offset 9, -8
 910              		.cfi_offset 14, -4
 210:Middlewares/Third_Party/FreeRTOS/Source/event_groups.c **** EventGroup_t *pxEventBits = ( EventGroup_t * ) xEventGroup;
 911              		.loc 1 210 1 is_stmt 1 view .LVU278
 211:Middlewares/Third_Party/FreeRTOS/Source/event_groups.c **** BaseType_t xAlreadyYielded;
 912              		.loc 1 211 1 view .LVU279
 913              	.LVL76:
 212:Middlewares/Third_Party/FreeRTOS/Source/event_groups.c **** BaseType_t xTimeoutOccurred = pdFALSE;
 914              		.loc 1 212 1 view .LVU280
 213:Middlewares/Third_Party/FreeRTOS/Source/event_groups.c **** 
 915              		.loc 1 213 1 view .LVU281
 215:Middlewares/Third_Party/FreeRTOS/Source/event_groups.c **** 	configASSERT( uxBitsToWaitFor != 0 );
 916              		.loc 1 215 2 view .LVU282
 917 0004 12F07F48 		ands	r8, r2, #-16777216
 918 0008 0AD0     		beq	.L57
 215:Middlewares/Third_Party/FreeRTOS/Source/event_groups.c **** 	configASSERT( uxBitsToWaitFor != 0 );
 919              		.loc 1 215 2 view .LVU283
 920              	.LBB54:
 921              	.LBI54:
 233:Middlewares/Third_Party/FreeRTOS/Source/portable/GCC/ARM_CM7/r0p1/portmacro.h **** {
 922              		.loc 2 233 30 view .LVU284
 923              	.LBB55:
 235:Middlewares/Third_Party/FreeRTOS/Source/portable/GCC/ARM_CM7/r0p1/portmacro.h **** 
 924              		.loc 2 235 1 view .LVU285
 237:Middlewares/Third_Party/FreeRTOS/Source/portable/GCC/ARM_CM7/r0p1/portmacro.h **** 	(
 925              		.loc 2 237 2 view .LVU286
 926              		.syntax unified
 927              	@ 237 "Middlewares/Third_Party/FreeRTOS/Source/portable/GCC/ARM_CM7/r0p1/portmacro.h" 1
 928 000a 4FF05003 			mov r3, #80												
 929 000e 72B6     		cpsid i													
 930 0010 83F31188 		msr basepri, r3											
 931 0014 BFF36F8F 		isb														
 932 0018 BFF34F8F 		dsb														
 933 001c 62B6     		cpsie i													
 934              	
 935              	@ 0 "" 2
 936              	.LVL77:
 937              		.thumb
ARM GAS  C:\Users\Nina\AppData\Local\Temp\ccVMz8wR.s 			page 39


 938              		.syntax unified
 939              	.L58:
 237:Middlewares/Third_Party/FreeRTOS/Source/portable/GCC/ARM_CM7/r0p1/portmacro.h **** 	(
 940              		.loc 2 237 2 is_stmt 0 view .LVU287
 941              	.LBE55:
 942              	.LBE54:
 215:Middlewares/Third_Party/FreeRTOS/Source/event_groups.c **** 	configASSERT( uxBitsToWaitFor != 0 );
 943              		.loc 1 215 2 is_stmt 1 discriminator 1 view .LVU288
 215:Middlewares/Third_Party/FreeRTOS/Source/event_groups.c **** 	configASSERT( uxBitsToWaitFor != 0 );
 944              		.loc 1 215 2 discriminator 1 view .LVU289
 215:Middlewares/Third_Party/FreeRTOS/Source/event_groups.c **** 	configASSERT( uxBitsToWaitFor != 0 );
 945              		.loc 1 215 2 discriminator 1 view .LVU290
 946 001e FEE7     		b	.L58
 947              	.LVL78:
 948              	.L57:
 215:Middlewares/Third_Party/FreeRTOS/Source/event_groups.c **** 	configASSERT( uxBitsToWaitFor != 0 );
 949              		.loc 1 215 2 is_stmt 0 discriminator 1 view .LVU291
 950 0020 0646     		mov	r6, r0
 951 0022 0C46     		mov	r4, r1
 952 0024 1546     		mov	r5, r2
 953 0026 1F46     		mov	r7, r3
 215:Middlewares/Third_Party/FreeRTOS/Source/event_groups.c **** 	configASSERT( uxBitsToWaitFor != 0 );
 954              		.loc 1 215 74 is_stmt 1 discriminator 2 view .LVU292
 216:Middlewares/Third_Party/FreeRTOS/Source/event_groups.c **** 	#if ( ( INCLUDE_xTaskGetSchedulerState == 1 ) || ( configUSE_TIMERS == 1 ) )
 955              		.loc 1 216 2 discriminator 2 view .LVU293
 956 0028 52B9     		cbnz	r2, .L59
 216:Middlewares/Third_Party/FreeRTOS/Source/event_groups.c **** 	#if ( ( INCLUDE_xTaskGetSchedulerState == 1 ) || ( configUSE_TIMERS == 1 ) )
 957              		.loc 1 216 2 view .LVU294
 958              	.LBB56:
 959              	.LBI56:
 233:Middlewares/Third_Party/FreeRTOS/Source/portable/GCC/ARM_CM7/r0p1/portmacro.h **** {
 960              		.loc 2 233 30 view .LVU295
 961              	.LBB57:
 235:Middlewares/Third_Party/FreeRTOS/Source/portable/GCC/ARM_CM7/r0p1/portmacro.h **** 
 962              		.loc 2 235 1 view .LVU296
 237:Middlewares/Third_Party/FreeRTOS/Source/portable/GCC/ARM_CM7/r0p1/portmacro.h **** 	(
 963              		.loc 2 237 2 view .LVU297
 964              		.syntax unified
 965              	@ 237 "Middlewares/Third_Party/FreeRTOS/Source/portable/GCC/ARM_CM7/r0p1/portmacro.h" 1
 966 002a 4FF05003 			mov r3, #80												
 967 002e 72B6     		cpsid i													
 968 0030 83F31188 		msr basepri, r3											
 969 0034 BFF36F8F 		isb														
 970 0038 BFF34F8F 		dsb														
 971 003c 62B6     		cpsie i													
 972              	
 973              	@ 0 "" 2
 974              	.LVL79:
 975              		.thumb
 976              		.syntax unified
 977              	.L60:
 237:Middlewares/Third_Party/FreeRTOS/Source/portable/GCC/ARM_CM7/r0p1/portmacro.h **** 	(
 978              		.loc 2 237 2 is_stmt 0 view .LVU298
 979              	.LBE57:
 980              	.LBE56:
 216:Middlewares/Third_Party/FreeRTOS/Source/event_groups.c **** 	#if ( ( INCLUDE_xTaskGetSchedulerState == 1 ) || ( configUSE_TIMERS == 1 ) )
 981              		.loc 1 216 2 is_stmt 1 discriminator 2 view .LVU299
ARM GAS  C:\Users\Nina\AppData\Local\Temp\ccVMz8wR.s 			page 40


 216:Middlewares/Third_Party/FreeRTOS/Source/event_groups.c **** 	#if ( ( INCLUDE_xTaskGetSchedulerState == 1 ) || ( configUSE_TIMERS == 1 ) )
 982              		.loc 1 216 2 discriminator 2 view .LVU300
 216:Middlewares/Third_Party/FreeRTOS/Source/event_groups.c **** 	#if ( ( INCLUDE_xTaskGetSchedulerState == 1 ) || ( configUSE_TIMERS == 1 ) )
 983              		.loc 1 216 2 discriminator 2 view .LVU301
 984 003e FEE7     		b	.L60
 985              	.LVL80:
 986              	.L59:
 216:Middlewares/Third_Party/FreeRTOS/Source/event_groups.c **** 	#if ( ( INCLUDE_xTaskGetSchedulerState == 1 ) || ( configUSE_TIMERS == 1 ) )
 987              		.loc 1 216 38 discriminator 2 view .LVU302
 219:Middlewares/Third_Party/FreeRTOS/Source/event_groups.c **** 	}
 988              		.loc 1 219 3 discriminator 2 view .LVU303
 989 0040 FFF7FEFF 		bl	xTaskGetSchedulerState
 990              	.LVL81:
 219:Middlewares/Third_Party/FreeRTOS/Source/event_groups.c **** 	}
 991              		.loc 1 219 3 is_stmt 0 discriminator 2 view .LVU304
 992 0044 58B9     		cbnz	r0, .L61
 993 0046 57B1     		cbz	r7, .L61
 219:Middlewares/Third_Party/FreeRTOS/Source/event_groups.c **** 	}
 994              		.loc 1 219 3 is_stmt 1 view .LVU305
 995              	.LBB58:
 996              	.LBI58:
 233:Middlewares/Third_Party/FreeRTOS/Source/portable/GCC/ARM_CM7/r0p1/portmacro.h **** {
 997              		.loc 2 233 30 view .LVU306
 998              	.LBB59:
 235:Middlewares/Third_Party/FreeRTOS/Source/portable/GCC/ARM_CM7/r0p1/portmacro.h **** 
 999              		.loc 2 235 1 view .LVU307
 237:Middlewares/Third_Party/FreeRTOS/Source/portable/GCC/ARM_CM7/r0p1/portmacro.h **** 	(
 1000              		.loc 2 237 2 view .LVU308
 1001              		.syntax unified
 1002              	@ 237 "Middlewares/Third_Party/FreeRTOS/Source/portable/GCC/ARM_CM7/r0p1/portmacro.h" 1
 1003 0048 4FF05003 			mov r3, #80												
 1004 004c 72B6     		cpsid i													
 1005 004e 83F31188 		msr basepri, r3											
 1006 0052 BFF36F8F 		isb														
 1007 0056 BFF34F8F 		dsb														
 1008 005a 62B6     		cpsie i													
 1009              	
 1010              	@ 0 "" 2
 1011              	.LVL82:
 1012              		.thumb
 1013              		.syntax unified
 1014              	.L62:
 237:Middlewares/Third_Party/FreeRTOS/Source/portable/GCC/ARM_CM7/r0p1/portmacro.h **** 	(
 1015              		.loc 2 237 2 is_stmt 0 view .LVU309
 1016              	.LBE59:
 1017              	.LBE58:
 219:Middlewares/Third_Party/FreeRTOS/Source/event_groups.c **** 	}
 1018              		.loc 1 219 3 is_stmt 1 discriminator 3 view .LVU310
 219:Middlewares/Third_Party/FreeRTOS/Source/event_groups.c **** 	}
 1019              		.loc 1 219 3 discriminator 3 view .LVU311
 219:Middlewares/Third_Party/FreeRTOS/Source/event_groups.c **** 	}
 1020              		.loc 1 219 3 discriminator 3 view .LVU312
 1021 005c FEE7     		b	.L62
 1022              	.L61:
 219:Middlewares/Third_Party/FreeRTOS/Source/event_groups.c **** 	}
 1023              		.loc 1 219 104 discriminator 8 view .LVU313
 223:Middlewares/Third_Party/FreeRTOS/Source/event_groups.c **** 	{
ARM GAS  C:\Users\Nina\AppData\Local\Temp\ccVMz8wR.s 			page 41


 1024              		.loc 1 223 2 discriminator 8 view .LVU314
 1025 005e FFF7FEFF 		bl	vTaskSuspendAll
 1026              	.LVL83:
 225:Middlewares/Third_Party/FreeRTOS/Source/event_groups.c **** 
 1027              		.loc 1 225 3 discriminator 8 view .LVU315
 225:Middlewares/Third_Party/FreeRTOS/Source/event_groups.c **** 
 1028              		.loc 1 225 22 is_stmt 0 discriminator 8 view .LVU316
 1029 0062 D6F80090 		ldr	r9, [r6]
 1030              	.LVL84:
 227:Middlewares/Third_Party/FreeRTOS/Source/event_groups.c **** 
 1031              		.loc 1 227 3 is_stmt 1 discriminator 8 view .LVU317
 227:Middlewares/Third_Party/FreeRTOS/Source/event_groups.c **** 
 1032              		.loc 1 227 12 is_stmt 0 discriminator 8 view .LVU318
 1033 0066 2146     		mov	r1, r4
 1034 0068 3046     		mov	r0, r6
 1035 006a FFF7FEFF 		bl	xEventGroupSetBits
 1036              	.LVL85:
 229:Middlewares/Third_Party/FreeRTOS/Source/event_groups.c **** 		{
 1037              		.loc 1 229 3 is_stmt 1 discriminator 8 view .LVU319
 229:Middlewares/Third_Party/FreeRTOS/Source/event_groups.c **** 		{
 1038              		.loc 1 229 30 is_stmt 0 discriminator 8 view .LVU320
 1039 006e 49EA0404 		orr	r4, r9, r4
 1040              	.LVL86:
 229:Middlewares/Third_Party/FreeRTOS/Source/event_groups.c **** 		{
 1041              		.loc 1 229 5 discriminator 8 view .LVU321
 1042 0072 35EA0403 		bics	r3, r5, r4
 1043 0076 18D0     		beq	.L71
 242:Middlewares/Third_Party/FreeRTOS/Source/event_groups.c **** 			{
 1044              		.loc 1 242 4 is_stmt 1 view .LVU322
 242:Middlewares/Third_Party/FreeRTOS/Source/event_groups.c **** 			{
 1045              		.loc 1 242 6 is_stmt 0 view .LVU323
 1046 0078 EFB9     		cbnz	r7, .L72
 261:Middlewares/Third_Party/FreeRTOS/Source/event_groups.c **** 			}
 1047              		.loc 1 261 5 is_stmt 1 view .LVU324
 261:Middlewares/Third_Party/FreeRTOS/Source/event_groups.c **** 			}
 1048              		.loc 1 261 14 is_stmt 0 view .LVU325
 1049 007a 3468     		ldr	r4, [r6]
 1050              	.LVL87:
 1051              	.L64:
 265:Middlewares/Third_Party/FreeRTOS/Source/event_groups.c **** 
 1052              		.loc 1 265 2 is_stmt 1 view .LVU326
 265:Middlewares/Third_Party/FreeRTOS/Source/event_groups.c **** 
 1053              		.loc 1 265 20 is_stmt 0 view .LVU327
 1054 007c FFF7FEFF 		bl	xTaskResumeAll
 1055              	.LVL88:
 267:Middlewares/Third_Party/FreeRTOS/Source/event_groups.c **** 	{
 1056              		.loc 1 267 2 is_stmt 1 view .LVU328
 267:Middlewares/Third_Party/FreeRTOS/Source/event_groups.c **** 	{
 1057              		.loc 1 267 4 is_stmt 0 view .LVU329
 1058 0080 87B1     		cbz	r7, .L56
 269:Middlewares/Third_Party/FreeRTOS/Source/event_groups.c **** 		{
 1059              		.loc 1 269 3 is_stmt 1 view .LVU330
 269:Middlewares/Third_Party/FreeRTOS/Source/event_groups.c **** 		{
 1060              		.loc 1 269 5 is_stmt 0 view .LVU331
 1061 0082 38B9     		cbnz	r0, .L67
 271:Middlewares/Third_Party/FreeRTOS/Source/event_groups.c **** 		}
 1062              		.loc 1 271 4 is_stmt 1 view .LVU332
ARM GAS  C:\Users\Nina\AppData\Local\Temp\ccVMz8wR.s 			page 42


 1063 0084 164B     		ldr	r3, .L75
 1064 0086 4FF08052 		mov	r2, #268435456
 1065 008a 1A60     		str	r2, [r3]
 271:Middlewares/Third_Party/FreeRTOS/Source/event_groups.c **** 		}
 1066              		.loc 1 271 4 view .LVU333
 1067              		.syntax unified
 1068              	@ 271 "Middlewares/Third_Party/FreeRTOS/Source/event_groups.c" 1
 1069 008c BFF34F8F 		dsb
 1070              	@ 0 "" 2
 271:Middlewares/Third_Party/FreeRTOS/Source/event_groups.c **** 		}
 1071              		.loc 1 271 4 view .LVU334
 1072              	@ 271 "Middlewares/Third_Party/FreeRTOS/Source/event_groups.c" 1
 1073 0090 BFF36F8F 		isb
 1074              	@ 0 "" 2
 271:Middlewares/Third_Party/FreeRTOS/Source/event_groups.c **** 		}
 1075              		.loc 1 271 26 view .LVU335
 1076              		.thumb
 1077              		.syntax unified
 1078              	.L67:
 275:Middlewares/Third_Party/FreeRTOS/Source/event_groups.c **** 		}
 1079              		.loc 1 275 28 view .LVU336
 282:Middlewares/Third_Party/FreeRTOS/Source/event_groups.c **** 
 1080              		.loc 1 282 3 view .LVU337
 282:Middlewares/Third_Party/FreeRTOS/Source/event_groups.c **** 
 1081              		.loc 1 282 14 is_stmt 0 view .LVU338
 1082 0094 FFF7FEFF 		bl	uxTaskResetEventItemValue
 1083              	.LVL89:
 282:Middlewares/Third_Party/FreeRTOS/Source/event_groups.c **** 
 1084              		.loc 1 282 14 view .LVU339
 1085 0098 0446     		mov	r4, r0
 1086              	.LVL90:
 284:Middlewares/Third_Party/FreeRTOS/Source/event_groups.c **** 		{
 1087              		.loc 1 284 3 is_stmt 1 view .LVU340
 284:Middlewares/Third_Party/FreeRTOS/Source/event_groups.c **** 		{
 1088              		.loc 1 284 5 is_stmt 0 view .LVU341
 1089 009a 10F0007F 		tst	r0, #33554432
 1090 009e 12D0     		beq	.L73
 1091              	.LVL91:
 1092              	.L68:
 311:Middlewares/Third_Party/FreeRTOS/Source/event_groups.c **** 
 1093              		.loc 1 311 3 is_stmt 1 view .LVU342
 315:Middlewares/Third_Party/FreeRTOS/Source/event_groups.c **** 	}
 1094              		.loc 1 315 3 view .LVU343
 315:Middlewares/Third_Party/FreeRTOS/Source/event_groups.c **** 	}
 1095              		.loc 1 315 12 is_stmt 0 view .LVU344
 1096 00a0 24F07F44 		bic	r4, r4, #-16777216
 1097              	.LVL92:
 318:Middlewares/Third_Party/FreeRTOS/Source/event_groups.c **** 
 1098              		.loc 1 318 2 is_stmt 1 view .LVU345
 320:Middlewares/Third_Party/FreeRTOS/Source/event_groups.c **** }
 1099              		.loc 1 320 2 view .LVU346
 1100              	.L56:
 321:Middlewares/Third_Party/FreeRTOS/Source/event_groups.c **** /*-----------------------------------------------------------*/
 1101              		.loc 1 321 1 is_stmt 0 view .LVU347
 1102 00a4 2046     		mov	r0, r4
 1103 00a6 BDE8F883 		pop	{r3, r4, r5, r6, r7, r8, r9, pc}
 1104              	.LVL93:
ARM GAS  C:\Users\Nina\AppData\Local\Temp\ccVMz8wR.s 			page 43


 1105              	.L71:
 232:Middlewares/Third_Party/FreeRTOS/Source/event_groups.c **** 
 1106              		.loc 1 232 4 is_stmt 1 view .LVU348
 236:Middlewares/Third_Party/FreeRTOS/Source/event_groups.c **** 
 1107              		.loc 1 236 4 view .LVU349
 236:Middlewares/Third_Party/FreeRTOS/Source/event_groups.c **** 
 1108              		.loc 1 236 29 is_stmt 0 view .LVU350
 1109 00aa 3368     		ldr	r3, [r6]
 1110 00ac 23EA0503 		bic	r3, r3, r5
 1111 00b0 3360     		str	r3, [r6]
 238:Middlewares/Third_Party/FreeRTOS/Source/event_groups.c **** 		}
 1112              		.loc 1 238 4 is_stmt 1 view .LVU351
 1113              	.LVL94:
 238:Middlewares/Third_Party/FreeRTOS/Source/event_groups.c **** 		}
 1114              		.loc 1 238 17 is_stmt 0 view .LVU352
 1115 00b2 4746     		mov	r7, r8
 1116 00b4 E2E7     		b	.L64
 1117              	.LVL95:
 1118              	.L72:
 244:Middlewares/Third_Party/FreeRTOS/Source/event_groups.c **** 
 1119              		.loc 1 244 77 is_stmt 1 view .LVU353
 249:Middlewares/Third_Party/FreeRTOS/Source/event_groups.c **** 
 1120              		.loc 1 249 5 view .LVU354
 1121 00b6 3A46     		mov	r2, r7
 1122 00b8 45F0A061 		orr	r1, r5, #83886080
 1123 00bc 301D     		adds	r0, r6, #4
 1124 00be FFF7FEFF 		bl	vTaskPlaceOnUnorderedEventList
 1125              	.LVL96:
 255:Middlewares/Third_Party/FreeRTOS/Source/event_groups.c **** 			}
 1126              		.loc 1 255 5 view .LVU355
 255:Middlewares/Third_Party/FreeRTOS/Source/event_groups.c **** 			}
 1127              		.loc 1 255 14 is_stmt 0 view .LVU356
 1128 00c2 4446     		mov	r4, r8
 1129 00c4 DAE7     		b	.L64
 1130              	.LVL97:
 1131              	.L73:
 287:Middlewares/Third_Party/FreeRTOS/Source/event_groups.c **** 			{
 1132              		.loc 1 287 4 is_stmt 1 view .LVU357
 1133 00c6 FFF7FEFF 		bl	vPortEnterCritical
 1134              	.LVL98:
 289:Middlewares/Third_Party/FreeRTOS/Source/event_groups.c **** 
 1135              		.loc 1 289 5 view .LVU358
 289:Middlewares/Third_Party/FreeRTOS/Source/event_groups.c **** 
 1136              		.loc 1 289 14 is_stmt 0 view .LVU359
 1137 00ca 3468     		ldr	r4, [r6]
 1138              	.LVL99:
 295:Middlewares/Third_Party/FreeRTOS/Source/event_groups.c **** 				{
 1139              		.loc 1 295 5 is_stmt 1 view .LVU360
 295:Middlewares/Third_Party/FreeRTOS/Source/event_groups.c **** 				{
 1140              		.loc 1 295 7 is_stmt 0 view .LVU361
 1141 00cc 35EA0403 		bics	r3, r5, r4
 1142 00d0 02D0     		beq	.L74
 1143              	.LVL100:
 1144              	.L69:
 301:Middlewares/Third_Party/FreeRTOS/Source/event_groups.c **** 				}
 1145              		.loc 1 301 30 is_stmt 1 view .LVU362
 304:Middlewares/Third_Party/FreeRTOS/Source/event_groups.c **** 
ARM GAS  C:\Users\Nina\AppData\Local\Temp\ccVMz8wR.s 			page 44


 1146              		.loc 1 304 4 view .LVU363
 1147 00d2 FFF7FEFF 		bl	vPortExitCritical
 1148              	.LVL101:
 306:Middlewares/Third_Party/FreeRTOS/Source/event_groups.c **** 		}
 1149              		.loc 1 306 4 view .LVU364
 306:Middlewares/Third_Party/FreeRTOS/Source/event_groups.c **** 		}
 1150              		.loc 1 306 4 is_stmt 0 view .LVU365
 1151 00d6 E3E7     		b	.L68
 1152              	.LVL102:
 1153              	.L74:
 297:Middlewares/Third_Party/FreeRTOS/Source/event_groups.c **** 				}
 1154              		.loc 1 297 6 is_stmt 1 view .LVU366
 297:Middlewares/Third_Party/FreeRTOS/Source/event_groups.c **** 				}
 1155              		.loc 1 297 31 is_stmt 0 view .LVU367
 1156 00d8 24EA0505 		bic	r5, r4, r5
 1157              	.LVL103:
 297:Middlewares/Third_Party/FreeRTOS/Source/event_groups.c **** 				}
 1158              		.loc 1 297 31 view .LVU368
 1159 00dc 3560     		str	r5, [r6]
 1160 00de F8E7     		b	.L69
 1161              	.L76:
 1162              		.align	2
 1163              	.L75:
 1164 00e0 04ED00E0 		.word	-536810236
 1165              		.cfi_endproc
 1166              	.LFE6:
 1168              		.section	.text.vEventGroupDelete,"ax",%progbits
 1169              		.align	1
 1170              		.global	vEventGroupDelete
 1171              		.syntax unified
 1172              		.thumb
 1173              		.thumb_func
 1174              		.fpu fpv5-sp-d16
 1176              	vEventGroupDelete:
 1177              	.LVL104:
 1178              	.LFB11:
 625:Middlewares/Third_Party/FreeRTOS/Source/event_groups.c **** EventGroup_t *pxEventBits = ( EventGroup_t * ) xEventGroup;
 1179              		.loc 1 625 1 is_stmt 1 view -0
 1180              		.cfi_startproc
 1181              		@ args = 0, pretend = 0, frame = 0
 1182              		@ frame_needed = 0, uses_anonymous_args = 0
 625:Middlewares/Third_Party/FreeRTOS/Source/event_groups.c **** EventGroup_t *pxEventBits = ( EventGroup_t * ) xEventGroup;
 1183              		.loc 1 625 1 is_stmt 0 view .LVU370
 1184 0000 10B5     		push	{r4, lr}
 1185              	.LCFI7:
 1186              		.cfi_def_cfa_offset 8
 1187              		.cfi_offset 4, -8
 1188              		.cfi_offset 14, -4
 1189 0002 0446     		mov	r4, r0
 626:Middlewares/Third_Party/FreeRTOS/Source/event_groups.c **** const List_t *pxTasksWaitingForBits = &( pxEventBits->xTasksWaitingForBits );
 1190              		.loc 1 626 1 is_stmt 1 view .LVU371
 1191              	.LVL105:
 627:Middlewares/Third_Party/FreeRTOS/Source/event_groups.c **** 
 1192              		.loc 1 627 1 view .LVU372
 629:Middlewares/Third_Party/FreeRTOS/Source/event_groups.c **** 	{
 1193              		.loc 1 629 2 view .LVU373
 1194 0004 FFF7FEFF 		bl	vTaskSuspendAll
ARM GAS  C:\Users\Nina\AppData\Local\Temp\ccVMz8wR.s 			page 45


 1195              	.LVL106:
 631:Middlewares/Third_Party/FreeRTOS/Source/event_groups.c **** 
 1196              		.loc 1 631 41 view .LVU374
 633:Middlewares/Third_Party/FreeRTOS/Source/event_groups.c **** 		{
 1197              		.loc 1 633 3 view .LVU375
 1198              	.L78:
 633:Middlewares/Third_Party/FreeRTOS/Source/event_groups.c **** 		{
 1199              		.loc 1 633 8 view .LVU376
 633:Middlewares/Third_Party/FreeRTOS/Source/event_groups.c **** 		{
 1200              		.loc 1 633 10 is_stmt 0 view .LVU377
 1201 0008 6368     		ldr	r3, [r4, #4]
 633:Middlewares/Third_Party/FreeRTOS/Source/event_groups.c **** 		{
 1202              		.loc 1 633 8 view .LVU378
 1203 000a A3B1     		cbz	r3, .L83
 637:Middlewares/Third_Party/FreeRTOS/Source/event_groups.c **** 			( void ) xTaskRemoveFromUnorderedEventList( pxTasksWaitingForBits->xListEnd.pxNext, eventUNBLOCK
 1204              		.loc 1 637 4 is_stmt 1 view .LVU379
 1205 000c 2069     		ldr	r0, [r4, #16]
 1206 000e 04F10C03 		add	r3, r4, #12
 1207 0012 9842     		cmp	r0, r3
 1208 0014 04D0     		beq	.L84
 637:Middlewares/Third_Party/FreeRTOS/Source/event_groups.c **** 			( void ) xTaskRemoveFromUnorderedEventList( pxTasksWaitingForBits->xListEnd.pxNext, eventUNBLOCK
 1209              		.loc 1 637 115 discriminator 2 view .LVU380
 638:Middlewares/Third_Party/FreeRTOS/Source/event_groups.c **** 		}
 1210              		.loc 1 638 4 discriminator 2 view .LVU381
 638:Middlewares/Third_Party/FreeRTOS/Source/event_groups.c **** 		}
 1211              		.loc 1 638 13 is_stmt 0 discriminator 2 view .LVU382
 1212 0016 4FF00071 		mov	r1, #33554432
 1213 001a FFF7FEFF 		bl	xTaskRemoveFromUnorderedEventList
 1214              	.LVL107:
 1215 001e F3E7     		b	.L78
 1216              	.L84:
 637:Middlewares/Third_Party/FreeRTOS/Source/event_groups.c **** 			( void ) xTaskRemoveFromUnorderedEventList( pxTasksWaitingForBits->xListEnd.pxNext, eventUNBLOCK
 1217              		.loc 1 637 4 is_stmt 1 view .LVU383
 1218              	.LBB60:
 1219              	.LBI60:
 233:Middlewares/Third_Party/FreeRTOS/Source/portable/GCC/ARM_CM7/r0p1/portmacro.h **** {
 1220              		.loc 2 233 30 view .LVU384
 1221              	.LBB61:
 235:Middlewares/Third_Party/FreeRTOS/Source/portable/GCC/ARM_CM7/r0p1/portmacro.h **** 
 1222              		.loc 2 235 1 view .LVU385
 237:Middlewares/Third_Party/FreeRTOS/Source/portable/GCC/ARM_CM7/r0p1/portmacro.h **** 	(
 1223              		.loc 2 237 2 view .LVU386
 1224              		.syntax unified
 1225              	@ 237 "Middlewares/Third_Party/FreeRTOS/Source/portable/GCC/ARM_CM7/r0p1/portmacro.h" 1
 1226 0020 4FF05003 			mov r3, #80												
 1227 0024 72B6     		cpsid i													
 1228 0026 83F31188 		msr basepri, r3											
 1229 002a BFF36F8F 		isb														
 1230 002e BFF34F8F 		dsb														
 1231 0032 62B6     		cpsie i													
 1232              	
 1233              	@ 0 "" 2
 1234              	.LVL108:
 1235              		.thumb
 1236              		.syntax unified
 1237              	.L80:
 237:Middlewares/Third_Party/FreeRTOS/Source/portable/GCC/ARM_CM7/r0p1/portmacro.h **** 	(
ARM GAS  C:\Users\Nina\AppData\Local\Temp\ccVMz8wR.s 			page 46


 1238              		.loc 2 237 2 is_stmt 0 view .LVU387
 1239              	.LBE61:
 1240              	.LBE60:
 637:Middlewares/Third_Party/FreeRTOS/Source/event_groups.c **** 			( void ) xTaskRemoveFromUnorderedEventList( pxTasksWaitingForBits->xListEnd.pxNext, eventUNBLOCK
 1241              		.loc 1 637 4 is_stmt 1 discriminator 1 view .LVU388
 637:Middlewares/Third_Party/FreeRTOS/Source/event_groups.c **** 			( void ) xTaskRemoveFromUnorderedEventList( pxTasksWaitingForBits->xListEnd.pxNext, eventUNBLOCK
 1242              		.loc 1 637 4 discriminator 1 view .LVU389
 637:Middlewares/Third_Party/FreeRTOS/Source/event_groups.c **** 			( void ) xTaskRemoveFromUnorderedEventList( pxTasksWaitingForBits->xListEnd.pxNext, eventUNBLOCK
 1243              		.loc 1 637 4 discriminator 1 view .LVU390
 1244 0034 FEE7     		b	.L80
 1245              	.L83:
 645:Middlewares/Third_Party/FreeRTOS/Source/event_groups.c **** 		}
 1246              		.loc 1 645 4 view .LVU391
 1247 0036 2046     		mov	r0, r4
 1248 0038 FFF7FEFF 		bl	vPortFree
 1249              	.LVL109:
 662:Middlewares/Third_Party/FreeRTOS/Source/event_groups.c **** }
 1250              		.loc 1 662 2 view .LVU392
 662:Middlewares/Third_Party/FreeRTOS/Source/event_groups.c **** }
 1251              		.loc 1 662 11 is_stmt 0 view .LVU393
 1252 003c FFF7FEFF 		bl	xTaskResumeAll
 1253              	.LVL110:
 663:Middlewares/Third_Party/FreeRTOS/Source/event_groups.c **** /*-----------------------------------------------------------*/
 1254              		.loc 1 663 1 view .LVU394
 1255 0040 10BD     		pop	{r4, pc}
 663:Middlewares/Third_Party/FreeRTOS/Source/event_groups.c **** /*-----------------------------------------------------------*/
 1256              		.loc 1 663 1 view .LVU395
 1257              		.cfi_endproc
 1258              	.LFE11:
 1260              		.section	.text.vEventGroupSetBitsCallback,"ax",%progbits
 1261              		.align	1
 1262              		.global	vEventGroupSetBitsCallback
 1263              		.syntax unified
 1264              		.thumb
 1265              		.thumb_func
 1266              		.fpu fpv5-sp-d16
 1268              	vEventGroupSetBitsCallback:
 1269              	.LVL111:
 1270              	.LFB12:
 669:Middlewares/Third_Party/FreeRTOS/Source/event_groups.c **** 	( void ) xEventGroupSetBits( pvEventGroup, ( EventBits_t ) ulBitsToSet );
 1271              		.loc 1 669 1 is_stmt 1 view -0
 1272              		.cfi_startproc
 1273              		@ args = 0, pretend = 0, frame = 0
 1274              		@ frame_needed = 0, uses_anonymous_args = 0
 669:Middlewares/Third_Party/FreeRTOS/Source/event_groups.c **** 	( void ) xEventGroupSetBits( pvEventGroup, ( EventBits_t ) ulBitsToSet );
 1275              		.loc 1 669 1 is_stmt 0 view .LVU397
 1276 0000 08B5     		push	{r3, lr}
 1277              	.LCFI8:
 1278              		.cfi_def_cfa_offset 8
 1279              		.cfi_offset 3, -8
 1280              		.cfi_offset 14, -4
 670:Middlewares/Third_Party/FreeRTOS/Source/event_groups.c **** }
 1281              		.loc 1 670 2 is_stmt 1 view .LVU398
 670:Middlewares/Third_Party/FreeRTOS/Source/event_groups.c **** }
 1282              		.loc 1 670 11 is_stmt 0 view .LVU399
 1283 0002 FFF7FEFF 		bl	xEventGroupSetBits
 1284              	.LVL112:
ARM GAS  C:\Users\Nina\AppData\Local\Temp\ccVMz8wR.s 			page 47


 671:Middlewares/Third_Party/FreeRTOS/Source/event_groups.c **** /*-----------------------------------------------------------*/
 1285              		.loc 1 671 1 view .LVU400
 1286 0006 08BD     		pop	{r3, pc}
 1287              		.cfi_endproc
 1288              	.LFE12:
 1290              		.section	.text.vEventGroupClearBitsCallback,"ax",%progbits
 1291              		.align	1
 1292              		.global	vEventGroupClearBitsCallback
 1293              		.syntax unified
 1294              		.thumb
 1295              		.thumb_func
 1296              		.fpu fpv5-sp-d16
 1298              	vEventGroupClearBitsCallback:
 1299              	.LVL113:
 1300              	.LFB13:
 677:Middlewares/Third_Party/FreeRTOS/Source/event_groups.c **** 	( void ) xEventGroupClearBits( pvEventGroup, ( EventBits_t ) ulBitsToClear );
 1301              		.loc 1 677 1 is_stmt 1 view -0
 1302              		.cfi_startproc
 1303              		@ args = 0, pretend = 0, frame = 0
 1304              		@ frame_needed = 0, uses_anonymous_args = 0
 677:Middlewares/Third_Party/FreeRTOS/Source/event_groups.c **** 	( void ) xEventGroupClearBits( pvEventGroup, ( EventBits_t ) ulBitsToClear );
 1305              		.loc 1 677 1 is_stmt 0 view .LVU402
 1306 0000 08B5     		push	{r3, lr}
 1307              	.LCFI9:
 1308              		.cfi_def_cfa_offset 8
 1309              		.cfi_offset 3, -8
 1310              		.cfi_offset 14, -4
 678:Middlewares/Third_Party/FreeRTOS/Source/event_groups.c **** }
 1311              		.loc 1 678 2 is_stmt 1 view .LVU403
 678:Middlewares/Third_Party/FreeRTOS/Source/event_groups.c **** }
 1312              		.loc 1 678 11 is_stmt 0 view .LVU404
 1313 0002 FFF7FEFF 		bl	xEventGroupClearBits
 1314              	.LVL114:
 679:Middlewares/Third_Party/FreeRTOS/Source/event_groups.c **** /*-----------------------------------------------------------*/
 1315              		.loc 1 679 1 view .LVU405
 1316 0006 08BD     		pop	{r3, pc}
 1317              		.cfi_endproc
 1318              	.LFE13:
 1320              		.text
 1321              	.Letext0:
 1322              		.file 3 "c:\\program files (x86)\\gnu tools arm embedded\\9 2019-q4-major\\arm-none-eabi\\include\
 1323              		.file 4 "c:\\program files (x86)\\gnu tools arm embedded\\9 2019-q4-major\\arm-none-eabi\\include\
 1324              		.file 5 "c:\\program files (x86)\\gnu tools arm embedded\\9 2019-q4-major\\arm-none-eabi\\include\
 1325              		.file 6 "c:\\program files (x86)\\gnu tools arm embedded\\9 2019-q4-major\\lib\\gcc\\arm-none-eabi
 1326              		.file 7 "c:\\program files (x86)\\gnu tools arm embedded\\9 2019-q4-major\\arm-none-eabi\\include\
 1327              		.file 8 "c:\\program files (x86)\\gnu tools arm embedded\\9 2019-q4-major\\arm-none-eabi\\include\
 1328              		.file 9 "c:\\program files (x86)\\gnu tools arm embedded\\9 2019-q4-major\\arm-none-eabi\\include\
 1329              		.file 10 "Inc/FreeRTOSConfig.h"
 1330              		.file 11 "Middlewares/Third_Party/FreeRTOS/Source/include/list.h"
 1331              		.file 12 "Middlewares/Third_Party/FreeRTOS/Source/include/event_groups.h"
 1332              		.file 13 "Middlewares/Third_Party/FreeRTOS/Source/include/task.h"
 1333              		.file 14 "Middlewares/Third_Party/FreeRTOS/Source/include/portable.h"
ARM GAS  C:\Users\Nina\AppData\Local\Temp\ccVMz8wR.s 			page 48

