ARM GAS  C:\Users\Nina\AppData\Local\Temp\ccpNvcYQ.s 			page 1


   1              		.cpu cortex-m7
   2              		.eabi_attribute 27, 1
   3              		.eabi_attribute 28, 1
   4              		.eabi_attribute 20, 1
   5              		.eabi_attribute 21, 1
   6              		.eabi_attribute 23, 3
   7              		.eabi_attribute 24, 1
   8              		.eabi_attribute 25, 1
   9              		.eabi_attribute 26, 1
  10              		.eabi_attribute 30, 1
  11              		.eabi_attribute 34, 1
  12              		.eabi_attribute 18, 4
  13              		.file	"ff_gen_drv.c"
  14              		.text
  15              	.Ltext0:
  16              		.cfi_sections	.debug_frame
  17              		.section	.text.FATFS_LinkDriverEx,"ax",%progbits
  18              		.align	1
  19              		.global	FATFS_LinkDriverEx
  20              		.arch armv7e-m
  21              		.syntax unified
  22              		.thumb
  23              		.thumb_func
  24              		.fpu fpv5-sp-d16
  26              	FATFS_LinkDriverEx:
  27              	.LVL0:
  28              	.LFB143:
  29              		.file 1 "Middlewares/Third_Party/FatFs/src/ff_gen_drv.c"
   1:Middlewares/Third_Party/FatFs/src/ff_gen_drv.c **** /**
   2:Middlewares/Third_Party/FatFs/src/ff_gen_drv.c ****   ******************************************************************************
   3:Middlewares/Third_Party/FatFs/src/ff_gen_drv.c ****   * @file    ff_gen_drv.c
   4:Middlewares/Third_Party/FatFs/src/ff_gen_drv.c ****   * @author  MCD Application Team
   5:Middlewares/Third_Party/FatFs/src/ff_gen_drv.c ****   * @version V2.0.2
   6:Middlewares/Third_Party/FatFs/src/ff_gen_drv.c ****   * @date    10-November-2017
   7:Middlewares/Third_Party/FatFs/src/ff_gen_drv.c ****   * @brief   FatFs generic low level driver.
   8:Middlewares/Third_Party/FatFs/src/ff_gen_drv.c ****   ******************************************************************************
   9:Middlewares/Third_Party/FatFs/src/ff_gen_drv.c ****   * @attention
  10:Middlewares/Third_Party/FatFs/src/ff_gen_drv.c ****   *
  11:Middlewares/Third_Party/FatFs/src/ff_gen_drv.c ****   * <h2><center>&copy; Copyright (c) 2017 STMicroelectronics International N.V.
  12:Middlewares/Third_Party/FatFs/src/ff_gen_drv.c ****   * All rights reserved.</center></h2>
  13:Middlewares/Third_Party/FatFs/src/ff_gen_drv.c ****   *
  14:Middlewares/Third_Party/FatFs/src/ff_gen_drv.c ****   * Redistribution and use in source and binary forms, with or without
  15:Middlewares/Third_Party/FatFs/src/ff_gen_drv.c ****   * modification, are permitted, provided that the following conditions are met:
  16:Middlewares/Third_Party/FatFs/src/ff_gen_drv.c ****   *
  17:Middlewares/Third_Party/FatFs/src/ff_gen_drv.c ****   * 1. Redistribution of source code must retain the above copyright notice,
  18:Middlewares/Third_Party/FatFs/src/ff_gen_drv.c ****   *    this list of conditions and the following disclaimer.
  19:Middlewares/Third_Party/FatFs/src/ff_gen_drv.c ****   * 2. Redistributions in binary form must reproduce the above copyright notice,
  20:Middlewares/Third_Party/FatFs/src/ff_gen_drv.c ****   *    this list of conditions and the following disclaimer in the documentation
  21:Middlewares/Third_Party/FatFs/src/ff_gen_drv.c ****   *    and/or other materials provided with the distribution.
  22:Middlewares/Third_Party/FatFs/src/ff_gen_drv.c ****   * 3. Neither the name of STMicroelectronics nor the names of other
  23:Middlewares/Third_Party/FatFs/src/ff_gen_drv.c ****   *    contributors to this software may be used to endorse or promote products
  24:Middlewares/Third_Party/FatFs/src/ff_gen_drv.c ****   *    derived from this software without specific written permission.
  25:Middlewares/Third_Party/FatFs/src/ff_gen_drv.c ****   * 4. This software, including modifications and/or derivative works of this
  26:Middlewares/Third_Party/FatFs/src/ff_gen_drv.c ****   *    software, must execute solely and exclusively on microcontroller or
  27:Middlewares/Third_Party/FatFs/src/ff_gen_drv.c ****   *    microprocessor devices manufactured by or for STMicroelectronics.
  28:Middlewares/Third_Party/FatFs/src/ff_gen_drv.c ****   * 5. Redistribution and use of this software other than as permitted under
  29:Middlewares/Third_Party/FatFs/src/ff_gen_drv.c ****   *    this license is void and will automatically terminate your rights under
ARM GAS  C:\Users\Nina\AppData\Local\Temp\ccpNvcYQ.s 			page 2


  30:Middlewares/Third_Party/FatFs/src/ff_gen_drv.c ****   *    this license.
  31:Middlewares/Third_Party/FatFs/src/ff_gen_drv.c ****   *
  32:Middlewares/Third_Party/FatFs/src/ff_gen_drv.c ****   * THIS SOFTWARE IS PROVIDED BY STMICROELECTRONICS AND CONTRIBUTORS "AS IS"
  33:Middlewares/Third_Party/FatFs/src/ff_gen_drv.c ****   * AND ANY EXPRESS, IMPLIED OR STATUTORY WARRANTIES, INCLUDING, BUT NOT
  34:Middlewares/Third_Party/FatFs/src/ff_gen_drv.c ****   * LIMITED TO, THE IMPLIED WARRANTIES OF MERCHANTABILITY, FITNESS FOR A
  35:Middlewares/Third_Party/FatFs/src/ff_gen_drv.c ****   * PARTICULAR PURPOSE AND NON-INFRINGEMENT OF THIRD PARTY INTELLECTUAL PROPERTY
  36:Middlewares/Third_Party/FatFs/src/ff_gen_drv.c ****   * RIGHTS ARE DISCLAIMED TO THE FULLEST EXTENT PERMITTED BY LAW. IN NO EVENT
  37:Middlewares/Third_Party/FatFs/src/ff_gen_drv.c ****   * SHALL STMICROELECTRONICS OR CONTRIBUTORS BE LIABLE FOR ANY DIRECT, INDIRECT,
  38:Middlewares/Third_Party/FatFs/src/ff_gen_drv.c ****   * INCIDENTAL, SPECIAL, EXEMPLARY, OR CONSEQUENTIAL DAMAGES (INCLUDING, BUT NOT
  39:Middlewares/Third_Party/FatFs/src/ff_gen_drv.c ****   * LIMITED TO, PROCUREMENT OF SUBSTITUTE GOODS OR SERVICES; LOSS OF USE, DATA,
  40:Middlewares/Third_Party/FatFs/src/ff_gen_drv.c ****   * OR PROFITS; OR BUSINESS INTERRUPTION) HOWEVER CAUSED AND ON ANY THEORY OF
  41:Middlewares/Third_Party/FatFs/src/ff_gen_drv.c ****   * LIABILITY, WHETHER IN CONTRACT, STRICT LIABILITY, OR TORT (INCLUDING
  42:Middlewares/Third_Party/FatFs/src/ff_gen_drv.c ****   * NEGLIGENCE OR OTHERWISE) ARISING IN ANY WAY OUT OF THE USE OF THIS SOFTWARE,
  43:Middlewares/Third_Party/FatFs/src/ff_gen_drv.c ****   * EVEN IF ADVISED OF THE POSSIBILITY OF SUCH DAMAGE.
  44:Middlewares/Third_Party/FatFs/src/ff_gen_drv.c ****   *
  45:Middlewares/Third_Party/FatFs/src/ff_gen_drv.c ****   ******************************************************************************
  46:Middlewares/Third_Party/FatFs/src/ff_gen_drv.c ****   */
  47:Middlewares/Third_Party/FatFs/src/ff_gen_drv.c **** 
  48:Middlewares/Third_Party/FatFs/src/ff_gen_drv.c **** /* Includes ------------------------------------------------------------------*/
  49:Middlewares/Third_Party/FatFs/src/ff_gen_drv.c **** #include "ff_gen_drv.h"
  50:Middlewares/Third_Party/FatFs/src/ff_gen_drv.c **** 
  51:Middlewares/Third_Party/FatFs/src/ff_gen_drv.c **** /* Private typedef -----------------------------------------------------------*/
  52:Middlewares/Third_Party/FatFs/src/ff_gen_drv.c **** /* Private define ------------------------------------------------------------*/
  53:Middlewares/Third_Party/FatFs/src/ff_gen_drv.c **** /* Private variables ---------------------------------------------------------*/
  54:Middlewares/Third_Party/FatFs/src/ff_gen_drv.c **** Disk_drvTypeDef disk = {{0},{0},{0},0};
  55:Middlewares/Third_Party/FatFs/src/ff_gen_drv.c **** 
  56:Middlewares/Third_Party/FatFs/src/ff_gen_drv.c **** /* Private function prototypes -----------------------------------------------*/
  57:Middlewares/Third_Party/FatFs/src/ff_gen_drv.c **** /* Private functions ---------------------------------------------------------*/
  58:Middlewares/Third_Party/FatFs/src/ff_gen_drv.c **** 
  59:Middlewares/Third_Party/FatFs/src/ff_gen_drv.c **** /**
  60:Middlewares/Third_Party/FatFs/src/ff_gen_drv.c ****   * @brief  Links a compatible diskio driver/lun id and increments the number of active
  61:Middlewares/Third_Party/FatFs/src/ff_gen_drv.c ****   *         linked drivers.
  62:Middlewares/Third_Party/FatFs/src/ff_gen_drv.c ****   * @note   The number of linked drivers (volumes) is up to 10 due to FatFs limits.
  63:Middlewares/Third_Party/FatFs/src/ff_gen_drv.c ****   * @param  drv: pointer to the disk IO Driver structure
  64:Middlewares/Third_Party/FatFs/src/ff_gen_drv.c ****   * @param  path: pointer to the logical drive path
  65:Middlewares/Third_Party/FatFs/src/ff_gen_drv.c ****   * @param  lun : only used for USB Key Disk to add multi-lun management
  66:Middlewares/Third_Party/FatFs/src/ff_gen_drv.c ****             else the parameter must be equal to 0
  67:Middlewares/Third_Party/FatFs/src/ff_gen_drv.c ****   * @retval Returns 0 in case of success, otherwise 1.
  68:Middlewares/Third_Party/FatFs/src/ff_gen_drv.c ****   */
  69:Middlewares/Third_Party/FatFs/src/ff_gen_drv.c **** uint8_t FATFS_LinkDriverEx(const Diskio_drvTypeDef *drv, char *path, uint8_t lun)
  70:Middlewares/Third_Party/FatFs/src/ff_gen_drv.c **** {
  30              		.loc 1 70 1 view -0
  31              		.cfi_startproc
  32              		@ args = 0, pretend = 0, frame = 0
  33              		@ frame_needed = 0, uses_anonymous_args = 0
  34              		@ link register save eliminated.
  71:Middlewares/Third_Party/FatFs/src/ff_gen_drv.c ****   uint8_t ret = 1;
  35              		.loc 1 71 3 view .LVU1
  72:Middlewares/Third_Party/FatFs/src/ff_gen_drv.c ****   uint8_t DiskNum = 0;
  36              		.loc 1 72 3 view .LVU2
  73:Middlewares/Third_Party/FatFs/src/ff_gen_drv.c **** 
  74:Middlewares/Third_Party/FatFs/src/ff_gen_drv.c ****   if(disk.nbr < _VOLUMES)
  37              		.loc 1 74 3 view .LVU3
  38              		.loc 1 74 10 is_stmt 0 view .LVU4
  39 0000 104B     		ldr	r3, .L9
  40 0002 9B7B     		ldrb	r3, [r3, #14]	@ zero_extendqisi2
  41 0004 DBB2     		uxtb	r3, r3
ARM GAS  C:\Users\Nina\AppData\Local\Temp\ccpNvcYQ.s 			page 3


  42              		.loc 1 74 5 view .LVU5
  43 0006 012B     		cmp	r3, #1
  44 0008 01D9     		bls	.L8
  71:Middlewares/Third_Party/FatFs/src/ff_gen_drv.c ****   uint8_t DiskNum = 0;
  45              		.loc 1 71 11 view .LVU6
  46 000a 0120     		movs	r0, #1
  47              	.LVL1:
  75:Middlewares/Third_Party/FatFs/src/ff_gen_drv.c ****   {
  76:Middlewares/Third_Party/FatFs/src/ff_gen_drv.c ****     disk.is_initialized[disk.nbr] = 0;
  77:Middlewares/Third_Party/FatFs/src/ff_gen_drv.c ****     disk.drv[disk.nbr] = drv;
  78:Middlewares/Third_Party/FatFs/src/ff_gen_drv.c ****     disk.lun[disk.nbr] = lun;
  79:Middlewares/Third_Party/FatFs/src/ff_gen_drv.c ****     DiskNum = disk.nbr++;
  80:Middlewares/Third_Party/FatFs/src/ff_gen_drv.c ****     path[0] = DiskNum + '0';
  81:Middlewares/Third_Party/FatFs/src/ff_gen_drv.c ****     path[1] = ':';
  82:Middlewares/Third_Party/FatFs/src/ff_gen_drv.c ****     path[2] = '/';
  83:Middlewares/Third_Party/FatFs/src/ff_gen_drv.c ****     path[3] = 0;
  84:Middlewares/Third_Party/FatFs/src/ff_gen_drv.c ****     ret = 0;
  85:Middlewares/Third_Party/FatFs/src/ff_gen_drv.c ****   }
  86:Middlewares/Third_Party/FatFs/src/ff_gen_drv.c **** 
  87:Middlewares/Third_Party/FatFs/src/ff_gen_drv.c ****   return ret;
  48              		.loc 1 87 3 is_stmt 1 view .LVU7
  88:Middlewares/Third_Party/FatFs/src/ff_gen_drv.c **** }
  49              		.loc 1 88 1 is_stmt 0 view .LVU8
  50 000c 7047     		bx	lr
  51              	.LVL2:
  52              	.L8:
  70:Middlewares/Third_Party/FatFs/src/ff_gen_drv.c ****   uint8_t ret = 1;
  53              		.loc 1 70 1 view .LVU9
  54 000e 30B4     		push	{r4, r5}
  55              	.LCFI0:
  56              		.cfi_def_cfa_offset 8
  57              		.cfi_offset 4, -8
  58              		.cfi_offset 5, -4
  59 0010 0446     		mov	r4, r0
  76:Middlewares/Third_Party/FatFs/src/ff_gen_drv.c ****     disk.drv[disk.nbr] = drv;
  60              		.loc 1 76 5 is_stmt 1 view .LVU10
  76:Middlewares/Third_Party/FatFs/src/ff_gen_drv.c ****     disk.drv[disk.nbr] = drv;
  61              		.loc 1 76 29 is_stmt 0 view .LVU11
  62 0012 0C4B     		ldr	r3, .L9
  63 0014 9D7B     		ldrb	r5, [r3, #14]	@ zero_extendqisi2
  64 0016 EDB2     		uxtb	r5, r5
  76:Middlewares/Third_Party/FatFs/src/ff_gen_drv.c ****     disk.drv[disk.nbr] = drv;
  65              		.loc 1 76 35 view .LVU12
  66 0018 0020     		movs	r0, #0
  67              	.LVL3:
  76:Middlewares/Third_Party/FatFs/src/ff_gen_drv.c ****     disk.drv[disk.nbr] = drv;
  68              		.loc 1 76 35 view .LVU13
  69 001a 5855     		strb	r0, [r3, r5]
  77:Middlewares/Third_Party/FatFs/src/ff_gen_drv.c ****     disk.lun[disk.nbr] = lun;
  70              		.loc 1 77 5 is_stmt 1 view .LVU14
  77:Middlewares/Third_Party/FatFs/src/ff_gen_drv.c ****     disk.lun[disk.nbr] = lun;
  71              		.loc 1 77 18 is_stmt 0 view .LVU15
  72 001c 9D7B     		ldrb	r5, [r3, #14]	@ zero_extendqisi2
  77:Middlewares/Third_Party/FatFs/src/ff_gen_drv.c ****     disk.lun[disk.nbr] = lun;
  73              		.loc 1 77 24 view .LVU16
  74 001e 03EB8505 		add	r5, r3, r5, lsl #2
  75 0022 6C60     		str	r4, [r5, #4]
ARM GAS  C:\Users\Nina\AppData\Local\Temp\ccpNvcYQ.s 			page 4


  78:Middlewares/Third_Party/FatFs/src/ff_gen_drv.c ****     DiskNum = disk.nbr++;
  76              		.loc 1 78 5 is_stmt 1 view .LVU17
  78:Middlewares/Third_Party/FatFs/src/ff_gen_drv.c ****     DiskNum = disk.nbr++;
  77              		.loc 1 78 18 is_stmt 0 view .LVU18
  78 0024 9C7B     		ldrb	r4, [r3, #14]	@ zero_extendqisi2
  79              	.LVL4:
  78:Middlewares/Third_Party/FatFs/src/ff_gen_drv.c ****     DiskNum = disk.nbr++;
  80              		.loc 1 78 24 view .LVU19
  81 0026 1C44     		add	r4, r4, r3
  82 0028 2273     		strb	r2, [r4, #12]
  79:Middlewares/Third_Party/FatFs/src/ff_gen_drv.c ****     path[0] = DiskNum + '0';
  83              		.loc 1 79 5 is_stmt 1 view .LVU20
  79:Middlewares/Third_Party/FatFs/src/ff_gen_drv.c ****     path[0] = DiskNum + '0';
  84              		.loc 1 79 19 is_stmt 0 view .LVU21
  85 002a 9A7B     		ldrb	r2, [r3, #14]	@ zero_extendqisi2
  86              	.LVL5:
  79:Middlewares/Third_Party/FatFs/src/ff_gen_drv.c ****     path[0] = DiskNum + '0';
  87              		.loc 1 79 23 view .LVU22
  88 002c 541C     		adds	r4, r2, #1
  89              	.LVL6:
  79:Middlewares/Third_Party/FatFs/src/ff_gen_drv.c ****     path[0] = DiskNum + '0';
  90              		.loc 1 79 23 view .LVU23
  91 002e E4B2     		uxtb	r4, r4
  92 0030 9C73     		strb	r4, [r3, #14]
  93              	.LVL7:
  80:Middlewares/Third_Party/FatFs/src/ff_gen_drv.c ****     path[1] = ':';
  94              		.loc 1 80 5 is_stmt 1 view .LVU24
  80:Middlewares/Third_Party/FatFs/src/ff_gen_drv.c ****     path[1] = ':';
  95              		.loc 1 80 23 is_stmt 0 view .LVU25
  96 0032 3032     		adds	r2, r2, #48
  97              	.LVL8:
  80:Middlewares/Third_Party/FatFs/src/ff_gen_drv.c ****     path[1] = ':';
  98              		.loc 1 80 13 view .LVU26
  99 0034 0A70     		strb	r2, [r1]
 100              	.LVL9:
  81:Middlewares/Third_Party/FatFs/src/ff_gen_drv.c ****     path[2] = '/';
 101              		.loc 1 81 5 is_stmt 1 view .LVU27
  81:Middlewares/Third_Party/FatFs/src/ff_gen_drv.c ****     path[2] = '/';
 102              		.loc 1 81 13 is_stmt 0 view .LVU28
 103 0036 3A23     		movs	r3, #58
 104 0038 4B70     		strb	r3, [r1, #1]
  82:Middlewares/Third_Party/FatFs/src/ff_gen_drv.c ****     path[3] = 0;
 105              		.loc 1 82 5 is_stmt 1 view .LVU29
  82:Middlewares/Third_Party/FatFs/src/ff_gen_drv.c ****     path[3] = 0;
 106              		.loc 1 82 13 is_stmt 0 view .LVU30
 107 003a 2F23     		movs	r3, #47
 108 003c 8B70     		strb	r3, [r1, #2]
  83:Middlewares/Third_Party/FatFs/src/ff_gen_drv.c ****     ret = 0;
 109              		.loc 1 83 5 is_stmt 1 view .LVU31
  83:Middlewares/Third_Party/FatFs/src/ff_gen_drv.c ****     ret = 0;
 110              		.loc 1 83 13 is_stmt 0 view .LVU32
 111 003e C870     		strb	r0, [r1, #3]
  84:Middlewares/Third_Party/FatFs/src/ff_gen_drv.c ****   }
 112              		.loc 1 84 5 is_stmt 1 view .LVU33
 113              	.LVL10:
  87:Middlewares/Third_Party/FatFs/src/ff_gen_drv.c **** }
 114              		.loc 1 87 3 view .LVU34
ARM GAS  C:\Users\Nina\AppData\Local\Temp\ccpNvcYQ.s 			page 5


 115              		.loc 1 88 1 is_stmt 0 view .LVU35
 116 0040 30BC     		pop	{r4, r5}
 117              	.LCFI1:
 118              		.cfi_restore 5
 119              		.cfi_restore 4
 120              		.cfi_def_cfa_offset 0
 121 0042 7047     		bx	lr
 122              	.L10:
 123              		.align	2
 124              	.L9:
 125 0044 00000000 		.word	.LANCHOR0
 126              		.cfi_endproc
 127              	.LFE143:
 129              		.section	.text.FATFS_LinkDriver,"ax",%progbits
 130              		.align	1
 131              		.global	FATFS_LinkDriver
 132              		.syntax unified
 133              		.thumb
 134              		.thumb_func
 135              		.fpu fpv5-sp-d16
 137              	FATFS_LinkDriver:
 138              	.LVL11:
 139              	.LFB144:
  89:Middlewares/Third_Party/FatFs/src/ff_gen_drv.c **** 
  90:Middlewares/Third_Party/FatFs/src/ff_gen_drv.c **** /**
  91:Middlewares/Third_Party/FatFs/src/ff_gen_drv.c ****   * @brief  Links a compatible diskio driver and increments the number of active
  92:Middlewares/Third_Party/FatFs/src/ff_gen_drv.c ****   *         linked drivers.
  93:Middlewares/Third_Party/FatFs/src/ff_gen_drv.c ****   * @note   The number of linked drivers (volumes) is up to 10 due to FatFs limits
  94:Middlewares/Third_Party/FatFs/src/ff_gen_drv.c ****   * @param  drv: pointer to the disk IO Driver structure
  95:Middlewares/Third_Party/FatFs/src/ff_gen_drv.c ****   * @param  path: pointer to the logical drive path
  96:Middlewares/Third_Party/FatFs/src/ff_gen_drv.c ****   * @retval Returns 0 in case of success, otherwise 1.
  97:Middlewares/Third_Party/FatFs/src/ff_gen_drv.c ****   */
  98:Middlewares/Third_Party/FatFs/src/ff_gen_drv.c **** uint8_t FATFS_LinkDriver(const Diskio_drvTypeDef *drv, char *path)
  99:Middlewares/Third_Party/FatFs/src/ff_gen_drv.c **** {
 140              		.loc 1 99 1 is_stmt 1 view -0
 141              		.cfi_startproc
 142              		@ args = 0, pretend = 0, frame = 0
 143              		@ frame_needed = 0, uses_anonymous_args = 0
 144              		.loc 1 99 1 is_stmt 0 view .LVU37
 145 0000 08B5     		push	{r3, lr}
 146              	.LCFI2:
 147              		.cfi_def_cfa_offset 8
 148              		.cfi_offset 3, -8
 149              		.cfi_offset 14, -4
 100:Middlewares/Third_Party/FatFs/src/ff_gen_drv.c ****   return FATFS_LinkDriverEx(drv, path, 0);
 150              		.loc 1 100 3 is_stmt 1 view .LVU38
 151              		.loc 1 100 10 is_stmt 0 view .LVU39
 152 0002 0022     		movs	r2, #0
 153 0004 FFF7FEFF 		bl	FATFS_LinkDriverEx
 154              	.LVL12:
 101:Middlewares/Third_Party/FatFs/src/ff_gen_drv.c **** }
 155              		.loc 1 101 1 view .LVU40
 156 0008 08BD     		pop	{r3, pc}
 157              		.cfi_endproc
 158              	.LFE144:
 160              		.section	.text.FATFS_UnLinkDriverEx,"ax",%progbits
 161              		.align	1
ARM GAS  C:\Users\Nina\AppData\Local\Temp\ccpNvcYQ.s 			page 6


 162              		.global	FATFS_UnLinkDriverEx
 163              		.syntax unified
 164              		.thumb
 165              		.thumb_func
 166              		.fpu fpv5-sp-d16
 168              	FATFS_UnLinkDriverEx:
 169              	.LVL13:
 170              	.LFB145:
 102:Middlewares/Third_Party/FatFs/src/ff_gen_drv.c **** 
 103:Middlewares/Third_Party/FatFs/src/ff_gen_drv.c **** /**
 104:Middlewares/Third_Party/FatFs/src/ff_gen_drv.c ****   * @brief  Unlinks a diskio driver and decrements the number of active linked
 105:Middlewares/Third_Party/FatFs/src/ff_gen_drv.c ****   *         drivers.
 106:Middlewares/Third_Party/FatFs/src/ff_gen_drv.c ****   * @param  path: pointer to the logical drive path
 107:Middlewares/Third_Party/FatFs/src/ff_gen_drv.c ****   * @param  lun : not used
 108:Middlewares/Third_Party/FatFs/src/ff_gen_drv.c ****   * @retval Returns 0 in case of success, otherwise 1.
 109:Middlewares/Third_Party/FatFs/src/ff_gen_drv.c ****   */
 110:Middlewares/Third_Party/FatFs/src/ff_gen_drv.c **** uint8_t FATFS_UnLinkDriverEx(char *path, uint8_t lun)
 111:Middlewares/Third_Party/FatFs/src/ff_gen_drv.c **** {
 171              		.loc 1 111 1 is_stmt 1 view -0
 172              		.cfi_startproc
 173              		@ args = 0, pretend = 0, frame = 0
 174              		@ frame_needed = 0, uses_anonymous_args = 0
 175              		@ link register save eliminated.
 112:Middlewares/Third_Party/FatFs/src/ff_gen_drv.c ****   uint8_t DiskNum = 0;
 176              		.loc 1 112 3 view .LVU42
 113:Middlewares/Third_Party/FatFs/src/ff_gen_drv.c ****   uint8_t ret = 1;
 177              		.loc 1 113 3 view .LVU43
 114:Middlewares/Third_Party/FatFs/src/ff_gen_drv.c **** 
 115:Middlewares/Third_Party/FatFs/src/ff_gen_drv.c ****   if(disk.nbr >= 1)
 178              		.loc 1 115 3 view .LVU44
 179              		.loc 1 115 10 is_stmt 0 view .LVU45
 180 0000 0D4B     		ldr	r3, .L17
 181 0002 9B7B     		ldrb	r3, [r3, #14]	@ zero_extendqisi2
 182              		.loc 1 115 5 view .LVU46
 183 0004 9BB1     		cbz	r3, .L15
 116:Middlewares/Third_Party/FatFs/src/ff_gen_drv.c ****   {
 117:Middlewares/Third_Party/FatFs/src/ff_gen_drv.c ****     DiskNum = path[0] - '0';
 184              		.loc 1 117 5 is_stmt 1 view .LVU47
 185              		.loc 1 117 19 is_stmt 0 view .LVU48
 186 0006 0378     		ldrb	r3, [r0]	@ zero_extendqisi2
 187              		.loc 1 117 13 view .LVU49
 188 0008 303B     		subs	r3, r3, #48
 189 000a DBB2     		uxtb	r3, r3
 190              	.LVL14:
 118:Middlewares/Third_Party/FatFs/src/ff_gen_drv.c ****     if(disk.drv[DiskNum] != 0)
 191              		.loc 1 118 5 is_stmt 1 view .LVU50
 192              		.loc 1 118 16 is_stmt 0 view .LVU51
 193 000c 0A4A     		ldr	r2, .L17
 194 000e 02EB8302 		add	r2, r2, r3, lsl #2
 195 0012 5268     		ldr	r2, [r2, #4]
 196              		.loc 1 118 7 view .LVU52
 197 0014 6AB1     		cbz	r2, .L16
 119:Middlewares/Third_Party/FatFs/src/ff_gen_drv.c ****     {
 120:Middlewares/Third_Party/FatFs/src/ff_gen_drv.c ****       disk.drv[DiskNum] = 0;
 198              		.loc 1 120 7 is_stmt 1 view .LVU53
 199              		.loc 1 120 25 is_stmt 0 view .LVU54
 200 0016 084A     		ldr	r2, .L17
ARM GAS  C:\Users\Nina\AppData\Local\Temp\ccpNvcYQ.s 			page 7


 201 0018 02EB8301 		add	r1, r2, r3, lsl #2
 202              	.LVL15:
 203              		.loc 1 120 25 view .LVU55
 204 001c 0020     		movs	r0, #0
 205              	.LVL16:
 206              		.loc 1 120 25 view .LVU56
 207 001e 4860     		str	r0, [r1, #4]
 121:Middlewares/Third_Party/FatFs/src/ff_gen_drv.c ****       disk.lun[DiskNum] = 0;
 208              		.loc 1 121 7 is_stmt 1 view .LVU57
 209              		.loc 1 121 25 is_stmt 0 view .LVU58
 210 0020 1344     		add	r3, r3, r2
 211 0022 1873     		strb	r0, [r3, #12]
 122:Middlewares/Third_Party/FatFs/src/ff_gen_drv.c ****       disk.nbr--;
 212              		.loc 1 122 7 is_stmt 1 view .LVU59
 213              		.loc 1 122 11 is_stmt 0 view .LVU60
 214 0024 937B     		ldrb	r3, [r2, #14]	@ zero_extendqisi2
 215              		.loc 1 122 15 view .LVU61
 216 0026 013B     		subs	r3, r3, #1
 217 0028 DBB2     		uxtb	r3, r3
 218 002a 9373     		strb	r3, [r2, #14]
 123:Middlewares/Third_Party/FatFs/src/ff_gen_drv.c ****       ret = 0;
 219              		.loc 1 123 7 is_stmt 1 view .LVU62
 220              	.LVL17:
 221              		.loc 1 123 7 is_stmt 0 view .LVU63
 222 002c 7047     		bx	lr
 223              	.LVL18:
 224              	.L15:
 113:Middlewares/Third_Party/FatFs/src/ff_gen_drv.c **** 
 225              		.loc 1 113 11 view .LVU64
 226 002e 0120     		movs	r0, #1
 227              	.LVL19:
 113:Middlewares/Third_Party/FatFs/src/ff_gen_drv.c **** 
 228              		.loc 1 113 11 view .LVU65
 229 0030 7047     		bx	lr
 230              	.LVL20:
 231              	.L16:
 113:Middlewares/Third_Party/FatFs/src/ff_gen_drv.c **** 
 232              		.loc 1 113 11 view .LVU66
 233 0032 0120     		movs	r0, #1
 234              	.LVL21:
 124:Middlewares/Third_Party/FatFs/src/ff_gen_drv.c ****     }
 125:Middlewares/Third_Party/FatFs/src/ff_gen_drv.c ****   }
 126:Middlewares/Third_Party/FatFs/src/ff_gen_drv.c **** 
 127:Middlewares/Third_Party/FatFs/src/ff_gen_drv.c ****   return ret;
 235              		.loc 1 127 3 is_stmt 1 view .LVU67
 128:Middlewares/Third_Party/FatFs/src/ff_gen_drv.c **** }
 236              		.loc 1 128 1 is_stmt 0 view .LVU68
 237 0034 7047     		bx	lr
 238              	.L18:
 239 0036 00BF     		.align	2
 240              	.L17:
 241 0038 00000000 		.word	.LANCHOR0
 242              		.cfi_endproc
 243              	.LFE145:
 245              		.section	.text.FATFS_UnLinkDriver,"ax",%progbits
 246              		.align	1
 247              		.global	FATFS_UnLinkDriver
ARM GAS  C:\Users\Nina\AppData\Local\Temp\ccpNvcYQ.s 			page 8


 248              		.syntax unified
 249              		.thumb
 250              		.thumb_func
 251              		.fpu fpv5-sp-d16
 253              	FATFS_UnLinkDriver:
 254              	.LVL22:
 255              	.LFB146:
 129:Middlewares/Third_Party/FatFs/src/ff_gen_drv.c **** 
 130:Middlewares/Third_Party/FatFs/src/ff_gen_drv.c **** /**
 131:Middlewares/Third_Party/FatFs/src/ff_gen_drv.c ****   * @brief  Unlinks a diskio driver and decrements the number of active linked
 132:Middlewares/Third_Party/FatFs/src/ff_gen_drv.c ****   *         drivers.
 133:Middlewares/Third_Party/FatFs/src/ff_gen_drv.c ****   * @param  path: pointer to the logical drive path
 134:Middlewares/Third_Party/FatFs/src/ff_gen_drv.c ****   * @retval Returns 0 in case of success, otherwise 1.
 135:Middlewares/Third_Party/FatFs/src/ff_gen_drv.c ****   */
 136:Middlewares/Third_Party/FatFs/src/ff_gen_drv.c **** uint8_t FATFS_UnLinkDriver(char *path)
 137:Middlewares/Third_Party/FatFs/src/ff_gen_drv.c **** {
 256              		.loc 1 137 1 is_stmt 1 view -0
 257              		.cfi_startproc
 258              		@ args = 0, pretend = 0, frame = 0
 259              		@ frame_needed = 0, uses_anonymous_args = 0
 260              		.loc 1 137 1 is_stmt 0 view .LVU70
 261 0000 08B5     		push	{r3, lr}
 262              	.LCFI3:
 263              		.cfi_def_cfa_offset 8
 264              		.cfi_offset 3, -8
 265              		.cfi_offset 14, -4
 138:Middlewares/Third_Party/FatFs/src/ff_gen_drv.c ****   return FATFS_UnLinkDriverEx(path, 0);
 266              		.loc 1 138 3 is_stmt 1 view .LVU71
 267              		.loc 1 138 10 is_stmt 0 view .LVU72
 268 0002 0021     		movs	r1, #0
 269 0004 FFF7FEFF 		bl	FATFS_UnLinkDriverEx
 270              	.LVL23:
 139:Middlewares/Third_Party/FatFs/src/ff_gen_drv.c **** }
 271              		.loc 1 139 1 view .LVU73
 272 0008 08BD     		pop	{r3, pc}
 273              		.cfi_endproc
 274              	.LFE146:
 276              		.section	.text.FATFS_GetAttachedDriversNbr,"ax",%progbits
 277              		.align	1
 278              		.global	FATFS_GetAttachedDriversNbr
 279              		.syntax unified
 280              		.thumb
 281              		.thumb_func
 282              		.fpu fpv5-sp-d16
 284              	FATFS_GetAttachedDriversNbr:
 285              	.LFB147:
 140:Middlewares/Third_Party/FatFs/src/ff_gen_drv.c **** 
 141:Middlewares/Third_Party/FatFs/src/ff_gen_drv.c **** /**
 142:Middlewares/Third_Party/FatFs/src/ff_gen_drv.c ****   * @brief  Gets number of linked drivers to the FatFs module.
 143:Middlewares/Third_Party/FatFs/src/ff_gen_drv.c ****   * @param  None
 144:Middlewares/Third_Party/FatFs/src/ff_gen_drv.c ****   * @retval Number of attached drivers.
 145:Middlewares/Third_Party/FatFs/src/ff_gen_drv.c ****   */
 146:Middlewares/Third_Party/FatFs/src/ff_gen_drv.c **** uint8_t FATFS_GetAttachedDriversNbr(void)
 147:Middlewares/Third_Party/FatFs/src/ff_gen_drv.c **** {
 286              		.loc 1 147 1 is_stmt 1 view -0
 287              		.cfi_startproc
 288              		@ args = 0, pretend = 0, frame = 0
ARM GAS  C:\Users\Nina\AppData\Local\Temp\ccpNvcYQ.s 			page 9


 289              		@ frame_needed = 0, uses_anonymous_args = 0
 290              		@ link register save eliminated.
 148:Middlewares/Third_Party/FatFs/src/ff_gen_drv.c ****   return disk.nbr;
 291              		.loc 1 148 3 view .LVU75
 292              		.loc 1 148 14 is_stmt 0 view .LVU76
 293 0000 014B     		ldr	r3, .L22
 294 0002 987B     		ldrb	r0, [r3, #14]	@ zero_extendqisi2
 149:Middlewares/Third_Party/FatFs/src/ff_gen_drv.c **** }
 295              		.loc 1 149 1 view .LVU77
 296 0004 7047     		bx	lr
 297              	.L23:
 298 0006 00BF     		.align	2
 299              	.L22:
 300 0008 00000000 		.word	.LANCHOR0
 301              		.cfi_endproc
 302              	.LFE147:
 304              		.global	disk
 305              		.section	.bss.disk,"aw",%nobits
 306              		.align	2
 307              		.set	.LANCHOR0,. + 0
 310              	disk:
 311 0000 00000000 		.space	16
 311      00000000 
 311      00000000 
 311      00000000 
 312              		.text
 313              	.Letext0:
 314              		.file 2 "Middlewares/Third_Party/FatFs/src/integer.h"
 315              		.file 3 "Middlewares/Third_Party/FatFs/src/diskio.h"
 316              		.file 4 "c:\\program files (x86)\\gnu tools arm embedded\\9 2019-q4-major\\arm-none-eabi\\include\
 317              		.file 5 "c:\\program files (x86)\\gnu tools arm embedded\\9 2019-q4-major\\arm-none-eabi\\include\
 318              		.file 6 "Drivers/CMSIS/Include/core_cm7.h"
 319              		.file 7 "Drivers/CMSIS/Device/ST/STM32F7xx/Include/system_stm32f7xx.h"
 320              		.file 8 "c:\\program files (x86)\\gnu tools arm embedded\\9 2019-q4-major\\arm-none-eabi\\include\
 321              		.file 9 "c:\\program files (x86)\\gnu tools arm embedded\\9 2019-q4-major\\arm-none-eabi\\include\
 322              		.file 10 "c:\\program files (x86)\\gnu tools arm embedded\\9 2019-q4-major\\lib\\gcc\\arm-none-eab
 323              		.file 11 "c:\\program files (x86)\\gnu tools arm embedded\\9 2019-q4-major\\arm-none-eabi\\include
 324              		.file 12 "Middlewares/Third_Party/FreeRTOS/Source/include/task.h"
 325              		.file 13 "Middlewares/Third_Party/FreeRTOS/Source/include/queue.h"
 326              		.file 14 "Middlewares/Third_Party/FreeRTOS/Source/CMSIS_RTOS/cmsis_os.h"
 327              		.file 15 "c:\\program files (x86)\\gnu tools arm embedded\\9 2019-q4-major\\arm-none-eabi\\include
 328              		.file 16 "Middlewares/ST/STM32_USB_Host_Library/Core/Inc/usbh_def.h"
 329              		.file 17 "Middlewares/ST/STM32_USB_Host_Library/Core/Inc/usbh_ctlreq.h"
 330              		.file 18 "Middlewares/ST/STM32_USB_Host_Library/Class/MSC/Inc/usbh_msc.h"
 331              		.file 19 "Middlewares/Third_Party/FatFs/src/ff_gen_drv.h"
ARM GAS  C:\Users\Nina\AppData\Local\Temp\ccpNvcYQ.s 			page 10

