ARM GAS  C:\Users\Nina\AppData\Local\Temp\ccLsfJne.s 			page 1


   1              		.cpu cortex-m7
   2              		.eabi_attribute 27, 1
   3              		.eabi_attribute 28, 1
   4              		.eabi_attribute 20, 1
   5              		.eabi_attribute 21, 1
   6              		.eabi_attribute 23, 3
   7              		.eabi_attribute 24, 1
   8              		.eabi_attribute 25, 1
   9              		.eabi_attribute 26, 1
  10              		.eabi_attribute 30, 1
  11              		.eabi_attribute 34, 1
  12              		.eabi_attribute 18, 4
  13              		.file	"gui.c"
  14              		.text
  15              	.Ltext0:
  16              		.cfi_sections	.debug_frame
  17              		.section	.text.GUI_GetXButtonSize,"ax",%progbits
  18              		.align	1
  19              		.global	GUI_GetXButtonSize
  20              		.arch armv7e-m
  21              		.syntax unified
  22              		.thumb
  23              		.thumb_func
  24              		.fpu fpv5-sp-d16
  26              	GUI_GetXButtonSize:
  27              	.LFB138:
  28              		.file 1 "Modules/gui.c"
   1:Modules/gui.c **** //
   2:Modules/gui.c **** // Created by olliekrk on 21.10.2019.
   3:Modules/gui.c **** //
   4:Modules/gui.c **** 
   5:Modules/gui.c **** #include <stm32746g_discovery_ts.h>
   6:Modules/gui.c **** #include "stm32746g_discovery_lcd.h"
   7:Modules/gui.c **** #include "gui.h"
   8:Modules/gui.c **** #include "gui_colors.h"
   9:Modules/gui.c **** #include "controls.h"
  10:Modules/gui.c **** #include <string.h>
  11:Modules/gui.c **** #include <stdlib.h>
  12:Modules/gui.c **** 
  13:Modules/gui.c **** uint32_t GUI_GetXButtonSize() {
  29              		.loc 1 13 31 view -0
  30              		.cfi_startproc
  31              		@ args = 0, pretend = 0, frame = 0
  32              		@ frame_needed = 0, uses_anonymous_args = 0
  33 0000 08B5     		push	{r3, lr}
  34              	.LCFI0:
  35              		.cfi_def_cfa_offset 8
  36              		.cfi_offset 3, -8
  37              		.cfi_offset 14, -4
  14:Modules/gui.c ****     return (BSP_LCD_GetXSize() - 2 * GUI_margin) / GUI_buttons_in_row;
  38              		.loc 1 14 5 view .LVU1
  39              		.loc 1 14 13 is_stmt 0 view .LVU2
  40 0002 FFF7FEFF 		bl	BSP_LCD_GetXSize
  41              	.LVL0:
  42              		.loc 1 14 32 view .LVU3
  43 0006 0838     		subs	r0, r0, #8
  15:Modules/gui.c **** }
ARM GAS  C:\Users\Nina\AppData\Local\Temp\ccLsfJne.s 			page 2


  44              		.loc 1 15 1 view .LVU4
  45 0008 8008     		lsrs	r0, r0, #2
  46 000a 08BD     		pop	{r3, pc}
  47              		.cfi_endproc
  48              	.LFE138:
  50              		.section	.text.GUI_GetYButtonSize,"ax",%progbits
  51              		.align	1
  52              		.global	GUI_GetYButtonSize
  53              		.syntax unified
  54              		.thumb
  55              		.thumb_func
  56              		.fpu fpv5-sp-d16
  58              	GUI_GetYButtonSize:
  59              	.LFB139:
  16:Modules/gui.c **** 
  17:Modules/gui.c **** uint32_t GUI_GetYButtonSize() {
  60              		.loc 1 17 31 is_stmt 1 view -0
  61              		.cfi_startproc
  62              		@ args = 0, pretend = 0, frame = 0
  63              		@ frame_needed = 0, uses_anonymous_args = 0
  64 0000 08B5     		push	{r3, lr}
  65              	.LCFI1:
  66              		.cfi_def_cfa_offset 8
  67              		.cfi_offset 3, -8
  68              		.cfi_offset 14, -4
  18:Modules/gui.c ****     return (BSP_LCD_GetYSize() - 2 * GUI_margin) / (GUI_sound_rows + 1); // 1/N of screen is for pl
  69              		.loc 1 18 5 view .LVU6
  70              		.loc 1 18 13 is_stmt 0 view .LVU7
  71 0002 FFF7FEFF 		bl	BSP_LCD_GetYSize
  72              	.LVL1:
  73              		.loc 1 18 32 view .LVU8
  74 0006 0838     		subs	r0, r0, #8
  75              		.loc 1 18 50 view .LVU9
  76 0008 024B     		ldr	r3, .L5
  77 000a A3FB0030 		umull	r3, r0, r3, r0
  19:Modules/gui.c **** }
  78              		.loc 1 19 1 view .LVU10
  79 000e 4008     		lsrs	r0, r0, #1
  80 0010 08BD     		pop	{r3, pc}
  81              	.L6:
  82 0012 00BF     		.align	2
  83              	.L5:
  84 0014 ABAAAAAA 		.word	-1431655765
  85              		.cfi_endproc
  86              	.LFE139:
  88              		.global	__aeabi_i2d
  89              		.global	__aeabi_ui2d
  90              		.global	__aeabi_dmul
  91              		.global	__aeabi_dadd
  92              		.global	__aeabi_dcmple
  93              		.section	.text.GUI_GetButtonForCoords,"ax",%progbits
  94              		.align	1
  95              		.global	GUI_GetButtonForCoords
  96              		.syntax unified
  97              		.thumb
  98              		.thumb_func
  99              		.fpu fpv5-sp-d16
ARM GAS  C:\Users\Nina\AppData\Local\Temp\ccLsfJne.s 			page 3


 101              	GUI_GetButtonForCoords:
 102              	.LVL2:
 103              	.LFB140:
  20:Modules/gui.c **** 
  21:Modules/gui.c **** int GUI_GetButtonForCoords(int x, int y) {
 104              		.loc 1 21 42 is_stmt 1 view -0
 105              		.cfi_startproc
 106              		@ args = 0, pretend = 0, frame = 0
 107              		@ frame_needed = 0, uses_anonymous_args = 0
 108              		.loc 1 21 42 is_stmt 0 view .LVU12
 109 0000 F8B5     		push	{r3, r4, r5, r6, r7, lr}
 110              	.LCFI2:
 111              		.cfi_def_cfa_offset 24
 112              		.cfi_offset 3, -24
 113              		.cfi_offset 4, -20
 114              		.cfi_offset 5, -16
 115              		.cfi_offset 6, -12
 116              		.cfi_offset 7, -8
 117              		.cfi_offset 14, -4
 118 0002 0E46     		mov	r6, r1
  22:Modules/gui.c ****     uint8_t column = (x - GUI_margin) / GUI_GetXButtonSize();
 119              		.loc 1 22 5 is_stmt 1 view .LVU13
 120              		.loc 1 22 25 is_stmt 0 view .LVU14
 121 0004 051F     		subs	r5, r0, #4
 122              		.loc 1 22 41 view .LVU15
 123 0006 FFF7FEFF 		bl	GUI_GetXButtonSize
 124              	.LVL3:
 125              		.loc 1 22 39 view .LVU16
 126 000a B5FBF0F0 		udiv	r0, r5, r0
 127              		.loc 1 22 13 view .LVU17
 128 000e C5B2     		uxtb	r5, r0
 129              	.LVL4:
  23:Modules/gui.c ****     uint8_t row = (y - GUI_margin) / GUI_GetYButtonSize();
 130              		.loc 1 23 5 is_stmt 1 view .LVU18
 131              		.loc 1 23 22 is_stmt 0 view .LVU19
 132 0010 341F     		subs	r4, r6, #4
 133              		.loc 1 23 38 view .LVU20
 134 0012 FFF7FEFF 		bl	GUI_GetYButtonSize
 135              	.LVL5:
 136              		.loc 1 23 36 view .LVU21
 137 0016 B4FBF0F0 		udiv	r0, r4, r0
 138              		.loc 1 23 13 view .LVU22
 139 001a C0B2     		uxtb	r0, r0
 140              	.LVL6:
  24:Modules/gui.c **** 
  25:Modules/gui.c ****     if (column >= 0 && column < GUI_buttons_in_row && row >= 0 && row < GUI_sound_rows) {
 141              		.loc 1 25 5 is_stmt 1 view .LVU23
 142              		.loc 1 25 8 is_stmt 0 view .LVU24
 143 001c 032D     		cmp	r5, #3
 144 001e 98BF     		it	ls
 145 0020 0128     		cmpls	r0, #1
 146 0022 03D8     		bhi	.L8
  26:Modules/gui.c ****         return (SoundControl) (column + row * GUI_buttons_in_row);
 147              		.loc 1 26 9 is_stmt 1 view .LVU25
 148              		.loc 1 26 39 is_stmt 0 view .LVU26
 149 0024 05EB8000 		add	r0, r5, r0, lsl #2
 150              	.LVL7:
ARM GAS  C:\Users\Nina\AppData\Local\Temp\ccLsfJne.s 			page 4


 151              		.loc 1 26 39 view .LVU27
 152 0028 C0B2     		uxtb	r0, r0
 153              	.LVL8:
 154              	.L7:
  27:Modules/gui.c ****     } else {
  28:Modules/gui.c ****         int rowUpperSection = y <= GUI_margin + 2.5 * GUI_GetYButtonSize();
  29:Modules/gui.c **** 
  30:Modules/gui.c ****         if (column == 0) {
  31:Modules/gui.c ****             return rowUpperSection ? NEXT_TRACK : BACK_TRACK;
  32:Modules/gui.c ****         } else if (column == 3) {
  33:Modules/gui.c ****             return rowUpperSection ? EFFECT_1 : EFFECT_2;
  34:Modules/gui.c ****         } else {
  35:Modules/gui.c ****             return SELECTED_TRACK;
  36:Modules/gui.c ****         }
  37:Modules/gui.c ****     }
  38:Modules/gui.c **** }
 155              		.loc 1 38 1 view .LVU28
 156 002a F8BD     		pop	{r3, r4, r5, r6, r7, pc}
 157              	.LVL9:
 158              	.L8:
 159              	.LBB2:
  28:Modules/gui.c **** 
 160              		.loc 1 28 9 is_stmt 1 view .LVU29
  28:Modules/gui.c **** 
 161              		.loc 1 28 33 is_stmt 0 view .LVU30
 162 002c 3046     		mov	r0, r6
 163              	.LVL10:
  28:Modules/gui.c **** 
 164              		.loc 1 28 33 view .LVU31
 165 002e FFF7FEFF 		bl	__aeabi_i2d
 166              	.LVL11:
 167 0032 0646     		mov	r6, r0
 168              	.LVL12:
  28:Modules/gui.c **** 
 169              		.loc 1 28 33 view .LVU32
 170 0034 0F46     		mov	r7, r1
  28:Modules/gui.c **** 
 171              		.loc 1 28 55 view .LVU33
 172 0036 FFF7FEFF 		bl	GUI_GetYButtonSize
 173              	.LVL13:
  28:Modules/gui.c **** 
 174              		.loc 1 28 53 view .LVU34
 175 003a FFF7FEFF 		bl	__aeabi_ui2d
 176              	.LVL14:
 177 003e 0022     		movs	r2, #0
 178 0040 0F4B     		ldr	r3, .L25
 179 0042 FFF7FEFF 		bl	__aeabi_dmul
 180              	.LVL15:
  28:Modules/gui.c **** 
 181              		.loc 1 28 47 view .LVU35
 182 0046 0022     		movs	r2, #0
 183 0048 0E4B     		ldr	r3, .L25+4
 184 004a FFF7FEFF 		bl	__aeabi_dadd
 185              	.LVL16:
 186 004e 0246     		mov	r2, r0
 187 0050 0B46     		mov	r3, r1
 188              	.LVL17:
ARM GAS  C:\Users\Nina\AppData\Local\Temp\ccLsfJne.s 			page 5


  30:Modules/gui.c ****             return rowUpperSection ? NEXT_TRACK : BACK_TRACK;
 189              		.loc 1 30 9 is_stmt 1 view .LVU36
  30:Modules/gui.c ****             return rowUpperSection ? NEXT_TRACK : BACK_TRACK;
 190              		.loc 1 30 12 is_stmt 0 view .LVU37
 191 0052 1DB1     		cbz	r5, .L23
  32:Modules/gui.c ****             return rowUpperSection ? EFFECT_1 : EFFECT_2;
 192              		.loc 1 32 16 is_stmt 1 view .LVU38
  32:Modules/gui.c ****             return rowUpperSection ? EFFECT_1 : EFFECT_2;
 193              		.loc 1 32 19 is_stmt 0 view .LVU39
 194 0054 032D     		cmp	r5, #3
 195 0056 0AD0     		beq	.L24
  35:Modules/gui.c ****         }
 196              		.loc 1 35 20 view .LVU40
 197 0058 0A20     		movs	r0, #10
 198 005a E6E7     		b	.L7
 199              	.L23:
  31:Modules/gui.c ****         } else if (column == 3) {
 200              		.loc 1 31 13 is_stmt 1 view .LVU41
  31:Modules/gui.c ****         } else if (column == 3) {
 201              		.loc 1 31 49 is_stmt 0 view .LVU42
 202 005c 3046     		mov	r0, r6
 203 005e 3946     		mov	r1, r7
 204 0060 FFF7FEFF 		bl	__aeabi_dcmple
 205              	.LVL18:
  31:Modules/gui.c ****         } else if (column == 3) {
 206              		.loc 1 31 49 view .LVU43
 207 0064 08B1     		cbz	r0, .L20
 208 0066 0820     		movs	r0, #8
 209 0068 DFE7     		b	.L7
 210              	.L20:
 211 006a 0920     		movs	r0, #9
 212 006c DDE7     		b	.L7
 213              	.LVL19:
 214              	.L24:
  33:Modules/gui.c ****         } else {
 215              		.loc 1 33 13 is_stmt 1 view .LVU44
  33:Modules/gui.c ****         } else {
 216              		.loc 1 33 47 is_stmt 0 view .LVU45
 217 006e 3046     		mov	r0, r6
 218 0070 3946     		mov	r1, r7
 219 0072 FFF7FEFF 		bl	__aeabi_dcmple
 220              	.LVL20:
  33:Modules/gui.c ****         } else {
 221              		.loc 1 33 47 view .LVU46
 222 0076 08B1     		cbz	r0, .L21
 223 0078 0B20     		movs	r0, #11
 224 007a D6E7     		b	.L7
 225              	.L21:
 226 007c 0C20     		movs	r0, #12
 227 007e D4E7     		b	.L7
 228              	.L26:
 229              		.align	2
 230              	.L25:
 231 0080 00000440 		.word	1074003968
 232 0084 00001040 		.word	1074790400
 233              	.LBE2:
 234              		.cfi_endproc
ARM GAS  C:\Users\Nina\AppData\Local\Temp\ccLsfJne.s 			page 6


 235              	.LFE140:
 237              		.global	__aeabi_d2iz
 238              		.section	.text.GUI_GetCoordsForButton,"ax",%progbits
 239              		.align	1
 240              		.global	GUI_GetCoordsForButton
 241              		.syntax unified
 242              		.thumb
 243              		.thumb_func
 244              		.fpu fpv5-sp-d16
 246              	GUI_GetCoordsForButton:
 247              	.LVL21:
 248              	.LFB141:
  39:Modules/gui.c **** 
  40:Modules/gui.c **** int GUI_GetCoordsForButton(int buttonNumber, int *xOutput, int *yOutput) {
 249              		.loc 1 40 74 is_stmt 1 view -0
 250              		.cfi_startproc
 251              		@ args = 0, pretend = 0, frame = 0
 252              		@ frame_needed = 0, uses_anonymous_args = 0
  41:Modules/gui.c ****     if (buttonNumber < 0 || buttonNumber >= NUMBER_OF_CONTROLS) {
 253              		.loc 1 41 5 view .LVU48
 254              		.loc 1 41 8 is_stmt 0 view .LVU49
 255 0000 0C28     		cmp	r0, #12
 256 0002 6BD8     		bhi	.L35
  40:Modules/gui.c ****     if (buttonNumber < 0 || buttonNumber >= NUMBER_OF_CONTROLS) {
 257              		.loc 1 40 74 view .LVU50
 258 0004 F8B5     		push	{r3, r4, r5, r6, r7, lr}
 259              	.LCFI3:
 260              		.cfi_def_cfa_offset 24
 261              		.cfi_offset 3, -24
 262              		.cfi_offset 4, -20
 263              		.cfi_offset 5, -16
 264              		.cfi_offset 6, -12
 265              		.cfi_offset 7, -8
 266              		.cfi_offset 14, -4
 267 0006 0446     		mov	r4, r0
 268 0008 0D46     		mov	r5, r1
 269 000a 1646     		mov	r6, r2
  42:Modules/gui.c ****         return -1;
  43:Modules/gui.c ****     }
  44:Modules/gui.c **** 
  45:Modules/gui.c ****     if (buttonNumber < NUMBER_OF_SOUND_CONTROLS) {
 270              		.loc 1 45 5 is_stmt 1 view .LVU51
 271              		.loc 1 45 8 is_stmt 0 view .LVU52
 272 000c 0728     		cmp	r0, #7
 273 000e 20DD     		ble	.L42
  46:Modules/gui.c ****         *xOutput = GUI_margin + (buttonNumber % GUI_buttons_in_row) * GUI_GetXButtonSize();
  47:Modules/gui.c ****         *yOutput = GUI_margin + (buttonNumber / GUI_buttons_in_row) * GUI_GetYButtonSize();
  48:Modules/gui.c ****     } else if (buttonNumber == NEXT_TRACK || buttonNumber == BACK_TRACK) {
 274              		.loc 1 48 12 is_stmt 1 view .LVU53
 275              		.loc 1 48 43 is_stmt 0 view .LVU54
 276 0010 A0F10803 		sub	r3, r0, #8
 277              		.loc 1 48 15 view .LVU55
 278 0014 012B     		cmp	r3, #1
 279 0016 37D9     		bls	.L43
  49:Modules/gui.c ****         *xOutput = GUI_margin;
  50:Modules/gui.c ****         *yOutput = GUI_margin + (buttonNumber == NEXT_TRACK ? 2 : 2.5) * GUI_GetYButtonSize();
  51:Modules/gui.c ****     } else if (buttonNumber == SELECTED_TRACK) {
ARM GAS  C:\Users\Nina\AppData\Local\Temp\ccLsfJne.s 			page 7


 280              		.loc 1 51 12 is_stmt 1 view .LVU56
 281              		.loc 1 51 15 is_stmt 0 view .LVU57
 282 0018 0A28     		cmp	r0, #10
 283 001a 50D0     		beq	.L44
  52:Modules/gui.c ****         *xOutput = GUI_margin + GUI_GetXButtonSize();
  53:Modules/gui.c ****         *yOutput = GUI_margin + 2 * GUI_GetYButtonSize();
  54:Modules/gui.c ****     } else {
  55:Modules/gui.c ****         *xOutput = GUI_margin + 3 * GUI_GetXButtonSize();
 284              		.loc 1 55 9 is_stmt 1 view .LVU58
 285              		.loc 1 55 37 is_stmt 0 view .LVU59
 286 001c FFF7FEFF 		bl	GUI_GetXButtonSize
 287              	.LVL22:
 288              		.loc 1 55 35 view .LVU60
 289 0020 00EB4000 		add	r0, r0, r0, lsl #1
 290              		.loc 1 55 31 view .LVU61
 291 0024 0430     		adds	r0, r0, #4
 292              		.loc 1 55 18 view .LVU62
 293 0026 2860     		str	r0, [r5]
  56:Modules/gui.c ****         *yOutput = GUI_margin + (buttonNumber == EFFECT_1 ? 2 : 2.5) * GUI_GetYButtonSize();
 294              		.loc 1 56 9 is_stmt 1 view .LVU63
 295              		.loc 1 56 63 is_stmt 0 view .LVU64
 296 0028 0B2C     		cmp	r4, #11
 297 002a 53D0     		beq	.L45
 298 002c 0024     		movs	r4, #0
 299              	.LVL23:
 300              		.loc 1 56 63 view .LVU65
 301 002e 2D4D     		ldr	r5, .L48
 302              	.LVL24:
 303              	.L34:
 304              		.loc 1 56 72 discriminator 4 view .LVU66
 305 0030 FFF7FEFF 		bl	GUI_GetYButtonSize
 306              	.LVL25:
 307              		.loc 1 56 70 discriminator 4 view .LVU67
 308 0034 FFF7FEFF 		bl	__aeabi_ui2d
 309              	.LVL26:
 310 0038 2246     		mov	r2, r4
 311 003a 2B46     		mov	r3, r5
 312 003c FFF7FEFF 		bl	__aeabi_dmul
 313              	.LVL27:
 314              		.loc 1 56 31 discriminator 4 view .LVU68
 315 0040 0022     		movs	r2, #0
 316 0042 294B     		ldr	r3, .L48+4
 317 0044 FFF7FEFF 		bl	__aeabi_dadd
 318              	.LVL28:
 319              		.loc 1 56 18 discriminator 4 view .LVU69
 320 0048 FFF7FEFF 		bl	__aeabi_d2iz
 321              	.LVL29:
 322 004c 3060     		str	r0, [r6]
  57:Modules/gui.c ****     }
  58:Modules/gui.c **** 
  59:Modules/gui.c ****     return 0;
 323              		.loc 1 59 12 discriminator 4 view .LVU70
 324 004e 0020     		movs	r0, #0
 325 0050 17E0     		b	.L27
 326              	.LVL30:
 327              	.L42:
  46:Modules/gui.c ****         *yOutput = GUI_margin + (buttonNumber / GUI_buttons_in_row) * GUI_GetYButtonSize();
ARM GAS  C:\Users\Nina\AppData\Local\Temp\ccLsfJne.s 			page 8


 328              		.loc 1 46 9 is_stmt 1 view .LVU71
  46:Modules/gui.c ****         *yOutput = GUI_margin + (buttonNumber / GUI_buttons_in_row) * GUI_GetYButtonSize();
 329              		.loc 1 46 47 is_stmt 0 view .LVU72
 330 0052 4342     		rsbs	r3, r0, #0
 331 0054 00F00307 		and	r7, r0, #3
 332 0058 03F00303 		and	r3, r3, #3
 333 005c 58BF     		it	pl
 334 005e 5F42     		rsbpl	r7, r3, #0
  46:Modules/gui.c ****         *yOutput = GUI_margin + (buttonNumber / GUI_buttons_in_row) * GUI_GetYButtonSize();
 335              		.loc 1 46 71 view .LVU73
 336 0060 FFF7FEFF 		bl	GUI_GetXButtonSize
 337              	.LVL31:
  46:Modules/gui.c ****         *yOutput = GUI_margin + (buttonNumber / GUI_buttons_in_row) * GUI_GetYButtonSize();
 338              		.loc 1 46 69 view .LVU74
 339 0064 00FB07F0 		mul	r0, r0, r7
  46:Modules/gui.c ****         *yOutput = GUI_margin + (buttonNumber / GUI_buttons_in_row) * GUI_GetYButtonSize();
 340              		.loc 1 46 31 view .LVU75
 341 0068 0430     		adds	r0, r0, #4
  46:Modules/gui.c ****         *yOutput = GUI_margin + (buttonNumber / GUI_buttons_in_row) * GUI_GetYButtonSize();
 342              		.loc 1 46 18 view .LVU76
 343 006a 2860     		str	r0, [r5]
  47:Modules/gui.c ****     } else if (buttonNumber == NEXT_TRACK || buttonNumber == BACK_TRACK) {
 344              		.loc 1 47 9 is_stmt 1 view .LVU77
  47:Modules/gui.c ****     } else if (buttonNumber == NEXT_TRACK || buttonNumber == BACK_TRACK) {
 345              		.loc 1 47 47 is_stmt 0 view .LVU78
 346 006c 2046     		mov	r0, r4
 347 006e 002C     		cmp	r4, #0
 348 0070 08DB     		blt	.L46
 349              	.L30:
 350 0072 8410     		asrs	r4, r0, #2
 351              	.LVL32:
  47:Modules/gui.c ****     } else if (buttonNumber == NEXT_TRACK || buttonNumber == BACK_TRACK) {
 352              		.loc 1 47 71 view .LVU79
 353 0074 FFF7FEFF 		bl	GUI_GetYButtonSize
 354              	.LVL33:
  47:Modules/gui.c ****     } else if (buttonNumber == NEXT_TRACK || buttonNumber == BACK_TRACK) {
 355              		.loc 1 47 69 view .LVU80
 356 0078 00FB04F0 		mul	r0, r0, r4
  47:Modules/gui.c ****     } else if (buttonNumber == NEXT_TRACK || buttonNumber == BACK_TRACK) {
 357              		.loc 1 47 31 view .LVU81
 358 007c 0430     		adds	r0, r0, #4
  47:Modules/gui.c ****     } else if (buttonNumber == NEXT_TRACK || buttonNumber == BACK_TRACK) {
 359              		.loc 1 47 18 view .LVU82
 360 007e 3060     		str	r0, [r6]
 361              		.loc 1 59 12 view .LVU83
 362 0080 0020     		movs	r0, #0
 363              	.LVL34:
 364              	.L27:
  60:Modules/gui.c **** }
 365              		.loc 1 60 1 view .LVU84
 366 0082 F8BD     		pop	{r3, r4, r5, r6, r7, pc}
 367              	.LVL35:
 368              	.L46:
  47:Modules/gui.c ****     } else if (buttonNumber == NEXT_TRACK || buttonNumber == BACK_TRACK) {
 369              		.loc 1 47 47 view .LVU85
 370 0084 E01C     		adds	r0, r4, #3
 371              	.LVL36:
ARM GAS  C:\Users\Nina\AppData\Local\Temp\ccLsfJne.s 			page 9


  47:Modules/gui.c ****     } else if (buttonNumber == NEXT_TRACK || buttonNumber == BACK_TRACK) {
 372              		.loc 1 47 47 view .LVU86
 373 0086 F4E7     		b	.L30
 374              	.LVL37:
 375              	.L43:
  49:Modules/gui.c ****         *yOutput = GUI_margin + (buttonNumber == NEXT_TRACK ? 2 : 2.5) * GUI_GetYButtonSize();
 376              		.loc 1 49 9 is_stmt 1 view .LVU87
  49:Modules/gui.c ****         *yOutput = GUI_margin + (buttonNumber == NEXT_TRACK ? 2 : 2.5) * GUI_GetYButtonSize();
 377              		.loc 1 49 18 is_stmt 0 view .LVU88
 378 0088 0423     		movs	r3, #4
 379 008a 0B60     		str	r3, [r1]
  50:Modules/gui.c ****     } else if (buttonNumber == SELECTED_TRACK) {
 380              		.loc 1 50 9 is_stmt 1 view .LVU89
  50:Modules/gui.c ****     } else if (buttonNumber == SELECTED_TRACK) {
 381              		.loc 1 50 65 is_stmt 0 view .LVU90
 382 008c 0828     		cmp	r0, #8
 383 008e 12D0     		beq	.L47
 384 0090 0024     		movs	r4, #0
 385 0092 144D     		ldr	r5, .L48
 386              	.L32:
  50:Modules/gui.c ****     } else if (buttonNumber == SELECTED_TRACK) {
 387              		.loc 1 50 74 discriminator 4 view .LVU91
 388 0094 FFF7FEFF 		bl	GUI_GetYButtonSize
 389              	.LVL38:
  50:Modules/gui.c ****     } else if (buttonNumber == SELECTED_TRACK) {
 390              		.loc 1 50 72 discriminator 4 view .LVU92
 391 0098 FFF7FEFF 		bl	__aeabi_ui2d
 392              	.LVL39:
 393 009c 2246     		mov	r2, r4
 394 009e 2B46     		mov	r3, r5
 395 00a0 FFF7FEFF 		bl	__aeabi_dmul
 396              	.LVL40:
  50:Modules/gui.c ****     } else if (buttonNumber == SELECTED_TRACK) {
 397              		.loc 1 50 31 discriminator 4 view .LVU93
 398 00a4 0022     		movs	r2, #0
 399 00a6 104B     		ldr	r3, .L48+4
 400 00a8 FFF7FEFF 		bl	__aeabi_dadd
 401              	.LVL41:
  50:Modules/gui.c ****     } else if (buttonNumber == SELECTED_TRACK) {
 402              		.loc 1 50 18 discriminator 4 view .LVU94
 403 00ac FFF7FEFF 		bl	__aeabi_d2iz
 404              	.LVL42:
 405 00b0 3060     		str	r0, [r6]
  59:Modules/gui.c **** }
 406              		.loc 1 59 12 discriminator 4 view .LVU95
 407 00b2 0020     		movs	r0, #0
 408 00b4 E5E7     		b	.L27
 409              	.LVL43:
 410              	.L47:
  50:Modules/gui.c ****     } else if (buttonNumber == SELECTED_TRACK) {
 411              		.loc 1 50 65 view .LVU96
 412 00b6 0024     		movs	r4, #0
 413 00b8 4FF08045 		mov	r5, #1073741824
 414 00bc EAE7     		b	.L32
 415              	.L44:
  52:Modules/gui.c ****         *yOutput = GUI_margin + 2 * GUI_GetYButtonSize();
 416              		.loc 1 52 9 is_stmt 1 view .LVU97
ARM GAS  C:\Users\Nina\AppData\Local\Temp\ccLsfJne.s 			page 10


  52:Modules/gui.c ****         *yOutput = GUI_margin + 2 * GUI_GetYButtonSize();
 417              		.loc 1 52 33 is_stmt 0 view .LVU98
 418 00be FFF7FEFF 		bl	GUI_GetXButtonSize
 419              	.LVL44:
  52:Modules/gui.c ****         *yOutput = GUI_margin + 2 * GUI_GetYButtonSize();
 420              		.loc 1 52 31 view .LVU99
 421 00c2 0430     		adds	r0, r0, #4
  52:Modules/gui.c ****         *yOutput = GUI_margin + 2 * GUI_GetYButtonSize();
 422              		.loc 1 52 18 view .LVU100
 423 00c4 2860     		str	r0, [r5]
  53:Modules/gui.c ****     } else {
 424              		.loc 1 53 9 is_stmt 1 view .LVU101
  53:Modules/gui.c ****     } else {
 425              		.loc 1 53 37 is_stmt 0 view .LVU102
 426 00c6 FFF7FEFF 		bl	GUI_GetYButtonSize
 427              	.LVL45:
  53:Modules/gui.c ****     } else {
 428              		.loc 1 53 31 view .LVU103
 429 00ca 0230     		adds	r0, r0, #2
 430 00cc 4000     		lsls	r0, r0, #1
  53:Modules/gui.c ****     } else {
 431              		.loc 1 53 18 view .LVU104
 432 00ce 3060     		str	r0, [r6]
  59:Modules/gui.c **** }
 433              		.loc 1 59 12 view .LVU105
 434 00d0 0020     		movs	r0, #0
 435 00d2 D6E7     		b	.L27
 436              	.L45:
  56:Modules/gui.c ****     }
 437              		.loc 1 56 63 view .LVU106
 438 00d4 0024     		movs	r4, #0
 439              	.LVL46:
  56:Modules/gui.c ****     }
 440              		.loc 1 56 63 view .LVU107
 441 00d6 4FF08045 		mov	r5, #1073741824
 442              	.LVL47:
  56:Modules/gui.c ****     }
 443              		.loc 1 56 63 view .LVU108
 444 00da A9E7     		b	.L34
 445              	.LVL48:
 446              	.L35:
 447              	.LCFI4:
 448              		.cfi_def_cfa_offset 0
 449              		.cfi_restore 3
 450              		.cfi_restore 4
 451              		.cfi_restore 5
 452              		.cfi_restore 6
 453              		.cfi_restore 7
 454              		.cfi_restore 14
  42:Modules/gui.c ****     }
 455              		.loc 1 42 16 view .LVU109
 456 00dc 4FF0FF30 		mov	r0, #-1
 457              	.LVL49:
 458              		.loc 1 60 1 view .LVU110
 459 00e0 7047     		bx	lr
 460              	.L49:
 461 00e2 00BF     		.align	2
ARM GAS  C:\Users\Nina\AppData\Local\Temp\ccLsfJne.s 			page 11


 462              	.L48:
 463 00e4 00000440 		.word	1074003968
 464 00e8 00001040 		.word	1074790400
 465              		.cfi_endproc
 466              	.LFE141:
 468              		.section	.text.GUI_GetSizeForButton,"ax",%progbits
 469              		.align	1
 470              		.global	GUI_GetSizeForButton
 471              		.syntax unified
 472              		.thumb
 473              		.thumb_func
 474              		.fpu fpv5-sp-d16
 476              	GUI_GetSizeForButton:
 477              	.LVL50:
 478              	.LFB142:
  61:Modules/gui.c **** 
  62:Modules/gui.c **** void GUI_GetSizeForButton(int buttonNumber, int *xSizeOutput, int *ySizeOutput) {
 479              		.loc 1 62 81 is_stmt 1 view -0
 480              		.cfi_startproc
 481              		@ args = 0, pretend = 0, frame = 0
 482              		@ frame_needed = 0, uses_anonymous_args = 0
 483              		.loc 1 62 81 is_stmt 0 view .LVU112
 484 0000 38B5     		push	{r3, r4, r5, lr}
 485              	.LCFI5:
 486              		.cfi_def_cfa_offset 16
 487              		.cfi_offset 3, -16
 488              		.cfi_offset 4, -12
 489              		.cfi_offset 5, -8
 490              		.cfi_offset 14, -4
 491 0002 0C46     		mov	r4, r1
 492 0004 1546     		mov	r5, r2
  63:Modules/gui.c ****     if (buttonNumber >= 0 && buttonNumber < NUMBER_OF_SOUND_CONTROLS) {
 493              		.loc 1 63 5 is_stmt 1 view .LVU113
 494              		.loc 1 63 8 is_stmt 0 view .LVU114
 495 0006 0728     		cmp	r0, #7
 496 0008 10D9     		bls	.L55
  64:Modules/gui.c ****         *xSizeOutput = GUI_GetXButtonSize();
  65:Modules/gui.c ****         *ySizeOutput = GUI_GetYButtonSize();
  66:Modules/gui.c ****     } else if (buttonNumber == SELECTED_TRACK) {
 497              		.loc 1 66 12 is_stmt 1 view .LVU115
 498              		.loc 1 66 15 is_stmt 0 view .LVU116
 499 000a 0A28     		cmp	r0, #10
 500 000c 15D0     		beq	.L56
  67:Modules/gui.c ****         *xSizeOutput = (int) (2 * GUI_GetXButtonSize());
  68:Modules/gui.c ****         *ySizeOutput = GUI_GetYButtonSize();
  69:Modules/gui.c ****     } else {
  70:Modules/gui.c ****         *xSizeOutput = GUI_GetXButtonSize();
 501              		.loc 1 70 9 is_stmt 1 view .LVU117
 502              		.loc 1 70 24 is_stmt 0 view .LVU118
 503 000e FFF7FEFF 		bl	GUI_GetXButtonSize
 504              	.LVL51:
 505              		.loc 1 70 22 view .LVU119
 506 0012 2060     		str	r0, [r4]
  71:Modules/gui.c ****         *ySizeOutput = (int) (0.5 * GUI_GetYButtonSize());
 507              		.loc 1 71 9 is_stmt 1 view .LVU120
 508              		.loc 1 71 37 is_stmt 0 view .LVU121
 509 0014 FFF7FEFF 		bl	GUI_GetYButtonSize
ARM GAS  C:\Users\Nina\AppData\Local\Temp\ccLsfJne.s 			page 12


 510              	.LVL52:
 511              		.loc 1 71 35 view .LVU122
 512 0018 FFF7FEFF 		bl	__aeabi_ui2d
 513              	.LVL53:
 514 001c 0022     		movs	r2, #0
 515 001e 0B4B     		ldr	r3, .L57
 516 0020 FFF7FEFF 		bl	__aeabi_dmul
 517              	.LVL54:
 518              		.loc 1 71 24 view .LVU123
 519 0024 FFF7FEFF 		bl	__aeabi_d2iz
 520              	.LVL55:
 521              		.loc 1 71 22 view .LVU124
 522 0028 2860     		str	r0, [r5]
 523              	.L50:
  72:Modules/gui.c ****     }
  73:Modules/gui.c **** }
 524              		.loc 1 73 1 view .LVU125
 525 002a 38BD     		pop	{r3, r4, r5, pc}
 526              	.LVL56:
 527              	.L55:
  64:Modules/gui.c ****         *ySizeOutput = GUI_GetYButtonSize();
 528              		.loc 1 64 9 is_stmt 1 view .LVU126
  64:Modules/gui.c ****         *ySizeOutput = GUI_GetYButtonSize();
 529              		.loc 1 64 24 is_stmt 0 view .LVU127
 530 002c FFF7FEFF 		bl	GUI_GetXButtonSize
 531              	.LVL57:
  64:Modules/gui.c ****         *ySizeOutput = GUI_GetYButtonSize();
 532              		.loc 1 64 22 view .LVU128
 533 0030 2060     		str	r0, [r4]
  65:Modules/gui.c ****     } else if (buttonNumber == SELECTED_TRACK) {
 534              		.loc 1 65 9 is_stmt 1 view .LVU129
  65:Modules/gui.c ****     } else if (buttonNumber == SELECTED_TRACK) {
 535              		.loc 1 65 24 is_stmt 0 view .LVU130
 536 0032 FFF7FEFF 		bl	GUI_GetYButtonSize
 537              	.LVL58:
  65:Modules/gui.c ****     } else if (buttonNumber == SELECTED_TRACK) {
 538              		.loc 1 65 22 view .LVU131
 539 0036 2860     		str	r0, [r5]
 540 0038 F7E7     		b	.L50
 541              	.LVL59:
 542              	.L56:
  67:Modules/gui.c ****         *ySizeOutput = GUI_GetYButtonSize();
 543              		.loc 1 67 9 is_stmt 1 view .LVU132
  67:Modules/gui.c ****         *ySizeOutput = GUI_GetYButtonSize();
 544              		.loc 1 67 35 is_stmt 0 view .LVU133
 545 003a FFF7FEFF 		bl	GUI_GetXButtonSize
 546              	.LVL60:
  67:Modules/gui.c ****         *ySizeOutput = GUI_GetYButtonSize();
 547              		.loc 1 67 33 view .LVU134
 548 003e 4000     		lsls	r0, r0, #1
  67:Modules/gui.c ****         *ySizeOutput = GUI_GetYButtonSize();
 549              		.loc 1 67 22 view .LVU135
 550 0040 2060     		str	r0, [r4]
  68:Modules/gui.c ****     } else {
 551              		.loc 1 68 9 is_stmt 1 view .LVU136
  68:Modules/gui.c ****     } else {
 552              		.loc 1 68 24 is_stmt 0 view .LVU137
ARM GAS  C:\Users\Nina\AppData\Local\Temp\ccLsfJne.s 			page 13


 553 0042 FFF7FEFF 		bl	GUI_GetYButtonSize
 554              	.LVL61:
  68:Modules/gui.c ****     } else {
 555              		.loc 1 68 22 view .LVU138
 556 0046 2860     		str	r0, [r5]
 557 0048 EFE7     		b	.L50
 558              	.L58:
 559 004a 00BF     		.align	2
 560              	.L57:
 561 004c 0000E03F 		.word	1071644672
 562              		.cfi_endproc
 563              	.LFE142:
 565              		.section	.text.GUI_GetColorsForButton,"ax",%progbits
 566              		.align	1
 567              		.global	GUI_GetColorsForButton
 568              		.syntax unified
 569              		.thumb
 570              		.thumb_func
 571              		.fpu fpv5-sp-d16
 573              	GUI_GetColorsForButton:
 574              	.LVL62:
 575              	.LFB143:
  74:Modules/gui.c **** 
  75:Modules/gui.c **** void GUI_GetColorsForButton(int buttonNumber, uint32_t *primaryOutput, uint32_t *accentOutput) {
 576              		.loc 1 75 96 is_stmt 1 view -0
 577              		.cfi_startproc
 578              		@ args = 0, pretend = 0, frame = 0
 579              		@ frame_needed = 0, uses_anonymous_args = 0
 580              		@ link register save eliminated.
  76:Modules/gui.c ****     switch (buttonNumber) {
 581              		.loc 1 76 5 view .LVU140
 582 0000 0A28     		cmp	r0, #10
 583 0002 11D0     		beq	.L60
 584 0004 08DD     		ble	.L65
 585 0006 0B38     		subs	r0, r0, #11
 586              	.LVL63:
 587              		.loc 1 76 5 is_stmt 0 view .LVU141
 588 0008 0128     		cmp	r0, #1
 589 000a 08D9     		bls	.L63
 590              	.LVL64:
 591              	.L62:
  77:Modules/gui.c ****         case SELECTED_TRACK:
  78:Modules/gui.c ****             *primaryOutput = COLOR_PRIMARY_SELECTED;
  79:Modules/gui.c ****             *accentOutput = COLOR_ACCENT_SELECTED;
  80:Modules/gui.c ****             break;
  81:Modules/gui.c ****         case EFFECT_1:
  82:Modules/gui.c ****         case EFFECT_2:
  83:Modules/gui.c ****         case NEXT_TRACK:
  84:Modules/gui.c ****         case BACK_TRACK:
  85:Modules/gui.c ****             *primaryOutput = COLOR_PRIMARY_OPTION;
  86:Modules/gui.c ****             *accentOutput = COLOR_ACCENT_OPTION;
  87:Modules/gui.c ****             break;
  88:Modules/gui.c ****         default:
  89:Modules/gui.c ****             *primaryOutput = COLOR_PRIMARY_DEFAULT;
 592              		.loc 1 89 13 is_stmt 1 view .LVU142
 593              		.loc 1 89 28 is_stmt 0 view .LVU143
 594 000c 094B     		ldr	r3, .L66
ARM GAS  C:\Users\Nina\AppData\Local\Temp\ccLsfJne.s 			page 14


 595 000e 0B60     		str	r3, [r1]
  90:Modules/gui.c ****             *accentOutput = COLOR_ACCENT_DEFAULT;
 596              		.loc 1 90 13 is_stmt 1 view .LVU144
 597              		.loc 1 90 27 is_stmt 0 view .LVU145
 598 0010 4FF07F43 		mov	r3, #-16777216
 599 0014 1360     		str	r3, [r2]
  91:Modules/gui.c ****     }
  92:Modules/gui.c **** }
 600              		.loc 1 92 1 view .LVU146
 601 0016 7047     		bx	lr
 602              	.LVL65:
 603              	.L65:
  76:Modules/gui.c ****         case SELECTED_TRACK:
 604              		.loc 1 76 5 view .LVU147
 605 0018 0838     		subs	r0, r0, #8
 606              	.LVL66:
  76:Modules/gui.c ****         case SELECTED_TRACK:
 607              		.loc 1 76 5 view .LVU148
 608 001a 0128     		cmp	r0, #1
 609 001c F6D8     		bhi	.L62
 610              	.LVL67:
 611              	.L63:
  85:Modules/gui.c ****             *accentOutput = COLOR_ACCENT_OPTION;
 612              		.loc 1 85 13 is_stmt 1 view .LVU149
  85:Modules/gui.c ****             *accentOutput = COLOR_ACCENT_OPTION;
 613              		.loc 1 85 28 is_stmt 0 view .LVU150
 614 001e 064B     		ldr	r3, .L66+4
 615 0020 0B60     		str	r3, [r1]
  86:Modules/gui.c ****             break;
 616              		.loc 1 86 13 is_stmt 1 view .LVU151
  86:Modules/gui.c ****             break;
 617              		.loc 1 86 27 is_stmt 0 view .LVU152
 618 0022 064B     		ldr	r3, .L66+8
 619 0024 1360     		str	r3, [r2]
  87:Modules/gui.c ****         default:
 620              		.loc 1 87 13 is_stmt 1 view .LVU153
 621 0026 7047     		bx	lr
 622              	.LVL68:
 623              	.L60:
  78:Modules/gui.c ****             *accentOutput = COLOR_ACCENT_SELECTED;
 624              		.loc 1 78 13 view .LVU154
  78:Modules/gui.c ****             *accentOutput = COLOR_ACCENT_SELECTED;
 625              		.loc 1 78 28 is_stmt 0 view .LVU155
 626 0028 054B     		ldr	r3, .L66+12
 627 002a 0B60     		str	r3, [r1]
  79:Modules/gui.c ****             break;
 628              		.loc 1 79 13 is_stmt 1 view .LVU156
  79:Modules/gui.c ****             break;
 629              		.loc 1 79 27 is_stmt 0 view .LVU157
 630 002c 7F33     		adds	r3, r3, #127
 631 002e 1360     		str	r3, [r2]
  80:Modules/gui.c ****         case EFFECT_1:
 632              		.loc 1 80 13 is_stmt 1 view .LVU158
 633 0030 7047     		bx	lr
 634              	.L67:
 635 0032 00BF     		.align	2
 636              	.L66:
ARM GAS  C:\Users\Nina\AppData\Local\Temp\ccLsfJne.s 			page 15


 637 0034 404040FF 		.word	-12566464
 638 0038 0000FFFF 		.word	-65536
 639 003c 8080FFFF 		.word	-32640
 640 0040 800000FF 		.word	-16777088
 641              		.cfi_endproc
 642              	.LFE143:
 644              		.section	.rodata.GUI_GetTextForButton.str1.4,"aMS",%progbits,1
 645              		.align	2
 646              	.LC0:
 647 0000 45666665 		.ascii	"Effect 1\000"
 647      63742031 
 647      00
 648 0009 000000   		.align	2
 649              	.LC1:
 650 000c 45666665 		.ascii	"Effect 2\000"
 650      63742032 
 650      00
 651 0015 000000   		.align	2
 652              	.LC2:
 653 0018 4E657874 		.ascii	"Next\000"
 653      00
 654 001d 000000   		.align	2
 655              	.LC3:
 656 0020 4261636B 		.ascii	"Back\000"
 656      00
 657 0025 000000   		.align	2
 658              	.LC4:
 659 0028 4E6F7468 		.ascii	"Nothing selected\000"
 659      696E6720 
 659      73656C65 
 659      63746564 
 659      00
 660 0039 000000   		.align	2
 661              	.LC5:
 662 003c 2D00     		.ascii	"-\000"
 663 003e 0000     		.align	2
 664              	.LC6:
 665 0040 252E2A73 		.ascii	"%.*s...\000"
 665      2E2E2E00 
 666              		.section	.text.GUI_GetTextForButton,"ax",%progbits
 667              		.align	1
 668              		.global	GUI_GetTextForButton
 669              		.syntax unified
 670              		.thumb
 671              		.thumb_func
 672              		.fpu fpv5-sp-d16
 674              	GUI_GetTextForButton:
 675              	.LVL69:
 676              	.LFB144:
  93:Modules/gui.c **** 
  94:Modules/gui.c **** char *GUI_GetTextForButton(int buttonNumber) {
 677              		.loc 1 94 46 view -0
 678              		.cfi_startproc
 679              		@ args = 0, pretend = 0, frame = 0
 680              		@ frame_needed = 0, uses_anonymous_args = 0
 681              		.loc 1 94 46 is_stmt 0 view .LVU160
 682 0000 38B5     		push	{r3, r4, r5, lr}
ARM GAS  C:\Users\Nina\AppData\Local\Temp\ccLsfJne.s 			page 16


 683              	.LCFI6:
 684              		.cfi_def_cfa_offset 16
 685              		.cfi_offset 3, -16
 686              		.cfi_offset 4, -12
 687              		.cfi_offset 5, -8
 688              		.cfi_offset 14, -4
  95:Modules/gui.c **** 	char *text;
 689              		.loc 1 95 2 is_stmt 1 view .LVU161
  96:Modules/gui.c **** 	
  97:Modules/gui.c **** 	switch (buttonNumber) {
 690              		.loc 1 97 2 view .LVU162
 691 0002 A0F10803 		sub	r3, r0, #8
 692 0006 042B     		cmp	r3, #4
 693 0008 18D8     		bhi	.L69
 694 000a DFE803F0 		tbb	[pc, r3]
 695              	.L71:
 696 000e 13       		.byte	(.L75-.L71)/2
 697 000f 15       		.byte	(.L74-.L71)/2
 698 0010 05       		.byte	(.L73-.L71)/2
 699 0011 03       		.byte	(.L72-.L71)/2
 700 0012 1F       		.byte	(.L77-.L71)/2
 701 0013 00       		.p2align 1
 702              	.L72:
  94:Modules/gui.c **** 	char *text;
 703              		.loc 1 94 46 is_stmt 0 view .LVU163
 704 0014 0F4C     		ldr	r4, .L82
 705 0016 0BE0     		b	.L68
 706              	.L73:
  98:Modules/gui.c ****         case SELECTED_TRACK:
  99:Modules/gui.c **** 			text = APP_STATE.SELECTED_TRACK_NAME;
 707              		.loc 1 99 4 is_stmt 1 view .LVU164
 708              		.loc 1 99 9 is_stmt 0 view .LVU165
 709 0018 0F4B     		ldr	r3, .L82+4
 710 001a 9D69     		ldr	r5, [r3, #24]
 711              	.LVL70:
 100:Modules/gui.c **** 			if (text == NULL) return "Nothing selected";
 712              		.loc 1 100 4 is_stmt 1 view .LVU166
 713              		.loc 1 100 7 is_stmt 0 view .LVU167
 714 001c C5B1     		cbz	r5, .L81
 715              	.LVL71:
 716              	.L76:
 101:Modules/gui.c **** 			break;
 102:Modules/gui.c ****         case EFFECT_1:
 103:Modules/gui.c **** 			return "Effect 1";
 104:Modules/gui.c ****         case EFFECT_2:
 105:Modules/gui.c **** 			return "Effect 2";
 106:Modules/gui.c ****         case NEXT_TRACK:
 107:Modules/gui.c **** 			return "Next";
 108:Modules/gui.c ****         case BACK_TRACK:
 109:Modules/gui.c **** 			return "Back";
 110:Modules/gui.c ****         default: {
 111:Modules/gui.c **** 			text = APP_BUTTONS_STATE.configs[buttonNumber].trackName;
 112:Modules/gui.c **** 			if (text == NULL) return "-";
 113:Modules/gui.c **** 			break;
 114:Modules/gui.c **** 		}
 115:Modules/gui.c ****     }
 116:Modules/gui.c **** 	
ARM GAS  C:\Users\Nina\AppData\Local\Temp\ccLsfJne.s 			page 17


 117:Modules/gui.c **** 	char *textDisplayed = malloc(TEXT_DISPLAYED_MAXLENGTH * sizeof(char));
 717              		.loc 1 117 2 is_stmt 1 view .LVU168
 718              		.loc 1 117 24 is_stmt 0 view .LVU169
 719 001e 0B20     		movs	r0, #11
 720 0020 FFF7FEFF 		bl	malloc
 721              	.LVL72:
 722 0024 0446     		mov	r4, r0
 723              	.LVL73:
 118:Modules/gui.c **** 	sprintf(textDisplayed, "%.*s...", TEXT_DISPLAYED_MAXLENGTH, text);
 724              		.loc 1 118 2 is_stmt 1 view .LVU170
 725 0026 2B46     		mov	r3, r5
 726 0028 0B22     		movs	r2, #11
 727 002a 0C49     		ldr	r1, .L82+8
 728 002c FFF7FEFF 		bl	sprintf
 729              	.LVL74:
 119:Modules/gui.c **** 	return textDisplayed;
 730              		.loc 1 119 2 view .LVU171
 731              	.L68:
 120:Modules/gui.c **** }
 732              		.loc 1 120 1 is_stmt 0 view .LVU172
 733 0030 2046     		mov	r0, r4
 734 0032 38BD     		pop	{r3, r4, r5, pc}
 735              	.LVL75:
 736              	.L75:
 107:Modules/gui.c ****         case BACK_TRACK:
 737              		.loc 1 107 4 is_stmt 1 view .LVU173
 107:Modules/gui.c ****         case BACK_TRACK:
 738              		.loc 1 107 11 is_stmt 0 view .LVU174
 739 0034 0A4C     		ldr	r4, .L82+12
 740 0036 FBE7     		b	.L68
 741              	.L74:
 109:Modules/gui.c ****         default: {
 742              		.loc 1 109 4 is_stmt 1 view .LVU175
 109:Modules/gui.c ****         default: {
 743              		.loc 1 109 11 is_stmt 0 view .LVU176
 744 0038 0A4C     		ldr	r4, .L82+16
 745 003a F9E7     		b	.L68
 746              	.L69:
 111:Modules/gui.c **** 			if (text == NULL) return "-";
 747              		.loc 1 111 4 is_stmt 1 view .LVU177
 111:Modules/gui.c **** 			if (text == NULL) return "-";
 748              		.loc 1 111 28 is_stmt 0 view .LVU178
 749 003c 0A4B     		ldr	r3, .L82+20
 750 003e 1B68     		ldr	r3, [r3]
 111:Modules/gui.c **** 			if (text == NULL) return "-";
 751              		.loc 1 111 36 view .LVU179
 752 0040 0001     		lsls	r0, r0, #4
 753              	.LVL76:
 111:Modules/gui.c **** 			if (text == NULL) return "-";
 754              		.loc 1 111 9 view .LVU180
 755 0042 1D58     		ldr	r5, [r3, r0]
 756              	.LVL77:
 112:Modules/gui.c **** 			break;
 757              		.loc 1 112 4 is_stmt 1 view .LVU181
 112:Modules/gui.c **** 			break;
 758              		.loc 1 112 7 is_stmt 0 view .LVU182
 759 0044 002D     		cmp	r5, #0
ARM GAS  C:\Users\Nina\AppData\Local\Temp\ccLsfJne.s 			page 18


 760 0046 EAD1     		bne	.L76
 112:Modules/gui.c **** 			break;
 761              		.loc 1 112 29 view .LVU183
 762 0048 084C     		ldr	r4, .L82+24
 763 004a F1E7     		b	.L68
 764              	.LVL78:
 765              	.L77:
 105:Modules/gui.c ****         case NEXT_TRACK:
 766              		.loc 1 105 11 view .LVU184
 767 004c 084C     		ldr	r4, .L82+28
 768 004e EFE7     		b	.L68
 769              	.LVL79:
 770              	.L81:
 100:Modules/gui.c **** 			break;
 771              		.loc 1 100 29 view .LVU185
 772 0050 084C     		ldr	r4, .L82+32
 773 0052 EDE7     		b	.L68
 774              	.L83:
 775              		.align	2
 776              	.L82:
 777 0054 00000000 		.word	.LC0
 778 0058 00000000 		.word	APP_STATE
 779 005c 40000000 		.word	.LC6
 780 0060 18000000 		.word	.LC2
 781 0064 20000000 		.word	.LC3
 782 0068 00000000 		.word	APP_BUTTONS_STATE
 783 006c 3C000000 		.word	.LC5
 784 0070 0C000000 		.word	.LC1
 785 0074 28000000 		.word	.LC4
 786              		.cfi_endproc
 787              	.LFE144:
 789              		.section	.text.GUI_DrawTextAtCenter,"ax",%progbits
 790              		.align	1
 791              		.global	GUI_DrawTextAtCenter
 792              		.syntax unified
 793              		.thumb
 794              		.thumb_func
 795              		.fpu fpv5-sp-d16
 797              	GUI_DrawTextAtCenter:
 798              	.LVL80:
 799              	.LFB145:
 121:Modules/gui.c **** 
 122:Modules/gui.c **** void GUI_DrawTextAtCenter(uint32_t backgroundColor, int x, int y, char *text) {
 800              		.loc 1 122 79 is_stmt 1 view -0
 801              		.cfi_startproc
 802              		@ args = 0, pretend = 0, frame = 0
 803              		@ frame_needed = 0, uses_anonymous_args = 0
 804              		.loc 1 122 79 is_stmt 0 view .LVU187
 805 0000 F8B5     		push	{r3, r4, r5, r6, r7, lr}
 806              	.LCFI7:
 807              		.cfi_def_cfa_offset 24
 808              		.cfi_offset 3, -24
 809              		.cfi_offset 4, -20
 810              		.cfi_offset 5, -16
 811              		.cfi_offset 6, -12
 812              		.cfi_offset 7, -8
 813              		.cfi_offset 14, -4
ARM GAS  C:\Users\Nina\AppData\Local\Temp\ccLsfJne.s 			page 19


 814 0002 0746     		mov	r7, r0
 815 0004 0C46     		mov	r4, r1
 816 0006 1546     		mov	r5, r2
 817 0008 1E46     		mov	r6, r3
 123:Modules/gui.c ****     BSP_LCD_SetTextColor(COLOR_TEXT);
 818              		.loc 1 123 5 is_stmt 1 view .LVU188
 819 000a 4FF07F40 		mov	r0, #-16777216
 820              	.LVL81:
 821              		.loc 1 123 5 is_stmt 0 view .LVU189
 822 000e FFF7FEFF 		bl	BSP_LCD_SetTextColor
 823              	.LVL82:
 124:Modules/gui.c ****     BSP_LCD_SetBackColor(backgroundColor);
 824              		.loc 1 124 5 is_stmt 1 view .LVU190
 825 0012 3846     		mov	r0, r7
 826 0014 FFF7FEFF 		bl	BSP_LCD_SetBackColor
 827              	.LVL83:
 125:Modules/gui.c ****     BSP_LCD_SetFont(&Font12);
 828              		.loc 1 125 5 view .LVU191
 829 0018 0548     		ldr	r0, .L86
 830 001a FFF7FEFF 		bl	BSP_LCD_SetFont
 831              	.LVL84:
 126:Modules/gui.c ****     BSP_LCD_DisplayStringAt(x + GUI_margin, y + GUI_margin, (uint8_t *) text, LEFT_MODE);
 832              		.loc 1 126 5 view .LVU192
 833 001e 291D     		adds	r1, r5, #4
 834 0020 201D     		adds	r0, r4, #4
 835 0022 0323     		movs	r3, #3
 836 0024 3246     		mov	r2, r6
 837 0026 89B2     		uxth	r1, r1
 838 0028 80B2     		uxth	r0, r0
 839 002a FFF7FEFF 		bl	BSP_LCD_DisplayStringAt
 840              	.LVL85:
 127:Modules/gui.c **** }
 841              		.loc 1 127 1 is_stmt 0 view .LVU193
 842 002e F8BD     		pop	{r3, r4, r5, r6, r7, pc}
 843              	.LVL86:
 844              	.L87:
 845              		.loc 1 127 1 view .LVU194
 846              		.align	2
 847              	.L86:
 848 0030 00000000 		.word	Font12
 849              		.cfi_endproc
 850              	.LFE145:
 852              		.section	.text.GUI_DrawButton,"ax",%progbits
 853              		.align	1
 854              		.global	GUI_DrawButton
 855              		.syntax unified
 856              		.thumb
 857              		.thumb_func
 858              		.fpu fpv5-sp-d16
 860              	GUI_DrawButton:
 861              	.LVL87:
 862              	.LFB146:
 128:Modules/gui.c **** 
 129:Modules/gui.c **** void GUI_DrawButton(uint32_t backgroundColor, uint32_t frameColor, int x, int y, int xSize, int ySi
 863              		.loc 1 129 116 is_stmt 1 view -0
 864              		.cfi_startproc
 865              		@ args = 12, pretend = 0, frame = 0
ARM GAS  C:\Users\Nina\AppData\Local\Temp\ccLsfJne.s 			page 20


 866              		@ frame_needed = 0, uses_anonymous_args = 0
 867              		.loc 1 129 116 is_stmt 0 view .LVU196
 868 0000 2DE9F84F 		push	{r3, r4, r5, r6, r7, r8, r9, r10, fp, lr}
 869              	.LCFI8:
 870              		.cfi_def_cfa_offset 40
 871              		.cfi_offset 3, -40
 872              		.cfi_offset 4, -36
 873              		.cfi_offset 5, -32
 874              		.cfi_offset 6, -28
 875              		.cfi_offset 7, -24
 876              		.cfi_offset 8, -20
 877              		.cfi_offset 9, -16
 878              		.cfi_offset 10, -12
 879              		.cfi_offset 11, -8
 880              		.cfi_offset 14, -4
 881 0004 0646     		mov	r6, r0
 882 0006 0F46     		mov	r7, r1
 883 0008 1446     		mov	r4, r2
 884 000a 1D46     		mov	r5, r3
 130:Modules/gui.c ****     BSP_LCD_SetTextColor(backgroundColor);
 885              		.loc 1 130 5 is_stmt 1 view .LVU197
 886 000c FFF7FEFF 		bl	BSP_LCD_SetTextColor
 887              	.LVL88:
 131:Modules/gui.c ****     BSP_LCD_FillRect(x, y, xSize, ySize);
 888              		.loc 1 131 5 view .LVU198
 889 0010 1FFA84F8 		uxth	r8, r4
 890 0014 1FFA85F9 		uxth	r9, r5
 891 0018 BDF828A0 		ldrh	r10, [sp, #40]
 892 001c BDF82CB0 		ldrh	fp, [sp, #44]
 893 0020 5B46     		mov	r3, fp
 894 0022 5246     		mov	r2, r10
 895 0024 4946     		mov	r1, r9
 896 0026 4046     		mov	r0, r8
 897 0028 FFF7FEFF 		bl	BSP_LCD_FillRect
 898              	.LVL89:
 132:Modules/gui.c ****     BSP_LCD_SetTextColor(frameColor);
 899              		.loc 1 132 5 view .LVU199
 900 002c 3846     		mov	r0, r7
 901 002e FFF7FEFF 		bl	BSP_LCD_SetTextColor
 902              	.LVL90:
 133:Modules/gui.c ****     BSP_LCD_DrawRect(x, y, xSize, ySize);
 903              		.loc 1 133 5 view .LVU200
 904 0032 5B46     		mov	r3, fp
 905 0034 5246     		mov	r2, r10
 906 0036 4946     		mov	r1, r9
 907 0038 4046     		mov	r0, r8
 908 003a FFF7FEFF 		bl	BSP_LCD_DrawRect
 909              	.LVL91:
 134:Modules/gui.c **** 
 135:Modules/gui.c ****     GUI_DrawTextAtCenter(backgroundColor, x, y, text);
 910              		.loc 1 135 5 view .LVU201
 911 003e 0C9B     		ldr	r3, [sp, #48]
 912 0040 2A46     		mov	r2, r5
 913 0042 2146     		mov	r1, r4
 914 0044 3046     		mov	r0, r6
 915 0046 FFF7FEFF 		bl	GUI_DrawTextAtCenter
 916              	.LVL92:
ARM GAS  C:\Users\Nina\AppData\Local\Temp\ccLsfJne.s 			page 21


 136:Modules/gui.c **** }
 917              		.loc 1 136 1 is_stmt 0 view .LVU202
 918 004a BDE8F88F 		pop	{r3, r4, r5, r6, r7, r8, r9, r10, fp, pc}
 919              		.loc 1 136 1 view .LVU203
 920              		.cfi_endproc
 921              	.LFE146:
 923              		.section	.text.GUI_DrawAllButtons,"ax",%progbits
 924              		.align	1
 925              		.global	GUI_DrawAllButtons
 926              		.syntax unified
 927              		.thumb
 928              		.thumb_func
 929              		.fpu fpv5-sp-d16
 931              	GUI_DrawAllButtons:
 932              	.LFB147:
 137:Modules/gui.c **** 
 138:Modules/gui.c **** void GUI_DrawAllButtons(void) {
 933              		.loc 1 138 31 is_stmt 1 view -0
 934              		.cfi_startproc
 935              		@ args = 0, pretend = 0, frame = 24
 936              		@ frame_needed = 0, uses_anonymous_args = 0
 937 0000 2DE9F047 		push	{r4, r5, r6, r7, r8, r9, r10, lr}
 938              	.LCFI9:
 939              		.cfi_def_cfa_offset 32
 940              		.cfi_offset 4, -32
 941              		.cfi_offset 5, -28
 942              		.cfi_offset 6, -24
 943              		.cfi_offset 7, -20
 944              		.cfi_offset 8, -16
 945              		.cfi_offset 9, -12
 946              		.cfi_offset 10, -8
 947              		.cfi_offset 14, -4
 948 0004 8AB0     		sub	sp, sp, #40
 949              	.LCFI10:
 950              		.cfi_def_cfa_offset 72
 139:Modules/gui.c **** 	int x, y, xSize, ySize;
 951              		.loc 1 139 2 view .LVU205
 140:Modules/gui.c **** 	uint32_t primaryColor, accentColor;
 952              		.loc 1 140 2 view .LVU206
 141:Modules/gui.c **** 
 142:Modules/gui.c **** 	for (int i = 0; i < NUMBER_OF_CONTROLS; i++) {
 953              		.loc 1 142 2 view .LVU207
 954              	.LBB3:
 955              		.loc 1 142 7 view .LVU208
 956              	.LVL93:
 957              		.loc 1 142 11 is_stmt 0 view .LVU209
 958 0006 0024     		movs	r4, #0
 959              		.loc 1 142 2 view .LVU210
 960 0008 26E0     		b	.L91
 961              	.LVL94:
 962              	.L92:
 143:Modules/gui.c **** 		GUI_GetCoordsForButton(i, &x, &y);
 963              		.loc 1 143 3 is_stmt 1 discriminator 3 view .LVU211
 964 000a 08AA     		add	r2, sp, #32
 965 000c 09A9     		add	r1, sp, #36
 966 000e 2046     		mov	r0, r4
 967 0010 FFF7FEFF 		bl	GUI_GetCoordsForButton
ARM GAS  C:\Users\Nina\AppData\Local\Temp\ccLsfJne.s 			page 22


 968              	.LVL95:
 144:Modules/gui.c **** 		GUI_GetSizeForButton(i, &xSize, &ySize);
 969              		.loc 1 144 3 discriminator 3 view .LVU212
 970 0014 06AA     		add	r2, sp, #24
 971 0016 07A9     		add	r1, sp, #28
 972 0018 2046     		mov	r0, r4
 973 001a FFF7FEFF 		bl	GUI_GetSizeForButton
 974              	.LVL96:
 145:Modules/gui.c **** 		GUI_GetColorsForButton(i, &primaryColor, &accentColor);
 975              		.loc 1 145 3 discriminator 3 view .LVU213
 976 001e 04AA     		add	r2, sp, #16
 977 0020 05A9     		add	r1, sp, #20
 978 0022 2046     		mov	r0, r4
 979 0024 FFF7FEFF 		bl	GUI_GetColorsForButton
 980              	.LVL97:
 146:Modules/gui.c **** 		GUI_DrawButton(primaryColor, accentColor, x, y, xSize, ySize, GUI_GetTextForButton(i));
 981              		.loc 1 146 3 discriminator 3 view .LVU214
 982 0028 059D     		ldr	r5, [sp, #20]
 983 002a 049E     		ldr	r6, [sp, #16]
 984 002c 099F     		ldr	r7, [sp, #36]
 985 002e DDF82080 		ldr	r8, [sp, #32]
 986 0032 DDF81C90 		ldr	r9, [sp, #28]
 987 0036 DDF818A0 		ldr	r10, [sp, #24]
 988 003a 2046     		mov	r0, r4
 989 003c FFF7FEFF 		bl	GUI_GetTextForButton
 990              	.LVL98:
 991 0040 0290     		str	r0, [sp, #8]
 992 0042 CDF804A0 		str	r10, [sp, #4]
 993 0046 CDF80090 		str	r9, [sp]
 994 004a 4346     		mov	r3, r8
 995 004c 3A46     		mov	r2, r7
 996 004e 3146     		mov	r1, r6
 997 0050 2846     		mov	r0, r5
 998 0052 FFF7FEFF 		bl	GUI_DrawButton
 999              	.LVL99:
 142:Modules/gui.c **** 		GUI_GetCoordsForButton(i, &x, &y);
 1000              		.loc 1 142 42 discriminator 3 view .LVU215
 142:Modules/gui.c **** 		GUI_GetCoordsForButton(i, &x, &y);
 1001              		.loc 1 142 43 is_stmt 0 discriminator 3 view .LVU216
 1002 0056 0134     		adds	r4, r4, #1
 1003              	.LVL100:
 1004              	.L91:
 142:Modules/gui.c **** 		GUI_GetCoordsForButton(i, &x, &y);
 1005              		.loc 1 142 18 is_stmt 1 discriminator 1 view .LVU217
 142:Modules/gui.c **** 		GUI_GetCoordsForButton(i, &x, &y);
 1006              		.loc 1 142 2 is_stmt 0 discriminator 1 view .LVU218
 1007 0058 0C2C     		cmp	r4, #12
 1008 005a D6DD     		ble	.L92
 1009              	.LBE3:
 147:Modules/gui.c **** 	}
 148:Modules/gui.c **** }
 1010              		.loc 1 148 1 view .LVU219
 1011 005c 0AB0     		add	sp, sp, #40
 1012              	.LCFI11:
 1013              		.cfi_def_cfa_offset 32
 1014              		@ sp needed
 1015 005e BDE8F087 		pop	{r4, r5, r6, r7, r8, r9, r10, pc}
ARM GAS  C:\Users\Nina\AppData\Local\Temp\ccLsfJne.s 			page 23


 1016              		.loc 1 148 1 view .LVU220
 1017              		.cfi_endproc
 1018              	.LFE147:
 1020              		.section	.text.GUI_HighlightButton,"ax",%progbits
 1021              		.align	1
 1022              		.global	GUI_HighlightButton
 1023              		.syntax unified
 1024              		.thumb
 1025              		.thumb_func
 1026              		.fpu fpv5-sp-d16
 1028              	GUI_HighlightButton:
 1029              	.LVL101:
 1030              	.LFB148:
 149:Modules/gui.c **** 
 150:Modules/gui.c **** void GUI_HighlightButton(int buttonNumber) {
 1031              		.loc 1 150 44 is_stmt 1 view -0
 1032              		.cfi_startproc
 1033              		@ args = 0, pretend = 0, frame = 24
 1034              		@ frame_needed = 0, uses_anonymous_args = 0
 1035              		.loc 1 150 44 is_stmt 0 view .LVU222
 1036 0000 2DE9F043 		push	{r4, r5, r6, r7, r8, r9, lr}
 1037              	.LCFI12:
 1038              		.cfi_def_cfa_offset 28
 1039              		.cfi_offset 4, -28
 1040              		.cfi_offset 5, -24
 1041              		.cfi_offset 6, -20
 1042              		.cfi_offset 7, -16
 1043              		.cfi_offset 8, -12
 1044              		.cfi_offset 9, -8
 1045              		.cfi_offset 14, -4
 1046 0004 8BB0     		sub	sp, sp, #44
 1047              	.LCFI13:
 1048              		.cfi_def_cfa_offset 72
 1049 0006 0446     		mov	r4, r0
 151:Modules/gui.c ****     int x, y, xSize, ySize;
 1050              		.loc 1 151 5 is_stmt 1 view .LVU223
 152:Modules/gui.c ****     uint32_t primaryColor, accentColor;
 1051              		.loc 1 152 5 view .LVU224
 153:Modules/gui.c ****     GUI_GetCoordsForButton(buttonNumber, &x, &y);
 1052              		.loc 1 153 5 view .LVU225
 1053 0008 08AA     		add	r2, sp, #32
 1054 000a 09A9     		add	r1, sp, #36
 1055 000c FFF7FEFF 		bl	GUI_GetCoordsForButton
 1056              	.LVL102:
 154:Modules/gui.c ****     GUI_GetSizeForButton(buttonNumber, &xSize, &ySize);
 1057              		.loc 1 154 5 view .LVU226
 1058 0010 06AA     		add	r2, sp, #24
 1059 0012 07A9     		add	r1, sp, #28
 1060 0014 2046     		mov	r0, r4
 1061 0016 FFF7FEFF 		bl	GUI_GetSizeForButton
 1062              	.LVL103:
 155:Modules/gui.c ****     GUI_GetColorsForButton(buttonNumber, &primaryColor, &accentColor);
 1063              		.loc 1 155 5 view .LVU227
 1064 001a 04AA     		add	r2, sp, #16
 1065 001c 05A9     		add	r1, sp, #20
 1066 001e 2046     		mov	r0, r4
 1067 0020 FFF7FEFF 		bl	GUI_GetColorsForButton
ARM GAS  C:\Users\Nina\AppData\Local\Temp\ccLsfJne.s 			page 24


 1068              	.LVL104:
 156:Modules/gui.c ****     GUI_DrawButton(primaryColor, COLOR_HIGHLIGHTED, x, y, xSize, ySize, GUI_GetTextForButton(button
 1069              		.loc 1 156 5 view .LVU228
 1070 0024 059D     		ldr	r5, [sp, #20]
 1071 0026 099E     		ldr	r6, [sp, #36]
 1072 0028 089F     		ldr	r7, [sp, #32]
 1073 002a DDF81C80 		ldr	r8, [sp, #28]
 1074 002e DDF81890 		ldr	r9, [sp, #24]
 1075 0032 2046     		mov	r0, r4
 1076 0034 FFF7FEFF 		bl	GUI_GetTextForButton
 1077              	.LVL105:
 1078 0038 0290     		str	r0, [sp, #8]
 1079 003a CDF80490 		str	r9, [sp, #4]
 1080 003e CDF80080 		str	r8, [sp]
 1081 0042 3B46     		mov	r3, r7
 1082 0044 3246     		mov	r2, r6
 1083 0046 6FF47F01 		mvn	r1, #16711680
 1084 004a 2846     		mov	r0, r5
 1085 004c FFF7FEFF 		bl	GUI_DrawButton
 1086              	.LVL106:
 157:Modules/gui.c **** }
 1087              		.loc 1 157 1 is_stmt 0 view .LVU229
 1088 0050 0BB0     		add	sp, sp, #44
 1089              	.LCFI14:
 1090              		.cfi_def_cfa_offset 28
 1091              		@ sp needed
 1092 0052 BDE8F083 		pop	{r4, r5, r6, r7, r8, r9, pc}
 1093              		.loc 1 157 1 view .LVU230
 1094              		.cfi_endproc
 1095              	.LFE148:
 1097              		.section	.text.GUI_HandleTouch,"ax",%progbits
 1098              		.align	1
 1099              		.global	GUI_HandleTouch
 1100              		.syntax unified
 1101              		.thumb
 1102              		.thumb_func
 1103              		.fpu fpv5-sp-d16
 1105              	GUI_HandleTouch:
 1106              	.LVL107:
 1107              	.LFB149:
 158:Modules/gui.c **** 
 159:Modules/gui.c **** 
 160:Modules/gui.c **** void GUI_HandleTouch(TS_StateTypeDef *tsState, void (*handleButtonTouch)(int)) {
 1108              		.loc 1 160 80 is_stmt 1 view -0
 1109              		.cfi_startproc
 1110              		@ args = 0, pretend = 0, frame = 0
 1111              		@ frame_needed = 0, uses_anonymous_args = 0
 1112              		.loc 1 160 80 is_stmt 0 view .LVU232
 1113 0000 F8B5     		push	{r3, r4, r5, r6, r7, lr}
 1114              	.LCFI15:
 1115              		.cfi_def_cfa_offset 24
 1116              		.cfi_offset 3, -24
 1117              		.cfi_offset 4, -20
 1118              		.cfi_offset 5, -16
 1119              		.cfi_offset 6, -12
 1120              		.cfi_offset 7, -8
 1121              		.cfi_offset 14, -4
ARM GAS  C:\Users\Nina\AppData\Local\Temp\ccLsfJne.s 			page 25


 1122 0002 0546     		mov	r5, r0
 1123 0004 0F46     		mov	r7, r1
 161:Modules/gui.c ****     int touchesDetected = tsState->touchDetected;
 1124              		.loc 1 161 5 is_stmt 1 view .LVU233
 1125              		.loc 1 161 34 is_stmt 0 view .LVU234
 1126 0006 0678     		ldrb	r6, [r0]	@ zero_extendqisi2
 1127              	.LVL108:
 162:Modules/gui.c ****     int touchesToHandle = touchesDetected > GUI_max_touches ? GUI_max_touches : touchesDetected;
 1128              		.loc 1 162 5 is_stmt 1 view .LVU235
 1129              		.loc 1 162 9 is_stmt 0 view .LVU236
 1130 0008 062E     		cmp	r6, #6
 1131 000a A8BF     		it	ge
 1132 000c 0626     		movge	r6, #6
 1133              	.LVL109:
 163:Modules/gui.c ****     int x;
 1134              		.loc 1 163 5 is_stmt 1 view .LVU237
 164:Modules/gui.c ****     int y;
 1135              		.loc 1 164 5 view .LVU238
 165:Modules/gui.c **** 
 166:Modules/gui.c ****     BSP_LCD_SetTextColor(COLOR_PRIMARY_SELECTED);
 1136              		.loc 1 166 5 view .LVU239
 1137 000e 0948     		ldr	r0, .L101
 1138              	.LVL110:
 1139              		.loc 1 166 5 is_stmt 0 view .LVU240
 1140 0010 FFF7FEFF 		bl	BSP_LCD_SetTextColor
 1141              	.LVL111:
 167:Modules/gui.c ****     for (int i = 0; i < touchesToHandle; i++) {
 1142              		.loc 1 167 5 is_stmt 1 view .LVU241
 1143              	.LBB4:
 1144              		.loc 1 167 10 view .LVU242
 1145              		.loc 1 167 14 is_stmt 0 view .LVU243
 1146 0014 0024     		movs	r4, #0
 1147              	.LVL112:
 1148              	.L97:
 1149              		.loc 1 167 21 is_stmt 1 discriminator 1 view .LVU244
 1150              		.loc 1 167 5 is_stmt 0 discriminator 1 view .LVU245
 1151 0016 B442     		cmp	r4, r6
 1152 0018 0BDA     		bge	.L100
 168:Modules/gui.c ****         x = tsState->touchX[i];
 1153              		.loc 1 168 9 is_stmt 1 discriminator 3 view .LVU246
 1154              		.loc 1 168 28 is_stmt 0 discriminator 3 view .LVU247
 1155 001a 05EB4402 		add	r2, r5, r4, lsl #1
 1156              	.LVL113:
 169:Modules/gui.c ****         y = tsState->touchY[i];
 1157              		.loc 1 169 9 is_stmt 1 discriminator 3 view .LVU248
 1158              		.loc 1 169 28 is_stmt 0 discriminator 3 view .LVU249
 1159 001e 231D     		adds	r3, r4, #4
 1160 0020 05EB4303 		add	r3, r5, r3, lsl #1
 1161              	.LVL114:
 170:Modules/gui.c ****         (*handleButtonTouch)(GUI_GetButtonForCoords(x, y)); // callback function
 1162              		.loc 1 170 9 is_stmt 1 discriminator 3 view .LVU250
 1163              		.loc 1 170 10 is_stmt 0 discriminator 3 view .LVU251
 1164 0024 9988     		ldrh	r1, [r3, #4]
 1165              	.LVL115:
 1166              		.loc 1 170 10 discriminator 3 view .LVU252
 1167 0026 5088     		ldrh	r0, [r2, #2]
 1168              	.LVL116:
ARM GAS  C:\Users\Nina\AppData\Local\Temp\ccLsfJne.s 			page 26


 1169              		.loc 1 170 10 discriminator 3 view .LVU253
 1170 0028 FFF7FEFF 		bl	GUI_GetButtonForCoords
 1171              	.LVL117:
 1172              		.loc 1 170 10 discriminator 3 view .LVU254
 1173 002c B847     		blx	r7
 1174              	.LVL118:
 167:Modules/gui.c ****         x = tsState->touchX[i];
 1175              		.loc 1 167 42 is_stmt 1 discriminator 3 view .LVU255
 167:Modules/gui.c ****         x = tsState->touchX[i];
 1176              		.loc 1 167 43 is_stmt 0 discriminator 3 view .LVU256
 1177 002e 0134     		adds	r4, r4, #1
 1178              	.LVL119:
 167:Modules/gui.c ****         x = tsState->touchX[i];
 1179              		.loc 1 167 43 discriminator 3 view .LVU257
 1180 0030 F1E7     		b	.L97
 1181              	.L100:
 167:Modules/gui.c ****         x = tsState->touchX[i];
 1182              		.loc 1 167 43 discriminator 3 view .LVU258
 1183              	.LBE4:
 171:Modules/gui.c ****     }
 172:Modules/gui.c **** }
 1184              		.loc 1 172 1 view .LVU259
 1185 0032 F8BD     		pop	{r3, r4, r5, r6, r7, pc}
 1186              	.LVL120:
 1187              	.L102:
 1188              		.loc 1 172 1 view .LVU260
 1189              		.align	2
 1190              	.L101:
 1191 0034 800000FF 		.word	-16777088
 1192              		.cfi_endproc
 1193              	.LFE149:
 1195              		.text
 1196              	.Letext0:
 1197              		.file 2 "c:\\program files (x86)\\gnu tools arm embedded\\9 2019-q4-major\\arm-none-eabi\\include\
 1198              		.file 3 "c:\\program files (x86)\\gnu tools arm embedded\\9 2019-q4-major\\arm-none-eabi\\include\
 1199              		.file 4 "Drivers/CMSIS/Include/core_cm7.h"
 1200              		.file 5 "Drivers/CMSIS/Device/ST/STM32F7xx/Include/system_stm32f7xx.h"
 1201              		.file 6 "c:\\program files (x86)\\gnu tools arm embedded\\9 2019-q4-major\\arm-none-eabi\\include\
 1202              		.file 7 "c:\\program files (x86)\\gnu tools arm embedded\\9 2019-q4-major\\arm-none-eabi\\include\
 1203              		.file 8 "c:\\program files (x86)\\gnu tools arm embedded\\9 2019-q4-major\\lib\\gcc\\arm-none-eabi
 1204              		.file 9 "c:\\program files (x86)\\gnu tools arm embedded\\9 2019-q4-major\\arm-none-eabi\\include\
 1205              		.file 10 "Drivers/BSP/STM32746G-Discovery/../Components/ft5336/../Common/ts.h"
 1206              		.file 11 "Drivers/BSP/STM32746G-Discovery/../Components/ft5336/ft5336.h"
 1207              		.file 12 "Drivers/BSP/STM32746G-Discovery/stm32746g_discovery_ts.h"
 1208              		.file 13 "Drivers/BSP/STM32746G-Discovery/../../../Utilities/Fonts/fonts.h"
 1209              		.file 14 "Modules/controls.h"
 1210              		.file 15 "c:\\program files (x86)\\gnu tools arm embedded\\9 2019-q4-major\\arm-none-eabi\\include
 1211              		.file 16 "Drivers/BSP/STM32746G-Discovery/stm32746g_discovery_lcd.h"
 1212              		.file 17 "c:\\program files (x86)\\gnu tools arm embedded\\9 2019-q4-major\\arm-none-eabi\\include
ARM GAS  C:\Users\Nina\AppData\Local\Temp\ccLsfJne.s 			page 27

