ARM GAS  C:\Users\Nina\AppData\Local\Temp\ccwdRVQJ.s 			page 1


   1              		.cpu cortex-m7
   2              		.eabi_attribute 27, 1
   3              		.eabi_attribute 28, 1
   4              		.eabi_attribute 20, 1
   5              		.eabi_attribute 21, 1
   6              		.eabi_attribute 23, 3
   7              		.eabi_attribute 24, 1
   8              		.eabi_attribute 25, 1
   9              		.eabi_attribute 26, 1
  10              		.eabi_attribute 30, 1
  11              		.eabi_attribute 34, 1
  12              		.eabi_attribute 18, 4
  13              		.file	"icmp.c"
  14              		.text
  15              	.Ltext0:
  16              		.cfi_sections	.debug_frame
  17              		.section	.rodata.icmp_send_response.str1.4,"aMS",%progbits,1
  18              		.align	2
  19              	.LC0:
  20 0000 4D696464 		.ascii	"Middlewares/Third_Party/LwIP/src/core/ipv4/icmp.c\000"
  20      6C657761 
  20      7265732F 
  20      54686972 
  20      645F5061 
  21 0032 0000     		.align	2
  22              	.LC1:
  23 0034 63686563 		.ascii	"check that first pbuf can hold icmp message\000"
  23      6B207468 
  23      61742066 
  23      69727374 
  23      20706275 
  24              		.align	2
  25              	.LC2:
  26 0060 41737365 		.ascii	"Assertion \"%s\" failed at line %d in %s\012\000"
  26      7274696F 
  26      6E202225 
  26      73222066 
  26      61696C65 
  27              		.section	.text.icmp_send_response,"ax",%progbits
  28              		.align	1
  29              		.arch armv7e-m
  30              		.syntax unified
  31              		.thumb
  32              		.thumb_func
  33              		.fpu fpv5-sp-d16
  35              	icmp_send_response:
  36              	.LVL0:
  37              	.LFB163:
  38              		.file 1 "Middlewares/Third_Party/LwIP/src/core/ipv4/icmp.c"
   1:Middlewares/Third_Party/LwIP/src/core/ipv4/icmp.c **** /**
   2:Middlewares/Third_Party/LwIP/src/core/ipv4/icmp.c ****  * @file
   3:Middlewares/Third_Party/LwIP/src/core/ipv4/icmp.c ****  * ICMP - Internet Control Message Protocol
   4:Middlewares/Third_Party/LwIP/src/core/ipv4/icmp.c ****  *
   5:Middlewares/Third_Party/LwIP/src/core/ipv4/icmp.c ****  */
   6:Middlewares/Third_Party/LwIP/src/core/ipv4/icmp.c **** 
   7:Middlewares/Third_Party/LwIP/src/core/ipv4/icmp.c **** /*
   8:Middlewares/Third_Party/LwIP/src/core/ipv4/icmp.c ****  * Copyright (c) 2001-2004 Swedish Institute of Computer Science.
ARM GAS  C:\Users\Nina\AppData\Local\Temp\ccwdRVQJ.s 			page 2


   9:Middlewares/Third_Party/LwIP/src/core/ipv4/icmp.c ****  * All rights reserved.
  10:Middlewares/Third_Party/LwIP/src/core/ipv4/icmp.c ****  *
  11:Middlewares/Third_Party/LwIP/src/core/ipv4/icmp.c ****  * Redistribution and use in source and binary forms, with or without modification,
  12:Middlewares/Third_Party/LwIP/src/core/ipv4/icmp.c ****  * are permitted provided that the following conditions are met:
  13:Middlewares/Third_Party/LwIP/src/core/ipv4/icmp.c ****  *
  14:Middlewares/Third_Party/LwIP/src/core/ipv4/icmp.c ****  * 1. Redistributions of source code must retain the above copyright notice,
  15:Middlewares/Third_Party/LwIP/src/core/ipv4/icmp.c ****  *    this list of conditions and the following disclaimer.
  16:Middlewares/Third_Party/LwIP/src/core/ipv4/icmp.c ****  * 2. Redistributions in binary form must reproduce the above copyright notice,
  17:Middlewares/Third_Party/LwIP/src/core/ipv4/icmp.c ****  *    this list of conditions and the following disclaimer in the documentation
  18:Middlewares/Third_Party/LwIP/src/core/ipv4/icmp.c ****  *    and/or other materials provided with the distribution.
  19:Middlewares/Third_Party/LwIP/src/core/ipv4/icmp.c ****  * 3. The name of the author may not be used to endorse or promote products
  20:Middlewares/Third_Party/LwIP/src/core/ipv4/icmp.c ****  *    derived from this software without specific prior written permission.
  21:Middlewares/Third_Party/LwIP/src/core/ipv4/icmp.c ****  *
  22:Middlewares/Third_Party/LwIP/src/core/ipv4/icmp.c ****  * THIS SOFTWARE IS PROVIDED BY THE AUTHOR ``AS IS'' AND ANY EXPRESS OR IMPLIED
  23:Middlewares/Third_Party/LwIP/src/core/ipv4/icmp.c ****  * WARRANTIES, INCLUDING, BUT NOT LIMITED TO, THE IMPLIED WARRANTIES OF
  24:Middlewares/Third_Party/LwIP/src/core/ipv4/icmp.c ****  * MERCHANTABILITY AND FITNESS FOR A PARTICULAR PURPOSE ARE DISCLAIMED. IN NO EVENT
  25:Middlewares/Third_Party/LwIP/src/core/ipv4/icmp.c ****  * SHALL THE AUTHOR BE LIABLE FOR ANY DIRECT, INDIRECT, INCIDENTAL, SPECIAL,
  26:Middlewares/Third_Party/LwIP/src/core/ipv4/icmp.c ****  * EXEMPLARY, OR CONSEQUENTIAL DAMAGES (INCLUDING, BUT NOT LIMITED TO, PROCUREMENT
  27:Middlewares/Third_Party/LwIP/src/core/ipv4/icmp.c ****  * OF SUBSTITUTE GOODS OR SERVICES; LOSS OF USE, DATA, OR PROFITS; OR BUSINESS
  28:Middlewares/Third_Party/LwIP/src/core/ipv4/icmp.c ****  * INTERRUPTION) HOWEVER CAUSED AND ON ANY THEORY OF LIABILITY, WHETHER IN
  29:Middlewares/Third_Party/LwIP/src/core/ipv4/icmp.c ****  * CONTRACT, STRICT LIABILITY, OR TORT (INCLUDING NEGLIGENCE OR OTHERWISE) ARISING
  30:Middlewares/Third_Party/LwIP/src/core/ipv4/icmp.c ****  * IN ANY WAY OUT OF THE USE OF THIS SOFTWARE, EVEN IF ADVISED OF THE POSSIBILITY
  31:Middlewares/Third_Party/LwIP/src/core/ipv4/icmp.c ****  * OF SUCH DAMAGE.
  32:Middlewares/Third_Party/LwIP/src/core/ipv4/icmp.c ****  *
  33:Middlewares/Third_Party/LwIP/src/core/ipv4/icmp.c ****  * This file is part of the lwIP TCP/IP stack.
  34:Middlewares/Third_Party/LwIP/src/core/ipv4/icmp.c ****  *
  35:Middlewares/Third_Party/LwIP/src/core/ipv4/icmp.c ****  * Author: Adam Dunkels <adam@sics.se>
  36:Middlewares/Third_Party/LwIP/src/core/ipv4/icmp.c ****  *
  37:Middlewares/Third_Party/LwIP/src/core/ipv4/icmp.c ****  */
  38:Middlewares/Third_Party/LwIP/src/core/ipv4/icmp.c **** 
  39:Middlewares/Third_Party/LwIP/src/core/ipv4/icmp.c **** /* Some ICMP messages should be passed to the transport protocols. This
  40:Middlewares/Third_Party/LwIP/src/core/ipv4/icmp.c ****    is not implemented. */
  41:Middlewares/Third_Party/LwIP/src/core/ipv4/icmp.c **** 
  42:Middlewares/Third_Party/LwIP/src/core/ipv4/icmp.c **** #include "lwip/opt.h"
  43:Middlewares/Third_Party/LwIP/src/core/ipv4/icmp.c **** 
  44:Middlewares/Third_Party/LwIP/src/core/ipv4/icmp.c **** #if LWIP_IPV4 && LWIP_ICMP /* don't build if not configured for use in lwipopts.h */
  45:Middlewares/Third_Party/LwIP/src/core/ipv4/icmp.c **** 
  46:Middlewares/Third_Party/LwIP/src/core/ipv4/icmp.c **** #include "lwip/icmp.h"
  47:Middlewares/Third_Party/LwIP/src/core/ipv4/icmp.c **** #include "lwip/inet_chksum.h"
  48:Middlewares/Third_Party/LwIP/src/core/ipv4/icmp.c **** #include "lwip/ip.h"
  49:Middlewares/Third_Party/LwIP/src/core/ipv4/icmp.c **** #include "lwip/def.h"
  50:Middlewares/Third_Party/LwIP/src/core/ipv4/icmp.c **** #include "lwip/stats.h"
  51:Middlewares/Third_Party/LwIP/src/core/ipv4/icmp.c **** 
  52:Middlewares/Third_Party/LwIP/src/core/ipv4/icmp.c **** #include <string.h>
  53:Middlewares/Third_Party/LwIP/src/core/ipv4/icmp.c **** 
  54:Middlewares/Third_Party/LwIP/src/core/ipv4/icmp.c **** #ifdef LWIP_HOOK_FILENAME
  55:Middlewares/Third_Party/LwIP/src/core/ipv4/icmp.c **** #include LWIP_HOOK_FILENAME
  56:Middlewares/Third_Party/LwIP/src/core/ipv4/icmp.c **** #endif
  57:Middlewares/Third_Party/LwIP/src/core/ipv4/icmp.c **** 
  58:Middlewares/Third_Party/LwIP/src/core/ipv4/icmp.c **** /** Small optimization: set to 0 if incoming PBUF_POOL pbuf always can be
  59:Middlewares/Third_Party/LwIP/src/core/ipv4/icmp.c ****  * used to modify and send a response packet (and to 1 if this is not the case,
  60:Middlewares/Third_Party/LwIP/src/core/ipv4/icmp.c ****  * e.g. when link header is stripped of when receiving) */
  61:Middlewares/Third_Party/LwIP/src/core/ipv4/icmp.c **** #ifndef LWIP_ICMP_ECHO_CHECK_INPUT_PBUF_LEN
  62:Middlewares/Third_Party/LwIP/src/core/ipv4/icmp.c **** #define LWIP_ICMP_ECHO_CHECK_INPUT_PBUF_LEN 1
  63:Middlewares/Third_Party/LwIP/src/core/ipv4/icmp.c **** #endif /* LWIP_ICMP_ECHO_CHECK_INPUT_PBUF_LEN */
  64:Middlewares/Third_Party/LwIP/src/core/ipv4/icmp.c **** 
  65:Middlewares/Third_Party/LwIP/src/core/ipv4/icmp.c **** /* The amount of data from the original packet to return in a dest-unreachable */
ARM GAS  C:\Users\Nina\AppData\Local\Temp\ccwdRVQJ.s 			page 3


  66:Middlewares/Third_Party/LwIP/src/core/ipv4/icmp.c **** #define ICMP_DEST_UNREACH_DATASIZE 8
  67:Middlewares/Third_Party/LwIP/src/core/ipv4/icmp.c **** 
  68:Middlewares/Third_Party/LwIP/src/core/ipv4/icmp.c **** static void icmp_send_response(struct pbuf *p, u8_t type, u8_t code);
  69:Middlewares/Third_Party/LwIP/src/core/ipv4/icmp.c **** 
  70:Middlewares/Third_Party/LwIP/src/core/ipv4/icmp.c **** /**
  71:Middlewares/Third_Party/LwIP/src/core/ipv4/icmp.c ****  * Processes ICMP input packets, called from ip_input().
  72:Middlewares/Third_Party/LwIP/src/core/ipv4/icmp.c ****  *
  73:Middlewares/Third_Party/LwIP/src/core/ipv4/icmp.c ****  * Currently only processes icmp echo requests and sends
  74:Middlewares/Third_Party/LwIP/src/core/ipv4/icmp.c ****  * out the echo response.
  75:Middlewares/Third_Party/LwIP/src/core/ipv4/icmp.c ****  *
  76:Middlewares/Third_Party/LwIP/src/core/ipv4/icmp.c ****  * @param p the icmp echo request packet, p->payload pointing to the icmp header
  77:Middlewares/Third_Party/LwIP/src/core/ipv4/icmp.c ****  * @param inp the netif on which this packet was received
  78:Middlewares/Third_Party/LwIP/src/core/ipv4/icmp.c ****  */
  79:Middlewares/Third_Party/LwIP/src/core/ipv4/icmp.c **** void
  80:Middlewares/Third_Party/LwIP/src/core/ipv4/icmp.c **** icmp_input(struct pbuf *p, struct netif *inp)
  81:Middlewares/Third_Party/LwIP/src/core/ipv4/icmp.c **** {
  82:Middlewares/Third_Party/LwIP/src/core/ipv4/icmp.c ****   u8_t type;
  83:Middlewares/Third_Party/LwIP/src/core/ipv4/icmp.c **** #ifdef LWIP_DEBUG
  84:Middlewares/Third_Party/LwIP/src/core/ipv4/icmp.c ****   u8_t code;
  85:Middlewares/Third_Party/LwIP/src/core/ipv4/icmp.c **** #endif /* LWIP_DEBUG */
  86:Middlewares/Third_Party/LwIP/src/core/ipv4/icmp.c ****   struct icmp_echo_hdr *iecho;
  87:Middlewares/Third_Party/LwIP/src/core/ipv4/icmp.c ****   const struct ip_hdr *iphdr_in;
  88:Middlewares/Third_Party/LwIP/src/core/ipv4/icmp.c ****   u16_t hlen;
  89:Middlewares/Third_Party/LwIP/src/core/ipv4/icmp.c ****   const ip4_addr_t* src;
  90:Middlewares/Third_Party/LwIP/src/core/ipv4/icmp.c **** 
  91:Middlewares/Third_Party/LwIP/src/core/ipv4/icmp.c ****   ICMP_STATS_INC(icmp.recv);
  92:Middlewares/Third_Party/LwIP/src/core/ipv4/icmp.c ****   MIB2_STATS_INC(mib2.icmpinmsgs);
  93:Middlewares/Third_Party/LwIP/src/core/ipv4/icmp.c **** 
  94:Middlewares/Third_Party/LwIP/src/core/ipv4/icmp.c ****   iphdr_in = ip4_current_header();
  95:Middlewares/Third_Party/LwIP/src/core/ipv4/icmp.c ****   hlen = IPH_HL(iphdr_in) * 4;
  96:Middlewares/Third_Party/LwIP/src/core/ipv4/icmp.c ****   if (hlen < IP_HLEN) {
  97:Middlewares/Third_Party/LwIP/src/core/ipv4/icmp.c ****     LWIP_DEBUGF(ICMP_DEBUG, ("icmp_input: short IP header (%"S16_F" bytes) received\n", hlen));
  98:Middlewares/Third_Party/LwIP/src/core/ipv4/icmp.c ****     goto lenerr;
  99:Middlewares/Third_Party/LwIP/src/core/ipv4/icmp.c ****   }
 100:Middlewares/Third_Party/LwIP/src/core/ipv4/icmp.c ****   if (p->len < sizeof(u16_t)*2) {
 101:Middlewares/Third_Party/LwIP/src/core/ipv4/icmp.c ****     LWIP_DEBUGF(ICMP_DEBUG, ("icmp_input: short ICMP (%"U16_F" bytes) received\n", p->tot_len));
 102:Middlewares/Third_Party/LwIP/src/core/ipv4/icmp.c ****     goto lenerr;
 103:Middlewares/Third_Party/LwIP/src/core/ipv4/icmp.c ****   }
 104:Middlewares/Third_Party/LwIP/src/core/ipv4/icmp.c **** 
 105:Middlewares/Third_Party/LwIP/src/core/ipv4/icmp.c ****   type = *((u8_t *)p->payload);
 106:Middlewares/Third_Party/LwIP/src/core/ipv4/icmp.c **** #ifdef LWIP_DEBUG
 107:Middlewares/Third_Party/LwIP/src/core/ipv4/icmp.c ****   code = *(((u8_t *)p->payload)+1);
 108:Middlewares/Third_Party/LwIP/src/core/ipv4/icmp.c **** #endif /* LWIP_DEBUG */
 109:Middlewares/Third_Party/LwIP/src/core/ipv4/icmp.c ****   switch (type) {
 110:Middlewares/Third_Party/LwIP/src/core/ipv4/icmp.c ****   case ICMP_ER:
 111:Middlewares/Third_Party/LwIP/src/core/ipv4/icmp.c ****     /* This is OK, echo reply might have been parsed by a raw PCB
 112:Middlewares/Third_Party/LwIP/src/core/ipv4/icmp.c ****        (as obviously, an echo request has been sent, too). */
 113:Middlewares/Third_Party/LwIP/src/core/ipv4/icmp.c ****     MIB2_STATS_INC(mib2.icmpinechoreps);
 114:Middlewares/Third_Party/LwIP/src/core/ipv4/icmp.c ****     break;
 115:Middlewares/Third_Party/LwIP/src/core/ipv4/icmp.c ****   case ICMP_ECHO:
 116:Middlewares/Third_Party/LwIP/src/core/ipv4/icmp.c ****     MIB2_STATS_INC(mib2.icmpinechos);
 117:Middlewares/Third_Party/LwIP/src/core/ipv4/icmp.c ****     src = ip4_current_dest_addr();
 118:Middlewares/Third_Party/LwIP/src/core/ipv4/icmp.c ****     /* multicast destination address? */
 119:Middlewares/Third_Party/LwIP/src/core/ipv4/icmp.c ****     if (ip4_addr_ismulticast(ip4_current_dest_addr())) {
 120:Middlewares/Third_Party/LwIP/src/core/ipv4/icmp.c **** #if LWIP_MULTICAST_PING
 121:Middlewares/Third_Party/LwIP/src/core/ipv4/icmp.c ****       /* For multicast, use address of receiving interface as source address */
 122:Middlewares/Third_Party/LwIP/src/core/ipv4/icmp.c ****       src = netif_ip4_addr(inp);
ARM GAS  C:\Users\Nina\AppData\Local\Temp\ccwdRVQJ.s 			page 4


 123:Middlewares/Third_Party/LwIP/src/core/ipv4/icmp.c **** #else /* LWIP_MULTICAST_PING */
 124:Middlewares/Third_Party/LwIP/src/core/ipv4/icmp.c ****       LWIP_DEBUGF(ICMP_DEBUG, ("icmp_input: Not echoing to multicast pings\n"));
 125:Middlewares/Third_Party/LwIP/src/core/ipv4/icmp.c ****       goto icmperr;
 126:Middlewares/Third_Party/LwIP/src/core/ipv4/icmp.c **** #endif /* LWIP_MULTICAST_PING */
 127:Middlewares/Third_Party/LwIP/src/core/ipv4/icmp.c ****     }
 128:Middlewares/Third_Party/LwIP/src/core/ipv4/icmp.c ****     /* broadcast destination address? */
 129:Middlewares/Third_Party/LwIP/src/core/ipv4/icmp.c ****     if (ip4_addr_isbroadcast(ip4_current_dest_addr(), ip_current_netif())) {
 130:Middlewares/Third_Party/LwIP/src/core/ipv4/icmp.c **** #if LWIP_BROADCAST_PING
 131:Middlewares/Third_Party/LwIP/src/core/ipv4/icmp.c ****       /* For broadcast, use address of receiving interface as source address */
 132:Middlewares/Third_Party/LwIP/src/core/ipv4/icmp.c ****       src = netif_ip4_addr(inp);
 133:Middlewares/Third_Party/LwIP/src/core/ipv4/icmp.c **** #else /* LWIP_BROADCAST_PING */
 134:Middlewares/Third_Party/LwIP/src/core/ipv4/icmp.c ****       LWIP_DEBUGF(ICMP_DEBUG, ("icmp_input: Not echoing to broadcast pings\n"));
 135:Middlewares/Third_Party/LwIP/src/core/ipv4/icmp.c ****       goto icmperr;
 136:Middlewares/Third_Party/LwIP/src/core/ipv4/icmp.c **** #endif /* LWIP_BROADCAST_PING */
 137:Middlewares/Third_Party/LwIP/src/core/ipv4/icmp.c ****     }
 138:Middlewares/Third_Party/LwIP/src/core/ipv4/icmp.c ****     LWIP_DEBUGF(ICMP_DEBUG, ("icmp_input: ping\n"));
 139:Middlewares/Third_Party/LwIP/src/core/ipv4/icmp.c ****     if (p->tot_len < sizeof(struct icmp_echo_hdr)) {
 140:Middlewares/Third_Party/LwIP/src/core/ipv4/icmp.c ****       LWIP_DEBUGF(ICMP_DEBUG, ("icmp_input: bad ICMP echo received\n"));
 141:Middlewares/Third_Party/LwIP/src/core/ipv4/icmp.c ****       goto lenerr;
 142:Middlewares/Third_Party/LwIP/src/core/ipv4/icmp.c ****     }
 143:Middlewares/Third_Party/LwIP/src/core/ipv4/icmp.c **** #if CHECKSUM_CHECK_ICMP
 144:Middlewares/Third_Party/LwIP/src/core/ipv4/icmp.c ****     IF__NETIF_CHECKSUM_ENABLED(inp, NETIF_CHECKSUM_CHECK_ICMP) {
 145:Middlewares/Third_Party/LwIP/src/core/ipv4/icmp.c ****       if (inet_chksum_pbuf(p) != 0) {
 146:Middlewares/Third_Party/LwIP/src/core/ipv4/icmp.c ****         LWIP_DEBUGF(ICMP_DEBUG, ("icmp_input: checksum failed for received ICMP echo\n"));
 147:Middlewares/Third_Party/LwIP/src/core/ipv4/icmp.c ****         pbuf_free(p);
 148:Middlewares/Third_Party/LwIP/src/core/ipv4/icmp.c ****         ICMP_STATS_INC(icmp.chkerr);
 149:Middlewares/Third_Party/LwIP/src/core/ipv4/icmp.c ****         MIB2_STATS_INC(mib2.icmpinerrors);
 150:Middlewares/Third_Party/LwIP/src/core/ipv4/icmp.c ****         return;
 151:Middlewares/Third_Party/LwIP/src/core/ipv4/icmp.c ****       }
 152:Middlewares/Third_Party/LwIP/src/core/ipv4/icmp.c ****     }
 153:Middlewares/Third_Party/LwIP/src/core/ipv4/icmp.c **** #endif
 154:Middlewares/Third_Party/LwIP/src/core/ipv4/icmp.c **** #if LWIP_ICMP_ECHO_CHECK_INPUT_PBUF_LEN
 155:Middlewares/Third_Party/LwIP/src/core/ipv4/icmp.c ****     if (pbuf_header(p, (s16_t)(hlen + PBUF_LINK_HLEN + PBUF_LINK_ENCAPSULATION_HLEN))) {
 156:Middlewares/Third_Party/LwIP/src/core/ipv4/icmp.c ****       /* p is not big enough to contain link headers
 157:Middlewares/Third_Party/LwIP/src/core/ipv4/icmp.c ****        * allocate a new one and copy p into it
 158:Middlewares/Third_Party/LwIP/src/core/ipv4/icmp.c ****        */
 159:Middlewares/Third_Party/LwIP/src/core/ipv4/icmp.c ****       struct pbuf *r;
 160:Middlewares/Third_Party/LwIP/src/core/ipv4/icmp.c ****       /* allocate new packet buffer with space for link headers */
 161:Middlewares/Third_Party/LwIP/src/core/ipv4/icmp.c ****       r = pbuf_alloc(PBUF_LINK, p->tot_len + hlen, PBUF_RAM);
 162:Middlewares/Third_Party/LwIP/src/core/ipv4/icmp.c ****       if (r == NULL) {
 163:Middlewares/Third_Party/LwIP/src/core/ipv4/icmp.c ****         LWIP_DEBUGF(ICMP_DEBUG, ("icmp_input: allocating new pbuf failed\n"));
 164:Middlewares/Third_Party/LwIP/src/core/ipv4/icmp.c ****         goto icmperr;
 165:Middlewares/Third_Party/LwIP/src/core/ipv4/icmp.c ****       }
 166:Middlewares/Third_Party/LwIP/src/core/ipv4/icmp.c ****       if (r->len < hlen + sizeof(struct icmp_echo_hdr)) {
 167:Middlewares/Third_Party/LwIP/src/core/ipv4/icmp.c ****         LWIP_DEBUGF(ICMP_DEBUG | LWIP_DBG_LEVEL_SERIOUS, ("first pbuf cannot hold the ICMP header")
 168:Middlewares/Third_Party/LwIP/src/core/ipv4/icmp.c ****         pbuf_free(r);
 169:Middlewares/Third_Party/LwIP/src/core/ipv4/icmp.c ****         goto icmperr;
 170:Middlewares/Third_Party/LwIP/src/core/ipv4/icmp.c ****       }
 171:Middlewares/Third_Party/LwIP/src/core/ipv4/icmp.c ****       /* copy the ip header */
 172:Middlewares/Third_Party/LwIP/src/core/ipv4/icmp.c ****       MEMCPY(r->payload, iphdr_in, hlen);
 173:Middlewares/Third_Party/LwIP/src/core/ipv4/icmp.c ****       /* switch r->payload back to icmp header (cannot fail) */
 174:Middlewares/Third_Party/LwIP/src/core/ipv4/icmp.c ****       if (pbuf_header(r, (s16_t)-hlen)) {
 175:Middlewares/Third_Party/LwIP/src/core/ipv4/icmp.c ****         LWIP_ASSERT("icmp_input: moving r->payload to icmp header failed\n", 0);
 176:Middlewares/Third_Party/LwIP/src/core/ipv4/icmp.c ****         pbuf_free(r);
 177:Middlewares/Third_Party/LwIP/src/core/ipv4/icmp.c ****         goto icmperr;
 178:Middlewares/Third_Party/LwIP/src/core/ipv4/icmp.c ****       }
 179:Middlewares/Third_Party/LwIP/src/core/ipv4/icmp.c ****       /* copy the rest of the packet without ip header */
ARM GAS  C:\Users\Nina\AppData\Local\Temp\ccwdRVQJ.s 			page 5


 180:Middlewares/Third_Party/LwIP/src/core/ipv4/icmp.c ****       if (pbuf_copy(r, p) != ERR_OK) {
 181:Middlewares/Third_Party/LwIP/src/core/ipv4/icmp.c ****         LWIP_DEBUGF(ICMP_DEBUG | LWIP_DBG_LEVEL_SERIOUS, ("icmp_input: copying to new pbuf failed")
 182:Middlewares/Third_Party/LwIP/src/core/ipv4/icmp.c ****         pbuf_free(r);
 183:Middlewares/Third_Party/LwIP/src/core/ipv4/icmp.c ****         goto icmperr;
 184:Middlewares/Third_Party/LwIP/src/core/ipv4/icmp.c ****       }
 185:Middlewares/Third_Party/LwIP/src/core/ipv4/icmp.c ****       /* free the original p */
 186:Middlewares/Third_Party/LwIP/src/core/ipv4/icmp.c ****       pbuf_free(p);
 187:Middlewares/Third_Party/LwIP/src/core/ipv4/icmp.c ****       /* we now have an identical copy of p that has room for link headers */
 188:Middlewares/Third_Party/LwIP/src/core/ipv4/icmp.c ****       p = r;
 189:Middlewares/Third_Party/LwIP/src/core/ipv4/icmp.c ****     } else {
 190:Middlewares/Third_Party/LwIP/src/core/ipv4/icmp.c ****       /* restore p->payload to point to icmp header (cannot fail) */
 191:Middlewares/Third_Party/LwIP/src/core/ipv4/icmp.c ****       if (pbuf_header(p, -(s16_t)(hlen + PBUF_LINK_HLEN + PBUF_LINK_ENCAPSULATION_HLEN))) {
 192:Middlewares/Third_Party/LwIP/src/core/ipv4/icmp.c ****         LWIP_ASSERT("icmp_input: restoring original p->payload failed\n", 0);
 193:Middlewares/Third_Party/LwIP/src/core/ipv4/icmp.c ****         goto icmperr;
 194:Middlewares/Third_Party/LwIP/src/core/ipv4/icmp.c ****       }
 195:Middlewares/Third_Party/LwIP/src/core/ipv4/icmp.c ****     }
 196:Middlewares/Third_Party/LwIP/src/core/ipv4/icmp.c **** #endif /* LWIP_ICMP_ECHO_CHECK_INPUT_PBUF_LEN */
 197:Middlewares/Third_Party/LwIP/src/core/ipv4/icmp.c ****     /* At this point, all checks are OK. */
 198:Middlewares/Third_Party/LwIP/src/core/ipv4/icmp.c ****     /* We generate an answer by switching the dest and src ip addresses,
 199:Middlewares/Third_Party/LwIP/src/core/ipv4/icmp.c ****      * setting the icmp type to ECHO_RESPONSE and updating the checksum. */
 200:Middlewares/Third_Party/LwIP/src/core/ipv4/icmp.c ****     iecho = (struct icmp_echo_hdr *)p->payload;
 201:Middlewares/Third_Party/LwIP/src/core/ipv4/icmp.c ****     if (pbuf_header(p, (s16_t)hlen)) {
 202:Middlewares/Third_Party/LwIP/src/core/ipv4/icmp.c ****       LWIP_DEBUGF(ICMP_DEBUG | LWIP_DBG_LEVEL_SERIOUS, ("Can't move over header in packet"));
 203:Middlewares/Third_Party/LwIP/src/core/ipv4/icmp.c ****     } else {
 204:Middlewares/Third_Party/LwIP/src/core/ipv4/icmp.c ****       err_t ret;
 205:Middlewares/Third_Party/LwIP/src/core/ipv4/icmp.c ****       struct ip_hdr *iphdr = (struct ip_hdr*)p->payload;
 206:Middlewares/Third_Party/LwIP/src/core/ipv4/icmp.c ****       ip4_addr_copy(iphdr->src, *src);
 207:Middlewares/Third_Party/LwIP/src/core/ipv4/icmp.c ****       ip4_addr_copy(iphdr->dest, *ip4_current_src_addr());
 208:Middlewares/Third_Party/LwIP/src/core/ipv4/icmp.c ****       ICMPH_TYPE_SET(iecho, ICMP_ER);
 209:Middlewares/Third_Party/LwIP/src/core/ipv4/icmp.c **** #if CHECKSUM_GEN_ICMP
 210:Middlewares/Third_Party/LwIP/src/core/ipv4/icmp.c ****       IF__NETIF_CHECKSUM_ENABLED(inp, NETIF_CHECKSUM_GEN_ICMP) {
 211:Middlewares/Third_Party/LwIP/src/core/ipv4/icmp.c ****         /* adjust the checksum */
 212:Middlewares/Third_Party/LwIP/src/core/ipv4/icmp.c ****         if (iecho->chksum > PP_HTONS(0xffffU - (ICMP_ECHO << 8))) {
 213:Middlewares/Third_Party/LwIP/src/core/ipv4/icmp.c ****           iecho->chksum += PP_HTONS(ICMP_ECHO << 8) + 1;
 214:Middlewares/Third_Party/LwIP/src/core/ipv4/icmp.c ****         } else {
 215:Middlewares/Third_Party/LwIP/src/core/ipv4/icmp.c ****           iecho->chksum += PP_HTONS(ICMP_ECHO << 8);
 216:Middlewares/Third_Party/LwIP/src/core/ipv4/icmp.c ****         }
 217:Middlewares/Third_Party/LwIP/src/core/ipv4/icmp.c ****       }
 218:Middlewares/Third_Party/LwIP/src/core/ipv4/icmp.c **** #if LWIP_CHECKSUM_CTRL_PER_NETIF
 219:Middlewares/Third_Party/LwIP/src/core/ipv4/icmp.c ****       else {
 220:Middlewares/Third_Party/LwIP/src/core/ipv4/icmp.c ****         iecho->chksum = 0;
 221:Middlewares/Third_Party/LwIP/src/core/ipv4/icmp.c ****       }
 222:Middlewares/Third_Party/LwIP/src/core/ipv4/icmp.c **** #endif /* LWIP_CHECKSUM_CTRL_PER_NETIF */
 223:Middlewares/Third_Party/LwIP/src/core/ipv4/icmp.c **** #else /* CHECKSUM_GEN_ICMP */
 224:Middlewares/Third_Party/LwIP/src/core/ipv4/icmp.c ****       iecho->chksum = 0;
 225:Middlewares/Third_Party/LwIP/src/core/ipv4/icmp.c **** #endif /* CHECKSUM_GEN_ICMP */
 226:Middlewares/Third_Party/LwIP/src/core/ipv4/icmp.c **** 
 227:Middlewares/Third_Party/LwIP/src/core/ipv4/icmp.c ****       /* Set the correct TTL and recalculate the header checksum. */
 228:Middlewares/Third_Party/LwIP/src/core/ipv4/icmp.c ****       IPH_TTL_SET(iphdr, ICMP_TTL);
 229:Middlewares/Third_Party/LwIP/src/core/ipv4/icmp.c ****       IPH_CHKSUM_SET(iphdr, 0);
 230:Middlewares/Third_Party/LwIP/src/core/ipv4/icmp.c **** #if CHECKSUM_GEN_IP
 231:Middlewares/Third_Party/LwIP/src/core/ipv4/icmp.c ****       IF__NETIF_CHECKSUM_ENABLED(inp, NETIF_CHECKSUM_GEN_IP) {
 232:Middlewares/Third_Party/LwIP/src/core/ipv4/icmp.c ****         IPH_CHKSUM_SET(iphdr, inet_chksum(iphdr, hlen));
 233:Middlewares/Third_Party/LwIP/src/core/ipv4/icmp.c ****       }
 234:Middlewares/Third_Party/LwIP/src/core/ipv4/icmp.c **** #endif /* CHECKSUM_GEN_IP */
 235:Middlewares/Third_Party/LwIP/src/core/ipv4/icmp.c **** 
 236:Middlewares/Third_Party/LwIP/src/core/ipv4/icmp.c ****       ICMP_STATS_INC(icmp.xmit);
ARM GAS  C:\Users\Nina\AppData\Local\Temp\ccwdRVQJ.s 			page 6


 237:Middlewares/Third_Party/LwIP/src/core/ipv4/icmp.c ****       /* increase number of messages attempted to send */
 238:Middlewares/Third_Party/LwIP/src/core/ipv4/icmp.c ****       MIB2_STATS_INC(mib2.icmpoutmsgs);
 239:Middlewares/Third_Party/LwIP/src/core/ipv4/icmp.c ****       /* increase number of echo replies attempted to send */
 240:Middlewares/Third_Party/LwIP/src/core/ipv4/icmp.c ****       MIB2_STATS_INC(mib2.icmpoutechoreps);
 241:Middlewares/Third_Party/LwIP/src/core/ipv4/icmp.c **** 
 242:Middlewares/Third_Party/LwIP/src/core/ipv4/icmp.c ****       /* send an ICMP packet */
 243:Middlewares/Third_Party/LwIP/src/core/ipv4/icmp.c ****       ret = ip4_output_if(p, src, LWIP_IP_HDRINCL,
 244:Middlewares/Third_Party/LwIP/src/core/ipv4/icmp.c ****                    ICMP_TTL, 0, IP_PROTO_ICMP, inp);
 245:Middlewares/Third_Party/LwIP/src/core/ipv4/icmp.c ****       if (ret != ERR_OK) {
 246:Middlewares/Third_Party/LwIP/src/core/ipv4/icmp.c ****         LWIP_DEBUGF(ICMP_DEBUG, ("icmp_input: ip_output_if returned an error: %s\n", lwip_strerr(re
 247:Middlewares/Third_Party/LwIP/src/core/ipv4/icmp.c ****       }
 248:Middlewares/Third_Party/LwIP/src/core/ipv4/icmp.c ****     }
 249:Middlewares/Third_Party/LwIP/src/core/ipv4/icmp.c ****     break;
 250:Middlewares/Third_Party/LwIP/src/core/ipv4/icmp.c ****   default:
 251:Middlewares/Third_Party/LwIP/src/core/ipv4/icmp.c ****     if (type == ICMP_DUR) {
 252:Middlewares/Third_Party/LwIP/src/core/ipv4/icmp.c ****       MIB2_STATS_INC(mib2.icmpindestunreachs);
 253:Middlewares/Third_Party/LwIP/src/core/ipv4/icmp.c ****     } else if (type == ICMP_TE) {
 254:Middlewares/Third_Party/LwIP/src/core/ipv4/icmp.c ****       MIB2_STATS_INC(mib2.icmpintimeexcds);
 255:Middlewares/Third_Party/LwIP/src/core/ipv4/icmp.c ****     } else if (type == ICMP_PP) {
 256:Middlewares/Third_Party/LwIP/src/core/ipv4/icmp.c ****       MIB2_STATS_INC(mib2.icmpinparmprobs);
 257:Middlewares/Third_Party/LwIP/src/core/ipv4/icmp.c ****     } else if (type == ICMP_SQ) {
 258:Middlewares/Third_Party/LwIP/src/core/ipv4/icmp.c ****       MIB2_STATS_INC(mib2.icmpinsrcquenchs);
 259:Middlewares/Third_Party/LwIP/src/core/ipv4/icmp.c ****     } else if (type == ICMP_RD) {
 260:Middlewares/Third_Party/LwIP/src/core/ipv4/icmp.c ****       MIB2_STATS_INC(mib2.icmpinredirects);
 261:Middlewares/Third_Party/LwIP/src/core/ipv4/icmp.c ****     } else if (type == ICMP_TS) {
 262:Middlewares/Third_Party/LwIP/src/core/ipv4/icmp.c ****       MIB2_STATS_INC(mib2.icmpintimestamps);
 263:Middlewares/Third_Party/LwIP/src/core/ipv4/icmp.c ****     } else if (type == ICMP_TSR) {
 264:Middlewares/Third_Party/LwIP/src/core/ipv4/icmp.c ****       MIB2_STATS_INC(mib2.icmpintimestampreps);
 265:Middlewares/Third_Party/LwIP/src/core/ipv4/icmp.c ****     } else if (type == ICMP_AM) {
 266:Middlewares/Third_Party/LwIP/src/core/ipv4/icmp.c ****       MIB2_STATS_INC(mib2.icmpinaddrmasks);
 267:Middlewares/Third_Party/LwIP/src/core/ipv4/icmp.c ****     } else if (type == ICMP_AMR) {
 268:Middlewares/Third_Party/LwIP/src/core/ipv4/icmp.c ****       MIB2_STATS_INC(mib2.icmpinaddrmaskreps);
 269:Middlewares/Third_Party/LwIP/src/core/ipv4/icmp.c ****     }
 270:Middlewares/Third_Party/LwIP/src/core/ipv4/icmp.c ****     LWIP_DEBUGF(ICMP_DEBUG, ("icmp_input: ICMP type %"S16_F" code %"S16_F" not supported.\n",
 271:Middlewares/Third_Party/LwIP/src/core/ipv4/icmp.c ****                 (s16_t)type, (s16_t)code));
 272:Middlewares/Third_Party/LwIP/src/core/ipv4/icmp.c ****     ICMP_STATS_INC(icmp.proterr);
 273:Middlewares/Third_Party/LwIP/src/core/ipv4/icmp.c ****     ICMP_STATS_INC(icmp.drop);
 274:Middlewares/Third_Party/LwIP/src/core/ipv4/icmp.c ****   }
 275:Middlewares/Third_Party/LwIP/src/core/ipv4/icmp.c ****   pbuf_free(p);
 276:Middlewares/Third_Party/LwIP/src/core/ipv4/icmp.c ****   return;
 277:Middlewares/Third_Party/LwIP/src/core/ipv4/icmp.c **** lenerr:
 278:Middlewares/Third_Party/LwIP/src/core/ipv4/icmp.c ****   pbuf_free(p);
 279:Middlewares/Third_Party/LwIP/src/core/ipv4/icmp.c ****   ICMP_STATS_INC(icmp.lenerr);
 280:Middlewares/Third_Party/LwIP/src/core/ipv4/icmp.c ****   MIB2_STATS_INC(mib2.icmpinerrors);
 281:Middlewares/Third_Party/LwIP/src/core/ipv4/icmp.c ****   return;
 282:Middlewares/Third_Party/LwIP/src/core/ipv4/icmp.c **** #if LWIP_ICMP_ECHO_CHECK_INPUT_PBUF_LEN || !LWIP_MULTICAST_PING || !LWIP_BROADCAST_PING
 283:Middlewares/Third_Party/LwIP/src/core/ipv4/icmp.c **** icmperr:
 284:Middlewares/Third_Party/LwIP/src/core/ipv4/icmp.c ****   pbuf_free(p);
 285:Middlewares/Third_Party/LwIP/src/core/ipv4/icmp.c ****   ICMP_STATS_INC(icmp.err);
 286:Middlewares/Third_Party/LwIP/src/core/ipv4/icmp.c ****   MIB2_STATS_INC(mib2.icmpinerrors);
 287:Middlewares/Third_Party/LwIP/src/core/ipv4/icmp.c ****   return;
 288:Middlewares/Third_Party/LwIP/src/core/ipv4/icmp.c **** #endif /* LWIP_ICMP_ECHO_CHECK_INPUT_PBUF_LEN || !LWIP_MULTICAST_PING || !LWIP_BROADCAST_PING */
 289:Middlewares/Third_Party/LwIP/src/core/ipv4/icmp.c **** }
 290:Middlewares/Third_Party/LwIP/src/core/ipv4/icmp.c **** 
 291:Middlewares/Third_Party/LwIP/src/core/ipv4/icmp.c **** /**
 292:Middlewares/Third_Party/LwIP/src/core/ipv4/icmp.c ****  * Send an icmp 'destination unreachable' packet, called from ip_input() if
 293:Middlewares/Third_Party/LwIP/src/core/ipv4/icmp.c ****  * the transport layer protocol is unknown and from udp_input() if the local
ARM GAS  C:\Users\Nina\AppData\Local\Temp\ccwdRVQJ.s 			page 7


 294:Middlewares/Third_Party/LwIP/src/core/ipv4/icmp.c ****  * port is not bound.
 295:Middlewares/Third_Party/LwIP/src/core/ipv4/icmp.c ****  *
 296:Middlewares/Third_Party/LwIP/src/core/ipv4/icmp.c ****  * @param p the input packet for which the 'unreachable' should be sent,
 297:Middlewares/Third_Party/LwIP/src/core/ipv4/icmp.c ****  *          p->payload pointing to the IP header
 298:Middlewares/Third_Party/LwIP/src/core/ipv4/icmp.c ****  * @param t type of the 'unreachable' packet
 299:Middlewares/Third_Party/LwIP/src/core/ipv4/icmp.c ****  */
 300:Middlewares/Third_Party/LwIP/src/core/ipv4/icmp.c **** void
 301:Middlewares/Third_Party/LwIP/src/core/ipv4/icmp.c **** icmp_dest_unreach(struct pbuf *p, enum icmp_dur_type t)
 302:Middlewares/Third_Party/LwIP/src/core/ipv4/icmp.c **** {
 303:Middlewares/Third_Party/LwIP/src/core/ipv4/icmp.c ****   MIB2_STATS_INC(mib2.icmpoutdestunreachs);
 304:Middlewares/Third_Party/LwIP/src/core/ipv4/icmp.c ****   icmp_send_response(p, ICMP_DUR, t);
 305:Middlewares/Third_Party/LwIP/src/core/ipv4/icmp.c **** }
 306:Middlewares/Third_Party/LwIP/src/core/ipv4/icmp.c **** 
 307:Middlewares/Third_Party/LwIP/src/core/ipv4/icmp.c **** #if IP_FORWARD || IP_REASSEMBLY
 308:Middlewares/Third_Party/LwIP/src/core/ipv4/icmp.c **** /**
 309:Middlewares/Third_Party/LwIP/src/core/ipv4/icmp.c ****  * Send a 'time exceeded' packet, called from ip_forward() if TTL is 0.
 310:Middlewares/Third_Party/LwIP/src/core/ipv4/icmp.c ****  *
 311:Middlewares/Third_Party/LwIP/src/core/ipv4/icmp.c ****  * @param p the input packet for which the 'time exceeded' should be sent,
 312:Middlewares/Third_Party/LwIP/src/core/ipv4/icmp.c ****  *          p->payload pointing to the IP header
 313:Middlewares/Third_Party/LwIP/src/core/ipv4/icmp.c ****  * @param t type of the 'time exceeded' packet
 314:Middlewares/Third_Party/LwIP/src/core/ipv4/icmp.c ****  */
 315:Middlewares/Third_Party/LwIP/src/core/ipv4/icmp.c **** void
 316:Middlewares/Third_Party/LwIP/src/core/ipv4/icmp.c **** icmp_time_exceeded(struct pbuf *p, enum icmp_te_type t)
 317:Middlewares/Third_Party/LwIP/src/core/ipv4/icmp.c **** {
 318:Middlewares/Third_Party/LwIP/src/core/ipv4/icmp.c ****   MIB2_STATS_INC(mib2.icmpouttimeexcds);
 319:Middlewares/Third_Party/LwIP/src/core/ipv4/icmp.c ****   icmp_send_response(p, ICMP_TE, t);
 320:Middlewares/Third_Party/LwIP/src/core/ipv4/icmp.c **** }
 321:Middlewares/Third_Party/LwIP/src/core/ipv4/icmp.c **** 
 322:Middlewares/Third_Party/LwIP/src/core/ipv4/icmp.c **** #endif /* IP_FORWARD || IP_REASSEMBLY */
 323:Middlewares/Third_Party/LwIP/src/core/ipv4/icmp.c **** 
 324:Middlewares/Third_Party/LwIP/src/core/ipv4/icmp.c **** /**
 325:Middlewares/Third_Party/LwIP/src/core/ipv4/icmp.c ****  * Send an icmp packet in response to an incoming packet.
 326:Middlewares/Third_Party/LwIP/src/core/ipv4/icmp.c ****  *
 327:Middlewares/Third_Party/LwIP/src/core/ipv4/icmp.c ****  * @param p the input packet for which the 'unreachable' should be sent,
 328:Middlewares/Third_Party/LwIP/src/core/ipv4/icmp.c ****  *          p->payload pointing to the IP header
 329:Middlewares/Third_Party/LwIP/src/core/ipv4/icmp.c ****  * @param type Type of the ICMP header
 330:Middlewares/Third_Party/LwIP/src/core/ipv4/icmp.c ****  * @param code Code of the ICMP header
 331:Middlewares/Third_Party/LwIP/src/core/ipv4/icmp.c ****  */
 332:Middlewares/Third_Party/LwIP/src/core/ipv4/icmp.c **** static void
 333:Middlewares/Third_Party/LwIP/src/core/ipv4/icmp.c **** icmp_send_response(struct pbuf *p, u8_t type, u8_t code)
 334:Middlewares/Third_Party/LwIP/src/core/ipv4/icmp.c **** {
  39              		.loc 1 334 1 view -0
  40              		.cfi_startproc
  41              		@ args = 0, pretend = 0, frame = 8
  42              		@ frame_needed = 0, uses_anonymous_args = 0
  43              		.loc 1 334 1 is_stmt 0 view .LVU1
  44 0000 2DE9F041 		push	{r4, r5, r6, r7, r8, lr}
  45              	.LCFI0:
  46              		.cfi_def_cfa_offset 24
  47              		.cfi_offset 4, -24
  48              		.cfi_offset 5, -20
  49              		.cfi_offset 6, -16
  50              		.cfi_offset 7, -12
  51              		.cfi_offset 8, -8
  52              		.cfi_offset 14, -4
  53 0004 86B0     		sub	sp, sp, #24
  54              	.LCFI1:
ARM GAS  C:\Users\Nina\AppData\Local\Temp\ccwdRVQJ.s 			page 8


  55              		.cfi_def_cfa_offset 48
  56 0006 0646     		mov	r6, r0
  57 0008 8846     		mov	r8, r1
  58 000a 1746     		mov	r7, r2
 335:Middlewares/Third_Party/LwIP/src/core/ipv4/icmp.c ****   struct pbuf *q;
  59              		.loc 1 335 3 is_stmt 1 view .LVU2
 336:Middlewares/Third_Party/LwIP/src/core/ipv4/icmp.c ****   struct ip_hdr *iphdr;
  60              		.loc 1 336 3 view .LVU3
 337:Middlewares/Third_Party/LwIP/src/core/ipv4/icmp.c ****   /* we can use the echo header here */
 338:Middlewares/Third_Party/LwIP/src/core/ipv4/icmp.c ****   struct icmp_echo_hdr *icmphdr;
  61              		.loc 1 338 3 view .LVU4
 339:Middlewares/Third_Party/LwIP/src/core/ipv4/icmp.c ****   ip4_addr_t iphdr_src;
  62              		.loc 1 339 3 view .LVU5
 340:Middlewares/Third_Party/LwIP/src/core/ipv4/icmp.c ****   struct netif *netif;
  63              		.loc 1 340 3 view .LVU6
 341:Middlewares/Third_Party/LwIP/src/core/ipv4/icmp.c **** 
 342:Middlewares/Third_Party/LwIP/src/core/ipv4/icmp.c ****   /* increase number of messages attempted to send */
 343:Middlewares/Third_Party/LwIP/src/core/ipv4/icmp.c ****   MIB2_STATS_INC(mib2.icmpoutmsgs);
  64              		.loc 1 343 35 view .LVU7
 344:Middlewares/Third_Party/LwIP/src/core/ipv4/icmp.c **** 
 345:Middlewares/Third_Party/LwIP/src/core/ipv4/icmp.c ****   /* ICMP header + IP header + 8 bytes of data */
 346:Middlewares/Third_Party/LwIP/src/core/ipv4/icmp.c ****   q = pbuf_alloc(PBUF_IP, sizeof(struct icmp_echo_hdr) + IP_HLEN + ICMP_DEST_UNREACH_DATASIZE,
  65              		.loc 1 346 3 view .LVU8
  66              		.loc 1 346 7 is_stmt 0 view .LVU9
  67 000c 0022     		movs	r2, #0
  68              	.LVL1:
  69              		.loc 1 346 7 view .LVU10
  70 000e 2421     		movs	r1, #36
  71              	.LVL2:
  72              		.loc 1 346 7 view .LVU11
  73 0010 0120     		movs	r0, #1
  74              	.LVL3:
  75              		.loc 1 346 7 view .LVU12
  76 0012 FFF7FEFF 		bl	pbuf_alloc
  77              	.LVL4:
 347:Middlewares/Third_Party/LwIP/src/core/ipv4/icmp.c ****                  PBUF_RAM);
 348:Middlewares/Third_Party/LwIP/src/core/ipv4/icmp.c ****   if (q == NULL) {
  78              		.loc 1 348 3 is_stmt 1 view .LVU13
  79              		.loc 1 348 6 is_stmt 0 view .LVU14
  80 0016 A0B3     		cbz	r0, .L1
  81 0018 0546     		mov	r5, r0
 349:Middlewares/Third_Party/LwIP/src/core/ipv4/icmp.c ****     LWIP_DEBUGF(ICMP_DEBUG, ("icmp_time_exceeded: failed to allocate pbuf for ICMP packet.\n"));
 350:Middlewares/Third_Party/LwIP/src/core/ipv4/icmp.c ****     MIB2_STATS_INC(mib2.icmpouterrors);
 351:Middlewares/Third_Party/LwIP/src/core/ipv4/icmp.c ****     return;
 352:Middlewares/Third_Party/LwIP/src/core/ipv4/icmp.c ****   }
 353:Middlewares/Third_Party/LwIP/src/core/ipv4/icmp.c ****   LWIP_ASSERT("check that first pbuf can hold icmp message",
  82              		.loc 1 353 3 is_stmt 1 view .LVU15
  83              		.loc 1 353 3 view .LVU16
  84 001a 4389     		ldrh	r3, [r0, #10]
  85 001c 232B     		cmp	r3, #35
  86 001e 33D9     		bls	.L7
  87              	.LVL5:
  88              	.L4:
  89              		.loc 1 353 3 discriminator 3 view .LVU17
  90              		.loc 1 353 3 discriminator 3 view .LVU18
 354:Middlewares/Third_Party/LwIP/src/core/ipv4/icmp.c ****              (q->len >= (sizeof(struct icmp_echo_hdr) + IP_HLEN + ICMP_DEST_UNREACH_DATASIZE)));
 355:Middlewares/Third_Party/LwIP/src/core/ipv4/icmp.c **** 
ARM GAS  C:\Users\Nina\AppData\Local\Temp\ccwdRVQJ.s 			page 9


 356:Middlewares/Third_Party/LwIP/src/core/ipv4/icmp.c ****   iphdr = (struct ip_hdr *)p->payload;
  91              		.loc 1 356 3 discriminator 3 view .LVU19
  92              		.loc 1 356 9 is_stmt 0 discriminator 3 view .LVU20
  93 0020 D6F804C0 		ldr	ip, [r6, #4]
  94              	.LVL6:
 357:Middlewares/Third_Party/LwIP/src/core/ipv4/icmp.c ****   LWIP_DEBUGF(ICMP_DEBUG, ("icmp_time_exceeded from "));
  95              		.loc 1 357 56 is_stmt 1 discriminator 3 view .LVU21
 358:Middlewares/Third_Party/LwIP/src/core/ipv4/icmp.c ****   ip4_addr_debug_print_val(ICMP_DEBUG, iphdr->src);
  96              		.loc 1 358 51 discriminator 3 view .LVU22
 359:Middlewares/Third_Party/LwIP/src/core/ipv4/icmp.c ****   LWIP_DEBUGF(ICMP_DEBUG, (" to "));
  97              		.loc 1 359 36 discriminator 3 view .LVU23
 360:Middlewares/Third_Party/LwIP/src/core/ipv4/icmp.c ****   ip4_addr_debug_print_val(ICMP_DEBUG, iphdr->dest);
  98              		.loc 1 360 52 discriminator 3 view .LVU24
 361:Middlewares/Third_Party/LwIP/src/core/ipv4/icmp.c ****   LWIP_DEBUGF(ICMP_DEBUG, ("\n"));
  99              		.loc 1 361 34 discriminator 3 view .LVU25
 362:Middlewares/Third_Party/LwIP/src/core/ipv4/icmp.c **** 
 363:Middlewares/Third_Party/LwIP/src/core/ipv4/icmp.c ****   icmphdr = (struct icmp_echo_hdr *)q->payload;
 100              		.loc 1 363 3 discriminator 3 view .LVU26
 101              		.loc 1 363 11 is_stmt 0 discriminator 3 view .LVU27
 102 0024 6C68     		ldr	r4, [r5, #4]
 103              	.LVL7:
 364:Middlewares/Third_Party/LwIP/src/core/ipv4/icmp.c ****   icmphdr->type = type;
 104              		.loc 1 364 3 is_stmt 1 discriminator 3 view .LVU28
 105              		.loc 1 364 17 is_stmt 0 discriminator 3 view .LVU29
 106 0026 84F80080 		strb	r8, [r4]
 365:Middlewares/Third_Party/LwIP/src/core/ipv4/icmp.c ****   icmphdr->code = code;
 107              		.loc 1 365 3 is_stmt 1 discriminator 3 view .LVU30
 108              		.loc 1 365 17 is_stmt 0 discriminator 3 view .LVU31
 109 002a 6770     		strb	r7, [r4, #1]
 366:Middlewares/Third_Party/LwIP/src/core/ipv4/icmp.c ****   icmphdr->id = 0;
 110              		.loc 1 366 3 is_stmt 1 discriminator 3 view .LVU32
 111              		.loc 1 366 15 is_stmt 0 discriminator 3 view .LVU33
 112 002c 0023     		movs	r3, #0
 113 002e 2371     		strb	r3, [r4, #4]
 114 0030 6371     		strb	r3, [r4, #5]
 367:Middlewares/Third_Party/LwIP/src/core/ipv4/icmp.c ****   icmphdr->seqno = 0;
 115              		.loc 1 367 3 is_stmt 1 discriminator 3 view .LVU34
 116              		.loc 1 367 18 is_stmt 0 discriminator 3 view .LVU35
 117 0032 A371     		strb	r3, [r4, #6]
 118 0034 E371     		strb	r3, [r4, #7]
 368:Middlewares/Third_Party/LwIP/src/core/ipv4/icmp.c **** 
 369:Middlewares/Third_Party/LwIP/src/core/ipv4/icmp.c ****   /* copy fields from original packet */
 370:Middlewares/Third_Party/LwIP/src/core/ipv4/icmp.c ****   SMEMCPY((u8_t *)q->payload + sizeof(struct icmp_echo_hdr), (u8_t *)p->payload,
 119              		.loc 1 370 3 is_stmt 1 discriminator 3 view .LVU36
 120 0036 6B68     		ldr	r3, [r5, #4]
 121 0038 7268     		ldr	r2, [r6, #4]
 122 003a 1668     		ldr	r6, [r2]	@ unaligned
 123              	.LVL8:
 124              		.loc 1 370 3 is_stmt 0 discriminator 3 view .LVU37
 125 003c 5068     		ldr	r0, [r2, #4]	@ unaligned
 126 003e 9168     		ldr	r1, [r2, #8]	@ unaligned
 127 0040 D768     		ldr	r7, [r2, #12]	@ unaligned
 128 0042 9E60     		str	r6, [r3, #8]	@ unaligned
 129 0044 D860     		str	r0, [r3, #12]	@ unaligned
 130 0046 1961     		str	r1, [r3, #16]	@ unaligned
 131 0048 5F61     		str	r7, [r3, #20]	@ unaligned
 132 004a 1669     		ldr	r6, [r2, #16]	@ unaligned
ARM GAS  C:\Users\Nina\AppData\Local\Temp\ccwdRVQJ.s 			page 10


 133 004c 5069     		ldr	r0, [r2, #20]	@ unaligned
 134 004e 9169     		ldr	r1, [r2, #24]	@ unaligned
 135 0050 9E61     		str	r6, [r3, #24]	@ unaligned
 136 0052 D861     		str	r0, [r3, #28]	@ unaligned
 137 0054 1962     		str	r1, [r3, #32]	@ unaligned
 371:Middlewares/Third_Party/LwIP/src/core/ipv4/icmp.c ****           IP_HLEN + ICMP_DEST_UNREACH_DATASIZE);
 372:Middlewares/Third_Party/LwIP/src/core/ipv4/icmp.c **** 
 373:Middlewares/Third_Party/LwIP/src/core/ipv4/icmp.c ****   ip4_addr_copy(iphdr_src, iphdr->src);
 138              		.loc 1 373 3 is_stmt 1 discriminator 3 view .LVU38
 139 0056 DCF80C30 		ldr	r3, [ip, #12]	@ unaligned
 140 005a 0593     		str	r3, [sp, #20]
 374:Middlewares/Third_Party/LwIP/src/core/ipv4/icmp.c **** #ifdef LWIP_HOOK_IP4_ROUTE_SRC
 375:Middlewares/Third_Party/LwIP/src/core/ipv4/icmp.c ****   {
 376:Middlewares/Third_Party/LwIP/src/core/ipv4/icmp.c ****     ip4_addr_t iphdr_dst;
 377:Middlewares/Third_Party/LwIP/src/core/ipv4/icmp.c ****     ip4_addr_copy(iphdr_dst, iphdr->dest);
 378:Middlewares/Third_Party/LwIP/src/core/ipv4/icmp.c ****     netif = ip4_route_src(&iphdr_src, &iphdr_dst);
 379:Middlewares/Third_Party/LwIP/src/core/ipv4/icmp.c ****   }
 380:Middlewares/Third_Party/LwIP/src/core/ipv4/icmp.c **** #else
 381:Middlewares/Third_Party/LwIP/src/core/ipv4/icmp.c ****   netif = ip4_route(&iphdr_src);
 141              		.loc 1 381 3 discriminator 3 view .LVU39
 142              		.loc 1 381 11 is_stmt 0 discriminator 3 view .LVU40
 143 005c 05A8     		add	r0, sp, #20
 144 005e FFF7FEFF 		bl	ip4_route
 145              	.LVL9:
 382:Middlewares/Third_Party/LwIP/src/core/ipv4/icmp.c **** #endif
 383:Middlewares/Third_Party/LwIP/src/core/ipv4/icmp.c ****   if (netif != NULL) {
 146              		.loc 1 383 3 is_stmt 1 discriminator 3 view .LVU41
 147              		.loc 1 383 6 is_stmt 0 discriminator 3 view .LVU42
 148 0062 58B1     		cbz	r0, .L5
 384:Middlewares/Third_Party/LwIP/src/core/ipv4/icmp.c ****     /* calculate checksum */
 385:Middlewares/Third_Party/LwIP/src/core/ipv4/icmp.c ****     icmphdr->chksum = 0;
 149              		.loc 1 385 5 is_stmt 1 view .LVU43
 150              		.loc 1 385 21 is_stmt 0 view .LVU44
 151 0064 0021     		movs	r1, #0
 152 0066 A170     		strb	r1, [r4, #2]
 153 0068 E170     		strb	r1, [r4, #3]
 386:Middlewares/Third_Party/LwIP/src/core/ipv4/icmp.c **** #if CHECKSUM_GEN_ICMP
 387:Middlewares/Third_Party/LwIP/src/core/ipv4/icmp.c ****     IF__NETIF_CHECKSUM_ENABLED(netif, NETIF_CHECKSUM_GEN_ICMP) {
 388:Middlewares/Third_Party/LwIP/src/core/ipv4/icmp.c ****       icmphdr->chksum = inet_chksum(icmphdr, q->len);
 389:Middlewares/Third_Party/LwIP/src/core/ipv4/icmp.c ****     }
 390:Middlewares/Third_Party/LwIP/src/core/ipv4/icmp.c **** #endif
 391:Middlewares/Third_Party/LwIP/src/core/ipv4/icmp.c ****     ICMP_STATS_INC(icmp.xmit);
 154              		.loc 1 391 30 is_stmt 1 view .LVU45
 392:Middlewares/Third_Party/LwIP/src/core/ipv4/icmp.c ****     ip4_output_if(q, NULL, &iphdr_src, ICMP_TTL, 0, IP_PROTO_ICMP, netif);
 155              		.loc 1 392 5 view .LVU46
 156 006a 0290     		str	r0, [sp, #8]
 157 006c 0123     		movs	r3, #1
 158 006e 0193     		str	r3, [sp, #4]
 159 0070 0091     		str	r1, [sp]
 160 0072 FF23     		movs	r3, #255
 161 0074 05AA     		add	r2, sp, #20
 162 0076 2846     		mov	r0, r5
 163              	.LVL10:
 164              		.loc 1 392 5 is_stmt 0 view .LVU47
 165 0078 FFF7FEFF 		bl	ip4_output_if
 166              	.LVL11:
 167              	.L5:
ARM GAS  C:\Users\Nina\AppData\Local\Temp\ccwdRVQJ.s 			page 11


 393:Middlewares/Third_Party/LwIP/src/core/ipv4/icmp.c ****   }
 394:Middlewares/Third_Party/LwIP/src/core/ipv4/icmp.c ****   pbuf_free(q);
 168              		.loc 1 394 3 is_stmt 1 view .LVU48
 169 007c 2846     		mov	r0, r5
 170 007e FFF7FEFF 		bl	pbuf_free
 171              	.LVL12:
 172              	.L1:
 395:Middlewares/Third_Party/LwIP/src/core/ipv4/icmp.c **** }
 173              		.loc 1 395 1 is_stmt 0 view .LVU49
 174 0082 06B0     		add	sp, sp, #24
 175              	.LCFI2:
 176              		.cfi_remember_state
 177              		.cfi_def_cfa_offset 24
 178              		@ sp needed
 179 0084 BDE8F081 		pop	{r4, r5, r6, r7, r8, pc}
 180              	.LVL13:
 181              	.L7:
 182              	.LCFI3:
 183              		.cfi_restore_state
 353:Middlewares/Third_Party/LwIP/src/core/ipv4/icmp.c ****              (q->len >= (sizeof(struct icmp_echo_hdr) + IP_HLEN + ICMP_DEST_UNREACH_DATASIZE)));
 184              		.loc 1 353 3 is_stmt 1 discriminator 1 view .LVU50
 353:Middlewares/Third_Party/LwIP/src/core/ipv4/icmp.c ****              (q->len >= (sizeof(struct icmp_echo_hdr) + IP_HLEN + ICMP_DEST_UNREACH_DATASIZE)));
 185              		.loc 1 353 3 discriminator 1 view .LVU51
 186 0088 034B     		ldr	r3, .L8
 187 008a 40F26112 		movw	r2, #353
 188 008e 0349     		ldr	r1, .L8+4
 189 0090 0348     		ldr	r0, .L8+8
 190              	.LVL14:
 353:Middlewares/Third_Party/LwIP/src/core/ipv4/icmp.c ****              (q->len >= (sizeof(struct icmp_echo_hdr) + IP_HLEN + ICMP_DEST_UNREACH_DATASIZE)));
 191              		.loc 1 353 3 is_stmt 0 discriminator 1 view .LVU52
 192 0092 FFF7FEFF 		bl	printf
 193              	.LVL15:
 194 0096 C3E7     		b	.L4
 195              	.L9:
 196              		.align	2
 197              	.L8:
 198 0098 00000000 		.word	.LC0
 199 009c 34000000 		.word	.LC1
 200 00a0 60000000 		.word	.LC2
 201              		.cfi_endproc
 202              	.LFE163:
 204              		.section	.rodata.icmp_input.str1.4,"aMS",%progbits,1
 205              		.align	2
 206              	.LC3:
 207 0000 69636D70 		.ascii	"icmp_input: moving r->payload to icmp header failed"
 207      5F696E70 
 207      75743A20 
 207      6D6F7669 
 207      6E672072 
 208 0033 0A00     		.ascii	"\012\000"
 209 0035 000000   		.align	2
 210              	.LC4:
 211 0038 69636D70 		.ascii	"icmp_input: restoring original p->payload failed\012"
 211      5F696E70 
 211      75743A20 
 211      72657374 
 211      6F72696E 
ARM GAS  C:\Users\Nina\AppData\Local\Temp\ccwdRVQJ.s 			page 12


 212 0069 00       		.ascii	"\000"
 213              		.section	.text.icmp_input,"ax",%progbits
 214              		.align	1
 215              		.global	icmp_input
 216              		.syntax unified
 217              		.thumb
 218              		.thumb_func
 219              		.fpu fpv5-sp-d16
 221              	icmp_input:
 222              	.LVL16:
 223              	.LFB160:
  81:Middlewares/Third_Party/LwIP/src/core/ipv4/icmp.c ****   u8_t type;
 224              		.loc 1 81 1 is_stmt 1 view -0
 225              		.cfi_startproc
 226              		@ args = 0, pretend = 0, frame = 0
 227              		@ frame_needed = 0, uses_anonymous_args = 0
  81:Middlewares/Third_Party/LwIP/src/core/ipv4/icmp.c ****   u8_t type;
 228              		.loc 1 81 1 is_stmt 0 view .LVU54
 229 0000 2DE9F041 		push	{r4, r5, r6, r7, r8, lr}
 230              	.LCFI4:
 231              		.cfi_def_cfa_offset 24
 232              		.cfi_offset 4, -24
 233              		.cfi_offset 5, -20
 234              		.cfi_offset 6, -16
 235              		.cfi_offset 7, -12
 236              		.cfi_offset 8, -8
 237              		.cfi_offset 14, -4
 238 0004 84B0     		sub	sp, sp, #16
 239              	.LCFI5:
 240              		.cfi_def_cfa_offset 40
 241 0006 0546     		mov	r5, r0
  82:Middlewares/Third_Party/LwIP/src/core/ipv4/icmp.c **** #ifdef LWIP_DEBUG
 242              		.loc 1 82 3 is_stmt 1 view .LVU55
  86:Middlewares/Third_Party/LwIP/src/core/ipv4/icmp.c ****   const struct ip_hdr *iphdr_in;
 243              		.loc 1 86 3 view .LVU56
  87:Middlewares/Third_Party/LwIP/src/core/ipv4/icmp.c ****   u16_t hlen;
 244              		.loc 1 87 3 view .LVU57
  88:Middlewares/Third_Party/LwIP/src/core/ipv4/icmp.c ****   const ip4_addr_t* src;
 245              		.loc 1 88 3 view .LVU58
  89:Middlewares/Third_Party/LwIP/src/core/ipv4/icmp.c **** 
 246              		.loc 1 89 3 view .LVU59
  91:Middlewares/Third_Party/LwIP/src/core/ipv4/icmp.c ****   MIB2_STATS_INC(mib2.icmpinmsgs);
 247              		.loc 1 91 28 view .LVU60
  92:Middlewares/Third_Party/LwIP/src/core/ipv4/icmp.c **** 
 248              		.loc 1 92 34 view .LVU61
  94:Middlewares/Third_Party/LwIP/src/core/ipv4/icmp.c ****   hlen = IPH_HL(iphdr_in) * 4;
 249              		.loc 1 94 3 view .LVU62
  94:Middlewares/Third_Party/LwIP/src/core/ipv4/icmp.c ****   hlen = IPH_HL(iphdr_in) * 4;
 250              		.loc 1 94 12 is_stmt 0 view .LVU63
 251 0008 474B     		ldr	r3, .L27
 252 000a 9E68     		ldr	r6, [r3, #8]
 253              	.LVL17:
  95:Middlewares/Third_Party/LwIP/src/core/ipv4/icmp.c ****   if (hlen < IP_HLEN) {
 254              		.loc 1 95 3 is_stmt 1 view .LVU64
  95:Middlewares/Third_Party/LwIP/src/core/ipv4/icmp.c ****   if (hlen < IP_HLEN) {
 255              		.loc 1 95 10 is_stmt 0 view .LVU65
 256 000c 3478     		ldrb	r4, [r6]	@ zero_extendqisi2
ARM GAS  C:\Users\Nina\AppData\Local\Temp\ccwdRVQJ.s 			page 13


  95:Middlewares/Third_Party/LwIP/src/core/ipv4/icmp.c ****   if (hlen < IP_HLEN) {
 257              		.loc 1 95 8 view .LVU66
 258 000e 04F00F04 		and	r4, r4, #15
 259 0012 A400     		lsls	r4, r4, #2
 260              	.LVL18:
  96:Middlewares/Third_Party/LwIP/src/core/ipv4/icmp.c ****     LWIP_DEBUGF(ICMP_DEBUG, ("icmp_input: short IP header (%"S16_F" bytes) received\n", hlen));
 261              		.loc 1 96 3 is_stmt 1 view .LVU67
  96:Middlewares/Third_Party/LwIP/src/core/ipv4/icmp.c ****     LWIP_DEBUGF(ICMP_DEBUG, ("icmp_input: short IP header (%"S16_F" bytes) received\n", hlen));
 262              		.loc 1 96 6 is_stmt 0 view .LVU68
 263 0014 132C     		cmp	r4, #19
 264 0016 15D9     		bls	.L11
 265 0018 0F46     		mov	r7, r1
 100:Middlewares/Third_Party/LwIP/src/core/ipv4/icmp.c ****     LWIP_DEBUGF(ICMP_DEBUG, ("icmp_input: short ICMP (%"U16_F" bytes) received\n", p->tot_len));
 266              		.loc 1 100 3 is_stmt 1 view .LVU69
 100:Middlewares/Third_Party/LwIP/src/core/ipv4/icmp.c ****     LWIP_DEBUGF(ICMP_DEBUG, ("icmp_input: short ICMP (%"U16_F" bytes) received\n", p->tot_len));
 267              		.loc 1 100 8 is_stmt 0 view .LVU70
 268 001a 4389     		ldrh	r3, [r0, #10]
 100:Middlewares/Third_Party/LwIP/src/core/ipv4/icmp.c ****     LWIP_DEBUGF(ICMP_DEBUG, ("icmp_input: short ICMP (%"U16_F" bytes) received\n", p->tot_len));
 269              		.loc 1 100 6 view .LVU71
 270 001c 032B     		cmp	r3, #3
 271 001e 11D9     		bls	.L11
 105:Middlewares/Third_Party/LwIP/src/core/ipv4/icmp.c **** #ifdef LWIP_DEBUG
 272              		.loc 1 105 3 is_stmt 1 view .LVU72
 105:Middlewares/Third_Party/LwIP/src/core/ipv4/icmp.c **** #ifdef LWIP_DEBUG
 273              		.loc 1 105 21 is_stmt 0 view .LVU73
 274 0020 4368     		ldr	r3, [r0, #4]
 105:Middlewares/Third_Party/LwIP/src/core/ipv4/icmp.c **** #ifdef LWIP_DEBUG
 275              		.loc 1 105 8 view .LVU74
 276 0022 1B78     		ldrb	r3, [r3]	@ zero_extendqisi2
 277              	.LVL19:
 109:Middlewares/Third_Party/LwIP/src/core/ipv4/icmp.c ****   case ICMP_ER:
 278              		.loc 1 109 3 is_stmt 1 view .LVU75
 279 0024 082B     		cmp	r3, #8
 280 0026 5DD1     		bne	.L12
 116:Middlewares/Third_Party/LwIP/src/core/ipv4/icmp.c ****     src = ip4_current_dest_addr();
 281              		.loc 1 116 37 view .LVU76
 117:Middlewares/Third_Party/LwIP/src/core/ipv4/icmp.c ****     /* multicast destination address? */
 282              		.loc 1 117 5 view .LVU77
 283              	.LVL20:
 119:Middlewares/Third_Party/LwIP/src/core/ipv4/icmp.c **** #if LWIP_MULTICAST_PING
 284              		.loc 1 119 5 view .LVU78
 119:Middlewares/Third_Party/LwIP/src/core/ipv4/icmp.c **** #if LWIP_MULTICAST_PING
 285              		.loc 1 119 9 is_stmt 0 view .LVU79
 286 0028 3F4B     		ldr	r3, .L27
 287              	.LVL21:
 119:Middlewares/Third_Party/LwIP/src/core/ipv4/icmp.c **** #if LWIP_MULTICAST_PING
 288              		.loc 1 119 9 view .LVU80
 289 002a 5869     		ldr	r0, [r3, #20]
 290              	.LVL22:
 119:Middlewares/Third_Party/LwIP/src/core/ipv4/icmp.c **** #if LWIP_MULTICAST_PING
 291              		.loc 1 119 9 view .LVU81
 292 002c 00F0F003 		and	r3, r0, #240
 119:Middlewares/Third_Party/LwIP/src/core/ipv4/icmp.c **** #if LWIP_MULTICAST_PING
 293              		.loc 1 119 8 view .LVU82
 294 0030 E02B     		cmp	r3, #224
 295 0032 37D0     		beq	.L13
 129:Middlewares/Third_Party/LwIP/src/core/ipv4/icmp.c **** #if LWIP_BROADCAST_PING
ARM GAS  C:\Users\Nina\AppData\Local\Temp\ccwdRVQJ.s 			page 14


 296              		.loc 1 129 5 is_stmt 1 view .LVU83
 129:Middlewares/Third_Party/LwIP/src/core/ipv4/icmp.c **** #if LWIP_BROADCAST_PING
 297              		.loc 1 129 9 is_stmt 0 view .LVU84
 298 0034 3C4B     		ldr	r3, .L27
 299 0036 1968     		ldr	r1, [r3]
 300              	.LVL23:
 129:Middlewares/Third_Party/LwIP/src/core/ipv4/icmp.c **** #if LWIP_BROADCAST_PING
 301              		.loc 1 129 9 view .LVU85
 302 0038 FFF7FEFF 		bl	ip4_addr_isbroadcast_u32
 303              	.LVL24:
 129:Middlewares/Third_Party/LwIP/src/core/ipv4/icmp.c **** #if LWIP_BROADCAST_PING
 304              		.loc 1 129 8 view .LVU86
 305 003c 90BB     		cbnz	r0, .L13
 138:Middlewares/Third_Party/LwIP/src/core/ipv4/icmp.c ****     if (p->tot_len < sizeof(struct icmp_echo_hdr)) {
 306              		.loc 1 138 52 is_stmt 1 view .LVU87
 139:Middlewares/Third_Party/LwIP/src/core/ipv4/icmp.c ****       LWIP_DEBUGF(ICMP_DEBUG, ("icmp_input: bad ICMP echo received\n"));
 307              		.loc 1 139 5 view .LVU88
 139:Middlewares/Third_Party/LwIP/src/core/ipv4/icmp.c ****       LWIP_DEBUGF(ICMP_DEBUG, ("icmp_input: bad ICMP echo received\n"));
 308              		.loc 1 139 10 is_stmt 0 view .LVU89
 309 003e 2B89     		ldrh	r3, [r5, #8]
 139:Middlewares/Third_Party/LwIP/src/core/ipv4/icmp.c ****       LWIP_DEBUGF(ICMP_DEBUG, ("icmp_input: bad ICMP echo received\n"));
 310              		.loc 1 139 8 view .LVU90
 311 0040 072B     		cmp	r3, #7
 312 0042 05D8     		bhi	.L21
 313              	.LVL25:
 314              	.L11:
 278:Middlewares/Third_Party/LwIP/src/core/ipv4/icmp.c ****   ICMP_STATS_INC(icmp.lenerr);
 315              		.loc 1 278 3 is_stmt 1 view .LVU91
 316 0044 2846     		mov	r0, r5
 317 0046 FFF7FEFF 		bl	pbuf_free
 318              	.LVL26:
 279:Middlewares/Third_Party/LwIP/src/core/ipv4/icmp.c ****   MIB2_STATS_INC(mib2.icmpinerrors);
 319              		.loc 1 279 30 view .LVU92
 280:Middlewares/Third_Party/LwIP/src/core/ipv4/icmp.c ****   return;
 320              		.loc 1 280 36 view .LVU93
 281:Middlewares/Third_Party/LwIP/src/core/ipv4/icmp.c **** #if LWIP_ICMP_ECHO_CHECK_INPUT_PBUF_LEN || !LWIP_MULTICAST_PING || !LWIP_BROADCAST_PING
 321              		.loc 1 281 3 view .LVU94
 322              	.L10:
 289:Middlewares/Third_Party/LwIP/src/core/ipv4/icmp.c **** 
 323              		.loc 1 289 1 is_stmt 0 view .LVU95
 324 004a 04B0     		add	sp, sp, #16
 325              	.LCFI6:
 326              		.cfi_remember_state
 327              		.cfi_def_cfa_offset 24
 328              		@ sp needed
 329 004c BDE8F081 		pop	{r4, r5, r6, r7, r8, pc}
 330              	.LVL27:
 331              	.L21:
 332              	.LCFI7:
 333              		.cfi_restore_state
 155:Middlewares/Third_Party/LwIP/src/core/ipv4/icmp.c ****       /* p is not big enough to contain link headers
 334              		.loc 1 155 5 is_stmt 1 view .LVU96
 155:Middlewares/Third_Party/LwIP/src/core/ipv4/icmp.c ****       /* p is not big enough to contain link headers
 335              		.loc 1 155 9 is_stmt 0 view .LVU97
 336 0050 04F10E01 		add	r1, r4, #14
 337 0054 2846     		mov	r0, r5
 338 0056 FFF7FEFF 		bl	pbuf_header
ARM GAS  C:\Users\Nina\AppData\Local\Temp\ccwdRVQJ.s 			page 15


 339              	.LVL28:
 155:Middlewares/Third_Party/LwIP/src/core/ipv4/icmp.c ****       /* p is not big enough to contain link headers
 340              		.loc 1 155 8 view .LVU98
 341 005a A8B3     		cbz	r0, .L14
 342              	.LBB2:
 159:Middlewares/Third_Party/LwIP/src/core/ipv4/icmp.c ****       /* allocate new packet buffer with space for link headers */
 343              		.loc 1 159 7 is_stmt 1 view .LVU99
 161:Middlewares/Third_Party/LwIP/src/core/ipv4/icmp.c ****       if (r == NULL) {
 344              		.loc 1 161 7 view .LVU100
 161:Middlewares/Third_Party/LwIP/src/core/ipv4/icmp.c ****       if (r == NULL) {
 345              		.loc 1 161 34 is_stmt 0 view .LVU101
 346 005c 2989     		ldrh	r1, [r5, #8]
 161:Middlewares/Third_Party/LwIP/src/core/ipv4/icmp.c ****       if (r == NULL) {
 347              		.loc 1 161 11 view .LVU102
 348 005e 2144     		add	r1, r1, r4
 349 0060 0022     		movs	r2, #0
 350 0062 89B2     		uxth	r1, r1
 351 0064 0220     		movs	r0, #2
 352 0066 FFF7FEFF 		bl	pbuf_alloc
 353              	.LVL29:
 162:Middlewares/Third_Party/LwIP/src/core/ipv4/icmp.c ****         LWIP_DEBUGF(ICMP_DEBUG, ("icmp_input: allocating new pbuf failed\n"));
 354              		.loc 1 162 7 is_stmt 1 view .LVU103
 162:Middlewares/Third_Party/LwIP/src/core/ipv4/icmp.c ****         LWIP_DEBUGF(ICMP_DEBUG, ("icmp_input: allocating new pbuf failed\n"));
 355              		.loc 1 162 10 is_stmt 0 view .LVU104
 356 006a 8046     		mov	r8, r0
 357 006c D0B1     		cbz	r0, .L13
 166:Middlewares/Third_Party/LwIP/src/core/ipv4/icmp.c ****         LWIP_DEBUGF(ICMP_DEBUG | LWIP_DBG_LEVEL_SERIOUS, ("first pbuf cannot hold the ICMP header")
 358              		.loc 1 166 7 is_stmt 1 view .LVU105
 166:Middlewares/Third_Party/LwIP/src/core/ipv4/icmp.c ****         LWIP_DEBUGF(ICMP_DEBUG | LWIP_DBG_LEVEL_SERIOUS, ("first pbuf cannot hold the ICMP header")
 359              		.loc 1 166 12 is_stmt 0 view .LVU106
 360 006e 4289     		ldrh	r2, [r0, #10]
 166:Middlewares/Third_Party/LwIP/src/core/ipv4/icmp.c ****         LWIP_DEBUGF(ICMP_DEBUG | LWIP_DBG_LEVEL_SERIOUS, ("first pbuf cannot hold the ICMP header")
 361              		.loc 1 166 25 view .LVU107
 362 0070 04F10803 		add	r3, r4, #8
 166:Middlewares/Third_Party/LwIP/src/core/ipv4/icmp.c ****         LWIP_DEBUGF(ICMP_DEBUG | LWIP_DBG_LEVEL_SERIOUS, ("first pbuf cannot hold the ICMP header")
 363              		.loc 1 166 10 view .LVU108
 364 0074 9A42     		cmp	r2, r3
 365 0076 13D3     		bcc	.L22
 172:Middlewares/Third_Party/LwIP/src/core/ipv4/icmp.c ****       /* switch r->payload back to icmp header (cannot fail) */
 366              		.loc 1 172 7 is_stmt 1 view .LVU109
 367 0078 2246     		mov	r2, r4
 368 007a 3146     		mov	r1, r6
 369 007c 4068     		ldr	r0, [r0, #4]
 370              	.LVL30:
 172:Middlewares/Third_Party/LwIP/src/core/ipv4/icmp.c ****       /* switch r->payload back to icmp header (cannot fail) */
 371              		.loc 1 172 7 is_stmt 0 view .LVU110
 372 007e FFF7FEFF 		bl	memcpy
 373              	.LVL31:
 174:Middlewares/Third_Party/LwIP/src/core/ipv4/icmp.c ****         LWIP_ASSERT("icmp_input: moving r->payload to icmp header failed\n", 0);
 374              		.loc 1 174 7 is_stmt 1 view .LVU111
 174:Middlewares/Third_Party/LwIP/src/core/ipv4/icmp.c ****         LWIP_ASSERT("icmp_input: moving r->payload to icmp header failed\n", 0);
 375              		.loc 1 174 11 is_stmt 0 view .LVU112
 376 0082 6142     		rsbs	r1, r4, #0
 377 0084 4046     		mov	r0, r8
 378 0086 FFF7FEFF 		bl	pbuf_header
 379              	.LVL32:
 174:Middlewares/Third_Party/LwIP/src/core/ipv4/icmp.c ****         LWIP_ASSERT("icmp_input: moving r->payload to icmp header failed\n", 0);
ARM GAS  C:\Users\Nina\AppData\Local\Temp\ccwdRVQJ.s 			page 16


 380              		.loc 1 174 10 view .LVU113
 381 008a 78B9     		cbnz	r0, .L23
 180:Middlewares/Third_Party/LwIP/src/core/ipv4/icmp.c ****         LWIP_DEBUGF(ICMP_DEBUG | LWIP_DBG_LEVEL_SERIOUS, ("icmp_input: copying to new pbuf failed")
 382              		.loc 1 180 7 is_stmt 1 view .LVU114
 180:Middlewares/Third_Party/LwIP/src/core/ipv4/icmp.c ****         LWIP_DEBUGF(ICMP_DEBUG | LWIP_DBG_LEVEL_SERIOUS, ("icmp_input: copying to new pbuf failed")
 383              		.loc 1 180 11 is_stmt 0 view .LVU115
 384 008c 2946     		mov	r1, r5
 385 008e 4046     		mov	r0, r8
 386 0090 FFF7FEFF 		bl	pbuf_copy
 387              	.LVL33:
 180:Middlewares/Third_Party/LwIP/src/core/ipv4/icmp.c ****         LWIP_DEBUGF(ICMP_DEBUG | LWIP_DBG_LEVEL_SERIOUS, ("icmp_input: copying to new pbuf failed")
 388              		.loc 1 180 10 view .LVU116
 389 0094 A0B9     		cbnz	r0, .L24
 186:Middlewares/Third_Party/LwIP/src/core/ipv4/icmp.c ****       /* we now have an identical copy of p that has room for link headers */
 390              		.loc 1 186 7 is_stmt 1 view .LVU117
 391 0096 2846     		mov	r0, r5
 392 0098 FFF7FEFF 		bl	pbuf_free
 393              	.LVL34:
 188:Middlewares/Third_Party/LwIP/src/core/ipv4/icmp.c ****     } else {
 394              		.loc 1 188 7 view .LVU118
 188:Middlewares/Third_Party/LwIP/src/core/ipv4/icmp.c ****     } else {
 395              		.loc 1 188 9 is_stmt 0 view .LVU119
 396 009c 4546     		mov	r5, r8
 397              	.LBE2:
 398 009e 1BE0     		b	.L18
 399              	.LVL35:
 400              	.L22:
 401              	.LBB3:
 167:Middlewares/Third_Party/LwIP/src/core/ipv4/icmp.c ****         pbuf_free(r);
 402              		.loc 1 167 101 is_stmt 1 view .LVU120
 168:Middlewares/Third_Party/LwIP/src/core/ipv4/icmp.c ****         goto icmperr;
 403              		.loc 1 168 9 view .LVU121
 404 00a0 FFF7FEFF 		bl	pbuf_free
 405              	.LVL36:
 169:Middlewares/Third_Party/LwIP/src/core/ipv4/icmp.c ****       }
 406              		.loc 1 169 9 view .LVU122
 407              	.L13:
 169:Middlewares/Third_Party/LwIP/src/core/ipv4/icmp.c ****       }
 408              		.loc 1 169 9 is_stmt 0 view .LVU123
 409              	.LBE3:
 284:Middlewares/Third_Party/LwIP/src/core/ipv4/icmp.c ****   ICMP_STATS_INC(icmp.err);
 410              		.loc 1 284 3 is_stmt 1 view .LVU124
 411 00a4 2846     		mov	r0, r5
 412 00a6 FFF7FEFF 		bl	pbuf_free
 413              	.LVL37:
 285:Middlewares/Third_Party/LwIP/src/core/ipv4/icmp.c ****   MIB2_STATS_INC(mib2.icmpinerrors);
 414              		.loc 1 285 27 view .LVU125
 286:Middlewares/Third_Party/LwIP/src/core/ipv4/icmp.c ****   return;
 415              		.loc 1 286 36 view .LVU126
 287:Middlewares/Third_Party/LwIP/src/core/ipv4/icmp.c **** #endif /* LWIP_ICMP_ECHO_CHECK_INPUT_PBUF_LEN || !LWIP_MULTICAST_PING || !LWIP_BROADCAST_PING */
 416              		.loc 1 287 3 view .LVU127
 417 00aa CEE7     		b	.L10
 418              	.LVL38:
 419              	.L23:
 420              	.LBB4:
 175:Middlewares/Third_Party/LwIP/src/core/ipv4/icmp.c ****         pbuf_free(r);
 421              		.loc 1 175 9 discriminator 1 view .LVU128
ARM GAS  C:\Users\Nina\AppData\Local\Temp\ccwdRVQJ.s 			page 17


 175:Middlewares/Third_Party/LwIP/src/core/ipv4/icmp.c ****         pbuf_free(r);
 422              		.loc 1 175 9 discriminator 1 view .LVU129
 175:Middlewares/Third_Party/LwIP/src/core/ipv4/icmp.c ****         pbuf_free(r);
 423              		.loc 1 175 9 discriminator 1 view .LVU130
 175:Middlewares/Third_Party/LwIP/src/core/ipv4/icmp.c ****         pbuf_free(r);
 424              		.loc 1 175 9 discriminator 1 view .LVU131
 425 00ac 1F4B     		ldr	r3, .L27+4
 426 00ae AF22     		movs	r2, #175
 427 00b0 1F49     		ldr	r1, .L27+8
 428 00b2 2048     		ldr	r0, .L27+12
 429 00b4 FFF7FEFF 		bl	printf
 430              	.LVL39:
 175:Middlewares/Third_Party/LwIP/src/core/ipv4/icmp.c ****         pbuf_free(r);
 431              		.loc 1 175 9 discriminator 1 view .LVU132
 175:Middlewares/Third_Party/LwIP/src/core/ipv4/icmp.c ****         pbuf_free(r);
 432              		.loc 1 175 9 discriminator 1 view .LVU133
 176:Middlewares/Third_Party/LwIP/src/core/ipv4/icmp.c ****         goto icmperr;
 433              		.loc 1 176 9 discriminator 1 view .LVU134
 434 00b8 4046     		mov	r0, r8
 435 00ba FFF7FEFF 		bl	pbuf_free
 436              	.LVL40:
 177:Middlewares/Third_Party/LwIP/src/core/ipv4/icmp.c ****       }
 437              		.loc 1 177 9 discriminator 1 view .LVU135
 438 00be F1E7     		b	.L13
 439              	.L24:
 181:Middlewares/Third_Party/LwIP/src/core/ipv4/icmp.c ****         pbuf_free(r);
 440              		.loc 1 181 101 view .LVU136
 182:Middlewares/Third_Party/LwIP/src/core/ipv4/icmp.c ****         goto icmperr;
 441              		.loc 1 182 9 view .LVU137
 442 00c0 4046     		mov	r0, r8
 443 00c2 FFF7FEFF 		bl	pbuf_free
 444              	.LVL41:
 183:Middlewares/Third_Party/LwIP/src/core/ipv4/icmp.c ****       }
 445              		.loc 1 183 9 view .LVU138
 446 00c6 EDE7     		b	.L13
 447              	.LVL42:
 448              	.L14:
 183:Middlewares/Third_Party/LwIP/src/core/ipv4/icmp.c ****       }
 449              		.loc 1 183 9 is_stmt 0 view .LVU139
 450              	.LBE4:
 191:Middlewares/Third_Party/LwIP/src/core/ipv4/icmp.c ****         LWIP_ASSERT("icmp_input: restoring original p->payload failed\n", 0);
 451              		.loc 1 191 7 is_stmt 1 view .LVU140
 191:Middlewares/Third_Party/LwIP/src/core/ipv4/icmp.c ****         LWIP_ASSERT("icmp_input: restoring original p->payload failed\n", 0);
 452              		.loc 1 191 11 is_stmt 0 view .LVU141
 453 00c8 4FF6F271 		movw	r1, #65522
 454 00cc 091B     		subs	r1, r1, r4
 455 00ce 09B2     		sxth	r1, r1
 456 00d0 2846     		mov	r0, r5
 457 00d2 FFF7FEFF 		bl	pbuf_header
 458              	.LVL43:
 191:Middlewares/Third_Party/LwIP/src/core/ipv4/icmp.c ****         LWIP_ASSERT("icmp_input: restoring original p->payload failed\n", 0);
 459              		.loc 1 191 10 view .LVU142
 460 00d6 48B9     		cbnz	r0, .L25
 461              	.L18:
 200:Middlewares/Third_Party/LwIP/src/core/ipv4/icmp.c ****     if (pbuf_header(p, (s16_t)hlen)) {
 462              		.loc 1 200 5 is_stmt 1 view .LVU143
 200:Middlewares/Third_Party/LwIP/src/core/ipv4/icmp.c ****     if (pbuf_header(p, (s16_t)hlen)) {
ARM GAS  C:\Users\Nina\AppData\Local\Temp\ccwdRVQJ.s 			page 18


 463              		.loc 1 200 11 is_stmt 0 view .LVU144
 464 00d8 6E68     		ldr	r6, [r5, #4]
 465              	.LVL44:
 201:Middlewares/Third_Party/LwIP/src/core/ipv4/icmp.c ****       LWIP_DEBUGF(ICMP_DEBUG | LWIP_DBG_LEVEL_SERIOUS, ("Can't move over header in packet"));
 466              		.loc 1 201 5 is_stmt 1 view .LVU145
 201:Middlewares/Third_Party/LwIP/src/core/ipv4/icmp.c ****       LWIP_DEBUGF(ICMP_DEBUG | LWIP_DBG_LEVEL_SERIOUS, ("Can't move over header in packet"));
 467              		.loc 1 201 9 is_stmt 0 view .LVU146
 468 00da 2146     		mov	r1, r4
 469 00dc 2846     		mov	r0, r5
 470 00de FFF7FEFF 		bl	pbuf_header
 471              	.LVL45:
 201:Middlewares/Third_Party/LwIP/src/core/ipv4/icmp.c ****       LWIP_DEBUGF(ICMP_DEBUG | LWIP_DBG_LEVEL_SERIOUS, ("Can't move over header in packet"));
 472              		.loc 1 201 8 view .LVU147
 473 00e2 50B1     		cbz	r0, .L26
 474              	.LVL46:
 475              	.L12:
 268:Middlewares/Third_Party/LwIP/src/core/ipv4/icmp.c ****     }
 476              		.loc 1 268 46 is_stmt 1 view .LVU148
 271:Middlewares/Third_Party/LwIP/src/core/ipv4/icmp.c ****     ICMP_STATS_INC(icmp.proterr);
 477              		.loc 1 271 43 view .LVU149
 272:Middlewares/Third_Party/LwIP/src/core/ipv4/icmp.c ****     ICMP_STATS_INC(icmp.drop);
 478              		.loc 1 272 33 view .LVU150
 273:Middlewares/Third_Party/LwIP/src/core/ipv4/icmp.c ****   }
 479              		.loc 1 273 30 view .LVU151
 275:Middlewares/Third_Party/LwIP/src/core/ipv4/icmp.c ****   return;
 480              		.loc 1 275 3 view .LVU152
 481 00e4 2846     		mov	r0, r5
 482 00e6 FFF7FEFF 		bl	pbuf_free
 483              	.LVL47:
 276:Middlewares/Third_Party/LwIP/src/core/ipv4/icmp.c **** lenerr:
 484              		.loc 1 276 3 view .LVU153
 485 00ea AEE7     		b	.L10
 486              	.LVL48:
 487              	.L25:
 192:Middlewares/Third_Party/LwIP/src/core/ipv4/icmp.c ****         goto icmperr;
 488              		.loc 1 192 9 discriminator 1 view .LVU154
 192:Middlewares/Third_Party/LwIP/src/core/ipv4/icmp.c ****         goto icmperr;
 489              		.loc 1 192 9 discriminator 1 view .LVU155
 192:Middlewares/Third_Party/LwIP/src/core/ipv4/icmp.c ****         goto icmperr;
 490              		.loc 1 192 9 discriminator 1 view .LVU156
 192:Middlewares/Third_Party/LwIP/src/core/ipv4/icmp.c ****         goto icmperr;
 491              		.loc 1 192 9 discriminator 1 view .LVU157
 492 00ec 0F4B     		ldr	r3, .L27+4
 493 00ee C022     		movs	r2, #192
 494 00f0 1149     		ldr	r1, .L27+16
 495 00f2 1048     		ldr	r0, .L27+12
 496 00f4 FFF7FEFF 		bl	printf
 497              	.LVL49:
 192:Middlewares/Third_Party/LwIP/src/core/ipv4/icmp.c ****         goto icmperr;
 498              		.loc 1 192 9 discriminator 1 view .LVU158
 192:Middlewares/Third_Party/LwIP/src/core/ipv4/icmp.c ****         goto icmperr;
 499              		.loc 1 192 9 discriminator 1 view .LVU159
 193:Middlewares/Third_Party/LwIP/src/core/ipv4/icmp.c ****       }
 500              		.loc 1 193 9 discriminator 1 view .LVU160
 501 00f8 D4E7     		b	.L13
 502              	.LVL50:
 503              	.L26:
ARM GAS  C:\Users\Nina\AppData\Local\Temp\ccwdRVQJ.s 			page 19


 504              	.LBB5:
 204:Middlewares/Third_Party/LwIP/src/core/ipv4/icmp.c ****       struct ip_hdr *iphdr = (struct ip_hdr*)p->payload;
 505              		.loc 1 204 7 view .LVU161
 205:Middlewares/Third_Party/LwIP/src/core/ipv4/icmp.c ****       ip4_addr_copy(iphdr->src, *src);
 506              		.loc 1 205 7 view .LVU162
 205:Middlewares/Third_Party/LwIP/src/core/ipv4/icmp.c ****       ip4_addr_copy(iphdr->src, *src);
 507              		.loc 1 205 22 is_stmt 0 view .LVU163
 508 00fa 6868     		ldr	r0, [r5, #4]
 509              	.LVL51:
 206:Middlewares/Third_Party/LwIP/src/core/ipv4/icmp.c ****       ip4_addr_copy(iphdr->dest, *ip4_current_src_addr());
 510              		.loc 1 206 7 is_stmt 1 view .LVU164
 511 00fc 0A49     		ldr	r1, .L27
 512 00fe 4B69     		ldr	r3, [r1, #20]
 513 0100 C360     		str	r3, [r0, #12]	@ unaligned
 207:Middlewares/Third_Party/LwIP/src/core/ipv4/icmp.c ****       ICMPH_TYPE_SET(iecho, ICMP_ER);
 514              		.loc 1 207 7 view .LVU165
 515 0102 0B69     		ldr	r3, [r1, #16]
 516 0104 0361     		str	r3, [r0, #16]	@ unaligned
 208:Middlewares/Third_Party/LwIP/src/core/ipv4/icmp.c **** #if CHECKSUM_GEN_ICMP
 517              		.loc 1 208 7 view .LVU166
 518 0106 0022     		movs	r2, #0
 519 0108 3270     		strb	r2, [r6]
 224:Middlewares/Third_Party/LwIP/src/core/ipv4/icmp.c **** #endif /* CHECKSUM_GEN_ICMP */
 520              		.loc 1 224 7 view .LVU167
 224:Middlewares/Third_Party/LwIP/src/core/ipv4/icmp.c **** #endif /* CHECKSUM_GEN_ICMP */
 521              		.loc 1 224 21 is_stmt 0 view .LVU168
 522 010a B270     		strb	r2, [r6, #2]
 523 010c F270     		strb	r2, [r6, #3]
 228:Middlewares/Third_Party/LwIP/src/core/ipv4/icmp.c ****       IPH_CHKSUM_SET(iphdr, 0);
 524              		.loc 1 228 7 is_stmt 1 view .LVU169
 525 010e FF23     		movs	r3, #255
 526 0110 0372     		strb	r3, [r0, #8]
 229:Middlewares/Third_Party/LwIP/src/core/ipv4/icmp.c **** #if CHECKSUM_GEN_IP
 527              		.loc 1 229 7 view .LVU170
 528 0112 8272     		strb	r2, [r0, #10]
 529 0114 C272     		strb	r2, [r0, #11]
 236:Middlewares/Third_Party/LwIP/src/core/ipv4/icmp.c ****       /* increase number of messages attempted to send */
 530              		.loc 1 236 32 view .LVU171
 238:Middlewares/Third_Party/LwIP/src/core/ipv4/icmp.c ****       /* increase number of echo replies attempted to send */
 531              		.loc 1 238 39 view .LVU172
 240:Middlewares/Third_Party/LwIP/src/core/ipv4/icmp.c **** 
 532              		.loc 1 240 43 view .LVU173
 243:Middlewares/Third_Party/LwIP/src/core/ipv4/icmp.c ****                    ICMP_TTL, 0, IP_PROTO_ICMP, inp);
 533              		.loc 1 243 7 view .LVU174
 243:Middlewares/Third_Party/LwIP/src/core/ipv4/icmp.c ****                    ICMP_TTL, 0, IP_PROTO_ICMP, inp);
 534              		.loc 1 243 13 is_stmt 0 view .LVU175
 535 0116 0297     		str	r7, [sp, #8]
 536 0118 0120     		movs	r0, #1
 537              	.LVL52:
 243:Middlewares/Third_Party/LwIP/src/core/ipv4/icmp.c ****                    ICMP_TTL, 0, IP_PROTO_ICMP, inp);
 538              		.loc 1 243 13 view .LVU176
 539 011a 0190     		str	r0, [sp, #4]
 540 011c 0092     		str	r2, [sp]
 541 011e 1431     		adds	r1, r1, #20
 542 0120 2846     		mov	r0, r5
 543 0122 FFF7FEFF 		bl	ip4_output_if
 544              	.LVL53:
ARM GAS  C:\Users\Nina\AppData\Local\Temp\ccwdRVQJ.s 			page 20


 245:Middlewares/Third_Party/LwIP/src/core/ipv4/icmp.c ****         LWIP_DEBUGF(ICMP_DEBUG, ("icmp_input: ip_output_if returned an error: %s\n", lwip_strerr(re
 545              		.loc 1 245 7 is_stmt 1 view .LVU177
 546 0126 DDE7     		b	.L12
 547              	.L28:
 548              		.align	2
 549              	.L27:
 550 0128 00000000 		.word	ip_data
 551 012c 00000000 		.word	.LC0
 552 0130 00000000 		.word	.LC3
 553 0134 60000000 		.word	.LC2
 554 0138 38000000 		.word	.LC4
 555              	.LBE5:
 556              		.cfi_endproc
 557              	.LFE160:
 559              		.section	.text.icmp_dest_unreach,"ax",%progbits
 560              		.align	1
 561              		.global	icmp_dest_unreach
 562              		.syntax unified
 563              		.thumb
 564              		.thumb_func
 565              		.fpu fpv5-sp-d16
 567              	icmp_dest_unreach:
 568              	.LVL54:
 569              	.LFB161:
 302:Middlewares/Third_Party/LwIP/src/core/ipv4/icmp.c ****   MIB2_STATS_INC(mib2.icmpoutdestunreachs);
 570              		.loc 1 302 1 view -0
 571              		.cfi_startproc
 572              		@ args = 0, pretend = 0, frame = 0
 573              		@ frame_needed = 0, uses_anonymous_args = 0
 302:Middlewares/Third_Party/LwIP/src/core/ipv4/icmp.c ****   MIB2_STATS_INC(mib2.icmpoutdestunreachs);
 574              		.loc 1 302 1 is_stmt 0 view .LVU179
 575 0000 08B5     		push	{r3, lr}
 576              	.LCFI8:
 577              		.cfi_def_cfa_offset 8
 578              		.cfi_offset 3, -8
 579              		.cfi_offset 14, -4
 580 0002 0A46     		mov	r2, r1
 303:Middlewares/Third_Party/LwIP/src/core/ipv4/icmp.c ****   icmp_send_response(p, ICMP_DUR, t);
 581              		.loc 1 303 43 is_stmt 1 view .LVU180
 304:Middlewares/Third_Party/LwIP/src/core/ipv4/icmp.c **** }
 582              		.loc 1 304 3 view .LVU181
 583 0004 0321     		movs	r1, #3
 584              	.LVL55:
 304:Middlewares/Third_Party/LwIP/src/core/ipv4/icmp.c **** }
 585              		.loc 1 304 3 is_stmt 0 view .LVU182
 586 0006 FFF7FEFF 		bl	icmp_send_response
 587              	.LVL56:
 305:Middlewares/Third_Party/LwIP/src/core/ipv4/icmp.c **** 
 588              		.loc 1 305 1 view .LVU183
 589 000a 08BD     		pop	{r3, pc}
 590              		.cfi_endproc
 591              	.LFE161:
 593              		.section	.text.icmp_time_exceeded,"ax",%progbits
 594              		.align	1
 595              		.global	icmp_time_exceeded
 596              		.syntax unified
 597              		.thumb
ARM GAS  C:\Users\Nina\AppData\Local\Temp\ccwdRVQJ.s 			page 21


 598              		.thumb_func
 599              		.fpu fpv5-sp-d16
 601              	icmp_time_exceeded:
 602              	.LVL57:
 603              	.LFB162:
 317:Middlewares/Third_Party/LwIP/src/core/ipv4/icmp.c ****   MIB2_STATS_INC(mib2.icmpouttimeexcds);
 604              		.loc 1 317 1 is_stmt 1 view -0
 605              		.cfi_startproc
 606              		@ args = 0, pretend = 0, frame = 0
 607              		@ frame_needed = 0, uses_anonymous_args = 0
 317:Middlewares/Third_Party/LwIP/src/core/ipv4/icmp.c ****   MIB2_STATS_INC(mib2.icmpouttimeexcds);
 608              		.loc 1 317 1 is_stmt 0 view .LVU185
 609 0000 08B5     		push	{r3, lr}
 610              	.LCFI9:
 611              		.cfi_def_cfa_offset 8
 612              		.cfi_offset 3, -8
 613              		.cfi_offset 14, -4
 614 0002 0A46     		mov	r2, r1
 318:Middlewares/Third_Party/LwIP/src/core/ipv4/icmp.c ****   icmp_send_response(p, ICMP_TE, t);
 615              		.loc 1 318 40 is_stmt 1 view .LVU186
 319:Middlewares/Third_Party/LwIP/src/core/ipv4/icmp.c **** }
 616              		.loc 1 319 3 view .LVU187
 617 0004 0B21     		movs	r1, #11
 618              	.LVL58:
 319:Middlewares/Third_Party/LwIP/src/core/ipv4/icmp.c **** }
 619              		.loc 1 319 3 is_stmt 0 view .LVU188
 620 0006 FFF7FEFF 		bl	icmp_send_response
 621              	.LVL59:
 320:Middlewares/Third_Party/LwIP/src/core/ipv4/icmp.c **** 
 622              		.loc 1 320 1 view .LVU189
 623 000a 08BD     		pop	{r3, pc}
 624              		.cfi_endproc
 625              	.LFE162:
 627              		.text
 628              	.Letext0:
 629              		.file 2 "c:\\program files (x86)\\gnu tools arm embedded\\9 2019-q4-major\\arm-none-eabi\\include\
 630              		.file 3 "c:\\program files (x86)\\gnu tools arm embedded\\9 2019-q4-major\\arm-none-eabi\\include\
 631              		.file 4 "Drivers/CMSIS/Include/core_cm7.h"
 632              		.file 5 "Drivers/CMSIS/Device/ST/STM32F7xx/Include/system_stm32f7xx.h"
 633              		.file 6 "c:\\program files (x86)\\gnu tools arm embedded\\9 2019-q4-major\\arm-none-eabi\\include\
 634              		.file 7 "c:\\program files (x86)\\gnu tools arm embedded\\9 2019-q4-major\\arm-none-eabi\\include\
 635              		.file 8 "c:\\program files (x86)\\gnu tools arm embedded\\9 2019-q4-major\\lib\\gcc\\arm-none-eabi
 636              		.file 9 "c:\\program files (x86)\\gnu tools arm embedded\\9 2019-q4-major\\arm-none-eabi\\include\
 637              		.file 10 "c:\\program files (x86)\\gnu tools arm embedded\\9 2019-q4-major\\arm-none-eabi\\include
 638              		.file 11 "c:\\program files (x86)\\gnu tools arm embedded\\9 2019-q4-major\\arm-none-eabi\\include
 639              		.file 12 "Middlewares/Third_Party/LwIP/src/include/lwip/arch.h"
 640              		.file 13 "Middlewares/Third_Party/LwIP/src/include/lwip/err.h"
 641              		.file 14 "Middlewares/Third_Party/LwIP/src/include/lwip/pbuf.h"
 642              		.file 15 "Middlewares/Third_Party/LwIP/src/include/lwip/ip4_addr.h"
 643              		.file 16 "Middlewares/Third_Party/LwIP/src/include/lwip/ip_addr.h"
 644              		.file 17 "Middlewares/Third_Party/LwIP/src/include/lwip/priv/memp_priv.h"
 645              		.file 18 "Middlewares/Third_Party/LwIP/src/include/lwip/memp.h"
 646              		.file 19 "Middlewares/Third_Party/LwIP/src/include/lwip/netif.h"
 647              		.file 20 "Middlewares/Third_Party/LwIP/src/include/lwip/prot/icmp.h"
 648              		.file 21 "Middlewares/Third_Party/LwIP/src/include/lwip/icmp.h"
 649              		.file 22 "Middlewares/Third_Party/LwIP/src/include/lwip/prot/ip4.h"
 650              		.file 23 "Middlewares/Third_Party/LwIP/src/include/lwip/ip.h"
ARM GAS  C:\Users\Nina\AppData\Local\Temp\ccwdRVQJ.s 			page 22


 651              		.file 24 "Middlewares/Third_Party/LwIP/src/include/lwip/ip4.h"
 652              		.file 25 "c:\\program files (x86)\\gnu tools arm embedded\\9 2019-q4-major\\arm-none-eabi\\include
 653              		.file 26 "<built-in>"
ARM GAS  C:\Users\Nina\AppData\Local\Temp\ccwdRVQJ.s 			page 23

