ARM GAS  C:\Users\Nina\AppData\Local\Temp\ccc87nAg.s 			page 1


   1              		.cpu cortex-m7
   2              		.eabi_attribute 27, 1
   3              		.eabi_attribute 28, 1
   4              		.eabi_attribute 20, 1
   5              		.eabi_attribute 21, 1
   6              		.eabi_attribute 23, 3
   7              		.eabi_attribute 24, 1
   8              		.eabi_attribute 25, 1
   9              		.eabi_attribute 26, 1
  10              		.eabi_attribute 30, 1
  11              		.eabi_attribute 34, 1
  12              		.eabi_attribute 18, 4
  13              		.file	"ip4.c"
  14              		.text
  15              	.Ltext0:
  16              		.cfi_sections	.debug_frame
  17              		.section	.text.ip4_route,"ax",%progbits
  18              		.align	1
  19              		.global	ip4_route
  20              		.arch armv7e-m
  21              		.syntax unified
  22              		.thumb
  23              		.thumb_func
  24              		.fpu fpv5-sp-d16
  26              	ip4_route:
  27              	.LVL0:
  28              	.LFB160:
  29              		.file 1 "Middlewares/Third_Party/LwIP/src/core/ipv4/ip4.c"
   1:Middlewares/Third_Party/LwIP/src/core/ipv4/ip4.c **** /**
   2:Middlewares/Third_Party/LwIP/src/core/ipv4/ip4.c ****  * @file
   3:Middlewares/Third_Party/LwIP/src/core/ipv4/ip4.c ****  * This is the IPv4 layer implementation for incoming and outgoing IP traffic.
   4:Middlewares/Third_Party/LwIP/src/core/ipv4/ip4.c ****  *
   5:Middlewares/Third_Party/LwIP/src/core/ipv4/ip4.c ****  * @see ip_frag.c
   6:Middlewares/Third_Party/LwIP/src/core/ipv4/ip4.c ****  *
   7:Middlewares/Third_Party/LwIP/src/core/ipv4/ip4.c ****  */
   8:Middlewares/Third_Party/LwIP/src/core/ipv4/ip4.c **** 
   9:Middlewares/Third_Party/LwIP/src/core/ipv4/ip4.c **** /*
  10:Middlewares/Third_Party/LwIP/src/core/ipv4/ip4.c ****  * Copyright (c) 2001-2004 Swedish Institute of Computer Science.
  11:Middlewares/Third_Party/LwIP/src/core/ipv4/ip4.c ****  * All rights reserved.
  12:Middlewares/Third_Party/LwIP/src/core/ipv4/ip4.c ****  *
  13:Middlewares/Third_Party/LwIP/src/core/ipv4/ip4.c ****  * Redistribution and use in source and binary forms, with or without modification,
  14:Middlewares/Third_Party/LwIP/src/core/ipv4/ip4.c ****  * are permitted provided that the following conditions are met:
  15:Middlewares/Third_Party/LwIP/src/core/ipv4/ip4.c ****  *
  16:Middlewares/Third_Party/LwIP/src/core/ipv4/ip4.c ****  * 1. Redistributions of source code must retain the above copyright notice,
  17:Middlewares/Third_Party/LwIP/src/core/ipv4/ip4.c ****  *    this list of conditions and the following disclaimer.
  18:Middlewares/Third_Party/LwIP/src/core/ipv4/ip4.c ****  * 2. Redistributions in binary form must reproduce the above copyright notice,
  19:Middlewares/Third_Party/LwIP/src/core/ipv4/ip4.c ****  *    this list of conditions and the following disclaimer in the documentation
  20:Middlewares/Third_Party/LwIP/src/core/ipv4/ip4.c ****  *    and/or other materials provided with the distribution.
  21:Middlewares/Third_Party/LwIP/src/core/ipv4/ip4.c ****  * 3. The name of the author may not be used to endorse or promote products
  22:Middlewares/Third_Party/LwIP/src/core/ipv4/ip4.c ****  *    derived from this software without specific prior written permission.
  23:Middlewares/Third_Party/LwIP/src/core/ipv4/ip4.c ****  *
  24:Middlewares/Third_Party/LwIP/src/core/ipv4/ip4.c ****  * THIS SOFTWARE IS PROVIDED BY THE AUTHOR ``AS IS'' AND ANY EXPRESS OR IMPLIED
  25:Middlewares/Third_Party/LwIP/src/core/ipv4/ip4.c ****  * WARRANTIES, INCLUDING, BUT NOT LIMITED TO, THE IMPLIED WARRANTIES OF
  26:Middlewares/Third_Party/LwIP/src/core/ipv4/ip4.c ****  * MERCHANTABILITY AND FITNESS FOR A PARTICULAR PURPOSE ARE DISCLAIMED. IN NO EVENT
  27:Middlewares/Third_Party/LwIP/src/core/ipv4/ip4.c ****  * SHALL THE AUTHOR BE LIABLE FOR ANY DIRECT, INDIRECT, INCIDENTAL, SPECIAL,
  28:Middlewares/Third_Party/LwIP/src/core/ipv4/ip4.c ****  * EXEMPLARY, OR CONSEQUENTIAL DAMAGES (INCLUDING, BUT NOT LIMITED TO, PROCUREMENT
  29:Middlewares/Third_Party/LwIP/src/core/ipv4/ip4.c ****  * OF SUBSTITUTE GOODS OR SERVICES; LOSS OF USE, DATA, OR PROFITS; OR BUSINESS
ARM GAS  C:\Users\Nina\AppData\Local\Temp\ccc87nAg.s 			page 2


  30:Middlewares/Third_Party/LwIP/src/core/ipv4/ip4.c ****  * INTERRUPTION) HOWEVER CAUSED AND ON ANY THEORY OF LIABILITY, WHETHER IN
  31:Middlewares/Third_Party/LwIP/src/core/ipv4/ip4.c ****  * CONTRACT, STRICT LIABILITY, OR TORT (INCLUDING NEGLIGENCE OR OTHERWISE) ARISING
  32:Middlewares/Third_Party/LwIP/src/core/ipv4/ip4.c ****  * IN ANY WAY OUT OF THE USE OF THIS SOFTWARE, EVEN IF ADVISED OF THE POSSIBILITY
  33:Middlewares/Third_Party/LwIP/src/core/ipv4/ip4.c ****  * OF SUCH DAMAGE.
  34:Middlewares/Third_Party/LwIP/src/core/ipv4/ip4.c ****  *
  35:Middlewares/Third_Party/LwIP/src/core/ipv4/ip4.c ****  * This file is part of the lwIP TCP/IP stack.
  36:Middlewares/Third_Party/LwIP/src/core/ipv4/ip4.c ****  *
  37:Middlewares/Third_Party/LwIP/src/core/ipv4/ip4.c ****  * Author: Adam Dunkels <adam@sics.se>
  38:Middlewares/Third_Party/LwIP/src/core/ipv4/ip4.c ****  *
  39:Middlewares/Third_Party/LwIP/src/core/ipv4/ip4.c ****  */
  40:Middlewares/Third_Party/LwIP/src/core/ipv4/ip4.c **** 
  41:Middlewares/Third_Party/LwIP/src/core/ipv4/ip4.c **** #include "lwip/opt.h"
  42:Middlewares/Third_Party/LwIP/src/core/ipv4/ip4.c **** 
  43:Middlewares/Third_Party/LwIP/src/core/ipv4/ip4.c **** #if LWIP_IPV4
  44:Middlewares/Third_Party/LwIP/src/core/ipv4/ip4.c **** 
  45:Middlewares/Third_Party/LwIP/src/core/ipv4/ip4.c **** #include "lwip/ip.h"
  46:Middlewares/Third_Party/LwIP/src/core/ipv4/ip4.c **** #include "lwip/def.h"
  47:Middlewares/Third_Party/LwIP/src/core/ipv4/ip4.c **** #include "lwip/mem.h"
  48:Middlewares/Third_Party/LwIP/src/core/ipv4/ip4.c **** #include "lwip/ip4_frag.h"
  49:Middlewares/Third_Party/LwIP/src/core/ipv4/ip4.c **** #include "lwip/inet_chksum.h"
  50:Middlewares/Third_Party/LwIP/src/core/ipv4/ip4.c **** #include "lwip/netif.h"
  51:Middlewares/Third_Party/LwIP/src/core/ipv4/ip4.c **** #include "lwip/icmp.h"
  52:Middlewares/Third_Party/LwIP/src/core/ipv4/ip4.c **** #include "lwip/igmp.h"
  53:Middlewares/Third_Party/LwIP/src/core/ipv4/ip4.c **** #include "lwip/raw.h"
  54:Middlewares/Third_Party/LwIP/src/core/ipv4/ip4.c **** #include "lwip/udp.h"
  55:Middlewares/Third_Party/LwIP/src/core/ipv4/ip4.c **** #include "lwip/priv/tcp_priv.h"
  56:Middlewares/Third_Party/LwIP/src/core/ipv4/ip4.c **** #include "lwip/autoip.h"
  57:Middlewares/Third_Party/LwIP/src/core/ipv4/ip4.c **** #include "lwip/stats.h"
  58:Middlewares/Third_Party/LwIP/src/core/ipv4/ip4.c **** #include "lwip/prot/dhcp.h"
  59:Middlewares/Third_Party/LwIP/src/core/ipv4/ip4.c **** 
  60:Middlewares/Third_Party/LwIP/src/core/ipv4/ip4.c **** #include <string.h>
  61:Middlewares/Third_Party/LwIP/src/core/ipv4/ip4.c **** 
  62:Middlewares/Third_Party/LwIP/src/core/ipv4/ip4.c **** #ifdef LWIP_HOOK_FILENAME
  63:Middlewares/Third_Party/LwIP/src/core/ipv4/ip4.c **** #include LWIP_HOOK_FILENAME
  64:Middlewares/Third_Party/LwIP/src/core/ipv4/ip4.c **** #endif
  65:Middlewares/Third_Party/LwIP/src/core/ipv4/ip4.c **** 
  66:Middlewares/Third_Party/LwIP/src/core/ipv4/ip4.c **** /** Set this to 0 in the rare case of wanting to call an extra function to
  67:Middlewares/Third_Party/LwIP/src/core/ipv4/ip4.c ****  * generate the IP checksum (in contrast to calculating it on-the-fly). */
  68:Middlewares/Third_Party/LwIP/src/core/ipv4/ip4.c **** #ifndef LWIP_INLINE_IP_CHKSUM
  69:Middlewares/Third_Party/LwIP/src/core/ipv4/ip4.c **** #if LWIP_CHECKSUM_CTRL_PER_NETIF
  70:Middlewares/Third_Party/LwIP/src/core/ipv4/ip4.c **** #define LWIP_INLINE_IP_CHKSUM   0
  71:Middlewares/Third_Party/LwIP/src/core/ipv4/ip4.c **** #else /* LWIP_CHECKSUM_CTRL_PER_NETIF */
  72:Middlewares/Third_Party/LwIP/src/core/ipv4/ip4.c **** #define LWIP_INLINE_IP_CHKSUM   1
  73:Middlewares/Third_Party/LwIP/src/core/ipv4/ip4.c **** #endif /* LWIP_CHECKSUM_CTRL_PER_NETIF */
  74:Middlewares/Third_Party/LwIP/src/core/ipv4/ip4.c **** #endif
  75:Middlewares/Third_Party/LwIP/src/core/ipv4/ip4.c **** 
  76:Middlewares/Third_Party/LwIP/src/core/ipv4/ip4.c **** #if LWIP_INLINE_IP_CHKSUM && CHECKSUM_GEN_IP
  77:Middlewares/Third_Party/LwIP/src/core/ipv4/ip4.c **** #define CHECKSUM_GEN_IP_INLINE  1
  78:Middlewares/Third_Party/LwIP/src/core/ipv4/ip4.c **** #else
  79:Middlewares/Third_Party/LwIP/src/core/ipv4/ip4.c **** #define CHECKSUM_GEN_IP_INLINE  0
  80:Middlewares/Third_Party/LwIP/src/core/ipv4/ip4.c **** #endif
  81:Middlewares/Third_Party/LwIP/src/core/ipv4/ip4.c **** 
  82:Middlewares/Third_Party/LwIP/src/core/ipv4/ip4.c **** #if LWIP_DHCP || defined(LWIP_IP_ACCEPT_UDP_PORT)
  83:Middlewares/Third_Party/LwIP/src/core/ipv4/ip4.c **** #define IP_ACCEPT_LINK_LAYER_ADDRESSING 1
  84:Middlewares/Third_Party/LwIP/src/core/ipv4/ip4.c **** 
  85:Middlewares/Third_Party/LwIP/src/core/ipv4/ip4.c **** /** Some defines for DHCP to let link-layer-addressed packets through while the
  86:Middlewares/Third_Party/LwIP/src/core/ipv4/ip4.c ****  * netif is down.
ARM GAS  C:\Users\Nina\AppData\Local\Temp\ccc87nAg.s 			page 3


  87:Middlewares/Third_Party/LwIP/src/core/ipv4/ip4.c ****  * To use this in your own application/protocol, define LWIP_IP_ACCEPT_UDP_PORT(port)
  88:Middlewares/Third_Party/LwIP/src/core/ipv4/ip4.c ****  * to return 1 if the port is accepted and 0 if the port is not accepted.
  89:Middlewares/Third_Party/LwIP/src/core/ipv4/ip4.c ****  */
  90:Middlewares/Third_Party/LwIP/src/core/ipv4/ip4.c **** #if LWIP_DHCP && defined(LWIP_IP_ACCEPT_UDP_PORT)
  91:Middlewares/Third_Party/LwIP/src/core/ipv4/ip4.c **** /* accept DHCP client port and custom port */
  92:Middlewares/Third_Party/LwIP/src/core/ipv4/ip4.c **** #define IP_ACCEPT_LINK_LAYER_ADDRESSED_PORT(port) (((port) == PP_NTOHS(DHCP_CLIENT_PORT)) \
  93:Middlewares/Third_Party/LwIP/src/core/ipv4/ip4.c ****          || (LWIP_IP_ACCEPT_UDP_PORT(port)))
  94:Middlewares/Third_Party/LwIP/src/core/ipv4/ip4.c **** #elif defined(LWIP_IP_ACCEPT_UDP_PORT) /* LWIP_DHCP && defined(LWIP_IP_ACCEPT_UDP_PORT) */
  95:Middlewares/Third_Party/LwIP/src/core/ipv4/ip4.c **** /* accept custom port only */
  96:Middlewares/Third_Party/LwIP/src/core/ipv4/ip4.c **** #define IP_ACCEPT_LINK_LAYER_ADDRESSED_PORT(port) (LWIP_IP_ACCEPT_UDP_PORT(port))
  97:Middlewares/Third_Party/LwIP/src/core/ipv4/ip4.c **** #else /* LWIP_DHCP && defined(LWIP_IP_ACCEPT_UDP_PORT) */
  98:Middlewares/Third_Party/LwIP/src/core/ipv4/ip4.c **** /* accept DHCP client port only */
  99:Middlewares/Third_Party/LwIP/src/core/ipv4/ip4.c **** #define IP_ACCEPT_LINK_LAYER_ADDRESSED_PORT(port) ((port) == PP_NTOHS(DHCP_CLIENT_PORT))
 100:Middlewares/Third_Party/LwIP/src/core/ipv4/ip4.c **** #endif /* LWIP_DHCP && defined(LWIP_IP_ACCEPT_UDP_PORT) */
 101:Middlewares/Third_Party/LwIP/src/core/ipv4/ip4.c **** 
 102:Middlewares/Third_Party/LwIP/src/core/ipv4/ip4.c **** #else /* LWIP_DHCP */
 103:Middlewares/Third_Party/LwIP/src/core/ipv4/ip4.c **** #define IP_ACCEPT_LINK_LAYER_ADDRESSING 0
 104:Middlewares/Third_Party/LwIP/src/core/ipv4/ip4.c **** #endif /* LWIP_DHCP */
 105:Middlewares/Third_Party/LwIP/src/core/ipv4/ip4.c **** 
 106:Middlewares/Third_Party/LwIP/src/core/ipv4/ip4.c **** /** The IP header ID of the next outgoing IP packet */
 107:Middlewares/Third_Party/LwIP/src/core/ipv4/ip4.c **** static u16_t ip_id;
 108:Middlewares/Third_Party/LwIP/src/core/ipv4/ip4.c **** 
 109:Middlewares/Third_Party/LwIP/src/core/ipv4/ip4.c **** #if LWIP_MULTICAST_TX_OPTIONS
 110:Middlewares/Third_Party/LwIP/src/core/ipv4/ip4.c **** /** The default netif used for multicast */
 111:Middlewares/Third_Party/LwIP/src/core/ipv4/ip4.c **** static struct netif* ip4_default_multicast_netif;
 112:Middlewares/Third_Party/LwIP/src/core/ipv4/ip4.c **** 
 113:Middlewares/Third_Party/LwIP/src/core/ipv4/ip4.c **** /**
 114:Middlewares/Third_Party/LwIP/src/core/ipv4/ip4.c ****  * @ingroup ip4
 115:Middlewares/Third_Party/LwIP/src/core/ipv4/ip4.c ****  * Set a default netif for IPv4 multicast. */
 116:Middlewares/Third_Party/LwIP/src/core/ipv4/ip4.c **** void
 117:Middlewares/Third_Party/LwIP/src/core/ipv4/ip4.c **** ip4_set_default_multicast_netif(struct netif* default_multicast_netif)
 118:Middlewares/Third_Party/LwIP/src/core/ipv4/ip4.c **** {
 119:Middlewares/Third_Party/LwIP/src/core/ipv4/ip4.c ****   ip4_default_multicast_netif = default_multicast_netif;
 120:Middlewares/Third_Party/LwIP/src/core/ipv4/ip4.c **** }
 121:Middlewares/Third_Party/LwIP/src/core/ipv4/ip4.c **** #endif /* LWIP_MULTICAST_TX_OPTIONS */
 122:Middlewares/Third_Party/LwIP/src/core/ipv4/ip4.c **** 
 123:Middlewares/Third_Party/LwIP/src/core/ipv4/ip4.c **** #ifdef LWIP_HOOK_IP4_ROUTE_SRC
 124:Middlewares/Third_Party/LwIP/src/core/ipv4/ip4.c **** /**
 125:Middlewares/Third_Party/LwIP/src/core/ipv4/ip4.c ****  * Source based IPv4 routing must be fully implemented in
 126:Middlewares/Third_Party/LwIP/src/core/ipv4/ip4.c ****  * LWIP_HOOK_IP4_ROUTE_SRC(). This function only provides he parameters.
 127:Middlewares/Third_Party/LwIP/src/core/ipv4/ip4.c ****  */
 128:Middlewares/Third_Party/LwIP/src/core/ipv4/ip4.c **** struct netif *
 129:Middlewares/Third_Party/LwIP/src/core/ipv4/ip4.c **** ip4_route_src(const ip4_addr_t *dest, const ip4_addr_t *src)
 130:Middlewares/Third_Party/LwIP/src/core/ipv4/ip4.c **** {
 131:Middlewares/Third_Party/LwIP/src/core/ipv4/ip4.c ****   if (src != NULL) {
 132:Middlewares/Third_Party/LwIP/src/core/ipv4/ip4.c ****     /* when src==NULL, the hook is called from ip4_route(dest) */
 133:Middlewares/Third_Party/LwIP/src/core/ipv4/ip4.c ****     struct netif *netif = LWIP_HOOK_IP4_ROUTE_SRC(dest, src);
 134:Middlewares/Third_Party/LwIP/src/core/ipv4/ip4.c ****     if (netif != NULL) {
 135:Middlewares/Third_Party/LwIP/src/core/ipv4/ip4.c ****       return netif;
 136:Middlewares/Third_Party/LwIP/src/core/ipv4/ip4.c ****     }
 137:Middlewares/Third_Party/LwIP/src/core/ipv4/ip4.c ****   }
 138:Middlewares/Third_Party/LwIP/src/core/ipv4/ip4.c ****   return ip4_route(dest);
 139:Middlewares/Third_Party/LwIP/src/core/ipv4/ip4.c **** }
 140:Middlewares/Third_Party/LwIP/src/core/ipv4/ip4.c **** #endif /* LWIP_HOOK_IP4_ROUTE_SRC */
 141:Middlewares/Third_Party/LwIP/src/core/ipv4/ip4.c **** 
 142:Middlewares/Third_Party/LwIP/src/core/ipv4/ip4.c **** /**
 143:Middlewares/Third_Party/LwIP/src/core/ipv4/ip4.c ****  * Finds the appropriate network interface for a given IP address. It
ARM GAS  C:\Users\Nina\AppData\Local\Temp\ccc87nAg.s 			page 4


 144:Middlewares/Third_Party/LwIP/src/core/ipv4/ip4.c ****  * searches the list of network interfaces linearly. A match is found
 145:Middlewares/Third_Party/LwIP/src/core/ipv4/ip4.c ****  * if the masked IP address of the network interface equals the masked
 146:Middlewares/Third_Party/LwIP/src/core/ipv4/ip4.c ****  * IP address given to the function.
 147:Middlewares/Third_Party/LwIP/src/core/ipv4/ip4.c ****  *
 148:Middlewares/Third_Party/LwIP/src/core/ipv4/ip4.c ****  * @param dest the destination IP address for which to find the route
 149:Middlewares/Third_Party/LwIP/src/core/ipv4/ip4.c ****  * @return the netif on which to send to reach dest
 150:Middlewares/Third_Party/LwIP/src/core/ipv4/ip4.c ****  */
 151:Middlewares/Third_Party/LwIP/src/core/ipv4/ip4.c **** struct netif *
 152:Middlewares/Third_Party/LwIP/src/core/ipv4/ip4.c **** ip4_route(const ip4_addr_t *dest)
 153:Middlewares/Third_Party/LwIP/src/core/ipv4/ip4.c **** {
  30              		.loc 1 153 1 view -0
  31              		.cfi_startproc
  32              		@ args = 0, pretend = 0, frame = 0
  33              		@ frame_needed = 0, uses_anonymous_args = 0
  34              		@ link register save eliminated.
  35              		.loc 1 153 1 is_stmt 0 view .LVU1
  36 0000 30B4     		push	{r4, r5}
  37              	.LCFI0:
  38              		.cfi_def_cfa_offset 8
  39              		.cfi_offset 4, -8
  40              		.cfi_offset 5, -4
  41 0002 0446     		mov	r4, r0
 154:Middlewares/Third_Party/LwIP/src/core/ipv4/ip4.c ****   struct netif *netif;
  42              		.loc 1 154 3 is_stmt 1 view .LVU2
 155:Middlewares/Third_Party/LwIP/src/core/ipv4/ip4.c **** 
 156:Middlewares/Third_Party/LwIP/src/core/ipv4/ip4.c **** #if LWIP_MULTICAST_TX_OPTIONS
 157:Middlewares/Third_Party/LwIP/src/core/ipv4/ip4.c ****   /* Use administratively selected interface for multicast by default */
 158:Middlewares/Third_Party/LwIP/src/core/ipv4/ip4.c ****   if (ip4_addr_ismulticast(dest) && ip4_default_multicast_netif) {
 159:Middlewares/Third_Party/LwIP/src/core/ipv4/ip4.c ****     return ip4_default_multicast_netif;
 160:Middlewares/Third_Party/LwIP/src/core/ipv4/ip4.c ****   }
 161:Middlewares/Third_Party/LwIP/src/core/ipv4/ip4.c **** #endif /* LWIP_MULTICAST_TX_OPTIONS */
 162:Middlewares/Third_Party/LwIP/src/core/ipv4/ip4.c **** 
 163:Middlewares/Third_Party/LwIP/src/core/ipv4/ip4.c ****   /* iterate through netifs */
 164:Middlewares/Third_Party/LwIP/src/core/ipv4/ip4.c ****   for (netif = netif_list; netif != NULL; netif = netif->next) {
  43              		.loc 1 164 3 view .LVU3
  44              		.loc 1 164 14 is_stmt 0 view .LVU4
  45 0004 144B     		ldr	r3, .L8
  46 0006 1868     		ldr	r0, [r3]
  47              	.LVL1:
  48              		.loc 1 164 3 view .LVU5
  49 0008 00E0     		b	.L2
  50              	.L3:
  51              		.loc 1 164 43 is_stmt 1 discriminator 2 view .LVU6
  52              		.loc 1 164 49 is_stmt 0 discriminator 2 view .LVU7
  53 000a 0068     		ldr	r0, [r0]
  54              	.LVL2:
  55              	.L2:
  56              		.loc 1 164 28 is_stmt 1 discriminator 1 view .LVU8
  57              		.loc 1 164 3 is_stmt 0 discriminator 1 view .LVU9
  58 000c B0B1     		cbz	r0, .L7
 165:Middlewares/Third_Party/LwIP/src/core/ipv4/ip4.c ****     /* is the netif up, does it have a link and a valid address? */
 166:Middlewares/Third_Party/LwIP/src/core/ipv4/ip4.c ****     if (netif_is_up(netif) && netif_is_link_up(netif) && !ip4_addr_isany_val(*netif_ip4_addr(netif)
  59              		.loc 1 166 5 is_stmt 1 view .LVU10
  60              		.loc 1 166 9 is_stmt 0 view .LVU11
  61 000e 90F82F30 		ldrb	r3, [r0, #47]	@ zero_extendqisi2
  62              		.loc 1 166 8 view .LVU12
  63 0012 13F0010F 		tst	r3, #1
ARM GAS  C:\Users\Nina\AppData\Local\Temp\ccc87nAg.s 			page 5


  64 0016 F8D0     		beq	.L3
  65              		.loc 1 166 28 discriminator 1 view .LVU13
  66 0018 13F0040F 		tst	r3, #4
  67 001c F5D0     		beq	.L3
  68              		.loc 1 166 59 discriminator 2 view .LVU14
  69 001e 4268     		ldr	r2, [r0, #4]
  70              		.loc 1 166 55 discriminator 2 view .LVU15
  71 0020 002A     		cmp	r2, #0
  72 0022 F2D0     		beq	.L3
 167:Middlewares/Third_Party/LwIP/src/core/ipv4/ip4.c ****       /* network mask matches? */
 168:Middlewares/Third_Party/LwIP/src/core/ipv4/ip4.c ****       if (ip4_addr_netcmp(dest, netif_ip4_addr(netif), netif_ip4_netmask(netif))) {
  73              		.loc 1 168 7 is_stmt 1 view .LVU16
  74              		.loc 1 168 11 is_stmt 0 view .LVU17
  75 0024 2168     		ldr	r1, [r4]
  76 0026 8568     		ldr	r5, [r0, #8]
  77 0028 4A40     		eors	r2, r2, r1
  78              		.loc 1 168 10 view .LVU18
  79 002a 2A42     		tst	r2, r5
  80 002c 12D0     		beq	.L1
 169:Middlewares/Third_Party/LwIP/src/core/ipv4/ip4.c ****         /* return netif on which to forward IP packet */
 170:Middlewares/Third_Party/LwIP/src/core/ipv4/ip4.c ****         return netif;
 171:Middlewares/Third_Party/LwIP/src/core/ipv4/ip4.c ****       }
 172:Middlewares/Third_Party/LwIP/src/core/ipv4/ip4.c ****       /* gateway matches on a non broadcast interface? (i.e. peer in a point to point interface) */
 173:Middlewares/Third_Party/LwIP/src/core/ipv4/ip4.c ****       if (((netif->flags & NETIF_FLAG_BROADCAST) == 0) && ip4_addr_cmp(dest, netif_ip4_gw(netif))) 
  81              		.loc 1 173 7 is_stmt 1 view .LVU19
  82              		.loc 1 173 10 is_stmt 0 view .LVU20
  83 002e 13F0020F 		tst	r3, #2
  84 0032 EAD1     		bne	.L3
  85              		.loc 1 173 59 discriminator 1 view .LVU21
  86 0034 C368     		ldr	r3, [r0, #12]
  87              		.loc 1 173 56 discriminator 1 view .LVU22
  88 0036 9942     		cmp	r1, r3
  89 0038 E7D1     		bne	.L3
  90 003a 0BE0     		b	.L1
  91              	.L7:
 174:Middlewares/Third_Party/LwIP/src/core/ipv4/ip4.c ****         /* return netif on which to forward IP packet */
 175:Middlewares/Third_Party/LwIP/src/core/ipv4/ip4.c ****         return netif;
 176:Middlewares/Third_Party/LwIP/src/core/ipv4/ip4.c ****       }
 177:Middlewares/Third_Party/LwIP/src/core/ipv4/ip4.c ****     }
 178:Middlewares/Third_Party/LwIP/src/core/ipv4/ip4.c ****   }
 179:Middlewares/Third_Party/LwIP/src/core/ipv4/ip4.c **** 
 180:Middlewares/Third_Party/LwIP/src/core/ipv4/ip4.c **** #if LWIP_NETIF_LOOPBACK && !LWIP_HAVE_LOOPIF
 181:Middlewares/Third_Party/LwIP/src/core/ipv4/ip4.c ****   /* loopif is disabled, looopback traffic is passed through any netif */
 182:Middlewares/Third_Party/LwIP/src/core/ipv4/ip4.c ****   if (ip4_addr_isloopback(dest)) {
 183:Middlewares/Third_Party/LwIP/src/core/ipv4/ip4.c ****     /* don't check for link on loopback traffic */
 184:Middlewares/Third_Party/LwIP/src/core/ipv4/ip4.c ****     if (netif_default != NULL && netif_is_up(netif_default)) {
 185:Middlewares/Third_Party/LwIP/src/core/ipv4/ip4.c ****       return netif_default;
 186:Middlewares/Third_Party/LwIP/src/core/ipv4/ip4.c ****     }
 187:Middlewares/Third_Party/LwIP/src/core/ipv4/ip4.c ****     /* default netif is not up, just use any netif for loopback traffic */
 188:Middlewares/Third_Party/LwIP/src/core/ipv4/ip4.c ****     for (netif = netif_list; netif != NULL; netif = netif->next) {
 189:Middlewares/Third_Party/LwIP/src/core/ipv4/ip4.c ****       if (netif_is_up(netif)) {
 190:Middlewares/Third_Party/LwIP/src/core/ipv4/ip4.c ****         return netif;
 191:Middlewares/Third_Party/LwIP/src/core/ipv4/ip4.c ****       }
 192:Middlewares/Third_Party/LwIP/src/core/ipv4/ip4.c ****     }
 193:Middlewares/Third_Party/LwIP/src/core/ipv4/ip4.c ****     return NULL;
 194:Middlewares/Third_Party/LwIP/src/core/ipv4/ip4.c ****   }
 195:Middlewares/Third_Party/LwIP/src/core/ipv4/ip4.c **** #endif /* LWIP_NETIF_LOOPBACK && !LWIP_HAVE_LOOPIF */
ARM GAS  C:\Users\Nina\AppData\Local\Temp\ccc87nAg.s 			page 6


 196:Middlewares/Third_Party/LwIP/src/core/ipv4/ip4.c **** 
 197:Middlewares/Third_Party/LwIP/src/core/ipv4/ip4.c **** #ifdef LWIP_HOOK_IP4_ROUTE_SRC
 198:Middlewares/Third_Party/LwIP/src/core/ipv4/ip4.c ****   netif = LWIP_HOOK_IP4_ROUTE_SRC(dest, NULL);
 199:Middlewares/Third_Party/LwIP/src/core/ipv4/ip4.c ****   if (netif != NULL) {
 200:Middlewares/Third_Party/LwIP/src/core/ipv4/ip4.c ****     return netif;
 201:Middlewares/Third_Party/LwIP/src/core/ipv4/ip4.c ****   }
 202:Middlewares/Third_Party/LwIP/src/core/ipv4/ip4.c **** #elif defined(LWIP_HOOK_IP4_ROUTE)
 203:Middlewares/Third_Party/LwIP/src/core/ipv4/ip4.c ****   netif = LWIP_HOOK_IP4_ROUTE(dest);
 204:Middlewares/Third_Party/LwIP/src/core/ipv4/ip4.c ****   if (netif != NULL) {
 205:Middlewares/Third_Party/LwIP/src/core/ipv4/ip4.c ****     return netif;
 206:Middlewares/Third_Party/LwIP/src/core/ipv4/ip4.c ****   }
 207:Middlewares/Third_Party/LwIP/src/core/ipv4/ip4.c **** #endif
 208:Middlewares/Third_Party/LwIP/src/core/ipv4/ip4.c **** 
 209:Middlewares/Third_Party/LwIP/src/core/ipv4/ip4.c ****   if ((netif_default == NULL) || !netif_is_up(netif_default) || !netif_is_link_up(netif_default) ||
  92              		.loc 1 209 3 is_stmt 1 view .LVU23
  93              		.loc 1 209 22 is_stmt 0 view .LVU24
  94 003c 074B     		ldr	r3, .L8+4
  95 003e 1B68     		ldr	r3, [r3]
  96              		.loc 1 209 6 view .LVU25
  97 0040 43B1     		cbz	r3, .L1
  98              		.loc 1 209 35 discriminator 1 view .LVU26
  99 0042 93F82F20 		ldrb	r2, [r3, #47]	@ zero_extendqisi2
 100              		.loc 1 209 62 discriminator 1 view .LVU27
 101 0046 02F00502 		and	r2, r2, #5
 102 004a 052A     		cmp	r2, #5
 103 004c 02D1     		bne	.L1
 210:Middlewares/Third_Party/LwIP/src/core/ipv4/ip4.c ****       ip4_addr_isany_val(*netif_ip4_addr(netif_default))) {
 104              		.loc 1 210 7 discriminator 2 view .LVU28
 105 004e 5A68     		ldr	r2, [r3, #4]
 209:Middlewares/Third_Party/LwIP/src/core/ipv4/ip4.c ****       ip4_addr_isany_val(*netif_ip4_addr(netif_default))) {
 106              		.loc 1 209 98 discriminator 2 view .LVU29
 107 0050 02B1     		cbz	r2, .L1
 211:Middlewares/Third_Party/LwIP/src/core/ipv4/ip4.c ****     /* No matching netif found and default netif is not usable.
 212:Middlewares/Third_Party/LwIP/src/core/ipv4/ip4.c ****        If this is not good enough for you, use LWIP_HOOK_IP4_ROUTE() */
 213:Middlewares/Third_Party/LwIP/src/core/ipv4/ip4.c ****     LWIP_DEBUGF(IP_DEBUG | LWIP_DBG_LEVEL_SERIOUS, ("ip4_route: No route to %"U16_F".%"U16_F".%"U16
 214:Middlewares/Third_Party/LwIP/src/core/ipv4/ip4.c ****       ip4_addr1_16(dest), ip4_addr2_16(dest), ip4_addr3_16(dest), ip4_addr4_16(dest)));
 215:Middlewares/Third_Party/LwIP/src/core/ipv4/ip4.c ****     IP_STATS_INC(ip.rterr);
 216:Middlewares/Third_Party/LwIP/src/core/ipv4/ip4.c ****     MIB2_STATS_INC(mib2.ipoutnoroutes);
 217:Middlewares/Third_Party/LwIP/src/core/ipv4/ip4.c ****     return NULL;
 218:Middlewares/Third_Party/LwIP/src/core/ipv4/ip4.c ****   }
 219:Middlewares/Third_Party/LwIP/src/core/ipv4/ip4.c **** 
 220:Middlewares/Third_Party/LwIP/src/core/ipv4/ip4.c ****   return netif_default;
 108              		.loc 1 220 10 view .LVU30
 109 0052 1846     		mov	r0, r3
 110              	.LVL3:
 111              	.L1:
 221:Middlewares/Third_Party/LwIP/src/core/ipv4/ip4.c **** }
 112              		.loc 1 221 1 view .LVU31
 113 0054 30BC     		pop	{r4, r5}
 114              	.LCFI1:
 115              		.cfi_restore 5
 116              		.cfi_restore 4
 117              		.cfi_def_cfa_offset 0
 118              	.LVL4:
 119              		.loc 1 221 1 view .LVU32
 120 0056 7047     		bx	lr
 121              	.L9:
ARM GAS  C:\Users\Nina\AppData\Local\Temp\ccc87nAg.s 			page 7


 122              		.align	2
 123              	.L8:
 124 0058 00000000 		.word	netif_list
 125 005c 00000000 		.word	netif_default
 126              		.cfi_endproc
 127              	.LFE160:
 129              		.section	.text.ip4_input,"ax",%progbits
 130              		.align	1
 131              		.global	ip4_input
 132              		.syntax unified
 133              		.thumb
 134              		.thumb_func
 135              		.fpu fpv5-sp-d16
 137              	ip4_input:
 138              	.LVL5:
 139              	.LFB161:
 222:Middlewares/Third_Party/LwIP/src/core/ipv4/ip4.c **** 
 223:Middlewares/Third_Party/LwIP/src/core/ipv4/ip4.c **** #if IP_FORWARD
 224:Middlewares/Third_Party/LwIP/src/core/ipv4/ip4.c **** /**
 225:Middlewares/Third_Party/LwIP/src/core/ipv4/ip4.c ****  * Determine whether an IP address is in a reserved set of addresses
 226:Middlewares/Third_Party/LwIP/src/core/ipv4/ip4.c ****  * that may not be forwarded, or whether datagrams to that destination
 227:Middlewares/Third_Party/LwIP/src/core/ipv4/ip4.c ****  * may be forwarded.
 228:Middlewares/Third_Party/LwIP/src/core/ipv4/ip4.c ****  * @param p the packet to forward
 229:Middlewares/Third_Party/LwIP/src/core/ipv4/ip4.c ****  * @return 1: can forward 0: discard
 230:Middlewares/Third_Party/LwIP/src/core/ipv4/ip4.c ****  */
 231:Middlewares/Third_Party/LwIP/src/core/ipv4/ip4.c **** static int
 232:Middlewares/Third_Party/LwIP/src/core/ipv4/ip4.c **** ip4_canforward(struct pbuf *p)
 233:Middlewares/Third_Party/LwIP/src/core/ipv4/ip4.c **** {
 234:Middlewares/Third_Party/LwIP/src/core/ipv4/ip4.c ****   u32_t addr = lwip_htonl(ip4_addr_get_u32(ip4_current_dest_addr()));
 235:Middlewares/Third_Party/LwIP/src/core/ipv4/ip4.c **** 
 236:Middlewares/Third_Party/LwIP/src/core/ipv4/ip4.c ****   if (p->flags & PBUF_FLAG_LLBCAST) {
 237:Middlewares/Third_Party/LwIP/src/core/ipv4/ip4.c ****     /* don't route link-layer broadcasts */
 238:Middlewares/Third_Party/LwIP/src/core/ipv4/ip4.c ****     return 0;
 239:Middlewares/Third_Party/LwIP/src/core/ipv4/ip4.c ****   }
 240:Middlewares/Third_Party/LwIP/src/core/ipv4/ip4.c ****   if ((p->flags & PBUF_FLAG_LLMCAST) && !IP_MULTICAST(addr)) {
 241:Middlewares/Third_Party/LwIP/src/core/ipv4/ip4.c ****     /* don't route link-layer multicasts unless the destination address is an IP
 242:Middlewares/Third_Party/LwIP/src/core/ipv4/ip4.c ****        multicast address */
 243:Middlewares/Third_Party/LwIP/src/core/ipv4/ip4.c ****     return 0;
 244:Middlewares/Third_Party/LwIP/src/core/ipv4/ip4.c ****   }
 245:Middlewares/Third_Party/LwIP/src/core/ipv4/ip4.c ****   if (IP_EXPERIMENTAL(addr)) {
 246:Middlewares/Third_Party/LwIP/src/core/ipv4/ip4.c ****     return 0;
 247:Middlewares/Third_Party/LwIP/src/core/ipv4/ip4.c ****   }
 248:Middlewares/Third_Party/LwIP/src/core/ipv4/ip4.c ****   if (IP_CLASSA(addr)) {
 249:Middlewares/Third_Party/LwIP/src/core/ipv4/ip4.c ****     u32_t net = addr & IP_CLASSA_NET;
 250:Middlewares/Third_Party/LwIP/src/core/ipv4/ip4.c ****     if ((net == 0) || (net == ((u32_t)IP_LOOPBACKNET << IP_CLASSA_NSHIFT))) {
 251:Middlewares/Third_Party/LwIP/src/core/ipv4/ip4.c ****       /* don't route loopback packets */
 252:Middlewares/Third_Party/LwIP/src/core/ipv4/ip4.c ****       return 0;
 253:Middlewares/Third_Party/LwIP/src/core/ipv4/ip4.c ****     }
 254:Middlewares/Third_Party/LwIP/src/core/ipv4/ip4.c ****   }
 255:Middlewares/Third_Party/LwIP/src/core/ipv4/ip4.c ****   return 1;
 256:Middlewares/Third_Party/LwIP/src/core/ipv4/ip4.c **** }
 257:Middlewares/Third_Party/LwIP/src/core/ipv4/ip4.c **** 
 258:Middlewares/Third_Party/LwIP/src/core/ipv4/ip4.c **** /**
 259:Middlewares/Third_Party/LwIP/src/core/ipv4/ip4.c ****  * Forwards an IP packet. It finds an appropriate route for the
 260:Middlewares/Third_Party/LwIP/src/core/ipv4/ip4.c ****  * packet, decrements the TTL value of the packet, adjusts the
 261:Middlewares/Third_Party/LwIP/src/core/ipv4/ip4.c ****  * checksum and outputs the packet on the appropriate interface.
 262:Middlewares/Third_Party/LwIP/src/core/ipv4/ip4.c ****  *
ARM GAS  C:\Users\Nina\AppData\Local\Temp\ccc87nAg.s 			page 8


 263:Middlewares/Third_Party/LwIP/src/core/ipv4/ip4.c ****  * @param p the packet to forward (p->payload points to IP header)
 264:Middlewares/Third_Party/LwIP/src/core/ipv4/ip4.c ****  * @param iphdr the IP header of the input packet
 265:Middlewares/Third_Party/LwIP/src/core/ipv4/ip4.c ****  * @param inp the netif on which this packet was received
 266:Middlewares/Third_Party/LwIP/src/core/ipv4/ip4.c ****  */
 267:Middlewares/Third_Party/LwIP/src/core/ipv4/ip4.c **** static void
 268:Middlewares/Third_Party/LwIP/src/core/ipv4/ip4.c **** ip4_forward(struct pbuf *p, struct ip_hdr *iphdr, struct netif *inp)
 269:Middlewares/Third_Party/LwIP/src/core/ipv4/ip4.c **** {
 270:Middlewares/Third_Party/LwIP/src/core/ipv4/ip4.c ****   struct netif *netif;
 271:Middlewares/Third_Party/LwIP/src/core/ipv4/ip4.c **** 
 272:Middlewares/Third_Party/LwIP/src/core/ipv4/ip4.c ****   PERF_START;
 273:Middlewares/Third_Party/LwIP/src/core/ipv4/ip4.c ****   LWIP_UNUSED_ARG(inp);
 274:Middlewares/Third_Party/LwIP/src/core/ipv4/ip4.c **** 
 275:Middlewares/Third_Party/LwIP/src/core/ipv4/ip4.c ****   if (!ip4_canforward(p)) {
 276:Middlewares/Third_Party/LwIP/src/core/ipv4/ip4.c ****     goto return_noroute;
 277:Middlewares/Third_Party/LwIP/src/core/ipv4/ip4.c ****   }
 278:Middlewares/Third_Party/LwIP/src/core/ipv4/ip4.c **** 
 279:Middlewares/Third_Party/LwIP/src/core/ipv4/ip4.c ****   /* RFC3927 2.7: do not forward link-local addresses */
 280:Middlewares/Third_Party/LwIP/src/core/ipv4/ip4.c ****   if (ip4_addr_islinklocal(ip4_current_dest_addr())) {
 281:Middlewares/Third_Party/LwIP/src/core/ipv4/ip4.c ****     LWIP_DEBUGF(IP_DEBUG, ("ip4_forward: not forwarding LLA %"U16_F".%"U16_F".%"U16_F".%"U16_F"\n",
 282:Middlewares/Third_Party/LwIP/src/core/ipv4/ip4.c ****       ip4_addr1_16(ip4_current_dest_addr()), ip4_addr2_16(ip4_current_dest_addr()),
 283:Middlewares/Third_Party/LwIP/src/core/ipv4/ip4.c ****       ip4_addr3_16(ip4_current_dest_addr()), ip4_addr4_16(ip4_current_dest_addr())));
 284:Middlewares/Third_Party/LwIP/src/core/ipv4/ip4.c ****     goto return_noroute;
 285:Middlewares/Third_Party/LwIP/src/core/ipv4/ip4.c ****   }
 286:Middlewares/Third_Party/LwIP/src/core/ipv4/ip4.c **** 
 287:Middlewares/Third_Party/LwIP/src/core/ipv4/ip4.c ****   /* Find network interface where to forward this IP packet to. */
 288:Middlewares/Third_Party/LwIP/src/core/ipv4/ip4.c ****   netif = ip4_route_src(ip4_current_dest_addr(), ip4_current_src_addr());
 289:Middlewares/Third_Party/LwIP/src/core/ipv4/ip4.c ****   if (netif == NULL) {
 290:Middlewares/Third_Party/LwIP/src/core/ipv4/ip4.c ****     LWIP_DEBUGF(IP_DEBUG, ("ip4_forward: no forwarding route for %"U16_F".%"U16_F".%"U16_F".%"U16_F
 291:Middlewares/Third_Party/LwIP/src/core/ipv4/ip4.c ****       ip4_addr1_16(ip4_current_dest_addr()), ip4_addr2_16(ip4_current_dest_addr()),
 292:Middlewares/Third_Party/LwIP/src/core/ipv4/ip4.c ****       ip4_addr3_16(ip4_current_dest_addr()), ip4_addr4_16(ip4_current_dest_addr())));
 293:Middlewares/Third_Party/LwIP/src/core/ipv4/ip4.c ****     /* @todo: send ICMP_DUR_NET? */
 294:Middlewares/Third_Party/LwIP/src/core/ipv4/ip4.c ****     goto return_noroute;
 295:Middlewares/Third_Party/LwIP/src/core/ipv4/ip4.c ****   }
 296:Middlewares/Third_Party/LwIP/src/core/ipv4/ip4.c **** #if !IP_FORWARD_ALLOW_TX_ON_RX_NETIF
 297:Middlewares/Third_Party/LwIP/src/core/ipv4/ip4.c ****   /* Do not forward packets onto the same network interface on which
 298:Middlewares/Third_Party/LwIP/src/core/ipv4/ip4.c ****    * they arrived. */
 299:Middlewares/Third_Party/LwIP/src/core/ipv4/ip4.c ****   if (netif == inp) {
 300:Middlewares/Third_Party/LwIP/src/core/ipv4/ip4.c ****     LWIP_DEBUGF(IP_DEBUG, ("ip4_forward: not bouncing packets back on incoming interface.\n"));
 301:Middlewares/Third_Party/LwIP/src/core/ipv4/ip4.c ****     goto return_noroute;
 302:Middlewares/Third_Party/LwIP/src/core/ipv4/ip4.c ****   }
 303:Middlewares/Third_Party/LwIP/src/core/ipv4/ip4.c **** #endif /* IP_FORWARD_ALLOW_TX_ON_RX_NETIF */
 304:Middlewares/Third_Party/LwIP/src/core/ipv4/ip4.c **** 
 305:Middlewares/Third_Party/LwIP/src/core/ipv4/ip4.c ****   /* decrement TTL */
 306:Middlewares/Third_Party/LwIP/src/core/ipv4/ip4.c ****   IPH_TTL_SET(iphdr, IPH_TTL(iphdr) - 1);
 307:Middlewares/Third_Party/LwIP/src/core/ipv4/ip4.c ****   /* send ICMP if TTL == 0 */
 308:Middlewares/Third_Party/LwIP/src/core/ipv4/ip4.c ****   if (IPH_TTL(iphdr) == 0) {
 309:Middlewares/Third_Party/LwIP/src/core/ipv4/ip4.c ****     MIB2_STATS_INC(mib2.ipinhdrerrors);
 310:Middlewares/Third_Party/LwIP/src/core/ipv4/ip4.c **** #if LWIP_ICMP
 311:Middlewares/Third_Party/LwIP/src/core/ipv4/ip4.c ****     /* Don't send ICMP messages in response to ICMP messages */
 312:Middlewares/Third_Party/LwIP/src/core/ipv4/ip4.c ****     if (IPH_PROTO(iphdr) != IP_PROTO_ICMP) {
 313:Middlewares/Third_Party/LwIP/src/core/ipv4/ip4.c ****       icmp_time_exceeded(p, ICMP_TE_TTL);
 314:Middlewares/Third_Party/LwIP/src/core/ipv4/ip4.c ****     }
 315:Middlewares/Third_Party/LwIP/src/core/ipv4/ip4.c **** #endif /* LWIP_ICMP */
 316:Middlewares/Third_Party/LwIP/src/core/ipv4/ip4.c ****     return;
 317:Middlewares/Third_Party/LwIP/src/core/ipv4/ip4.c ****   }
 318:Middlewares/Third_Party/LwIP/src/core/ipv4/ip4.c **** 
 319:Middlewares/Third_Party/LwIP/src/core/ipv4/ip4.c ****   /* Incrementally update the IP checksum. */
ARM GAS  C:\Users\Nina\AppData\Local\Temp\ccc87nAg.s 			page 9


 320:Middlewares/Third_Party/LwIP/src/core/ipv4/ip4.c ****   if (IPH_CHKSUM(iphdr) >= PP_HTONS(0xffffU - 0x100)) {
 321:Middlewares/Third_Party/LwIP/src/core/ipv4/ip4.c ****     IPH_CHKSUM_SET(iphdr, IPH_CHKSUM(iphdr) + PP_HTONS(0x100) + 1);
 322:Middlewares/Third_Party/LwIP/src/core/ipv4/ip4.c ****   } else {
 323:Middlewares/Third_Party/LwIP/src/core/ipv4/ip4.c ****     IPH_CHKSUM_SET(iphdr, IPH_CHKSUM(iphdr) + PP_HTONS(0x100));
 324:Middlewares/Third_Party/LwIP/src/core/ipv4/ip4.c ****   }
 325:Middlewares/Third_Party/LwIP/src/core/ipv4/ip4.c **** 
 326:Middlewares/Third_Party/LwIP/src/core/ipv4/ip4.c ****   LWIP_DEBUGF(IP_DEBUG, ("ip4_forward: forwarding packet to %"U16_F".%"U16_F".%"U16_F".%"U16_F"\n",
 327:Middlewares/Third_Party/LwIP/src/core/ipv4/ip4.c ****     ip4_addr1_16(ip4_current_dest_addr()), ip4_addr2_16(ip4_current_dest_addr()),
 328:Middlewares/Third_Party/LwIP/src/core/ipv4/ip4.c ****     ip4_addr3_16(ip4_current_dest_addr()), ip4_addr4_16(ip4_current_dest_addr())));
 329:Middlewares/Third_Party/LwIP/src/core/ipv4/ip4.c **** 
 330:Middlewares/Third_Party/LwIP/src/core/ipv4/ip4.c ****   IP_STATS_INC(ip.fw);
 331:Middlewares/Third_Party/LwIP/src/core/ipv4/ip4.c ****   MIB2_STATS_INC(mib2.ipforwdatagrams);
 332:Middlewares/Third_Party/LwIP/src/core/ipv4/ip4.c ****   IP_STATS_INC(ip.xmit);
 333:Middlewares/Third_Party/LwIP/src/core/ipv4/ip4.c **** 
 334:Middlewares/Third_Party/LwIP/src/core/ipv4/ip4.c ****   PERF_STOP("ip4_forward");
 335:Middlewares/Third_Party/LwIP/src/core/ipv4/ip4.c ****   /* don't fragment if interface has mtu set to 0 [loopif] */
 336:Middlewares/Third_Party/LwIP/src/core/ipv4/ip4.c ****   if (netif->mtu && (p->tot_len > netif->mtu)) {
 337:Middlewares/Third_Party/LwIP/src/core/ipv4/ip4.c ****     if ((IPH_OFFSET(iphdr) & PP_NTOHS(IP_DF)) == 0) {
 338:Middlewares/Third_Party/LwIP/src/core/ipv4/ip4.c **** #if IP_FRAG
 339:Middlewares/Third_Party/LwIP/src/core/ipv4/ip4.c ****       ip4_frag(p, netif, ip4_current_dest_addr());
 340:Middlewares/Third_Party/LwIP/src/core/ipv4/ip4.c **** #else /* IP_FRAG */
 341:Middlewares/Third_Party/LwIP/src/core/ipv4/ip4.c ****       /* @todo: send ICMP Destination Unreachable code 13 "Communication administratively prohibite
 342:Middlewares/Third_Party/LwIP/src/core/ipv4/ip4.c **** #endif /* IP_FRAG */
 343:Middlewares/Third_Party/LwIP/src/core/ipv4/ip4.c ****     } else {
 344:Middlewares/Third_Party/LwIP/src/core/ipv4/ip4.c **** #if LWIP_ICMP
 345:Middlewares/Third_Party/LwIP/src/core/ipv4/ip4.c ****       /* send ICMP Destination Unreachable code 4: "Fragmentation Needed and DF Set" */
 346:Middlewares/Third_Party/LwIP/src/core/ipv4/ip4.c ****       icmp_dest_unreach(p, ICMP_DUR_FRAG);
 347:Middlewares/Third_Party/LwIP/src/core/ipv4/ip4.c **** #endif /* LWIP_ICMP */
 348:Middlewares/Third_Party/LwIP/src/core/ipv4/ip4.c ****     }
 349:Middlewares/Third_Party/LwIP/src/core/ipv4/ip4.c ****     return;
 350:Middlewares/Third_Party/LwIP/src/core/ipv4/ip4.c ****   }
 351:Middlewares/Third_Party/LwIP/src/core/ipv4/ip4.c ****   /* transmit pbuf on chosen interface */
 352:Middlewares/Third_Party/LwIP/src/core/ipv4/ip4.c ****   netif->output(netif, p, ip4_current_dest_addr());
 353:Middlewares/Third_Party/LwIP/src/core/ipv4/ip4.c ****   return;
 354:Middlewares/Third_Party/LwIP/src/core/ipv4/ip4.c **** return_noroute:
 355:Middlewares/Third_Party/LwIP/src/core/ipv4/ip4.c ****   MIB2_STATS_INC(mib2.ipoutnoroutes);
 356:Middlewares/Third_Party/LwIP/src/core/ipv4/ip4.c **** }
 357:Middlewares/Third_Party/LwIP/src/core/ipv4/ip4.c **** #endif /* IP_FORWARD */
 358:Middlewares/Third_Party/LwIP/src/core/ipv4/ip4.c **** 
 359:Middlewares/Third_Party/LwIP/src/core/ipv4/ip4.c **** /**
 360:Middlewares/Third_Party/LwIP/src/core/ipv4/ip4.c ****  * This function is called by the network interface device driver when
 361:Middlewares/Third_Party/LwIP/src/core/ipv4/ip4.c ****  * an IP packet is received. The function does the basic checks of the
 362:Middlewares/Third_Party/LwIP/src/core/ipv4/ip4.c ****  * IP header such as packet size being at least larger than the header
 363:Middlewares/Third_Party/LwIP/src/core/ipv4/ip4.c ****  * size etc. If the packet was not destined for us, the packet is
 364:Middlewares/Third_Party/LwIP/src/core/ipv4/ip4.c ****  * forwarded (using ip_forward). The IP checksum is always checked.
 365:Middlewares/Third_Party/LwIP/src/core/ipv4/ip4.c ****  *
 366:Middlewares/Third_Party/LwIP/src/core/ipv4/ip4.c ****  * Finally, the packet is sent to the upper layer protocol input function.
 367:Middlewares/Third_Party/LwIP/src/core/ipv4/ip4.c ****  *
 368:Middlewares/Third_Party/LwIP/src/core/ipv4/ip4.c ****  * @param p the received IP packet (p->payload points to IP header)
 369:Middlewares/Third_Party/LwIP/src/core/ipv4/ip4.c ****  * @param inp the netif on which this packet was received
 370:Middlewares/Third_Party/LwIP/src/core/ipv4/ip4.c ****  * @return ERR_OK if the packet was processed (could return ERR_* if it wasn't
 371:Middlewares/Third_Party/LwIP/src/core/ipv4/ip4.c ****  *         processed, but currently always returns ERR_OK)
 372:Middlewares/Third_Party/LwIP/src/core/ipv4/ip4.c ****  */
 373:Middlewares/Third_Party/LwIP/src/core/ipv4/ip4.c **** err_t
 374:Middlewares/Third_Party/LwIP/src/core/ipv4/ip4.c **** ip4_input(struct pbuf *p, struct netif *inp)
 375:Middlewares/Third_Party/LwIP/src/core/ipv4/ip4.c **** {
 140              		.loc 1 375 1 is_stmt 1 view -0
ARM GAS  C:\Users\Nina\AppData\Local\Temp\ccc87nAg.s 			page 10


 141              		.cfi_startproc
 142              		@ args = 0, pretend = 0, frame = 0
 143              		@ frame_needed = 0, uses_anonymous_args = 0
 144              		.loc 1 375 1 is_stmt 0 view .LVU34
 145 0000 2DE9F843 		push	{r3, r4, r5, r6, r7, r8, r9, lr}
 146              	.LCFI2:
 147              		.cfi_def_cfa_offset 32
 148              		.cfi_offset 3, -32
 149              		.cfi_offset 4, -28
 150              		.cfi_offset 5, -24
 151              		.cfi_offset 6, -20
 152              		.cfi_offset 7, -16
 153              		.cfi_offset 8, -12
 154              		.cfi_offset 9, -8
 155              		.cfi_offset 14, -4
 156 0004 0546     		mov	r5, r0
 376:Middlewares/Third_Party/LwIP/src/core/ipv4/ip4.c ****   struct ip_hdr *iphdr;
 157              		.loc 1 376 3 is_stmt 1 view .LVU35
 377:Middlewares/Third_Party/LwIP/src/core/ipv4/ip4.c ****   struct netif *netif;
 158              		.loc 1 377 3 view .LVU36
 378:Middlewares/Third_Party/LwIP/src/core/ipv4/ip4.c ****   u16_t iphdr_hlen;
 159              		.loc 1 378 3 view .LVU37
 379:Middlewares/Third_Party/LwIP/src/core/ipv4/ip4.c ****   u16_t iphdr_len;
 160              		.loc 1 379 3 view .LVU38
 380:Middlewares/Third_Party/LwIP/src/core/ipv4/ip4.c **** #if IP_ACCEPT_LINK_LAYER_ADDRESSING || LWIP_IGMP
 381:Middlewares/Third_Party/LwIP/src/core/ipv4/ip4.c ****   int check_ip_src = 1;
 161              		.loc 1 381 3 view .LVU39
 162              	.LVL6:
 382:Middlewares/Third_Party/LwIP/src/core/ipv4/ip4.c **** #endif /* IP_ACCEPT_LINK_LAYER_ADDRESSING || LWIP_IGMP */
 383:Middlewares/Third_Party/LwIP/src/core/ipv4/ip4.c **** 
 384:Middlewares/Third_Party/LwIP/src/core/ipv4/ip4.c ****   IP_STATS_INC(ip.recv);
 163              		.loc 1 384 24 view .LVU40
 385:Middlewares/Third_Party/LwIP/src/core/ipv4/ip4.c ****   MIB2_STATS_INC(mib2.ipinreceives);
 164              		.loc 1 385 36 view .LVU41
 386:Middlewares/Third_Party/LwIP/src/core/ipv4/ip4.c **** 
 387:Middlewares/Third_Party/LwIP/src/core/ipv4/ip4.c ****   /* identify the IP header */
 388:Middlewares/Third_Party/LwIP/src/core/ipv4/ip4.c ****   iphdr = (struct ip_hdr *)p->payload;
 165              		.loc 1 388 3 view .LVU42
 166              		.loc 1 388 9 is_stmt 0 view .LVU43
 167 0006 D0F80480 		ldr	r8, [r0, #4]
 168              	.LVL7:
 389:Middlewares/Third_Party/LwIP/src/core/ipv4/ip4.c ****   if (IPH_V(iphdr) != 4) {
 169              		.loc 1 389 3 is_stmt 1 view .LVU44
 170              		.loc 1 389 7 is_stmt 0 view .LVU45
 171 000a 98F80030 		ldrb	r3, [r8]	@ zero_extendqisi2
 172              		.loc 1 389 20 view .LVU46
 173 000e 1A09     		lsrs	r2, r3, #4
 174              		.loc 1 389 6 view .LVU47
 175 0010 042A     		cmp	r2, #4
 176 0012 04D0     		beq	.L11
 390:Middlewares/Third_Party/LwIP/src/core/ipv4/ip4.c ****     LWIP_DEBUGF(IP_DEBUG | LWIP_DBG_LEVEL_WARNING, ("IP packet dropped due to bad version number %"
 177              		.loc 1 390 132 is_stmt 1 view .LVU48
 391:Middlewares/Third_Party/LwIP/src/core/ipv4/ip4.c ****     ip4_debug_print(p);
 178              		.loc 1 391 23 view .LVU49
 392:Middlewares/Third_Party/LwIP/src/core/ipv4/ip4.c ****     pbuf_free(p);
 179              		.loc 1 392 5 view .LVU50
 180 0014 FFF7FEFF 		bl	pbuf_free
ARM GAS  C:\Users\Nina\AppData\Local\Temp\ccc87nAg.s 			page 11


 181              	.LVL8:
 393:Middlewares/Third_Party/LwIP/src/core/ipv4/ip4.c ****     IP_STATS_INC(ip.err);
 182              		.loc 1 393 25 view .LVU51
 394:Middlewares/Third_Party/LwIP/src/core/ipv4/ip4.c ****     IP_STATS_INC(ip.drop);
 183              		.loc 1 394 26 view .LVU52
 395:Middlewares/Third_Party/LwIP/src/core/ipv4/ip4.c ****     MIB2_STATS_INC(mib2.ipinhdrerrors);
 184              		.loc 1 395 39 view .LVU53
 396:Middlewares/Third_Party/LwIP/src/core/ipv4/ip4.c ****     return ERR_OK;
 185              		.loc 1 396 5 view .LVU54
 186              	.L12:
 397:Middlewares/Third_Party/LwIP/src/core/ipv4/ip4.c ****   }
 398:Middlewares/Third_Party/LwIP/src/core/ipv4/ip4.c **** 
 399:Middlewares/Third_Party/LwIP/src/core/ipv4/ip4.c **** #ifdef LWIP_HOOK_IP4_INPUT
 400:Middlewares/Third_Party/LwIP/src/core/ipv4/ip4.c ****   if (LWIP_HOOK_IP4_INPUT(p, inp)) {
 401:Middlewares/Third_Party/LwIP/src/core/ipv4/ip4.c ****     /* the packet has been eaten */
 402:Middlewares/Third_Party/LwIP/src/core/ipv4/ip4.c ****     return ERR_OK;
 403:Middlewares/Third_Party/LwIP/src/core/ipv4/ip4.c ****   }
 404:Middlewares/Third_Party/LwIP/src/core/ipv4/ip4.c **** #endif
 405:Middlewares/Third_Party/LwIP/src/core/ipv4/ip4.c **** 
 406:Middlewares/Third_Party/LwIP/src/core/ipv4/ip4.c ****   /* obtain IP header length in number of 32-bit words */
 407:Middlewares/Third_Party/LwIP/src/core/ipv4/ip4.c ****   iphdr_hlen = IPH_HL(iphdr);
 408:Middlewares/Third_Party/LwIP/src/core/ipv4/ip4.c ****   /* calculate IP header length in bytes */
 409:Middlewares/Third_Party/LwIP/src/core/ipv4/ip4.c ****   iphdr_hlen *= 4;
 410:Middlewares/Third_Party/LwIP/src/core/ipv4/ip4.c ****   /* obtain ip length in bytes */
 411:Middlewares/Third_Party/LwIP/src/core/ipv4/ip4.c ****   iphdr_len = lwip_ntohs(IPH_LEN(iphdr));
 412:Middlewares/Third_Party/LwIP/src/core/ipv4/ip4.c **** 
 413:Middlewares/Third_Party/LwIP/src/core/ipv4/ip4.c ****   /* Trim pbuf. This is especially required for packets < 60 bytes. */
 414:Middlewares/Third_Party/LwIP/src/core/ipv4/ip4.c ****   if (iphdr_len < p->tot_len) {
 415:Middlewares/Third_Party/LwIP/src/core/ipv4/ip4.c ****     pbuf_realloc(p, iphdr_len);
 416:Middlewares/Third_Party/LwIP/src/core/ipv4/ip4.c ****   }
 417:Middlewares/Third_Party/LwIP/src/core/ipv4/ip4.c **** 
 418:Middlewares/Third_Party/LwIP/src/core/ipv4/ip4.c ****   /* header length exceeds first pbuf length, or ip length exceeds total pbuf length? */
 419:Middlewares/Third_Party/LwIP/src/core/ipv4/ip4.c ****   if ((iphdr_hlen > p->len) || (iphdr_len > p->tot_len) || (iphdr_hlen < IP_HLEN)) {
 420:Middlewares/Third_Party/LwIP/src/core/ipv4/ip4.c ****     if (iphdr_hlen < IP_HLEN) {
 421:Middlewares/Third_Party/LwIP/src/core/ipv4/ip4.c ****       LWIP_DEBUGF(IP_DEBUG | LWIP_DBG_LEVEL_SERIOUS,
 422:Middlewares/Third_Party/LwIP/src/core/ipv4/ip4.c ****         ("ip4_input: short IP header (%"U16_F" bytes) received, IP packet dropped\n", iphdr_hlen));
 423:Middlewares/Third_Party/LwIP/src/core/ipv4/ip4.c ****     }
 424:Middlewares/Third_Party/LwIP/src/core/ipv4/ip4.c ****     if (iphdr_hlen > p->len) {
 425:Middlewares/Third_Party/LwIP/src/core/ipv4/ip4.c ****       LWIP_DEBUGF(IP_DEBUG | LWIP_DBG_LEVEL_SERIOUS,
 426:Middlewares/Third_Party/LwIP/src/core/ipv4/ip4.c ****         ("IP header (len %"U16_F") does not fit in first pbuf (len %"U16_F"), IP packet dropped.\n"
 427:Middlewares/Third_Party/LwIP/src/core/ipv4/ip4.c ****         iphdr_hlen, p->len));
 428:Middlewares/Third_Party/LwIP/src/core/ipv4/ip4.c ****     }
 429:Middlewares/Third_Party/LwIP/src/core/ipv4/ip4.c ****     if (iphdr_len > p->tot_len) {
 430:Middlewares/Third_Party/LwIP/src/core/ipv4/ip4.c ****       LWIP_DEBUGF(IP_DEBUG | LWIP_DBG_LEVEL_SERIOUS,
 431:Middlewares/Third_Party/LwIP/src/core/ipv4/ip4.c ****         ("IP (len %"U16_F") is longer than pbuf (len %"U16_F"), IP packet dropped.\n",
 432:Middlewares/Third_Party/LwIP/src/core/ipv4/ip4.c ****         iphdr_len, p->tot_len));
 433:Middlewares/Third_Party/LwIP/src/core/ipv4/ip4.c ****     }
 434:Middlewares/Third_Party/LwIP/src/core/ipv4/ip4.c ****     /* free (drop) packet pbufs */
 435:Middlewares/Third_Party/LwIP/src/core/ipv4/ip4.c ****     pbuf_free(p);
 436:Middlewares/Third_Party/LwIP/src/core/ipv4/ip4.c ****     IP_STATS_INC(ip.lenerr);
 437:Middlewares/Third_Party/LwIP/src/core/ipv4/ip4.c ****     IP_STATS_INC(ip.drop);
 438:Middlewares/Third_Party/LwIP/src/core/ipv4/ip4.c ****     MIB2_STATS_INC(mib2.ipindiscards);
 439:Middlewares/Third_Party/LwIP/src/core/ipv4/ip4.c ****     return ERR_OK;
 440:Middlewares/Third_Party/LwIP/src/core/ipv4/ip4.c ****   }
 441:Middlewares/Third_Party/LwIP/src/core/ipv4/ip4.c **** 
 442:Middlewares/Third_Party/LwIP/src/core/ipv4/ip4.c ****   /* verify checksum */
 443:Middlewares/Third_Party/LwIP/src/core/ipv4/ip4.c **** #if CHECKSUM_CHECK_IP
ARM GAS  C:\Users\Nina\AppData\Local\Temp\ccc87nAg.s 			page 12


 444:Middlewares/Third_Party/LwIP/src/core/ipv4/ip4.c ****   IF__NETIF_CHECKSUM_ENABLED(inp, NETIF_CHECKSUM_CHECK_IP) {
 445:Middlewares/Third_Party/LwIP/src/core/ipv4/ip4.c ****     if (inet_chksum(iphdr, iphdr_hlen) != 0) {
 446:Middlewares/Third_Party/LwIP/src/core/ipv4/ip4.c **** 
 447:Middlewares/Third_Party/LwIP/src/core/ipv4/ip4.c ****       LWIP_DEBUGF(IP_DEBUG | LWIP_DBG_LEVEL_SERIOUS,
 448:Middlewares/Third_Party/LwIP/src/core/ipv4/ip4.c ****         ("Checksum (0x%"X16_F") failed, IP packet dropped.\n", inet_chksum(iphdr, iphdr_hlen)));
 449:Middlewares/Third_Party/LwIP/src/core/ipv4/ip4.c ****       ip4_debug_print(p);
 450:Middlewares/Third_Party/LwIP/src/core/ipv4/ip4.c ****       pbuf_free(p);
 451:Middlewares/Third_Party/LwIP/src/core/ipv4/ip4.c ****       IP_STATS_INC(ip.chkerr);
 452:Middlewares/Third_Party/LwIP/src/core/ipv4/ip4.c ****       IP_STATS_INC(ip.drop);
 453:Middlewares/Third_Party/LwIP/src/core/ipv4/ip4.c ****       MIB2_STATS_INC(mib2.ipinhdrerrors);
 454:Middlewares/Third_Party/LwIP/src/core/ipv4/ip4.c ****       return ERR_OK;
 455:Middlewares/Third_Party/LwIP/src/core/ipv4/ip4.c ****     }
 456:Middlewares/Third_Party/LwIP/src/core/ipv4/ip4.c ****   }
 457:Middlewares/Third_Party/LwIP/src/core/ipv4/ip4.c **** #endif
 458:Middlewares/Third_Party/LwIP/src/core/ipv4/ip4.c **** 
 459:Middlewares/Third_Party/LwIP/src/core/ipv4/ip4.c ****   /* copy IP addresses to aligned ip_addr_t */
 460:Middlewares/Third_Party/LwIP/src/core/ipv4/ip4.c ****   ip_addr_copy_from_ip4(ip_data.current_iphdr_dest, iphdr->dest);
 461:Middlewares/Third_Party/LwIP/src/core/ipv4/ip4.c ****   ip_addr_copy_from_ip4(ip_data.current_iphdr_src, iphdr->src);
 462:Middlewares/Third_Party/LwIP/src/core/ipv4/ip4.c **** 
 463:Middlewares/Third_Party/LwIP/src/core/ipv4/ip4.c ****   /* match packet against an interface, i.e. is this packet for us? */
 464:Middlewares/Third_Party/LwIP/src/core/ipv4/ip4.c ****   if (ip4_addr_ismulticast(ip4_current_dest_addr())) {
 465:Middlewares/Third_Party/LwIP/src/core/ipv4/ip4.c **** #if LWIP_IGMP
 466:Middlewares/Third_Party/LwIP/src/core/ipv4/ip4.c ****     if ((inp->flags & NETIF_FLAG_IGMP) && (igmp_lookfor_group(inp, ip4_current_dest_addr()))) {
 467:Middlewares/Third_Party/LwIP/src/core/ipv4/ip4.c ****       /* IGMP snooping switches need 0.0.0.0 to be allowed as source address (RFC 4541) */
 468:Middlewares/Third_Party/LwIP/src/core/ipv4/ip4.c ****       ip4_addr_t allsystems;
 469:Middlewares/Third_Party/LwIP/src/core/ipv4/ip4.c ****       IP4_ADDR(&allsystems, 224, 0, 0, 1);
 470:Middlewares/Third_Party/LwIP/src/core/ipv4/ip4.c ****       if (ip4_addr_cmp(ip4_current_dest_addr(), &allsystems) &&
 471:Middlewares/Third_Party/LwIP/src/core/ipv4/ip4.c ****           ip4_addr_isany(ip4_current_src_addr())) {
 472:Middlewares/Third_Party/LwIP/src/core/ipv4/ip4.c ****         check_ip_src = 0;
 473:Middlewares/Third_Party/LwIP/src/core/ipv4/ip4.c ****       }
 474:Middlewares/Third_Party/LwIP/src/core/ipv4/ip4.c ****       netif = inp;
 475:Middlewares/Third_Party/LwIP/src/core/ipv4/ip4.c ****     } else {
 476:Middlewares/Third_Party/LwIP/src/core/ipv4/ip4.c ****       netif = NULL;
 477:Middlewares/Third_Party/LwIP/src/core/ipv4/ip4.c ****     }
 478:Middlewares/Third_Party/LwIP/src/core/ipv4/ip4.c **** #else /* LWIP_IGMP */
 479:Middlewares/Third_Party/LwIP/src/core/ipv4/ip4.c ****     if ((netif_is_up(inp)) && (!ip4_addr_isany_val(*netif_ip4_addr(inp)))) {
 480:Middlewares/Third_Party/LwIP/src/core/ipv4/ip4.c ****       netif = inp;
 481:Middlewares/Third_Party/LwIP/src/core/ipv4/ip4.c ****     } else {
 482:Middlewares/Third_Party/LwIP/src/core/ipv4/ip4.c ****       netif = NULL;
 483:Middlewares/Third_Party/LwIP/src/core/ipv4/ip4.c ****     }
 484:Middlewares/Third_Party/LwIP/src/core/ipv4/ip4.c **** #endif /* LWIP_IGMP */
 485:Middlewares/Third_Party/LwIP/src/core/ipv4/ip4.c ****   } else {
 486:Middlewares/Third_Party/LwIP/src/core/ipv4/ip4.c ****     /* start trying with inp. if that's not acceptable, start walking the
 487:Middlewares/Third_Party/LwIP/src/core/ipv4/ip4.c ****        list of configured netifs.
 488:Middlewares/Third_Party/LwIP/src/core/ipv4/ip4.c ****        'first' is used as a boolean to mark whether we started walking the list */
 489:Middlewares/Third_Party/LwIP/src/core/ipv4/ip4.c ****     int first = 1;
 490:Middlewares/Third_Party/LwIP/src/core/ipv4/ip4.c ****     netif = inp;
 491:Middlewares/Third_Party/LwIP/src/core/ipv4/ip4.c ****     do {
 492:Middlewares/Third_Party/LwIP/src/core/ipv4/ip4.c ****       LWIP_DEBUGF(IP_DEBUG, ("ip_input: iphdr->dest 0x%"X32_F" netif->ip_addr 0x%"X32_F" (0x%"X32_F
 493:Middlewares/Third_Party/LwIP/src/core/ipv4/ip4.c ****           ip4_addr_get_u32(&iphdr->dest), ip4_addr_get_u32(netif_ip4_addr(netif)),
 494:Middlewares/Third_Party/LwIP/src/core/ipv4/ip4.c ****           ip4_addr_get_u32(&iphdr->dest) & ip4_addr_get_u32(netif_ip4_netmask(netif)),
 495:Middlewares/Third_Party/LwIP/src/core/ipv4/ip4.c ****           ip4_addr_get_u32(netif_ip4_addr(netif)) & ip4_addr_get_u32(netif_ip4_netmask(netif)),
 496:Middlewares/Third_Party/LwIP/src/core/ipv4/ip4.c ****           ip4_addr_get_u32(&iphdr->dest) & ~ip4_addr_get_u32(netif_ip4_netmask(netif))));
 497:Middlewares/Third_Party/LwIP/src/core/ipv4/ip4.c **** 
 498:Middlewares/Third_Party/LwIP/src/core/ipv4/ip4.c ****       /* interface is up and configured? */
 499:Middlewares/Third_Party/LwIP/src/core/ipv4/ip4.c ****       if ((netif_is_up(netif)) && (!ip4_addr_isany_val(*netif_ip4_addr(netif)))) {
 500:Middlewares/Third_Party/LwIP/src/core/ipv4/ip4.c ****         /* unicast to this interface address? */
ARM GAS  C:\Users\Nina\AppData\Local\Temp\ccc87nAg.s 			page 13


 501:Middlewares/Third_Party/LwIP/src/core/ipv4/ip4.c ****         if (ip4_addr_cmp(ip4_current_dest_addr(), netif_ip4_addr(netif)) ||
 502:Middlewares/Third_Party/LwIP/src/core/ipv4/ip4.c ****             /* or broadcast on this interface network address? */
 503:Middlewares/Third_Party/LwIP/src/core/ipv4/ip4.c ****             ip4_addr_isbroadcast(ip4_current_dest_addr(), netif)
 504:Middlewares/Third_Party/LwIP/src/core/ipv4/ip4.c **** #if LWIP_NETIF_LOOPBACK && !LWIP_HAVE_LOOPIF
 505:Middlewares/Third_Party/LwIP/src/core/ipv4/ip4.c ****             || (ip4_addr_get_u32(ip4_current_dest_addr()) == PP_HTONL(IPADDR_LOOPBACK))
 506:Middlewares/Third_Party/LwIP/src/core/ipv4/ip4.c **** #endif /* LWIP_NETIF_LOOPBACK && !LWIP_HAVE_LOOPIF */
 507:Middlewares/Third_Party/LwIP/src/core/ipv4/ip4.c ****             ) {
 508:Middlewares/Third_Party/LwIP/src/core/ipv4/ip4.c ****           LWIP_DEBUGF(IP_DEBUG, ("ip4_input: packet accepted on interface %c%c\n",
 509:Middlewares/Third_Party/LwIP/src/core/ipv4/ip4.c ****               netif->name[0], netif->name[1]));
 510:Middlewares/Third_Party/LwIP/src/core/ipv4/ip4.c ****           /* break out of for loop */
 511:Middlewares/Third_Party/LwIP/src/core/ipv4/ip4.c ****           break;
 512:Middlewares/Third_Party/LwIP/src/core/ipv4/ip4.c ****         }
 513:Middlewares/Third_Party/LwIP/src/core/ipv4/ip4.c **** #if LWIP_AUTOIP
 514:Middlewares/Third_Party/LwIP/src/core/ipv4/ip4.c ****         /* connections to link-local addresses must persist after changing
 515:Middlewares/Third_Party/LwIP/src/core/ipv4/ip4.c ****            the netif's address (RFC3927 ch. 1.9) */
 516:Middlewares/Third_Party/LwIP/src/core/ipv4/ip4.c ****         if (autoip_accept_packet(netif, ip4_current_dest_addr())) {
 517:Middlewares/Third_Party/LwIP/src/core/ipv4/ip4.c ****           LWIP_DEBUGF(IP_DEBUG, ("ip4_input: LLA packet accepted on interface %c%c\n",
 518:Middlewares/Third_Party/LwIP/src/core/ipv4/ip4.c ****               netif->name[0], netif->name[1]));
 519:Middlewares/Third_Party/LwIP/src/core/ipv4/ip4.c ****           /* break out of for loop */
 520:Middlewares/Third_Party/LwIP/src/core/ipv4/ip4.c ****           break;
 521:Middlewares/Third_Party/LwIP/src/core/ipv4/ip4.c ****         }
 522:Middlewares/Third_Party/LwIP/src/core/ipv4/ip4.c **** #endif /* LWIP_AUTOIP */
 523:Middlewares/Third_Party/LwIP/src/core/ipv4/ip4.c ****       }
 524:Middlewares/Third_Party/LwIP/src/core/ipv4/ip4.c ****       if (first) {
 525:Middlewares/Third_Party/LwIP/src/core/ipv4/ip4.c **** #if !LWIP_NETIF_LOOPBACK || LWIP_HAVE_LOOPIF
 526:Middlewares/Third_Party/LwIP/src/core/ipv4/ip4.c ****         /* Packets sent to the loopback address must not be accepted on an
 527:Middlewares/Third_Party/LwIP/src/core/ipv4/ip4.c ****          * interface that does not have the loopback address assigned to it,
 528:Middlewares/Third_Party/LwIP/src/core/ipv4/ip4.c ****          * unless a non-loopback interface is used for loopback traffic. */
 529:Middlewares/Third_Party/LwIP/src/core/ipv4/ip4.c ****         if (ip4_addr_isloopback(ip4_current_dest_addr())) {
 530:Middlewares/Third_Party/LwIP/src/core/ipv4/ip4.c ****           netif = NULL;
 531:Middlewares/Third_Party/LwIP/src/core/ipv4/ip4.c ****           break;
 532:Middlewares/Third_Party/LwIP/src/core/ipv4/ip4.c ****         }
 533:Middlewares/Third_Party/LwIP/src/core/ipv4/ip4.c **** #endif /* !LWIP_NETIF_LOOPBACK || LWIP_HAVE_LOOPIF */
 534:Middlewares/Third_Party/LwIP/src/core/ipv4/ip4.c ****         first = 0;
 535:Middlewares/Third_Party/LwIP/src/core/ipv4/ip4.c ****         netif = netif_list;
 536:Middlewares/Third_Party/LwIP/src/core/ipv4/ip4.c ****       } else {
 537:Middlewares/Third_Party/LwIP/src/core/ipv4/ip4.c ****         netif = netif->next;
 538:Middlewares/Third_Party/LwIP/src/core/ipv4/ip4.c ****       }
 539:Middlewares/Third_Party/LwIP/src/core/ipv4/ip4.c ****       if (netif == inp) {
 540:Middlewares/Third_Party/LwIP/src/core/ipv4/ip4.c ****         netif = netif->next;
 541:Middlewares/Third_Party/LwIP/src/core/ipv4/ip4.c ****       }
 542:Middlewares/Third_Party/LwIP/src/core/ipv4/ip4.c ****     } while (netif != NULL);
 543:Middlewares/Third_Party/LwIP/src/core/ipv4/ip4.c ****   }
 544:Middlewares/Third_Party/LwIP/src/core/ipv4/ip4.c **** 
 545:Middlewares/Third_Party/LwIP/src/core/ipv4/ip4.c **** #if IP_ACCEPT_LINK_LAYER_ADDRESSING
 546:Middlewares/Third_Party/LwIP/src/core/ipv4/ip4.c ****   /* Pass DHCP messages regardless of destination address. DHCP traffic is addressed
 547:Middlewares/Third_Party/LwIP/src/core/ipv4/ip4.c ****    * using link layer addressing (such as Ethernet MAC) so we must not filter on IP.
 548:Middlewares/Third_Party/LwIP/src/core/ipv4/ip4.c ****    * According to RFC 1542 section 3.1.1, referred by RFC 2131).
 549:Middlewares/Third_Party/LwIP/src/core/ipv4/ip4.c ****    *
 550:Middlewares/Third_Party/LwIP/src/core/ipv4/ip4.c ****    * If you want to accept private broadcast communication while a netif is down,
 551:Middlewares/Third_Party/LwIP/src/core/ipv4/ip4.c ****    * define LWIP_IP_ACCEPT_UDP_PORT(dst_port), e.g.:
 552:Middlewares/Third_Party/LwIP/src/core/ipv4/ip4.c ****    *
 553:Middlewares/Third_Party/LwIP/src/core/ipv4/ip4.c ****    * #define LWIP_IP_ACCEPT_UDP_PORT(dst_port) ((dst_port) == PP_NTOHS(12345))
 554:Middlewares/Third_Party/LwIP/src/core/ipv4/ip4.c ****    */
 555:Middlewares/Third_Party/LwIP/src/core/ipv4/ip4.c ****   if (netif == NULL) {
 556:Middlewares/Third_Party/LwIP/src/core/ipv4/ip4.c ****     /* remote port is DHCP server? */
 557:Middlewares/Third_Party/LwIP/src/core/ipv4/ip4.c ****     if (IPH_PROTO(iphdr) == IP_PROTO_UDP) {
ARM GAS  C:\Users\Nina\AppData\Local\Temp\ccc87nAg.s 			page 14


 558:Middlewares/Third_Party/LwIP/src/core/ipv4/ip4.c ****       struct udp_hdr *udphdr = (struct udp_hdr *)((u8_t *)iphdr + iphdr_hlen);
 559:Middlewares/Third_Party/LwIP/src/core/ipv4/ip4.c ****       LWIP_DEBUGF(IP_DEBUG | LWIP_DBG_TRACE, ("ip4_input: UDP packet to DHCP client port %"U16_F"\n
 560:Middlewares/Third_Party/LwIP/src/core/ipv4/ip4.c ****         lwip_ntohs(udphdr->dest)));
 561:Middlewares/Third_Party/LwIP/src/core/ipv4/ip4.c ****       if (IP_ACCEPT_LINK_LAYER_ADDRESSED_PORT(udphdr->dest)) {
 562:Middlewares/Third_Party/LwIP/src/core/ipv4/ip4.c ****         LWIP_DEBUGF(IP_DEBUG | LWIP_DBG_TRACE, ("ip4_input: DHCP packet accepted.\n"));
 563:Middlewares/Third_Party/LwIP/src/core/ipv4/ip4.c ****         netif = inp;
 564:Middlewares/Third_Party/LwIP/src/core/ipv4/ip4.c ****         check_ip_src = 0;
 565:Middlewares/Third_Party/LwIP/src/core/ipv4/ip4.c ****       }
 566:Middlewares/Third_Party/LwIP/src/core/ipv4/ip4.c ****     }
 567:Middlewares/Third_Party/LwIP/src/core/ipv4/ip4.c ****   }
 568:Middlewares/Third_Party/LwIP/src/core/ipv4/ip4.c **** #endif /* IP_ACCEPT_LINK_LAYER_ADDRESSING */
 569:Middlewares/Third_Party/LwIP/src/core/ipv4/ip4.c **** 
 570:Middlewares/Third_Party/LwIP/src/core/ipv4/ip4.c ****   /* broadcast or multicast packet source address? Compliant with RFC 1122: 3.2.1.3 */
 571:Middlewares/Third_Party/LwIP/src/core/ipv4/ip4.c **** #if LWIP_IGMP || IP_ACCEPT_LINK_LAYER_ADDRESSING
 572:Middlewares/Third_Party/LwIP/src/core/ipv4/ip4.c ****   if (check_ip_src
 573:Middlewares/Third_Party/LwIP/src/core/ipv4/ip4.c **** #if IP_ACCEPT_LINK_LAYER_ADDRESSING
 574:Middlewares/Third_Party/LwIP/src/core/ipv4/ip4.c ****   /* DHCP servers need 0.0.0.0 to be allowed as source address (RFC 1.1.2.2: 3.2.1.3/a) */
 575:Middlewares/Third_Party/LwIP/src/core/ipv4/ip4.c ****       && !ip4_addr_isany_val(*ip4_current_src_addr())
 576:Middlewares/Third_Party/LwIP/src/core/ipv4/ip4.c **** #endif /* IP_ACCEPT_LINK_LAYER_ADDRESSING */
 577:Middlewares/Third_Party/LwIP/src/core/ipv4/ip4.c ****      )
 578:Middlewares/Third_Party/LwIP/src/core/ipv4/ip4.c **** #endif /* LWIP_IGMP || IP_ACCEPT_LINK_LAYER_ADDRESSING */
 579:Middlewares/Third_Party/LwIP/src/core/ipv4/ip4.c ****   {
 580:Middlewares/Third_Party/LwIP/src/core/ipv4/ip4.c ****     if ((ip4_addr_isbroadcast(ip4_current_src_addr(), inp)) ||
 581:Middlewares/Third_Party/LwIP/src/core/ipv4/ip4.c ****         (ip4_addr_ismulticast(ip4_current_src_addr()))) {
 582:Middlewares/Third_Party/LwIP/src/core/ipv4/ip4.c ****       /* packet source is not valid */
 583:Middlewares/Third_Party/LwIP/src/core/ipv4/ip4.c ****       LWIP_DEBUGF(IP_DEBUG | LWIP_DBG_TRACE | LWIP_DBG_LEVEL_WARNING, ("ip4_input: packet source is
 584:Middlewares/Third_Party/LwIP/src/core/ipv4/ip4.c ****       /* free (drop) packet pbufs */
 585:Middlewares/Third_Party/LwIP/src/core/ipv4/ip4.c ****       pbuf_free(p);
 586:Middlewares/Third_Party/LwIP/src/core/ipv4/ip4.c ****       IP_STATS_INC(ip.drop);
 587:Middlewares/Third_Party/LwIP/src/core/ipv4/ip4.c ****       MIB2_STATS_INC(mib2.ipinaddrerrors);
 588:Middlewares/Third_Party/LwIP/src/core/ipv4/ip4.c ****       MIB2_STATS_INC(mib2.ipindiscards);
 589:Middlewares/Third_Party/LwIP/src/core/ipv4/ip4.c ****       return ERR_OK;
 590:Middlewares/Third_Party/LwIP/src/core/ipv4/ip4.c ****     }
 591:Middlewares/Third_Party/LwIP/src/core/ipv4/ip4.c ****   }
 592:Middlewares/Third_Party/LwIP/src/core/ipv4/ip4.c **** 
 593:Middlewares/Third_Party/LwIP/src/core/ipv4/ip4.c ****   /* packet not for us? */
 594:Middlewares/Third_Party/LwIP/src/core/ipv4/ip4.c ****   if (netif == NULL) {
 595:Middlewares/Third_Party/LwIP/src/core/ipv4/ip4.c ****     /* packet not for us, route or discard */
 596:Middlewares/Third_Party/LwIP/src/core/ipv4/ip4.c ****     LWIP_DEBUGF(IP_DEBUG | LWIP_DBG_TRACE, ("ip4_input: packet not for us.\n"));
 597:Middlewares/Third_Party/LwIP/src/core/ipv4/ip4.c **** #if IP_FORWARD
 598:Middlewares/Third_Party/LwIP/src/core/ipv4/ip4.c ****     /* non-broadcast packet? */
 599:Middlewares/Third_Party/LwIP/src/core/ipv4/ip4.c ****     if (!ip4_addr_isbroadcast(ip4_current_dest_addr(), inp)) {
 600:Middlewares/Third_Party/LwIP/src/core/ipv4/ip4.c ****       /* try to forward IP packet on (other) interfaces */
 601:Middlewares/Third_Party/LwIP/src/core/ipv4/ip4.c ****       ip4_forward(p, iphdr, inp);
 602:Middlewares/Third_Party/LwIP/src/core/ipv4/ip4.c ****     } else
 603:Middlewares/Third_Party/LwIP/src/core/ipv4/ip4.c **** #endif /* IP_FORWARD */
 604:Middlewares/Third_Party/LwIP/src/core/ipv4/ip4.c ****     {
 605:Middlewares/Third_Party/LwIP/src/core/ipv4/ip4.c ****       IP_STATS_INC(ip.drop);
 606:Middlewares/Third_Party/LwIP/src/core/ipv4/ip4.c ****       MIB2_STATS_INC(mib2.ipinaddrerrors);
 607:Middlewares/Third_Party/LwIP/src/core/ipv4/ip4.c ****       MIB2_STATS_INC(mib2.ipindiscards);
 608:Middlewares/Third_Party/LwIP/src/core/ipv4/ip4.c ****     }
 609:Middlewares/Third_Party/LwIP/src/core/ipv4/ip4.c ****     pbuf_free(p);
 610:Middlewares/Third_Party/LwIP/src/core/ipv4/ip4.c ****     return ERR_OK;
 611:Middlewares/Third_Party/LwIP/src/core/ipv4/ip4.c ****   }
 612:Middlewares/Third_Party/LwIP/src/core/ipv4/ip4.c ****   /* packet consists of multiple fragments? */
 613:Middlewares/Third_Party/LwIP/src/core/ipv4/ip4.c ****   if ((IPH_OFFSET(iphdr) & PP_HTONS(IP_OFFMASK | IP_MF)) != 0) {
 614:Middlewares/Third_Party/LwIP/src/core/ipv4/ip4.c **** #if IP_REASSEMBLY /* packet fragment reassembly code present? */
ARM GAS  C:\Users\Nina\AppData\Local\Temp\ccc87nAg.s 			page 15


 615:Middlewares/Third_Party/LwIP/src/core/ipv4/ip4.c ****     LWIP_DEBUGF(IP_DEBUG, ("IP packet is a fragment (id=0x%04"X16_F" tot_len=%"U16_F" len=%"U16_F" 
 616:Middlewares/Third_Party/LwIP/src/core/ipv4/ip4.c ****       lwip_ntohs(IPH_ID(iphdr)), p->tot_len, lwip_ntohs(IPH_LEN(iphdr)), (u16_t)!!(IPH_OFFSET(iphdr
 617:Middlewares/Third_Party/LwIP/src/core/ipv4/ip4.c ****     /* reassemble the packet*/
 618:Middlewares/Third_Party/LwIP/src/core/ipv4/ip4.c ****     p = ip4_reass(p);
 619:Middlewares/Third_Party/LwIP/src/core/ipv4/ip4.c ****     /* packet not fully reassembled yet? */
 620:Middlewares/Third_Party/LwIP/src/core/ipv4/ip4.c ****     if (p == NULL) {
 621:Middlewares/Third_Party/LwIP/src/core/ipv4/ip4.c ****       return ERR_OK;
 622:Middlewares/Third_Party/LwIP/src/core/ipv4/ip4.c ****     }
 623:Middlewares/Third_Party/LwIP/src/core/ipv4/ip4.c ****     iphdr = (struct ip_hdr *)p->payload;
 624:Middlewares/Third_Party/LwIP/src/core/ipv4/ip4.c **** #else /* IP_REASSEMBLY == 0, no packet fragment reassembly code present */
 625:Middlewares/Third_Party/LwIP/src/core/ipv4/ip4.c ****     pbuf_free(p);
 626:Middlewares/Third_Party/LwIP/src/core/ipv4/ip4.c ****     LWIP_DEBUGF(IP_DEBUG | LWIP_DBG_LEVEL_SERIOUS, ("IP packet dropped since it was fragmented (0x%
 627:Middlewares/Third_Party/LwIP/src/core/ipv4/ip4.c ****       lwip_ntohs(IPH_OFFSET(iphdr))));
 628:Middlewares/Third_Party/LwIP/src/core/ipv4/ip4.c ****     IP_STATS_INC(ip.opterr);
 629:Middlewares/Third_Party/LwIP/src/core/ipv4/ip4.c ****     IP_STATS_INC(ip.drop);
 630:Middlewares/Third_Party/LwIP/src/core/ipv4/ip4.c ****     /* unsupported protocol feature */
 631:Middlewares/Third_Party/LwIP/src/core/ipv4/ip4.c ****     MIB2_STATS_INC(mib2.ipinunknownprotos);
 632:Middlewares/Third_Party/LwIP/src/core/ipv4/ip4.c ****     return ERR_OK;
 633:Middlewares/Third_Party/LwIP/src/core/ipv4/ip4.c **** #endif /* IP_REASSEMBLY */
 634:Middlewares/Third_Party/LwIP/src/core/ipv4/ip4.c ****   }
 635:Middlewares/Third_Party/LwIP/src/core/ipv4/ip4.c **** 
 636:Middlewares/Third_Party/LwIP/src/core/ipv4/ip4.c **** #if IP_OPTIONS_ALLOWED == 0 /* no support for IP options in the IP header? */
 637:Middlewares/Third_Party/LwIP/src/core/ipv4/ip4.c **** 
 638:Middlewares/Third_Party/LwIP/src/core/ipv4/ip4.c **** #if LWIP_IGMP
 639:Middlewares/Third_Party/LwIP/src/core/ipv4/ip4.c ****   /* there is an extra "router alert" option in IGMP messages which we allow for but do not police 
 640:Middlewares/Third_Party/LwIP/src/core/ipv4/ip4.c ****   if ((iphdr_hlen > IP_HLEN) &&  (IPH_PROTO(iphdr) != IP_PROTO_IGMP)) {
 641:Middlewares/Third_Party/LwIP/src/core/ipv4/ip4.c **** #else
 642:Middlewares/Third_Party/LwIP/src/core/ipv4/ip4.c ****   if (iphdr_hlen > IP_HLEN) {
 643:Middlewares/Third_Party/LwIP/src/core/ipv4/ip4.c **** #endif /* LWIP_IGMP */
 644:Middlewares/Third_Party/LwIP/src/core/ipv4/ip4.c ****     LWIP_DEBUGF(IP_DEBUG | LWIP_DBG_LEVEL_SERIOUS, ("IP packet dropped since there were IP options 
 645:Middlewares/Third_Party/LwIP/src/core/ipv4/ip4.c ****     pbuf_free(p);
 646:Middlewares/Third_Party/LwIP/src/core/ipv4/ip4.c ****     IP_STATS_INC(ip.opterr);
 647:Middlewares/Third_Party/LwIP/src/core/ipv4/ip4.c ****     IP_STATS_INC(ip.drop);
 648:Middlewares/Third_Party/LwIP/src/core/ipv4/ip4.c ****     /* unsupported protocol feature */
 649:Middlewares/Third_Party/LwIP/src/core/ipv4/ip4.c ****     MIB2_STATS_INC(mib2.ipinunknownprotos);
 650:Middlewares/Third_Party/LwIP/src/core/ipv4/ip4.c ****     return ERR_OK;
 651:Middlewares/Third_Party/LwIP/src/core/ipv4/ip4.c ****   }
 652:Middlewares/Third_Party/LwIP/src/core/ipv4/ip4.c **** #endif /* IP_OPTIONS_ALLOWED == 0 */
 653:Middlewares/Third_Party/LwIP/src/core/ipv4/ip4.c **** 
 654:Middlewares/Third_Party/LwIP/src/core/ipv4/ip4.c ****   /* send to upper layers */
 655:Middlewares/Third_Party/LwIP/src/core/ipv4/ip4.c ****   LWIP_DEBUGF(IP_DEBUG, ("ip4_input: \n"));
 656:Middlewares/Third_Party/LwIP/src/core/ipv4/ip4.c ****   ip4_debug_print(p);
 657:Middlewares/Third_Party/LwIP/src/core/ipv4/ip4.c ****   LWIP_DEBUGF(IP_DEBUG, ("ip4_input: p->len %"U16_F" p->tot_len %"U16_F"\n", p->len, p->tot_len));
 658:Middlewares/Third_Party/LwIP/src/core/ipv4/ip4.c **** 
 659:Middlewares/Third_Party/LwIP/src/core/ipv4/ip4.c ****   ip_data.current_netif = netif;
 660:Middlewares/Third_Party/LwIP/src/core/ipv4/ip4.c ****   ip_data.current_input_netif = inp;
 661:Middlewares/Third_Party/LwIP/src/core/ipv4/ip4.c ****   ip_data.current_ip4_header = iphdr;
 662:Middlewares/Third_Party/LwIP/src/core/ipv4/ip4.c ****   ip_data.current_ip_header_tot_len = IPH_HL(iphdr) * 4;
 663:Middlewares/Third_Party/LwIP/src/core/ipv4/ip4.c **** 
 664:Middlewares/Third_Party/LwIP/src/core/ipv4/ip4.c **** #if LWIP_RAW
 665:Middlewares/Third_Party/LwIP/src/core/ipv4/ip4.c ****   /* raw input did not eat the packet? */
 666:Middlewares/Third_Party/LwIP/src/core/ipv4/ip4.c ****   if (raw_input(p, inp) == 0)
 667:Middlewares/Third_Party/LwIP/src/core/ipv4/ip4.c **** #endif /* LWIP_RAW */
 668:Middlewares/Third_Party/LwIP/src/core/ipv4/ip4.c ****   {
 669:Middlewares/Third_Party/LwIP/src/core/ipv4/ip4.c ****     pbuf_header(p, -(s16_t)iphdr_hlen); /* Move to payload, no check necessary. */
 670:Middlewares/Third_Party/LwIP/src/core/ipv4/ip4.c **** 
 671:Middlewares/Third_Party/LwIP/src/core/ipv4/ip4.c ****     switch (IPH_PROTO(iphdr)) {
ARM GAS  C:\Users\Nina\AppData\Local\Temp\ccc87nAg.s 			page 16


 672:Middlewares/Third_Party/LwIP/src/core/ipv4/ip4.c **** #if LWIP_UDP
 673:Middlewares/Third_Party/LwIP/src/core/ipv4/ip4.c ****     case IP_PROTO_UDP:
 674:Middlewares/Third_Party/LwIP/src/core/ipv4/ip4.c **** #if LWIP_UDPLITE
 675:Middlewares/Third_Party/LwIP/src/core/ipv4/ip4.c ****     case IP_PROTO_UDPLITE:
 676:Middlewares/Third_Party/LwIP/src/core/ipv4/ip4.c **** #endif /* LWIP_UDPLITE */
 677:Middlewares/Third_Party/LwIP/src/core/ipv4/ip4.c ****       MIB2_STATS_INC(mib2.ipindelivers);
 678:Middlewares/Third_Party/LwIP/src/core/ipv4/ip4.c ****       udp_input(p, inp);
 679:Middlewares/Third_Party/LwIP/src/core/ipv4/ip4.c ****       break;
 680:Middlewares/Third_Party/LwIP/src/core/ipv4/ip4.c **** #endif /* LWIP_UDP */
 681:Middlewares/Third_Party/LwIP/src/core/ipv4/ip4.c **** #if LWIP_TCP
 682:Middlewares/Third_Party/LwIP/src/core/ipv4/ip4.c ****     case IP_PROTO_TCP:
 683:Middlewares/Third_Party/LwIP/src/core/ipv4/ip4.c ****       MIB2_STATS_INC(mib2.ipindelivers);
 684:Middlewares/Third_Party/LwIP/src/core/ipv4/ip4.c ****       tcp_input(p, inp);
 685:Middlewares/Third_Party/LwIP/src/core/ipv4/ip4.c ****       break;
 686:Middlewares/Third_Party/LwIP/src/core/ipv4/ip4.c **** #endif /* LWIP_TCP */
 687:Middlewares/Third_Party/LwIP/src/core/ipv4/ip4.c **** #if LWIP_ICMP
 688:Middlewares/Third_Party/LwIP/src/core/ipv4/ip4.c ****     case IP_PROTO_ICMP:
 689:Middlewares/Third_Party/LwIP/src/core/ipv4/ip4.c ****       MIB2_STATS_INC(mib2.ipindelivers);
 690:Middlewares/Third_Party/LwIP/src/core/ipv4/ip4.c ****       icmp_input(p, inp);
 691:Middlewares/Third_Party/LwIP/src/core/ipv4/ip4.c ****       break;
 692:Middlewares/Third_Party/LwIP/src/core/ipv4/ip4.c **** #endif /* LWIP_ICMP */
 693:Middlewares/Third_Party/LwIP/src/core/ipv4/ip4.c **** #if LWIP_IGMP
 694:Middlewares/Third_Party/LwIP/src/core/ipv4/ip4.c ****     case IP_PROTO_IGMP:
 695:Middlewares/Third_Party/LwIP/src/core/ipv4/ip4.c ****       igmp_input(p, inp, ip4_current_dest_addr());
 696:Middlewares/Third_Party/LwIP/src/core/ipv4/ip4.c ****       break;
 697:Middlewares/Third_Party/LwIP/src/core/ipv4/ip4.c **** #endif /* LWIP_IGMP */
 698:Middlewares/Third_Party/LwIP/src/core/ipv4/ip4.c ****     default:
 699:Middlewares/Third_Party/LwIP/src/core/ipv4/ip4.c **** #if LWIP_ICMP
 700:Middlewares/Third_Party/LwIP/src/core/ipv4/ip4.c ****       /* send ICMP destination protocol unreachable unless is was a broadcast */
 701:Middlewares/Third_Party/LwIP/src/core/ipv4/ip4.c ****       if (!ip4_addr_isbroadcast(ip4_current_dest_addr(), netif) &&
 702:Middlewares/Third_Party/LwIP/src/core/ipv4/ip4.c ****           !ip4_addr_ismulticast(ip4_current_dest_addr())) {
 703:Middlewares/Third_Party/LwIP/src/core/ipv4/ip4.c ****         pbuf_header_force(p, iphdr_hlen); /* Move to ip header, no check necessary. */
 704:Middlewares/Third_Party/LwIP/src/core/ipv4/ip4.c ****         p->payload = iphdr;
 705:Middlewares/Third_Party/LwIP/src/core/ipv4/ip4.c ****         icmp_dest_unreach(p, ICMP_DUR_PROTO);
 706:Middlewares/Third_Party/LwIP/src/core/ipv4/ip4.c ****       }
 707:Middlewares/Third_Party/LwIP/src/core/ipv4/ip4.c **** #endif /* LWIP_ICMP */
 708:Middlewares/Third_Party/LwIP/src/core/ipv4/ip4.c ****       pbuf_free(p);
 709:Middlewares/Third_Party/LwIP/src/core/ipv4/ip4.c **** 
 710:Middlewares/Third_Party/LwIP/src/core/ipv4/ip4.c ****       LWIP_DEBUGF(IP_DEBUG | LWIP_DBG_LEVEL_SERIOUS, ("Unsupported transport protocol %"U16_F"\n", 
 711:Middlewares/Third_Party/LwIP/src/core/ipv4/ip4.c **** 
 712:Middlewares/Third_Party/LwIP/src/core/ipv4/ip4.c ****       IP_STATS_INC(ip.proterr);
 713:Middlewares/Third_Party/LwIP/src/core/ipv4/ip4.c ****       IP_STATS_INC(ip.drop);
 714:Middlewares/Third_Party/LwIP/src/core/ipv4/ip4.c ****       MIB2_STATS_INC(mib2.ipinunknownprotos);
 715:Middlewares/Third_Party/LwIP/src/core/ipv4/ip4.c ****     }
 716:Middlewares/Third_Party/LwIP/src/core/ipv4/ip4.c ****   }
 717:Middlewares/Third_Party/LwIP/src/core/ipv4/ip4.c **** 
 718:Middlewares/Third_Party/LwIP/src/core/ipv4/ip4.c ****   /* @todo: this is not really necessary... */
 719:Middlewares/Third_Party/LwIP/src/core/ipv4/ip4.c ****   ip_data.current_netif = NULL;
 720:Middlewares/Third_Party/LwIP/src/core/ipv4/ip4.c ****   ip_data.current_input_netif = NULL;
 721:Middlewares/Third_Party/LwIP/src/core/ipv4/ip4.c ****   ip_data.current_ip4_header = NULL;
 722:Middlewares/Third_Party/LwIP/src/core/ipv4/ip4.c ****   ip_data.current_ip_header_tot_len = 0;
 723:Middlewares/Third_Party/LwIP/src/core/ipv4/ip4.c ****   ip4_addr_set_any(ip4_current_src_addr());
 724:Middlewares/Third_Party/LwIP/src/core/ipv4/ip4.c ****   ip4_addr_set_any(ip4_current_dest_addr());
 725:Middlewares/Third_Party/LwIP/src/core/ipv4/ip4.c **** 
 726:Middlewares/Third_Party/LwIP/src/core/ipv4/ip4.c ****   return ERR_OK;
 727:Middlewares/Third_Party/LwIP/src/core/ipv4/ip4.c **** }
 187              		.loc 1 727 1 is_stmt 0 view .LVU55
ARM GAS  C:\Users\Nina\AppData\Local\Temp\ccc87nAg.s 			page 17


 188 0018 0020     		movs	r0, #0
 189 001a BDE8F883 		pop	{r3, r4, r5, r6, r7, r8, r9, pc}
 190              	.LVL9:
 191              	.L11:
 192              		.loc 1 727 1 view .LVU56
 193 001e 0E46     		mov	r6, r1
 407:Middlewares/Third_Party/LwIP/src/core/ipv4/ip4.c ****   /* calculate IP header length in bytes */
 194              		.loc 1 407 3 is_stmt 1 view .LVU57
 407:Middlewares/Third_Party/LwIP/src/core/ipv4/ip4.c ****   /* calculate IP header length in bytes */
 195              		.loc 1 407 14 is_stmt 0 view .LVU58
 196 0020 03F00F03 		and	r3, r3, #15
 197              	.LVL10:
 409:Middlewares/Third_Party/LwIP/src/core/ipv4/ip4.c ****   /* obtain ip length in bytes */
 198              		.loc 1 409 3 is_stmt 1 view .LVU59
 409:Middlewares/Third_Party/LwIP/src/core/ipv4/ip4.c ****   /* obtain ip length in bytes */
 199              		.loc 1 409 14 is_stmt 0 view .LVU60
 200 0024 9F00     		lsls	r7, r3, #2
 201              	.LVL11:
 411:Middlewares/Third_Party/LwIP/src/core/ipv4/ip4.c **** 
 202              		.loc 1 411 3 is_stmt 1 view .LVU61
 411:Middlewares/Third_Party/LwIP/src/core/ipv4/ip4.c **** 
 203              		.loc 1 411 15 is_stmt 0 view .LVU62
 204 0026 B8F80200 		ldrh	r0, [r8, #2]	@ unaligned
 205              	.LVL12:
 411:Middlewares/Third_Party/LwIP/src/core/ipv4/ip4.c **** 
 206              		.loc 1 411 15 view .LVU63
 207 002a FFF7FEFF 		bl	lwip_htons
 208              	.LVL13:
 411:Middlewares/Third_Party/LwIP/src/core/ipv4/ip4.c **** 
 209              		.loc 1 411 15 view .LVU64
 210 002e 0446     		mov	r4, r0
 211              	.LVL14:
 414:Middlewares/Third_Party/LwIP/src/core/ipv4/ip4.c ****     pbuf_realloc(p, iphdr_len);
 212              		.loc 1 414 3 is_stmt 1 view .LVU65
 414:Middlewares/Third_Party/LwIP/src/core/ipv4/ip4.c ****     pbuf_realloc(p, iphdr_len);
 213              		.loc 1 414 20 is_stmt 0 view .LVU66
 214 0030 2B89     		ldrh	r3, [r5, #8]
 414:Middlewares/Third_Party/LwIP/src/core/ipv4/ip4.c ****     pbuf_realloc(p, iphdr_len);
 215              		.loc 1 414 6 view .LVU67
 216 0032 8342     		cmp	r3, r0
 217 0034 16D8     		bhi	.L41
 218              	.LVL15:
 219              	.L13:
 419:Middlewares/Third_Party/LwIP/src/core/ipv4/ip4.c ****     if (iphdr_hlen < IP_HLEN) {
 220              		.loc 1 419 3 is_stmt 1 view .LVU68
 419:Middlewares/Third_Party/LwIP/src/core/ipv4/ip4.c ****     if (iphdr_hlen < IP_HLEN) {
 221              		.loc 1 419 22 is_stmt 0 view .LVU69
 222 0036 6B89     		ldrh	r3, [r5, #10]
 419:Middlewares/Third_Party/LwIP/src/core/ipv4/ip4.c ****     if (iphdr_hlen < IP_HLEN) {
 223              		.loc 1 419 6 view .LVU70
 224 0038 BB42     		cmp	r3, r7
 225 003a 18D3     		bcc	.L14
 419:Middlewares/Third_Party/LwIP/src/core/ipv4/ip4.c ****     if (iphdr_hlen < IP_HLEN) {
 226              		.loc 1 419 46 discriminator 1 view .LVU71
 227 003c 2B89     		ldrh	r3, [r5, #8]
 419:Middlewares/Third_Party/LwIP/src/core/ipv4/ip4.c ****     if (iphdr_hlen < IP_HLEN) {
 228              		.loc 1 419 29 discriminator 1 view .LVU72
ARM GAS  C:\Users\Nina\AppData\Local\Temp\ccc87nAg.s 			page 18


 229 003e A342     		cmp	r3, r4
 230 0040 15D3     		bcc	.L14
 419:Middlewares/Third_Party/LwIP/src/core/ipv4/ip4.c ****     if (iphdr_hlen < IP_HLEN) {
 231              		.loc 1 419 57 discriminator 2 view .LVU73
 232 0042 132F     		cmp	r7, #19
 233 0044 13D9     		bls	.L14
 460:Middlewares/Third_Party/LwIP/src/core/ipv4/ip4.c ****   ip_addr_copy_from_ip4(ip_data.current_iphdr_src, iphdr->src);
 234              		.loc 1 460 3 is_stmt 1 view .LVU74
 235 0046 D8F81030 		ldr	r3, [r8, #16]	@ unaligned
 236 004a 604A     		ldr	r2, .L48
 237 004c 5361     		str	r3, [r2, #20]
 461:Middlewares/Third_Party/LwIP/src/core/ipv4/ip4.c **** 
 238              		.loc 1 461 3 view .LVU75
 239 004e D8F80C10 		ldr	r1, [r8, #12]	@ unaligned
 240 0052 1161     		str	r1, [r2, #16]
 464:Middlewares/Third_Party/LwIP/src/core/ipv4/ip4.c **** #if LWIP_IGMP
 241              		.loc 1 464 3 view .LVU76
 464:Middlewares/Third_Party/LwIP/src/core/ipv4/ip4.c **** #if LWIP_IGMP
 242              		.loc 1 464 7 is_stmt 0 view .LVU77
 243 0054 03F0F003 		and	r3, r3, #240
 464:Middlewares/Third_Party/LwIP/src/core/ipv4/ip4.c **** #if LWIP_IGMP
 244              		.loc 1 464 6 view .LVU78
 245 0058 E02B     		cmp	r3, #224
 246 005a 0CD0     		beq	.L42
 247              	.LBB2:
 490:Middlewares/Third_Party/LwIP/src/core/ipv4/ip4.c ****     do {
 248              		.loc 1 490 11 view .LVU79
 249 005c 3446     		mov	r4, r6
 489:Middlewares/Third_Party/LwIP/src/core/ipv4/ip4.c ****     netif = inp;
 250              		.loc 1 489 9 view .LVU80
 251 005e 4FF00109 		mov	r9, #1
 252 0062 15E0     		b	.L16
 253              	.LVL16:
 254              	.L41:
 489:Middlewares/Third_Party/LwIP/src/core/ipv4/ip4.c ****     netif = inp;
 255              		.loc 1 489 9 view .LVU81
 256              	.LBE2:
 415:Middlewares/Third_Party/LwIP/src/core/ipv4/ip4.c ****   }
 257              		.loc 1 415 5 is_stmt 1 view .LVU82
 258 0064 0146     		mov	r1, r0
 259 0066 2846     		mov	r0, r5
 260              	.LVL17:
 415:Middlewares/Third_Party/LwIP/src/core/ipv4/ip4.c ****   }
 261              		.loc 1 415 5 is_stmt 0 view .LVU83
 262 0068 FFF7FEFF 		bl	pbuf_realloc
 263              	.LVL18:
 264 006c E3E7     		b	.L13
 265              	.L14:
 420:Middlewares/Third_Party/LwIP/src/core/ipv4/ip4.c ****       LWIP_DEBUGF(IP_DEBUG | LWIP_DBG_LEVEL_SERIOUS,
 266              		.loc 1 420 5 is_stmt 1 view .LVU84
 422:Middlewares/Third_Party/LwIP/src/core/ipv4/ip4.c ****     }
 267              		.loc 1 422 99 view .LVU85
 424:Middlewares/Third_Party/LwIP/src/core/ipv4/ip4.c ****       LWIP_DEBUGF(IP_DEBUG | LWIP_DBG_LEVEL_SERIOUS,
 268              		.loc 1 424 5 view .LVU86
 427:Middlewares/Third_Party/LwIP/src/core/ipv4/ip4.c ****     }
 269              		.loc 1 427 29 view .LVU87
 429:Middlewares/Third_Party/LwIP/src/core/ipv4/ip4.c ****       LWIP_DEBUGF(IP_DEBUG | LWIP_DBG_LEVEL_SERIOUS,
ARM GAS  C:\Users\Nina\AppData\Local\Temp\ccc87nAg.s 			page 19


 270              		.loc 1 429 5 view .LVU88
 432:Middlewares/Third_Party/LwIP/src/core/ipv4/ip4.c ****     }
 271              		.loc 1 432 32 view .LVU89
 435:Middlewares/Third_Party/LwIP/src/core/ipv4/ip4.c ****     IP_STATS_INC(ip.lenerr);
 272              		.loc 1 435 5 view .LVU90
 273 006e 2846     		mov	r0, r5
 274 0070 FFF7FEFF 		bl	pbuf_free
 275              	.LVL19:
 436:Middlewares/Third_Party/LwIP/src/core/ipv4/ip4.c ****     IP_STATS_INC(ip.drop);
 276              		.loc 1 436 28 view .LVU91
 437:Middlewares/Third_Party/LwIP/src/core/ipv4/ip4.c ****     MIB2_STATS_INC(mib2.ipindiscards);
 277              		.loc 1 437 26 view .LVU92
 438:Middlewares/Third_Party/LwIP/src/core/ipv4/ip4.c ****     return ERR_OK;
 278              		.loc 1 438 38 view .LVU93
 439:Middlewares/Third_Party/LwIP/src/core/ipv4/ip4.c ****   }
 279              		.loc 1 439 5 view .LVU94
 439:Middlewares/Third_Party/LwIP/src/core/ipv4/ip4.c ****   }
 280              		.loc 1 439 12 is_stmt 0 view .LVU95
 281 0074 D0E7     		b	.L12
 282              	.L42:
 479:Middlewares/Third_Party/LwIP/src/core/ipv4/ip4.c ****       netif = inp;
 283              		.loc 1 479 5 is_stmt 1 view .LVU96
 479:Middlewares/Third_Party/LwIP/src/core/ipv4/ip4.c ****       netif = inp;
 284              		.loc 1 479 10 is_stmt 0 view .LVU97
 285 0076 96F82F30 		ldrb	r3, [r6, #47]	@ zero_extendqisi2
 479:Middlewares/Third_Party/LwIP/src/core/ipv4/ip4.c ****       netif = inp;
 286              		.loc 1 479 8 view .LVU98
 287 007a 13F0010F 		tst	r3, #1
 288 007e 64D0     		beq	.L35
 479:Middlewares/Third_Party/LwIP/src/core/ipv4/ip4.c ****       netif = inp;
 289              		.loc 1 479 33 discriminator 1 view .LVU99
 290 0080 7368     		ldr	r3, [r6, #4]
 479:Middlewares/Third_Party/LwIP/src/core/ipv4/ip4.c ****       netif = inp;
 291              		.loc 1 479 28 discriminator 1 view .LVU100
 292 0082 13BB     		cbnz	r3, .L36
 482:Middlewares/Third_Party/LwIP/src/core/ipv4/ip4.c ****     }
 293              		.loc 1 482 13 view .LVU101
 294 0084 0024     		movs	r4, #0
 295 0086 61E0     		b	.L17
 296              	.LVL20:
 297              	.L20:
 298              	.LBB3:
 537:Middlewares/Third_Party/LwIP/src/core/ipv4/ip4.c ****       }
 299              		.loc 1 537 9 is_stmt 1 view .LVU102
 537:Middlewares/Third_Party/LwIP/src/core/ipv4/ip4.c ****       }
 300              		.loc 1 537 15 is_stmt 0 view .LVU103
 301 0088 2468     		ldr	r4, [r4]
 302              	.LVL21:
 303              	.L21:
 539:Middlewares/Third_Party/LwIP/src/core/ipv4/ip4.c ****         netif = netif->next;
 304              		.loc 1 539 7 is_stmt 1 view .LVU104
 539:Middlewares/Third_Party/LwIP/src/core/ipv4/ip4.c ****         netif = netif->next;
 305              		.loc 1 539 10 is_stmt 0 view .LVU105
 306 008a B442     		cmp	r4, r6
 307 008c 1BD0     		beq	.L43
 308              	.L22:
 542:Middlewares/Third_Party/LwIP/src/core/ipv4/ip4.c ****   }
ARM GAS  C:\Users\Nina\AppData\Local\Temp\ccc87nAg.s 			page 20


 309              		.loc 1 542 13 is_stmt 1 view .LVU106
 542:Middlewares/Third_Party/LwIP/src/core/ipv4/ip4.c ****   }
 310              		.loc 1 542 5 is_stmt 0 view .LVU107
 311 008e FCB1     		cbz	r4, .L18
 312              	.LVL22:
 313              	.L16:
 491:Middlewares/Third_Party/LwIP/src/core/ipv4/ip4.c ****       LWIP_DEBUGF(IP_DEBUG, ("ip_input: iphdr->dest 0x%"X32_F" netif->ip_addr 0x%"X32_F" (0x%"X32_F
 314              		.loc 1 491 5 is_stmt 1 view .LVU108
 496:Middlewares/Third_Party/LwIP/src/core/ipv4/ip4.c **** 
 315              		.loc 1 496 89 view .LVU109
 499:Middlewares/Third_Party/LwIP/src/core/ipv4/ip4.c ****         /* unicast to this interface address? */
 316              		.loc 1 499 7 view .LVU110
 499:Middlewares/Third_Party/LwIP/src/core/ipv4/ip4.c ****         /* unicast to this interface address? */
 317              		.loc 1 499 12 is_stmt 0 view .LVU111
 318 0090 94F82F30 		ldrb	r3, [r4, #47]	@ zero_extendqisi2
 499:Middlewares/Third_Party/LwIP/src/core/ipv4/ip4.c ****         /* unicast to this interface address? */
 319              		.loc 1 499 10 view .LVU112
 320 0094 13F0010F 		tst	r3, #1
 321 0098 09D0     		beq	.L19
 499:Middlewares/Third_Party/LwIP/src/core/ipv4/ip4.c ****         /* unicast to this interface address? */
 322              		.loc 1 499 37 discriminator 1 view .LVU113
 323 009a 6368     		ldr	r3, [r4, #4]
 499:Middlewares/Third_Party/LwIP/src/core/ipv4/ip4.c ****         /* unicast to this interface address? */
 324              		.loc 1 499 32 discriminator 1 view .LVU114
 325 009c 3BB1     		cbz	r3, .L19
 501:Middlewares/Third_Party/LwIP/src/core/ipv4/ip4.c ****             /* or broadcast on this interface network address? */
 326              		.loc 1 501 9 is_stmt 1 view .LVU115
 501:Middlewares/Third_Party/LwIP/src/core/ipv4/ip4.c ****             /* or broadcast on this interface network address? */
 327              		.loc 1 501 13 is_stmt 0 view .LVU116
 328 009e 4B4A     		ldr	r2, .L48
 329 00a0 5069     		ldr	r0, [r2, #20]
 501:Middlewares/Third_Party/LwIP/src/core/ipv4/ip4.c ****             /* or broadcast on this interface network address? */
 330              		.loc 1 501 12 view .LVU117
 331 00a2 8342     		cmp	r3, r0
 332 00a4 14D0     		beq	.L18
 503:Middlewares/Third_Party/LwIP/src/core/ipv4/ip4.c **** #if LWIP_NETIF_LOOPBACK && !LWIP_HAVE_LOOPIF
 333              		.loc 1 503 13 discriminator 1 view .LVU118
 334 00a6 2146     		mov	r1, r4
 335 00a8 FFF7FEFF 		bl	ip4_addr_isbroadcast_u32
 336              	.LVL23:
 501:Middlewares/Third_Party/LwIP/src/core/ipv4/ip4.c ****             /* or broadcast on this interface network address? */
 337              		.loc 1 501 74 discriminator 1 view .LVU119
 338 00ac 80B9     		cbnz	r0, .L18
 339              	.L19:
 524:Middlewares/Third_Party/LwIP/src/core/ipv4/ip4.c **** #if !LWIP_NETIF_LOOPBACK || LWIP_HAVE_LOOPIF
 340              		.loc 1 524 7 is_stmt 1 view .LVU120
 524:Middlewares/Third_Party/LwIP/src/core/ipv4/ip4.c **** #if !LWIP_NETIF_LOOPBACK || LWIP_HAVE_LOOPIF
 341              		.loc 1 524 10 is_stmt 0 view .LVU121
 342 00ae B9F1000F 		cmp	r9, #0
 343 00b2 E9D0     		beq	.L20
 529:Middlewares/Third_Party/LwIP/src/core/ipv4/ip4.c ****           netif = NULL;
 344              		.loc 1 529 9 is_stmt 1 view .LVU122
 529:Middlewares/Third_Party/LwIP/src/core/ipv4/ip4.c ****           netif = NULL;
 345              		.loc 1 529 13 is_stmt 0 view .LVU123
 346 00b4 454B     		ldr	r3, .L48
 347 00b6 1B7D     		ldrb	r3, [r3, #20]	@ zero_extendqisi2
 529:Middlewares/Third_Party/LwIP/src/core/ipv4/ip4.c ****           netif = NULL;
ARM GAS  C:\Users\Nina\AppData\Local\Temp\ccc87nAg.s 			page 21


 348              		.loc 1 529 12 view .LVU124
 349 00b8 7F2B     		cmp	r3, #127
 350 00ba 08D0     		beq	.L37
 534:Middlewares/Third_Party/LwIP/src/core/ipv4/ip4.c ****         netif = netif_list;
 351              		.loc 1 534 9 is_stmt 1 view .LVU125
 352              	.LVL24:
 535:Middlewares/Third_Party/LwIP/src/core/ipv4/ip4.c ****       } else {
 353              		.loc 1 535 9 view .LVU126
 535:Middlewares/Third_Party/LwIP/src/core/ipv4/ip4.c ****       } else {
 354              		.loc 1 535 15 is_stmt 0 view .LVU127
 355 00bc 444B     		ldr	r3, .L48+4
 356 00be 1C68     		ldr	r4, [r3]
 357              	.LVL25:
 534:Middlewares/Third_Party/LwIP/src/core/ipv4/ip4.c ****         netif = netif_list;
 358              		.loc 1 534 15 view .LVU128
 359 00c0 4FF00009 		mov	r9, #0
 360 00c4 E1E7     		b	.L21
 361              	.LVL26:
 362              	.L43:
 540:Middlewares/Third_Party/LwIP/src/core/ipv4/ip4.c ****       }
 363              		.loc 1 540 9 is_stmt 1 view .LVU129
 540:Middlewares/Third_Party/LwIP/src/core/ipv4/ip4.c ****       }
 364              		.loc 1 540 15 is_stmt 0 view .LVU130
 365 00c6 2468     		ldr	r4, [r4]
 366              	.LVL27:
 540:Middlewares/Third_Party/LwIP/src/core/ipv4/ip4.c ****       }
 367              		.loc 1 540 15 view .LVU131
 368 00c8 E1E7     		b	.L22
 369              	.LVL28:
 370              	.L36:
 540:Middlewares/Third_Party/LwIP/src/core/ipv4/ip4.c ****       }
 371              		.loc 1 540 15 view .LVU132
 372              	.LBE3:
 480:Middlewares/Third_Party/LwIP/src/core/ipv4/ip4.c ****     } else {
 373              		.loc 1 480 13 view .LVU133
 374 00ca 3446     		mov	r4, r6
 375 00cc 00E0     		b	.L18
 376              	.LVL29:
 377              	.L37:
 378              	.LBB4:
 530:Middlewares/Third_Party/LwIP/src/core/ipv4/ip4.c ****           break;
 379              		.loc 1 530 17 view .LVU134
 380 00ce 0024     		movs	r4, #0
 381              	.LVL30:
 382              	.L18:
 530:Middlewares/Third_Party/LwIP/src/core/ipv4/ip4.c ****           break;
 383              		.loc 1 530 17 view .LVU135
 384              	.LBE4:
 555:Middlewares/Third_Party/LwIP/src/core/ipv4/ip4.c ****     /* remote port is DHCP server? */
 385              		.loc 1 555 3 is_stmt 1 view .LVU136
 555:Middlewares/Third_Party/LwIP/src/core/ipv4/ip4.c ****     /* remote port is DHCP server? */
 386              		.loc 1 555 6 is_stmt 0 view .LVU137
 387 00d0 002C     		cmp	r4, #0
 388 00d2 3BD0     		beq	.L17
 389              	.LVL31:
 390              	.L23:
 575:Middlewares/Third_Party/LwIP/src/core/ipv4/ip4.c **** #endif /* IP_ACCEPT_LINK_LAYER_ADDRESSING */
ARM GAS  C:\Users\Nina\AppData\Local\Temp\ccc87nAg.s 			page 22


 391              		.loc 1 575 11 view .LVU138
 392 00d4 3D4B     		ldr	r3, .L48
 393 00d6 1869     		ldr	r0, [r3, #16]
 575:Middlewares/Third_Party/LwIP/src/core/ipv4/ip4.c **** #endif /* IP_ACCEPT_LINK_LAYER_ADDRESSING */
 394              		.loc 1 575 7 view .LVU139
 395 00d8 0028     		cmp	r0, #0
 396 00da 43D1     		bne	.L44
 397              	.L24:
 594:Middlewares/Third_Party/LwIP/src/core/ipv4/ip4.c ****     /* packet not for us, route or discard */
 398              		.loc 1 594 3 is_stmt 1 view .LVU140
 594:Middlewares/Third_Party/LwIP/src/core/ipv4/ip4.c ****     /* packet not for us, route or discard */
 399              		.loc 1 594 6 is_stmt 0 view .LVU141
 400 00dc 002C     		cmp	r4, #0
 401 00de 4FD0     		beq	.L45
 613:Middlewares/Third_Party/LwIP/src/core/ipv4/ip4.c **** #if IP_REASSEMBLY /* packet fragment reassembly code present? */
 402              		.loc 1 613 3 is_stmt 1 view .LVU142
 613:Middlewares/Third_Party/LwIP/src/core/ipv4/ip4.c **** #if IP_REASSEMBLY /* packet fragment reassembly code present? */
 403              		.loc 1 613 8 is_stmt 0 view .LVU143
 404 00e0 B8F80630 		ldrh	r3, [r8, #6]	@ unaligned
 613:Middlewares/Third_Party/LwIP/src/core/ipv4/ip4.c **** #if IP_REASSEMBLY /* packet fragment reassembly code present? */
 405              		.loc 1 613 6 view .LVU144
 406 00e4 23F0C003 		bic	r3, r3, #192
 407 00e8 9BB2     		uxth	r3, r3
 408 00ea 3BB1     		cbz	r3, .L27
 616:Middlewares/Third_Party/LwIP/src/core/ipv4/ip4.c ****     /* reassemble the packet*/
 409              		.loc 1 616 179 is_stmt 1 view .LVU145
 618:Middlewares/Third_Party/LwIP/src/core/ipv4/ip4.c ****     /* packet not fully reassembled yet? */
 410              		.loc 1 618 5 view .LVU146
 618:Middlewares/Third_Party/LwIP/src/core/ipv4/ip4.c ****     /* packet not fully reassembled yet? */
 411              		.loc 1 618 9 is_stmt 0 view .LVU147
 412 00ec 2846     		mov	r0, r5
 413 00ee FFF7FEFF 		bl	ip4_reass
 414              	.LVL32:
 620:Middlewares/Third_Party/LwIP/src/core/ipv4/ip4.c ****       return ERR_OK;
 415              		.loc 1 620 5 is_stmt 1 view .LVU148
 620:Middlewares/Third_Party/LwIP/src/core/ipv4/ip4.c ****       return ERR_OK;
 416              		.loc 1 620 8 is_stmt 0 view .LVU149
 417 00f2 0546     		mov	r5, r0
 418 00f4 0028     		cmp	r0, #0
 419 00f6 8FD0     		beq	.L12
 623:Middlewares/Third_Party/LwIP/src/core/ipv4/ip4.c **** #else /* IP_REASSEMBLY == 0, no packet fragment reassembly code present */
 420              		.loc 1 623 5 is_stmt 1 view .LVU150
 623:Middlewares/Third_Party/LwIP/src/core/ipv4/ip4.c **** #else /* IP_REASSEMBLY == 0, no packet fragment reassembly code present */
 421              		.loc 1 623 11 is_stmt 0 view .LVU151
 422 00f8 D0F80480 		ldr	r8, [r0, #4]
 423              	.LVL33:
 424              	.L27:
 655:Middlewares/Third_Party/LwIP/src/core/ipv4/ip4.c ****   ip4_debug_print(p);
 425              		.loc 1 655 43 is_stmt 1 view .LVU152
 656:Middlewares/Third_Party/LwIP/src/core/ipv4/ip4.c ****   LWIP_DEBUGF(IP_DEBUG, ("ip4_input: p->len %"U16_F" p->tot_len %"U16_F"\n", p->len, p->tot_len));
 426              		.loc 1 656 21 view .LVU153
 657:Middlewares/Third_Party/LwIP/src/core/ipv4/ip4.c **** 
 427              		.loc 1 657 98 view .LVU154
 659:Middlewares/Third_Party/LwIP/src/core/ipv4/ip4.c ****   ip_data.current_input_netif = inp;
 428              		.loc 1 659 3 view .LVU155
 659:Middlewares/Third_Party/LwIP/src/core/ipv4/ip4.c ****   ip_data.current_input_netif = inp;
 429              		.loc 1 659 25 is_stmt 0 view .LVU156
ARM GAS  C:\Users\Nina\AppData\Local\Temp\ccc87nAg.s 			page 23


 430 00fc 334A     		ldr	r2, .L48
 431 00fe 1460     		str	r4, [r2]
 660:Middlewares/Third_Party/LwIP/src/core/ipv4/ip4.c ****   ip_data.current_ip4_header = iphdr;
 432              		.loc 1 660 3 is_stmt 1 view .LVU157
 660:Middlewares/Third_Party/LwIP/src/core/ipv4/ip4.c ****   ip_data.current_ip4_header = iphdr;
 433              		.loc 1 660 31 is_stmt 0 view .LVU158
 434 0100 5660     		str	r6, [r2, #4]
 661:Middlewares/Third_Party/LwIP/src/core/ipv4/ip4.c ****   ip_data.current_ip_header_tot_len = IPH_HL(iphdr) * 4;
 435              		.loc 1 661 3 is_stmt 1 view .LVU159
 661:Middlewares/Third_Party/LwIP/src/core/ipv4/ip4.c ****   ip_data.current_ip_header_tot_len = IPH_HL(iphdr) * 4;
 436              		.loc 1 661 30 is_stmt 0 view .LVU160
 437 0102 C2F80880 		str	r8, [r2, #8]
 662:Middlewares/Third_Party/LwIP/src/core/ipv4/ip4.c **** 
 438              		.loc 1 662 3 is_stmt 1 view .LVU161
 662:Middlewares/Third_Party/LwIP/src/core/ipv4/ip4.c **** 
 439              		.loc 1 662 39 is_stmt 0 view .LVU162
 440 0106 98F80030 		ldrb	r3, [r8]	@ zero_extendqisi2
 662:Middlewares/Third_Party/LwIP/src/core/ipv4/ip4.c **** 
 441              		.loc 1 662 37 view .LVU163
 442 010a 03F00F03 		and	r3, r3, #15
 443 010e 9B00     		lsls	r3, r3, #2
 444 0110 9381     		strh	r3, [r2, #12]	@ movhi
 669:Middlewares/Third_Party/LwIP/src/core/ipv4/ip4.c **** 
 445              		.loc 1 669 5 is_stmt 1 view .LVU164
 446 0112 7942     		rsbs	r1, r7, #0
 447 0114 2846     		mov	r0, r5
 448 0116 FFF7FEFF 		bl	pbuf_header
 449              	.LVL34:
 671:Middlewares/Third_Party/LwIP/src/core/ipv4/ip4.c **** #if LWIP_UDP
 450              		.loc 1 671 5 view .LVU165
 671:Middlewares/Third_Party/LwIP/src/core/ipv4/ip4.c **** #if LWIP_UDP
 451              		.loc 1 671 13 is_stmt 0 view .LVU166
 452 011a 98F80930 		ldrb	r3, [r8, #9]	@ zero_extendqisi2
 671:Middlewares/Third_Party/LwIP/src/core/ipv4/ip4.c **** #if LWIP_UDP
 453              		.loc 1 671 5 view .LVU167
 454 011e 062B     		cmp	r3, #6
 455 0120 3FD0     		beq	.L28
 671:Middlewares/Third_Party/LwIP/src/core/ipv4/ip4.c **** #if LWIP_UDP
 456              		.loc 1 671 5 view .LVU168
 457 0122 112B     		cmp	r3, #17
 458 0124 30D0     		beq	.L29
 459 0126 012B     		cmp	r3, #1
 460 0128 40D0     		beq	.L46
 701:Middlewares/Third_Party/LwIP/src/core/ipv4/ip4.c ****           !ip4_addr_ismulticast(ip4_current_dest_addr())) {
 461              		.loc 1 701 7 is_stmt 1 view .LVU169
 701:Middlewares/Third_Party/LwIP/src/core/ipv4/ip4.c ****           !ip4_addr_ismulticast(ip4_current_dest_addr())) {
 462              		.loc 1 701 12 is_stmt 0 view .LVU170
 463 012a 2146     		mov	r1, r4
 464 012c 274B     		ldr	r3, .L48
 465 012e 5869     		ldr	r0, [r3, #20]
 466 0130 FFF7FEFF 		bl	ip4_addr_isbroadcast_u32
 467              	.LVL35:
 701:Middlewares/Third_Party/LwIP/src/core/ipv4/ip4.c ****           !ip4_addr_ismulticast(ip4_current_dest_addr())) {
 468              		.loc 1 701 10 view .LVU171
 469 0134 28B9     		cbnz	r0, .L33
 702:Middlewares/Third_Party/LwIP/src/core/ipv4/ip4.c ****         pbuf_header_force(p, iphdr_hlen); /* Move to ip header, no check necessary. */
 470              		.loc 1 702 12 discriminator 1 view .LVU172
ARM GAS  C:\Users\Nina\AppData\Local\Temp\ccc87nAg.s 			page 24


 471 0136 254B     		ldr	r3, .L48
 472 0138 5B69     		ldr	r3, [r3, #20]
 473 013a 03F0F003 		and	r3, r3, #240
 701:Middlewares/Third_Party/LwIP/src/core/ipv4/ip4.c ****           !ip4_addr_ismulticast(ip4_current_dest_addr())) {
 474              		.loc 1 701 65 discriminator 1 view .LVU173
 475 013e E02B     		cmp	r3, #224
 476 0140 39D1     		bne	.L47
 477              	.L33:
 708:Middlewares/Third_Party/LwIP/src/core/ipv4/ip4.c **** 
 478              		.loc 1 708 7 is_stmt 1 view .LVU174
 479 0142 2846     		mov	r0, r5
 480 0144 FFF7FEFF 		bl	pbuf_free
 481              	.LVL36:
 482 0148 22E0     		b	.L32
 483              	.LVL37:
 484              	.L35:
 482:Middlewares/Third_Party/LwIP/src/core/ipv4/ip4.c ****     }
 485              		.loc 1 482 13 is_stmt 0 view .LVU175
 486 014a 0024     		movs	r4, #0
 487              	.L17:
 557:Middlewares/Third_Party/LwIP/src/core/ipv4/ip4.c ****       struct udp_hdr *udphdr = (struct udp_hdr *)((u8_t *)iphdr + iphdr_hlen);
 488              		.loc 1 557 5 is_stmt 1 view .LVU176
 557:Middlewares/Third_Party/LwIP/src/core/ipv4/ip4.c ****       struct udp_hdr *udphdr = (struct udp_hdr *)((u8_t *)iphdr + iphdr_hlen);
 489              		.loc 1 557 9 is_stmt 0 view .LVU177
 490 014c 98F80930 		ldrb	r3, [r8, #9]	@ zero_extendqisi2
 557:Middlewares/Third_Party/LwIP/src/core/ipv4/ip4.c ****       struct udp_hdr *udphdr = (struct udp_hdr *)((u8_t *)iphdr + iphdr_hlen);
 491              		.loc 1 557 8 view .LVU178
 492 0150 112B     		cmp	r3, #17
 493 0152 BFD1     		bne	.L23
 494              	.LBB5:
 558:Middlewares/Third_Party/LwIP/src/core/ipv4/ip4.c ****       LWIP_DEBUGF(IP_DEBUG | LWIP_DBG_TRACE, ("ip4_input: UDP packet to DHCP client port %"U16_F"\n
 495              		.loc 1 558 7 is_stmt 1 view .LVU179
 558:Middlewares/Third_Party/LwIP/src/core/ipv4/ip4.c ****       LWIP_DEBUGF(IP_DEBUG | LWIP_DBG_TRACE, ("ip4_input: UDP packet to DHCP client port %"U16_F"\n
 496              		.loc 1 558 23 is_stmt 0 view .LVU180
 497 0154 08EB0703 		add	r3, r8, r7
 498              	.LVL38:
 560:Middlewares/Third_Party/LwIP/src/core/ipv4/ip4.c ****       if (IP_ACCEPT_LINK_LAYER_ADDRESSED_PORT(udphdr->dest)) {
 499              		.loc 1 560 35 is_stmt 1 view .LVU181
 561:Middlewares/Third_Party/LwIP/src/core/ipv4/ip4.c ****         LWIP_DEBUGF(IP_DEBUG | LWIP_DBG_TRACE, ("ip4_input: DHCP packet accepted.\n"));
 500              		.loc 1 561 7 view .LVU182
 561:Middlewares/Third_Party/LwIP/src/core/ipv4/ip4.c ****         LWIP_DEBUGF(IP_DEBUG | LWIP_DBG_TRACE, ("ip4_input: DHCP packet accepted.\n"));
 501              		.loc 1 561 11 is_stmt 0 view .LVU183
 502 0158 5B88     		ldrh	r3, [r3, #2]	@ unaligned
 503              	.LVL39:
 561:Middlewares/Third_Party/LwIP/src/core/ipv4/ip4.c ****         LWIP_DEBUGF(IP_DEBUG | LWIP_DBG_TRACE, ("ip4_input: DHCP packet accepted.\n"));
 504              		.loc 1 561 10 view .LVU184
 505 015a B3F5884F 		cmp	r3, #17408
 506 015e B9D1     		bne	.L23
 563:Middlewares/Third_Party/LwIP/src/core/ipv4/ip4.c ****         check_ip_src = 0;
 507              		.loc 1 563 15 view .LVU185
 508 0160 3446     		mov	r4, r6
 509 0162 BBE7     		b	.L24
 510              	.LVL40:
 511              	.L44:
 563:Middlewares/Third_Party/LwIP/src/core/ipv4/ip4.c ****         check_ip_src = 0;
 512              		.loc 1 563 15 view .LVU186
 513              	.LBE5:
ARM GAS  C:\Users\Nina\AppData\Local\Temp\ccc87nAg.s 			page 25


 580:Middlewares/Third_Party/LwIP/src/core/ipv4/ip4.c ****         (ip4_addr_ismulticast(ip4_current_src_addr()))) {
 514              		.loc 1 580 5 is_stmt 1 view .LVU187
 580:Middlewares/Third_Party/LwIP/src/core/ipv4/ip4.c ****         (ip4_addr_ismulticast(ip4_current_src_addr()))) {
 515              		.loc 1 580 10 is_stmt 0 view .LVU188
 516 0164 3146     		mov	r1, r6
 517 0166 FFF7FEFF 		bl	ip4_addr_isbroadcast_u32
 518              	.LVL41:
 580:Middlewares/Third_Party/LwIP/src/core/ipv4/ip4.c ****         (ip4_addr_ismulticast(ip4_current_src_addr()))) {
 519              		.loc 1 580 8 view .LVU189
 520 016a 28B9     		cbnz	r0, .L25
 581:Middlewares/Third_Party/LwIP/src/core/ipv4/ip4.c ****       /* packet source is not valid */
 521              		.loc 1 581 10 discriminator 1 view .LVU190
 522 016c 174B     		ldr	r3, .L48
 523 016e 1B69     		ldr	r3, [r3, #16]
 524 0170 03F0F003 		and	r3, r3, #240
 580:Middlewares/Third_Party/LwIP/src/core/ipv4/ip4.c ****         (ip4_addr_ismulticast(ip4_current_src_addr()))) {
 525              		.loc 1 580 61 discriminator 1 view .LVU191
 526 0174 E02B     		cmp	r3, #224
 527 0176 B1D1     		bne	.L24
 528              	.L25:
 583:Middlewares/Third_Party/LwIP/src/core/ipv4/ip4.c ****       /* free (drop) packet pbufs */
 529              		.loc 1 583 116 is_stmt 1 view .LVU192
 585:Middlewares/Third_Party/LwIP/src/core/ipv4/ip4.c ****       IP_STATS_INC(ip.drop);
 530              		.loc 1 585 7 view .LVU193
 531 0178 2846     		mov	r0, r5
 532 017a FFF7FEFF 		bl	pbuf_free
 533              	.LVL42:
 586:Middlewares/Third_Party/LwIP/src/core/ipv4/ip4.c ****       MIB2_STATS_INC(mib2.ipinaddrerrors);
 534              		.loc 1 586 28 view .LVU194
 587:Middlewares/Third_Party/LwIP/src/core/ipv4/ip4.c ****       MIB2_STATS_INC(mib2.ipindiscards);
 535              		.loc 1 587 42 view .LVU195
 588:Middlewares/Third_Party/LwIP/src/core/ipv4/ip4.c ****       return ERR_OK;
 536              		.loc 1 588 40 view .LVU196
 589:Middlewares/Third_Party/LwIP/src/core/ipv4/ip4.c ****     }
 537              		.loc 1 589 7 view .LVU197
 589:Middlewares/Third_Party/LwIP/src/core/ipv4/ip4.c ****     }
 538              		.loc 1 589 14 is_stmt 0 view .LVU198
 539 017e 4BE7     		b	.L12
 540              	.L45:
 596:Middlewares/Third_Party/LwIP/src/core/ipv4/ip4.c **** #if IP_FORWARD
 541              		.loc 1 596 80 is_stmt 1 view .LVU199
 605:Middlewares/Third_Party/LwIP/src/core/ipv4/ip4.c ****       MIB2_STATS_INC(mib2.ipinaddrerrors);
 542              		.loc 1 605 28 view .LVU200
 606:Middlewares/Third_Party/LwIP/src/core/ipv4/ip4.c ****       MIB2_STATS_INC(mib2.ipindiscards);
 543              		.loc 1 606 42 view .LVU201
 607:Middlewares/Third_Party/LwIP/src/core/ipv4/ip4.c ****     }
 544              		.loc 1 607 40 view .LVU202
 609:Middlewares/Third_Party/LwIP/src/core/ipv4/ip4.c ****     return ERR_OK;
 545              		.loc 1 609 5 view .LVU203
 546 0180 2846     		mov	r0, r5
 547 0182 FFF7FEFF 		bl	pbuf_free
 548              	.LVL43:
 610:Middlewares/Third_Party/LwIP/src/core/ipv4/ip4.c ****   }
 549              		.loc 1 610 5 view .LVU204
 610:Middlewares/Third_Party/LwIP/src/core/ipv4/ip4.c ****   }
 550              		.loc 1 610 12 is_stmt 0 view .LVU205
 551 0186 47E7     		b	.L12
ARM GAS  C:\Users\Nina\AppData\Local\Temp\ccc87nAg.s 			page 26


 552              	.L29:
 677:Middlewares/Third_Party/LwIP/src/core/ipv4/ip4.c ****       udp_input(p, inp);
 553              		.loc 1 677 40 is_stmt 1 view .LVU206
 678:Middlewares/Third_Party/LwIP/src/core/ipv4/ip4.c ****       break;
 554              		.loc 1 678 7 view .LVU207
 555 0188 3146     		mov	r1, r6
 556 018a 2846     		mov	r0, r5
 557 018c FFF7FEFF 		bl	udp_input
 558              	.LVL44:
 679:Middlewares/Third_Party/LwIP/src/core/ipv4/ip4.c **** #endif /* LWIP_UDP */
 559              		.loc 1 679 7 view .LVU208
 560              	.L32:
 710:Middlewares/Third_Party/LwIP/src/core/ipv4/ip4.c **** 
 561              		.loc 1 710 125 view .LVU209
 712:Middlewares/Third_Party/LwIP/src/core/ipv4/ip4.c ****       IP_STATS_INC(ip.drop);
 562              		.loc 1 712 31 view .LVU210
 713:Middlewares/Third_Party/LwIP/src/core/ipv4/ip4.c ****       MIB2_STATS_INC(mib2.ipinunknownprotos);
 563              		.loc 1 713 28 view .LVU211
 714:Middlewares/Third_Party/LwIP/src/core/ipv4/ip4.c ****     }
 564              		.loc 1 714 45 view .LVU212
 719:Middlewares/Third_Party/LwIP/src/core/ipv4/ip4.c ****   ip_data.current_input_netif = NULL;
 565              		.loc 1 719 3 view .LVU213
 719:Middlewares/Third_Party/LwIP/src/core/ipv4/ip4.c ****   ip_data.current_input_netif = NULL;
 566              		.loc 1 719 25 is_stmt 0 view .LVU214
 567 0190 0E4B     		ldr	r3, .L48
 568 0192 0022     		movs	r2, #0
 569 0194 1A60     		str	r2, [r3]
 720:Middlewares/Third_Party/LwIP/src/core/ipv4/ip4.c ****   ip_data.current_ip4_header = NULL;
 570              		.loc 1 720 3 is_stmt 1 view .LVU215
 720:Middlewares/Third_Party/LwIP/src/core/ipv4/ip4.c ****   ip_data.current_ip4_header = NULL;
 571              		.loc 1 720 31 is_stmt 0 view .LVU216
 572 0196 5A60     		str	r2, [r3, #4]
 721:Middlewares/Third_Party/LwIP/src/core/ipv4/ip4.c ****   ip_data.current_ip_header_tot_len = 0;
 573              		.loc 1 721 3 is_stmt 1 view .LVU217
 721:Middlewares/Third_Party/LwIP/src/core/ipv4/ip4.c ****   ip_data.current_ip_header_tot_len = 0;
 574              		.loc 1 721 30 is_stmt 0 view .LVU218
 575 0198 9A60     		str	r2, [r3, #8]
 722:Middlewares/Third_Party/LwIP/src/core/ipv4/ip4.c ****   ip4_addr_set_any(ip4_current_src_addr());
 576              		.loc 1 722 3 is_stmt 1 view .LVU219
 722:Middlewares/Third_Party/LwIP/src/core/ipv4/ip4.c ****   ip4_addr_set_any(ip4_current_src_addr());
 577              		.loc 1 722 37 is_stmt 0 view .LVU220
 578 019a 9A81     		strh	r2, [r3, #12]	@ movhi
 723:Middlewares/Third_Party/LwIP/src/core/ipv4/ip4.c ****   ip4_addr_set_any(ip4_current_dest_addr());
 579              		.loc 1 723 3 is_stmt 1 view .LVU221
 580 019c 1A61     		str	r2, [r3, #16]
 724:Middlewares/Third_Party/LwIP/src/core/ipv4/ip4.c **** 
 581              		.loc 1 724 3 view .LVU222
 582 019e 5A61     		str	r2, [r3, #20]
 726:Middlewares/Third_Party/LwIP/src/core/ipv4/ip4.c **** }
 583              		.loc 1 726 3 view .LVU223
 726:Middlewares/Third_Party/LwIP/src/core/ipv4/ip4.c **** }
 584              		.loc 1 726 10 is_stmt 0 view .LVU224
 585 01a0 3AE7     		b	.L12
 586              	.L28:
 683:Middlewares/Third_Party/LwIP/src/core/ipv4/ip4.c ****       tcp_input(p, inp);
 587              		.loc 1 683 40 is_stmt 1 view .LVU225
 684:Middlewares/Third_Party/LwIP/src/core/ipv4/ip4.c ****       break;
ARM GAS  C:\Users\Nina\AppData\Local\Temp\ccc87nAg.s 			page 27


 588              		.loc 1 684 7 view .LVU226
 589 01a2 3146     		mov	r1, r6
 590 01a4 2846     		mov	r0, r5
 591 01a6 FFF7FEFF 		bl	tcp_input
 592              	.LVL45:
 685:Middlewares/Third_Party/LwIP/src/core/ipv4/ip4.c **** #endif /* LWIP_TCP */
 593              		.loc 1 685 7 view .LVU227
 594 01aa F1E7     		b	.L32
 595              	.L46:
 689:Middlewares/Third_Party/LwIP/src/core/ipv4/ip4.c ****       icmp_input(p, inp);
 596              		.loc 1 689 40 view .LVU228
 690:Middlewares/Third_Party/LwIP/src/core/ipv4/ip4.c ****       break;
 597              		.loc 1 690 7 view .LVU229
 598 01ac 3146     		mov	r1, r6
 599 01ae 2846     		mov	r0, r5
 600 01b0 FFF7FEFF 		bl	icmp_input
 601              	.LVL46:
 691:Middlewares/Third_Party/LwIP/src/core/ipv4/ip4.c **** #endif /* LWIP_ICMP */
 602              		.loc 1 691 7 view .LVU230
 603 01b4 ECE7     		b	.L32
 604              	.L47:
 703:Middlewares/Third_Party/LwIP/src/core/ipv4/ip4.c ****         p->payload = iphdr;
 605              		.loc 1 703 9 view .LVU231
 606 01b6 3946     		mov	r1, r7
 607 01b8 2846     		mov	r0, r5
 608 01ba FFF7FEFF 		bl	pbuf_header_force
 609              	.LVL47:
 704:Middlewares/Third_Party/LwIP/src/core/ipv4/ip4.c ****         icmp_dest_unreach(p, ICMP_DUR_PROTO);
 610              		.loc 1 704 9 view .LVU232
 704:Middlewares/Third_Party/LwIP/src/core/ipv4/ip4.c ****         icmp_dest_unreach(p, ICMP_DUR_PROTO);
 611              		.loc 1 704 20 is_stmt 0 view .LVU233
 612 01be C5F80480 		str	r8, [r5, #4]
 705:Middlewares/Third_Party/LwIP/src/core/ipv4/ip4.c ****       }
 613              		.loc 1 705 9 is_stmt 1 view .LVU234
 614 01c2 0221     		movs	r1, #2
 615 01c4 2846     		mov	r0, r5
 616 01c6 FFF7FEFF 		bl	icmp_dest_unreach
 617              	.LVL48:
 618 01ca BAE7     		b	.L33
 619              	.L49:
 620              		.align	2
 621              	.L48:
 622 01cc 00000000 		.word	ip_data
 623 01d0 00000000 		.word	netif_list
 624              		.cfi_endproc
 625              	.LFE161:
 627              		.section	.rodata.ip4_output_if_src.str1.4,"aMS",%progbits,1
 628              		.align	2
 629              	.LC0:
 630 0000 4D696464 		.ascii	"Middlewares/Third_Party/LwIP/src/core/ipv4/ip4.c\000"
 630      6C657761 
 630      7265732F 
 630      54686972 
 630      645F5061 
 631 0031 000000   		.align	2
 632              	.LC1:
 633 0034 702D3E72 		.ascii	"p->ref == 1\000"
ARM GAS  C:\Users\Nina\AppData\Local\Temp\ccc87nAg.s 			page 28


 633      6566203D 
 633      3D203100 
 634              		.align	2
 635              	.LC2:
 636 0040 41737365 		.ascii	"Assertion \"%s\" failed at line %d in %s\012\000"
 636      7274696F 
 636      6E202225 
 636      73222066 
 636      61696C65 
 637              		.align	2
 638              	.LC3:
 639 0068 63686563 		.ascii	"check that first pbuf can hold struct ip_hdr\000"
 639      6B207468 
 639      61742066 
 639      69727374 
 639      20706275 
 640              		.section	.text.ip4_output_if_src,"ax",%progbits
 641              		.align	1
 642              		.global	ip4_output_if_src
 643              		.syntax unified
 644              		.thumb
 645              		.thumb_func
 646              		.fpu fpv5-sp-d16
 648              	ip4_output_if_src:
 649              	.LVL49:
 650              	.LFB163:
 728:Middlewares/Third_Party/LwIP/src/core/ipv4/ip4.c **** 
 729:Middlewares/Third_Party/LwIP/src/core/ipv4/ip4.c **** /**
 730:Middlewares/Third_Party/LwIP/src/core/ipv4/ip4.c ****  * Sends an IP packet on a network interface. This function constructs
 731:Middlewares/Third_Party/LwIP/src/core/ipv4/ip4.c ****  * the IP header and calculates the IP header checksum. If the source
 732:Middlewares/Third_Party/LwIP/src/core/ipv4/ip4.c ****  * IP address is NULL, the IP address of the outgoing network
 733:Middlewares/Third_Party/LwIP/src/core/ipv4/ip4.c ****  * interface is filled in as source address.
 734:Middlewares/Third_Party/LwIP/src/core/ipv4/ip4.c ****  * If the destination IP address is LWIP_IP_HDRINCL, p is assumed to already
 735:Middlewares/Third_Party/LwIP/src/core/ipv4/ip4.c ****  * include an IP header and p->payload points to it instead of the data.
 736:Middlewares/Third_Party/LwIP/src/core/ipv4/ip4.c ****  *
 737:Middlewares/Third_Party/LwIP/src/core/ipv4/ip4.c ****  * @param p the packet to send (p->payload points to the data, e.g. next
 738:Middlewares/Third_Party/LwIP/src/core/ipv4/ip4.c ****             protocol header; if dest == LWIP_IP_HDRINCL, p already includes an
 739:Middlewares/Third_Party/LwIP/src/core/ipv4/ip4.c ****             IP header and p->payload points to that IP header)
 740:Middlewares/Third_Party/LwIP/src/core/ipv4/ip4.c ****  * @param src the source IP address to send from (if src == IP4_ADDR_ANY, the
 741:Middlewares/Third_Party/LwIP/src/core/ipv4/ip4.c ****  *         IP  address of the netif used to send is used as source address)
 742:Middlewares/Third_Party/LwIP/src/core/ipv4/ip4.c ****  * @param dest the destination IP address to send the packet to
 743:Middlewares/Third_Party/LwIP/src/core/ipv4/ip4.c ****  * @param ttl the TTL value to be set in the IP header
 744:Middlewares/Third_Party/LwIP/src/core/ipv4/ip4.c ****  * @param tos the TOS value to be set in the IP header
 745:Middlewares/Third_Party/LwIP/src/core/ipv4/ip4.c ****  * @param proto the PROTOCOL to be set in the IP header
 746:Middlewares/Third_Party/LwIP/src/core/ipv4/ip4.c ****  * @param netif the netif on which to send this packet
 747:Middlewares/Third_Party/LwIP/src/core/ipv4/ip4.c ****  * @return ERR_OK if the packet was sent OK
 748:Middlewares/Third_Party/LwIP/src/core/ipv4/ip4.c ****  *         ERR_BUF if p doesn't have enough space for IP/LINK headers
 749:Middlewares/Third_Party/LwIP/src/core/ipv4/ip4.c ****  *         returns errors returned by netif->output
 750:Middlewares/Third_Party/LwIP/src/core/ipv4/ip4.c ****  *
 751:Middlewares/Third_Party/LwIP/src/core/ipv4/ip4.c ****  * @note ip_id: RFC791 "some host may be able to simply use
 752:Middlewares/Third_Party/LwIP/src/core/ipv4/ip4.c ****  *  unique identifiers independent of destination"
 753:Middlewares/Third_Party/LwIP/src/core/ipv4/ip4.c ****  */
 754:Middlewares/Third_Party/LwIP/src/core/ipv4/ip4.c **** err_t
 755:Middlewares/Third_Party/LwIP/src/core/ipv4/ip4.c **** ip4_output_if(struct pbuf *p, const ip4_addr_t *src, const ip4_addr_t *dest,
 756:Middlewares/Third_Party/LwIP/src/core/ipv4/ip4.c ****              u8_t ttl, u8_t tos,
 757:Middlewares/Third_Party/LwIP/src/core/ipv4/ip4.c ****              u8_t proto, struct netif *netif)
 758:Middlewares/Third_Party/LwIP/src/core/ipv4/ip4.c **** {
ARM GAS  C:\Users\Nina\AppData\Local\Temp\ccc87nAg.s 			page 29


 759:Middlewares/Third_Party/LwIP/src/core/ipv4/ip4.c **** #if IP_OPTIONS_SEND
 760:Middlewares/Third_Party/LwIP/src/core/ipv4/ip4.c ****   return ip4_output_if_opt(p, src, dest, ttl, tos, proto, netif, NULL, 0);
 761:Middlewares/Third_Party/LwIP/src/core/ipv4/ip4.c **** }
 762:Middlewares/Third_Party/LwIP/src/core/ipv4/ip4.c **** 
 763:Middlewares/Third_Party/LwIP/src/core/ipv4/ip4.c **** /**
 764:Middlewares/Third_Party/LwIP/src/core/ipv4/ip4.c ****  * Same as ip_output_if() but with the possibility to include IP options:
 765:Middlewares/Third_Party/LwIP/src/core/ipv4/ip4.c ****  *
 766:Middlewares/Third_Party/LwIP/src/core/ipv4/ip4.c ****  * @ param ip_options pointer to the IP options, copied into the IP header
 767:Middlewares/Third_Party/LwIP/src/core/ipv4/ip4.c ****  * @ param optlen length of ip_options
 768:Middlewares/Third_Party/LwIP/src/core/ipv4/ip4.c ****  */
 769:Middlewares/Third_Party/LwIP/src/core/ipv4/ip4.c **** err_t
 770:Middlewares/Third_Party/LwIP/src/core/ipv4/ip4.c **** ip4_output_if_opt(struct pbuf *p, const ip4_addr_t *src, const ip4_addr_t *dest,
 771:Middlewares/Third_Party/LwIP/src/core/ipv4/ip4.c ****        u8_t ttl, u8_t tos, u8_t proto, struct netif *netif, void *ip_options,
 772:Middlewares/Third_Party/LwIP/src/core/ipv4/ip4.c ****        u16_t optlen)
 773:Middlewares/Third_Party/LwIP/src/core/ipv4/ip4.c **** {
 774:Middlewares/Third_Party/LwIP/src/core/ipv4/ip4.c **** #endif /* IP_OPTIONS_SEND */
 775:Middlewares/Third_Party/LwIP/src/core/ipv4/ip4.c ****   const ip4_addr_t *src_used = src;
 776:Middlewares/Third_Party/LwIP/src/core/ipv4/ip4.c ****   if (dest != LWIP_IP_HDRINCL) {
 777:Middlewares/Third_Party/LwIP/src/core/ipv4/ip4.c ****     if (ip4_addr_isany(src)) {
 778:Middlewares/Third_Party/LwIP/src/core/ipv4/ip4.c ****       src_used = netif_ip4_addr(netif);
 779:Middlewares/Third_Party/LwIP/src/core/ipv4/ip4.c ****     }
 780:Middlewares/Third_Party/LwIP/src/core/ipv4/ip4.c ****   }
 781:Middlewares/Third_Party/LwIP/src/core/ipv4/ip4.c **** 
 782:Middlewares/Third_Party/LwIP/src/core/ipv4/ip4.c **** #if IP_OPTIONS_SEND
 783:Middlewares/Third_Party/LwIP/src/core/ipv4/ip4.c ****   return ip4_output_if_opt_src(p, src_used, dest, ttl, tos, proto, netif,
 784:Middlewares/Third_Party/LwIP/src/core/ipv4/ip4.c ****     ip_options, optlen);
 785:Middlewares/Third_Party/LwIP/src/core/ipv4/ip4.c **** #else /* IP_OPTIONS_SEND */
 786:Middlewares/Third_Party/LwIP/src/core/ipv4/ip4.c ****   return ip4_output_if_src(p, src_used, dest, ttl, tos, proto, netif);
 787:Middlewares/Third_Party/LwIP/src/core/ipv4/ip4.c **** #endif /* IP_OPTIONS_SEND */
 788:Middlewares/Third_Party/LwIP/src/core/ipv4/ip4.c **** }
 789:Middlewares/Third_Party/LwIP/src/core/ipv4/ip4.c **** 
 790:Middlewares/Third_Party/LwIP/src/core/ipv4/ip4.c **** /**
 791:Middlewares/Third_Party/LwIP/src/core/ipv4/ip4.c ****  * Same as ip_output_if() but 'src' address is not replaced by netif address
 792:Middlewares/Third_Party/LwIP/src/core/ipv4/ip4.c ****  * when it is 'any'.
 793:Middlewares/Third_Party/LwIP/src/core/ipv4/ip4.c ****  */
 794:Middlewares/Third_Party/LwIP/src/core/ipv4/ip4.c **** err_t
 795:Middlewares/Third_Party/LwIP/src/core/ipv4/ip4.c **** ip4_output_if_src(struct pbuf *p, const ip4_addr_t *src, const ip4_addr_t *dest,
 796:Middlewares/Third_Party/LwIP/src/core/ipv4/ip4.c ****              u8_t ttl, u8_t tos,
 797:Middlewares/Third_Party/LwIP/src/core/ipv4/ip4.c ****              u8_t proto, struct netif *netif)
 798:Middlewares/Third_Party/LwIP/src/core/ipv4/ip4.c **** {
 651              		.loc 1 798 1 view -0
 652              		.cfi_startproc
 653              		@ args = 12, pretend = 0, frame = 8
 654              		@ frame_needed = 0, uses_anonymous_args = 0
 655              		.loc 1 798 1 is_stmt 0 view .LVU236
 656 0000 2DE9F043 		push	{r4, r5, r6, r7, r8, r9, lr}
 657              	.LCFI3:
 658              		.cfi_def_cfa_offset 28
 659              		.cfi_offset 4, -28
 660              		.cfi_offset 5, -24
 661              		.cfi_offset 6, -20
 662              		.cfi_offset 7, -16
 663              		.cfi_offset 8, -12
 664              		.cfi_offset 9, -8
 665              		.cfi_offset 14, -4
 666 0004 83B0     		sub	sp, sp, #12
 667              	.LCFI4:
ARM GAS  C:\Users\Nina\AppData\Local\Temp\ccc87nAg.s 			page 30


 668              		.cfi_def_cfa_offset 40
 669 0006 0446     		mov	r4, r0
 670 0008 0F46     		mov	r7, r1
 671 000a 1646     		mov	r6, r2
 672 000c 9946     		mov	r9, r3
 673 000e DDF83080 		ldr	r8, [sp, #48]
 799:Middlewares/Third_Party/LwIP/src/core/ipv4/ip4.c **** #if IP_OPTIONS_SEND
 800:Middlewares/Third_Party/LwIP/src/core/ipv4/ip4.c ****   return ip4_output_if_opt_src(p, src, dest, ttl, tos, proto, netif, NULL, 0);
 801:Middlewares/Third_Party/LwIP/src/core/ipv4/ip4.c **** }
 802:Middlewares/Third_Party/LwIP/src/core/ipv4/ip4.c **** 
 803:Middlewares/Third_Party/LwIP/src/core/ipv4/ip4.c **** /**
 804:Middlewares/Third_Party/LwIP/src/core/ipv4/ip4.c ****  * Same as ip_output_if_opt() but 'src' address is not replaced by netif address
 805:Middlewares/Third_Party/LwIP/src/core/ipv4/ip4.c ****  * when it is 'any'.
 806:Middlewares/Third_Party/LwIP/src/core/ipv4/ip4.c ****  */
 807:Middlewares/Third_Party/LwIP/src/core/ipv4/ip4.c **** err_t
 808:Middlewares/Third_Party/LwIP/src/core/ipv4/ip4.c **** ip4_output_if_opt_src(struct pbuf *p, const ip4_addr_t *src, const ip4_addr_t *dest,
 809:Middlewares/Third_Party/LwIP/src/core/ipv4/ip4.c ****        u8_t ttl, u8_t tos, u8_t proto, struct netif *netif, void *ip_options,
 810:Middlewares/Third_Party/LwIP/src/core/ipv4/ip4.c ****        u16_t optlen)
 811:Middlewares/Third_Party/LwIP/src/core/ipv4/ip4.c **** {
 812:Middlewares/Third_Party/LwIP/src/core/ipv4/ip4.c **** #endif /* IP_OPTIONS_SEND */
 813:Middlewares/Third_Party/LwIP/src/core/ipv4/ip4.c ****   struct ip_hdr *iphdr;
 674              		.loc 1 813 3 is_stmt 1 view .LVU237
 814:Middlewares/Third_Party/LwIP/src/core/ipv4/ip4.c ****   ip4_addr_t dest_addr;
 675              		.loc 1 814 3 view .LVU238
 815:Middlewares/Third_Party/LwIP/src/core/ipv4/ip4.c **** #if CHECKSUM_GEN_IP_INLINE
 816:Middlewares/Third_Party/LwIP/src/core/ipv4/ip4.c ****   u32_t chk_sum = 0;
 817:Middlewares/Third_Party/LwIP/src/core/ipv4/ip4.c **** #endif /* CHECKSUM_GEN_IP_INLINE */
 818:Middlewares/Third_Party/LwIP/src/core/ipv4/ip4.c **** 
 819:Middlewares/Third_Party/LwIP/src/core/ipv4/ip4.c ****   LWIP_IP_CHECK_PBUF_REF_COUNT_FOR_TX(p);
 676              		.loc 1 819 3 view .LVU239
 677              		.loc 1 819 3 view .LVU240
 678 0012 C289     		ldrh	r2, [r0, #14]
 679              	.LVL50:
 680              		.loc 1 819 3 is_stmt 0 view .LVU241
 681 0014 012A     		cmp	r2, #1
 682 0016 3FD1     		bne	.L61
 683              	.LVL51:
 684              	.L51:
 685              		.loc 1 819 3 is_stmt 1 discriminator 3 view .LVU242
 686              		.loc 1 819 3 discriminator 3 view .LVU243
 820:Middlewares/Third_Party/LwIP/src/core/ipv4/ip4.c **** 
 821:Middlewares/Third_Party/LwIP/src/core/ipv4/ip4.c ****   MIB2_STATS_INC(mib2.ipoutrequests);
 687              		.loc 1 821 37 discriminator 3 view .LVU244
 822:Middlewares/Third_Party/LwIP/src/core/ipv4/ip4.c **** 
 823:Middlewares/Third_Party/LwIP/src/core/ipv4/ip4.c ****   /* Should the IP header be generated or is it already included in p? */
 824:Middlewares/Third_Party/LwIP/src/core/ipv4/ip4.c ****   if (dest != LWIP_IP_HDRINCL) {
 688              		.loc 1 824 3 discriminator 3 view .LVU245
 689              		.loc 1 824 6 is_stmt 0 discriminator 3 view .LVU246
 690 0018 002E     		cmp	r6, #0
 691 001a 51D0     		beq	.L52
 692              	.LBB6:
 825:Middlewares/Third_Party/LwIP/src/core/ipv4/ip4.c ****     u16_t ip_hlen = IP_HLEN;
 693              		.loc 1 825 5 is_stmt 1 view .LVU247
 694              	.LVL52:
 826:Middlewares/Third_Party/LwIP/src/core/ipv4/ip4.c **** #if IP_OPTIONS_SEND
 827:Middlewares/Third_Party/LwIP/src/core/ipv4/ip4.c ****     u16_t optlen_aligned = 0;
 828:Middlewares/Third_Party/LwIP/src/core/ipv4/ip4.c ****     if (optlen != 0) {
ARM GAS  C:\Users\Nina\AppData\Local\Temp\ccc87nAg.s 			page 31


 829:Middlewares/Third_Party/LwIP/src/core/ipv4/ip4.c **** #if CHECKSUM_GEN_IP_INLINE
 830:Middlewares/Third_Party/LwIP/src/core/ipv4/ip4.c ****       int i;
 831:Middlewares/Third_Party/LwIP/src/core/ipv4/ip4.c **** #endif /* CHECKSUM_GEN_IP_INLINE */
 832:Middlewares/Third_Party/LwIP/src/core/ipv4/ip4.c ****       /* round up to a multiple of 4 */
 833:Middlewares/Third_Party/LwIP/src/core/ipv4/ip4.c ****       optlen_aligned = ((optlen + 3) & ~3);
 834:Middlewares/Third_Party/LwIP/src/core/ipv4/ip4.c ****       ip_hlen += optlen_aligned;
 835:Middlewares/Third_Party/LwIP/src/core/ipv4/ip4.c ****       /* First write in the IP options */
 836:Middlewares/Third_Party/LwIP/src/core/ipv4/ip4.c ****       if (pbuf_header(p, optlen_aligned)) {
 837:Middlewares/Third_Party/LwIP/src/core/ipv4/ip4.c ****         LWIP_DEBUGF(IP_DEBUG | LWIP_DBG_LEVEL_SERIOUS, ("ip4_output_if_opt: not enough room for IP 
 838:Middlewares/Third_Party/LwIP/src/core/ipv4/ip4.c ****         IP_STATS_INC(ip.err);
 839:Middlewares/Third_Party/LwIP/src/core/ipv4/ip4.c ****         MIB2_STATS_INC(mib2.ipoutdiscards);
 840:Middlewares/Third_Party/LwIP/src/core/ipv4/ip4.c ****         return ERR_BUF;
 841:Middlewares/Third_Party/LwIP/src/core/ipv4/ip4.c ****       }
 842:Middlewares/Third_Party/LwIP/src/core/ipv4/ip4.c ****       MEMCPY(p->payload, ip_options, optlen);
 843:Middlewares/Third_Party/LwIP/src/core/ipv4/ip4.c ****       if (optlen < optlen_aligned) {
 844:Middlewares/Third_Party/LwIP/src/core/ipv4/ip4.c ****         /* zero the remaining bytes */
 845:Middlewares/Third_Party/LwIP/src/core/ipv4/ip4.c ****         memset(((char*)p->payload) + optlen, 0, optlen_aligned - optlen);
 846:Middlewares/Third_Party/LwIP/src/core/ipv4/ip4.c ****       }
 847:Middlewares/Third_Party/LwIP/src/core/ipv4/ip4.c **** #if CHECKSUM_GEN_IP_INLINE
 848:Middlewares/Third_Party/LwIP/src/core/ipv4/ip4.c ****       for (i = 0; i < optlen_aligned/2; i++) {
 849:Middlewares/Third_Party/LwIP/src/core/ipv4/ip4.c ****         chk_sum += ((u16_t*)p->payload)[i];
 850:Middlewares/Third_Party/LwIP/src/core/ipv4/ip4.c ****       }
 851:Middlewares/Third_Party/LwIP/src/core/ipv4/ip4.c **** #endif /* CHECKSUM_GEN_IP_INLINE */
 852:Middlewares/Third_Party/LwIP/src/core/ipv4/ip4.c ****     }
 853:Middlewares/Third_Party/LwIP/src/core/ipv4/ip4.c **** #endif /* IP_OPTIONS_SEND */
 854:Middlewares/Third_Party/LwIP/src/core/ipv4/ip4.c ****     /* generate IP header */
 855:Middlewares/Third_Party/LwIP/src/core/ipv4/ip4.c ****     if (pbuf_header(p, IP_HLEN)) {
 695              		.loc 1 855 5 view .LVU248
 696              		.loc 1 855 9 is_stmt 0 view .LVU249
 697 001c 1421     		movs	r1, #20
 698 001e 2046     		mov	r0, r4
 699 0020 FFF7FEFF 		bl	pbuf_header
 700              	.LVL53:
 701              		.loc 1 855 8 view .LVU250
 702 0024 0028     		cmp	r0, #0
 703 0026 56D1     		bne	.L59
 856:Middlewares/Third_Party/LwIP/src/core/ipv4/ip4.c ****       LWIP_DEBUGF(IP_DEBUG | LWIP_DBG_LEVEL_SERIOUS, ("ip4_output: not enough room for IP header in
 857:Middlewares/Third_Party/LwIP/src/core/ipv4/ip4.c **** 
 858:Middlewares/Third_Party/LwIP/src/core/ipv4/ip4.c ****       IP_STATS_INC(ip.err);
 859:Middlewares/Third_Party/LwIP/src/core/ipv4/ip4.c ****       MIB2_STATS_INC(mib2.ipoutdiscards);
 860:Middlewares/Third_Party/LwIP/src/core/ipv4/ip4.c ****       return ERR_BUF;
 861:Middlewares/Third_Party/LwIP/src/core/ipv4/ip4.c ****     }
 862:Middlewares/Third_Party/LwIP/src/core/ipv4/ip4.c **** 
 863:Middlewares/Third_Party/LwIP/src/core/ipv4/ip4.c ****     iphdr = (struct ip_hdr *)p->payload;
 704              		.loc 1 863 5 is_stmt 1 view .LVU251
 705              		.loc 1 863 11 is_stmt 0 view .LVU252
 706 0028 6568     		ldr	r5, [r4, #4]
 707              	.LVL54:
 864:Middlewares/Third_Party/LwIP/src/core/ipv4/ip4.c ****     LWIP_ASSERT("check that first pbuf can hold struct ip_hdr",
 708              		.loc 1 864 5 is_stmt 1 view .LVU253
 709              		.loc 1 864 5 view .LVU254
 710 002a 6389     		ldrh	r3, [r4, #10]
 711 002c 132B     		cmp	r3, #19
 712 002e 3BD9     		bls	.L62
 713              	.L54:
 714              		.loc 1 864 5 discriminator 3 view .LVU255
 715              		.loc 1 864 5 discriminator 3 view .LVU256
ARM GAS  C:\Users\Nina\AppData\Local\Temp\ccc87nAg.s 			page 32


 865:Middlewares/Third_Party/LwIP/src/core/ipv4/ip4.c ****                (p->len >= sizeof(struct ip_hdr)));
 866:Middlewares/Third_Party/LwIP/src/core/ipv4/ip4.c **** 
 867:Middlewares/Third_Party/LwIP/src/core/ipv4/ip4.c ****     IPH_TTL_SET(iphdr, ttl);
 716              		.loc 1 867 5 discriminator 3 view .LVU257
 717 0030 85F80890 		strb	r9, [r5, #8]
 868:Middlewares/Third_Party/LwIP/src/core/ipv4/ip4.c ****     IPH_PROTO_SET(iphdr, proto);
 718              		.loc 1 868 5 discriminator 3 view .LVU258
 719 0034 9DF82C30 		ldrb	r3, [sp, #44]	@ zero_extendqisi2
 720 0038 6B72     		strb	r3, [r5, #9]
 869:Middlewares/Third_Party/LwIP/src/core/ipv4/ip4.c **** #if CHECKSUM_GEN_IP_INLINE
 870:Middlewares/Third_Party/LwIP/src/core/ipv4/ip4.c ****     chk_sum += PP_NTOHS(proto | (ttl << 8));
 871:Middlewares/Third_Party/LwIP/src/core/ipv4/ip4.c **** #endif /* CHECKSUM_GEN_IP_INLINE */
 872:Middlewares/Third_Party/LwIP/src/core/ipv4/ip4.c **** 
 873:Middlewares/Third_Party/LwIP/src/core/ipv4/ip4.c ****     /* dest cannot be NULL here */
 874:Middlewares/Third_Party/LwIP/src/core/ipv4/ip4.c ****     ip4_addr_copy(iphdr->dest, *dest);
 721              		.loc 1 874 5 discriminator 3 view .LVU259
 722 003a 3368     		ldr	r3, [r6]
 723 003c 2B61     		str	r3, [r5, #16]	@ unaligned
 875:Middlewares/Third_Party/LwIP/src/core/ipv4/ip4.c **** #if CHECKSUM_GEN_IP_INLINE
 876:Middlewares/Third_Party/LwIP/src/core/ipv4/ip4.c ****     chk_sum += ip4_addr_get_u32(&iphdr->dest) & 0xFFFF;
 877:Middlewares/Third_Party/LwIP/src/core/ipv4/ip4.c ****     chk_sum += ip4_addr_get_u32(&iphdr->dest) >> 16;
 878:Middlewares/Third_Party/LwIP/src/core/ipv4/ip4.c **** #endif /* CHECKSUM_GEN_IP_INLINE */
 879:Middlewares/Third_Party/LwIP/src/core/ipv4/ip4.c **** 
 880:Middlewares/Third_Party/LwIP/src/core/ipv4/ip4.c ****     IPH_VHL_SET(iphdr, 4, ip_hlen / 4);
 724              		.loc 1 880 5 discriminator 3 view .LVU260
 725 003e 4523     		movs	r3, #69
 726 0040 2B70     		strb	r3, [r5]
 881:Middlewares/Third_Party/LwIP/src/core/ipv4/ip4.c ****     IPH_TOS_SET(iphdr, tos);
 727              		.loc 1 881 5 discriminator 3 view .LVU261
 728 0042 9DF82830 		ldrb	r3, [sp, #40]	@ zero_extendqisi2
 729 0046 6B70     		strb	r3, [r5, #1]
 882:Middlewares/Third_Party/LwIP/src/core/ipv4/ip4.c **** #if CHECKSUM_GEN_IP_INLINE
 883:Middlewares/Third_Party/LwIP/src/core/ipv4/ip4.c ****     chk_sum += PP_NTOHS(tos | (iphdr->_v_hl << 8));
 884:Middlewares/Third_Party/LwIP/src/core/ipv4/ip4.c **** #endif /* CHECKSUM_GEN_IP_INLINE */
 885:Middlewares/Third_Party/LwIP/src/core/ipv4/ip4.c ****     IPH_LEN_SET(iphdr, lwip_htons(p->tot_len));
 730              		.loc 1 885 5 discriminator 3 view .LVU262
 731 0048 2089     		ldrh	r0, [r4, #8]
 732 004a FFF7FEFF 		bl	lwip_htons
 733              	.LVL55:
 734 004e 6880     		strh	r0, [r5, #2]	@ unaligned
 886:Middlewares/Third_Party/LwIP/src/core/ipv4/ip4.c **** #if CHECKSUM_GEN_IP_INLINE
 887:Middlewares/Third_Party/LwIP/src/core/ipv4/ip4.c ****     chk_sum += iphdr->_len;
 888:Middlewares/Third_Party/LwIP/src/core/ipv4/ip4.c **** #endif /* CHECKSUM_GEN_IP_INLINE */
 889:Middlewares/Third_Party/LwIP/src/core/ipv4/ip4.c ****     IPH_OFFSET_SET(iphdr, 0);
 735              		.loc 1 889 5 discriminator 3 view .LVU263
 736 0050 0023     		movs	r3, #0
 737 0052 AB71     		strb	r3, [r5, #6]
 738 0054 EB71     		strb	r3, [r5, #7]
 890:Middlewares/Third_Party/LwIP/src/core/ipv4/ip4.c ****     IPH_ID_SET(iphdr, lwip_htons(ip_id));
 739              		.loc 1 890 5 discriminator 3 view .LVU264
 740 0056 DFF89890 		ldr	r9, .L65+20
 741 005a B9F80000 		ldrh	r0, [r9]
 742 005e FFF7FEFF 		bl	lwip_htons
 743              	.LVL56:
 744 0062 A880     		strh	r0, [r5, #4]	@ unaligned
 891:Middlewares/Third_Party/LwIP/src/core/ipv4/ip4.c **** #if CHECKSUM_GEN_IP_INLINE
 892:Middlewares/Third_Party/LwIP/src/core/ipv4/ip4.c ****     chk_sum += iphdr->_id;
ARM GAS  C:\Users\Nina\AppData\Local\Temp\ccc87nAg.s 			page 33


 893:Middlewares/Third_Party/LwIP/src/core/ipv4/ip4.c **** #endif /* CHECKSUM_GEN_IP_INLINE */
 894:Middlewares/Third_Party/LwIP/src/core/ipv4/ip4.c ****     ++ip_id;
 745              		.loc 1 894 5 discriminator 3 view .LVU265
 746 0064 B9F80030 		ldrh	r3, [r9]
 747 0068 0133     		adds	r3, r3, #1
 748 006a A9F80030 		strh	r3, [r9]	@ movhi
 895:Middlewares/Third_Party/LwIP/src/core/ipv4/ip4.c **** 
 896:Middlewares/Third_Party/LwIP/src/core/ipv4/ip4.c ****     if (src == NULL) {
 749              		.loc 1 896 5 discriminator 3 view .LVU266
 750              		.loc 1 896 8 is_stmt 0 discriminator 3 view .LVU267
 751 006e 1FB3     		cbz	r7, .L63
 897:Middlewares/Third_Party/LwIP/src/core/ipv4/ip4.c ****       ip4_addr_copy(iphdr->src, *IP4_ADDR_ANY4);
 898:Middlewares/Third_Party/LwIP/src/core/ipv4/ip4.c ****     } else {
 899:Middlewares/Third_Party/LwIP/src/core/ipv4/ip4.c ****       /* src cannot be NULL here */
 900:Middlewares/Third_Party/LwIP/src/core/ipv4/ip4.c ****       ip4_addr_copy(iphdr->src, *src);
 752              		.loc 1 900 7 is_stmt 1 view .LVU268
 753 0070 3B68     		ldr	r3, [r7]
 754 0072 EB60     		str	r3, [r5, #12]	@ unaligned
 755              	.L56:
 901:Middlewares/Third_Party/LwIP/src/core/ipv4/ip4.c ****     }
 902:Middlewares/Third_Party/LwIP/src/core/ipv4/ip4.c **** 
 903:Middlewares/Third_Party/LwIP/src/core/ipv4/ip4.c **** #if CHECKSUM_GEN_IP_INLINE
 904:Middlewares/Third_Party/LwIP/src/core/ipv4/ip4.c ****     chk_sum += ip4_addr_get_u32(&iphdr->src) & 0xFFFF;
 905:Middlewares/Third_Party/LwIP/src/core/ipv4/ip4.c ****     chk_sum += ip4_addr_get_u32(&iphdr->src) >> 16;
 906:Middlewares/Third_Party/LwIP/src/core/ipv4/ip4.c ****     chk_sum = (chk_sum >> 16) + (chk_sum & 0xFFFF);
 907:Middlewares/Third_Party/LwIP/src/core/ipv4/ip4.c ****     chk_sum = (chk_sum >> 16) + chk_sum;
 908:Middlewares/Third_Party/LwIP/src/core/ipv4/ip4.c ****     chk_sum = ~chk_sum;
 909:Middlewares/Third_Party/LwIP/src/core/ipv4/ip4.c ****     IF__NETIF_CHECKSUM_ENABLED(netif, NETIF_CHECKSUM_GEN_IP) {
 910:Middlewares/Third_Party/LwIP/src/core/ipv4/ip4.c ****       iphdr->_chksum = (u16_t)chk_sum; /* network order */
 911:Middlewares/Third_Party/LwIP/src/core/ipv4/ip4.c ****     }
 912:Middlewares/Third_Party/LwIP/src/core/ipv4/ip4.c **** #if LWIP_CHECKSUM_CTRL_PER_NETIF
 913:Middlewares/Third_Party/LwIP/src/core/ipv4/ip4.c ****     else {
 914:Middlewares/Third_Party/LwIP/src/core/ipv4/ip4.c ****       IPH_CHKSUM_SET(iphdr, 0);
 915:Middlewares/Third_Party/LwIP/src/core/ipv4/ip4.c ****     }
 916:Middlewares/Third_Party/LwIP/src/core/ipv4/ip4.c **** #endif /* LWIP_CHECKSUM_CTRL_PER_NETIF*/
 917:Middlewares/Third_Party/LwIP/src/core/ipv4/ip4.c **** #else /* CHECKSUM_GEN_IP_INLINE */
 918:Middlewares/Third_Party/LwIP/src/core/ipv4/ip4.c ****     IPH_CHKSUM_SET(iphdr, 0);
 756              		.loc 1 918 5 view .LVU269
 757 0074 0023     		movs	r3, #0
 758 0076 AB72     		strb	r3, [r5, #10]
 759 0078 EB72     		strb	r3, [r5, #11]
 760              	.LVL57:
 761              	.L57:
 762              		.loc 1 918 5 is_stmt 0 view .LVU270
 763              	.LBE6:
 919:Middlewares/Third_Party/LwIP/src/core/ipv4/ip4.c **** #if CHECKSUM_GEN_IP
 920:Middlewares/Third_Party/LwIP/src/core/ipv4/ip4.c ****     IF__NETIF_CHECKSUM_ENABLED(netif, NETIF_CHECKSUM_GEN_IP) {
 921:Middlewares/Third_Party/LwIP/src/core/ipv4/ip4.c ****       IPH_CHKSUM_SET(iphdr, inet_chksum(iphdr, ip_hlen));
 922:Middlewares/Third_Party/LwIP/src/core/ipv4/ip4.c ****     }
 923:Middlewares/Third_Party/LwIP/src/core/ipv4/ip4.c **** #endif /* CHECKSUM_GEN_IP */
 924:Middlewares/Third_Party/LwIP/src/core/ipv4/ip4.c **** #endif /* CHECKSUM_GEN_IP_INLINE */
 925:Middlewares/Third_Party/LwIP/src/core/ipv4/ip4.c ****   } else {
 926:Middlewares/Third_Party/LwIP/src/core/ipv4/ip4.c ****     /* IP header already included in p */
 927:Middlewares/Third_Party/LwIP/src/core/ipv4/ip4.c ****     iphdr = (struct ip_hdr *)p->payload;
 928:Middlewares/Third_Party/LwIP/src/core/ipv4/ip4.c ****     ip4_addr_copy(dest_addr, iphdr->dest);
 929:Middlewares/Third_Party/LwIP/src/core/ipv4/ip4.c ****     dest = &dest_addr;
 930:Middlewares/Third_Party/LwIP/src/core/ipv4/ip4.c ****   }
ARM GAS  C:\Users\Nina\AppData\Local\Temp\ccc87nAg.s 			page 34


 931:Middlewares/Third_Party/LwIP/src/core/ipv4/ip4.c **** 
 932:Middlewares/Third_Party/LwIP/src/core/ipv4/ip4.c ****   IP_STATS_INC(ip.xmit);
 764              		.loc 1 932 24 is_stmt 1 view .LVU271
 933:Middlewares/Third_Party/LwIP/src/core/ipv4/ip4.c **** 
 934:Middlewares/Third_Party/LwIP/src/core/ipv4/ip4.c ****   LWIP_DEBUGF(IP_DEBUG, ("ip4_output_if: %c%c%"U16_F"\n", netif->name[0], netif->name[1], (u16_t)ne
 765              		.loc 1 934 110 view .LVU272
 935:Middlewares/Third_Party/LwIP/src/core/ipv4/ip4.c ****   ip4_debug_print(p);
 766              		.loc 1 935 21 view .LVU273
 936:Middlewares/Third_Party/LwIP/src/core/ipv4/ip4.c **** 
 937:Middlewares/Third_Party/LwIP/src/core/ipv4/ip4.c **** #if ENABLE_LOOPBACK
 938:Middlewares/Third_Party/LwIP/src/core/ipv4/ip4.c ****   if (ip4_addr_cmp(dest, netif_ip4_addr(netif))
 939:Middlewares/Third_Party/LwIP/src/core/ipv4/ip4.c **** #if !LWIP_HAVE_LOOPIF
 940:Middlewares/Third_Party/LwIP/src/core/ipv4/ip4.c ****       || ip4_addr_isloopback(dest)
 941:Middlewares/Third_Party/LwIP/src/core/ipv4/ip4.c **** #endif /* !LWIP_HAVE_LOOPIF */
 942:Middlewares/Third_Party/LwIP/src/core/ipv4/ip4.c ****       ) {
 943:Middlewares/Third_Party/LwIP/src/core/ipv4/ip4.c ****     /* Packet to self, enqueue it for loopback */
 944:Middlewares/Third_Party/LwIP/src/core/ipv4/ip4.c ****     LWIP_DEBUGF(IP_DEBUG, ("netif_loop_output()"));
 945:Middlewares/Third_Party/LwIP/src/core/ipv4/ip4.c ****     return netif_loop_output(netif, p);
 946:Middlewares/Third_Party/LwIP/src/core/ipv4/ip4.c ****   }
 947:Middlewares/Third_Party/LwIP/src/core/ipv4/ip4.c **** #if LWIP_MULTICAST_TX_OPTIONS
 948:Middlewares/Third_Party/LwIP/src/core/ipv4/ip4.c ****   if ((p->flags & PBUF_FLAG_MCASTLOOP) != 0) {
 949:Middlewares/Third_Party/LwIP/src/core/ipv4/ip4.c ****     netif_loop_output(netif, p);
 950:Middlewares/Third_Party/LwIP/src/core/ipv4/ip4.c ****   }
 951:Middlewares/Third_Party/LwIP/src/core/ipv4/ip4.c **** #endif /* LWIP_MULTICAST_TX_OPTIONS */
 952:Middlewares/Third_Party/LwIP/src/core/ipv4/ip4.c **** #endif /* ENABLE_LOOPBACK */
 953:Middlewares/Third_Party/LwIP/src/core/ipv4/ip4.c **** #if IP_FRAG
 954:Middlewares/Third_Party/LwIP/src/core/ipv4/ip4.c ****   /* don't fragment if interface has mtu set to 0 [loopif] */
 955:Middlewares/Third_Party/LwIP/src/core/ipv4/ip4.c ****   if (netif->mtu && (p->tot_len > netif->mtu)) {
 767              		.loc 1 955 3 view .LVU274
 768              		.loc 1 955 12 is_stmt 0 view .LVU275
 769 007a B8F82630 		ldrh	r3, [r8, #38]
 770              		.loc 1 955 6 view .LVU276
 771 007e 13B1     		cbz	r3, .L58
 772              		.loc 1 955 23 discriminator 1 view .LVU277
 773 0080 2289     		ldrh	r2, [r4, #8]
 774              		.loc 1 955 18 discriminator 1 view .LVU278
 775 0082 9342     		cmp	r3, r2
 776 0084 21D3     		bcc	.L64
 777              	.L58:
 956:Middlewares/Third_Party/LwIP/src/core/ipv4/ip4.c ****     return ip4_frag(p, netif, dest);
 957:Middlewares/Third_Party/LwIP/src/core/ipv4/ip4.c ****   }
 958:Middlewares/Third_Party/LwIP/src/core/ipv4/ip4.c **** #endif /* IP_FRAG */
 959:Middlewares/Third_Party/LwIP/src/core/ipv4/ip4.c **** 
 960:Middlewares/Third_Party/LwIP/src/core/ipv4/ip4.c ****   LWIP_DEBUGF(IP_DEBUG, ("ip4_output_if: call netif->output()\n"));
 778              		.loc 1 960 67 is_stmt 1 view .LVU279
 961:Middlewares/Third_Party/LwIP/src/core/ipv4/ip4.c ****   return netif->output(netif, p, dest);
 779              		.loc 1 961 3 view .LVU280
 780              		.loc 1 961 15 is_stmt 0 view .LVU281
 781 0086 D8F81430 		ldr	r3, [r8, #20]
 782              		.loc 1 961 10 view .LVU282
 783 008a 3246     		mov	r2, r6
 784 008c 2146     		mov	r1, r4
 785 008e 4046     		mov	r0, r8
 786 0090 9847     		blx	r3
 787              	.LVL58:
 788              	.L53:
 962:Middlewares/Third_Party/LwIP/src/core/ipv4/ip4.c **** }
ARM GAS  C:\Users\Nina\AppData\Local\Temp\ccc87nAg.s 			page 35


 789              		.loc 1 962 1 view .LVU283
 790 0092 03B0     		add	sp, sp, #12
 791              	.LCFI5:
 792              		.cfi_remember_state
 793              		.cfi_def_cfa_offset 28
 794              		@ sp needed
 795 0094 BDE8F083 		pop	{r4, r5, r6, r7, r8, r9, pc}
 796              	.LVL59:
 797              	.L61:
 798              	.LCFI6:
 799              		.cfi_restore_state
 819:Middlewares/Third_Party/LwIP/src/core/ipv4/ip4.c **** 
 800              		.loc 1 819 3 is_stmt 1 discriminator 1 view .LVU284
 819:Middlewares/Third_Party/LwIP/src/core/ipv4/ip4.c **** 
 801              		.loc 1 819 3 discriminator 1 view .LVU285
 802 0098 104B     		ldr	r3, .L65
 803              	.LVL60:
 819:Middlewares/Third_Party/LwIP/src/core/ipv4/ip4.c **** 
 804              		.loc 1 819 3 is_stmt 0 discriminator 1 view .LVU286
 805 009a 40F23332 		movw	r2, #819
 806 009e 1049     		ldr	r1, .L65+4
 807              	.LVL61:
 819:Middlewares/Third_Party/LwIP/src/core/ipv4/ip4.c **** 
 808              		.loc 1 819 3 discriminator 1 view .LVU287
 809 00a0 1048     		ldr	r0, .L65+8
 810              	.LVL62:
 819:Middlewares/Third_Party/LwIP/src/core/ipv4/ip4.c **** 
 811              		.loc 1 819 3 discriminator 1 view .LVU288
 812 00a2 FFF7FEFF 		bl	printf
 813              	.LVL63:
 814 00a6 B7E7     		b	.L51
 815              	.LVL64:
 816              	.L62:
 817              	.LBB7:
 864:Middlewares/Third_Party/LwIP/src/core/ipv4/ip4.c ****                (p->len >= sizeof(struct ip_hdr)));
 818              		.loc 1 864 5 is_stmt 1 discriminator 1 view .LVU289
 864:Middlewares/Third_Party/LwIP/src/core/ipv4/ip4.c ****                (p->len >= sizeof(struct ip_hdr)));
 819              		.loc 1 864 5 discriminator 1 view .LVU290
 820 00a8 0C4B     		ldr	r3, .L65
 821 00aa 4FF45872 		mov	r2, #864
 822 00ae 0E49     		ldr	r1, .L65+12
 823 00b0 0C48     		ldr	r0, .L65+8
 824 00b2 FFF7FEFF 		bl	printf
 825              	.LVL65:
 826 00b6 BBE7     		b	.L54
 827              	.L63:
 897:Middlewares/Third_Party/LwIP/src/core/ipv4/ip4.c ****     } else {
 828              		.loc 1 897 7 view .LVU291
 829 00b8 0C4B     		ldr	r3, .L65+16
 830 00ba 1B68     		ldr	r3, [r3]
 831 00bc EB60     		str	r3, [r5, #12]	@ unaligned
 832 00be D9E7     		b	.L56
 833              	.LVL66:
 834              	.L52:
 897:Middlewares/Third_Party/LwIP/src/core/ipv4/ip4.c ****     } else {
 835              		.loc 1 897 7 is_stmt 0 view .LVU292
 836              	.LBE7:
ARM GAS  C:\Users\Nina\AppData\Local\Temp\ccc87nAg.s 			page 36


 927:Middlewares/Third_Party/LwIP/src/core/ipv4/ip4.c ****     ip4_addr_copy(dest_addr, iphdr->dest);
 837              		.loc 1 927 5 is_stmt 1 view .LVU293
 927:Middlewares/Third_Party/LwIP/src/core/ipv4/ip4.c ****     ip4_addr_copy(dest_addr, iphdr->dest);
 838              		.loc 1 927 11 is_stmt 0 view .LVU294
 839 00c0 6368     		ldr	r3, [r4, #4]
 840              	.LVL67:
 928:Middlewares/Third_Party/LwIP/src/core/ipv4/ip4.c ****     dest = &dest_addr;
 841              		.loc 1 928 5 is_stmt 1 view .LVU295
 842 00c2 1B69     		ldr	r3, [r3, #16]	@ unaligned
 843              	.LVL68:
 928:Middlewares/Third_Party/LwIP/src/core/ipv4/ip4.c ****     dest = &dest_addr;
 844              		.loc 1 928 5 is_stmt 0 view .LVU296
 845 00c4 0193     		str	r3, [sp, #4]
 929:Middlewares/Third_Party/LwIP/src/core/ipv4/ip4.c ****   }
 846              		.loc 1 929 5 is_stmt 1 view .LVU297
 847              	.LVL69:
 929:Middlewares/Third_Party/LwIP/src/core/ipv4/ip4.c ****   }
 848              		.loc 1 929 10 is_stmt 0 view .LVU298
 849 00c6 01AE     		add	r6, sp, #4
 850              	.LVL70:
 929:Middlewares/Third_Party/LwIP/src/core/ipv4/ip4.c ****   }
 851              		.loc 1 929 10 view .LVU299
 852 00c8 D7E7     		b	.L57
 853              	.LVL71:
 854              	.L64:
 956:Middlewares/Third_Party/LwIP/src/core/ipv4/ip4.c ****   }
 855              		.loc 1 956 5 is_stmt 1 view .LVU300
 956:Middlewares/Third_Party/LwIP/src/core/ipv4/ip4.c ****   }
 856              		.loc 1 956 12 is_stmt 0 view .LVU301
 857 00ca 3246     		mov	r2, r6
 858 00cc 4146     		mov	r1, r8
 859 00ce 2046     		mov	r0, r4
 860 00d0 FFF7FEFF 		bl	ip4_frag
 861              	.LVL72:
 862 00d4 DDE7     		b	.L53
 863              	.LVL73:
 864              	.L59:
 865              	.LBB8:
 860:Middlewares/Third_Party/LwIP/src/core/ipv4/ip4.c ****     }
 866              		.loc 1 860 14 view .LVU302
 867 00d6 6FF00100 		mvn	r0, #1
 868 00da DAE7     		b	.L53
 869              	.L66:
 870              		.align	2
 871              	.L65:
 872 00dc 00000000 		.word	.LC0
 873 00e0 34000000 		.word	.LC1
 874 00e4 40000000 		.word	.LC2
 875 00e8 68000000 		.word	.LC3
 876 00ec 00000000 		.word	ip_addr_any
 877 00f0 00000000 		.word	.LANCHOR0
 878              	.LBE8:
 879              		.cfi_endproc
 880              	.LFE163:
 882              		.section	.text.ip4_output_if,"ax",%progbits
 883              		.align	1
 884              		.global	ip4_output_if
ARM GAS  C:\Users\Nina\AppData\Local\Temp\ccc87nAg.s 			page 37


 885              		.syntax unified
 886              		.thumb
 887              		.thumb_func
 888              		.fpu fpv5-sp-d16
 890              	ip4_output_if:
 891              	.LVL74:
 892              	.LFB162:
 758:Middlewares/Third_Party/LwIP/src/core/ipv4/ip4.c **** #if IP_OPTIONS_SEND
 893              		.loc 1 758 1 is_stmt 1 view -0
 894              		.cfi_startproc
 895              		@ args = 12, pretend = 0, frame = 0
 896              		@ frame_needed = 0, uses_anonymous_args = 0
 758:Middlewares/Third_Party/LwIP/src/core/ipv4/ip4.c **** #if IP_OPTIONS_SEND
 897              		.loc 1 758 1 is_stmt 0 view .LVU304
 898 0000 30B5     		push	{r4, r5, lr}
 899              	.LCFI7:
 900              		.cfi_def_cfa_offset 12
 901              		.cfi_offset 4, -12
 902              		.cfi_offset 5, -8
 903              		.cfi_offset 14, -4
 904 0002 85B0     		sub	sp, sp, #20
 905              	.LCFI8:
 906              		.cfi_def_cfa_offset 32
 907 0004 0A9C     		ldr	r4, [sp, #40]
 775:Middlewares/Third_Party/LwIP/src/core/ipv4/ip4.c ****   if (dest != LWIP_IP_HDRINCL) {
 908              		.loc 1 775 3 is_stmt 1 view .LVU305
 909              	.LVL75:
 776:Middlewares/Third_Party/LwIP/src/core/ipv4/ip4.c ****     if (ip4_addr_isany(src)) {
 910              		.loc 1 776 3 view .LVU306
 776:Middlewares/Third_Party/LwIP/src/core/ipv4/ip4.c ****     if (ip4_addr_isany(src)) {
 911              		.loc 1 776 6 is_stmt 0 view .LVU307
 912 0006 1546     		mov	r5, r2
 913 0008 1AB1     		cbz	r2, .L68
 777:Middlewares/Third_Party/LwIP/src/core/ipv4/ip4.c ****       src_used = netif_ip4_addr(netif);
 914              		.loc 1 777 5 is_stmt 1 view .LVU308
 777:Middlewares/Third_Party/LwIP/src/core/ipv4/ip4.c ****       src_used = netif_ip4_addr(netif);
 915              		.loc 1 777 8 is_stmt 0 view .LVU309
 916 000a 09B1     		cbz	r1, .L69
 777:Middlewares/Third_Party/LwIP/src/core/ipv4/ip4.c ****       src_used = netif_ip4_addr(netif);
 917              		.loc 1 777 9 discriminator 1 view .LVU310
 918 000c 0A68     		ldr	r2, [r1]
 919              	.LVL76:
 777:Middlewares/Third_Party/LwIP/src/core/ipv4/ip4.c ****       src_used = netif_ip4_addr(netif);
 920              		.loc 1 777 9 discriminator 1 view .LVU311
 921 000e 02B9     		cbnz	r2, .L68
 922              	.L69:
 778:Middlewares/Third_Party/LwIP/src/core/ipv4/ip4.c ****     }
 923              		.loc 1 778 7 is_stmt 1 view .LVU312
 778:Middlewares/Third_Party/LwIP/src/core/ipv4/ip4.c ****     }
 924              		.loc 1 778 16 is_stmt 0 view .LVU313
 925 0010 211D     		adds	r1, r4, #4
 926              	.LVL77:
 927              	.L68:
 786:Middlewares/Third_Party/LwIP/src/core/ipv4/ip4.c **** #endif /* IP_OPTIONS_SEND */
 928              		.loc 1 786 3 is_stmt 1 view .LVU314
 786:Middlewares/Third_Party/LwIP/src/core/ipv4/ip4.c **** #endif /* IP_OPTIONS_SEND */
 929              		.loc 1 786 10 is_stmt 0 view .LVU315
ARM GAS  C:\Users\Nina\AppData\Local\Temp\ccc87nAg.s 			page 38


 930 0012 0294     		str	r4, [sp, #8]
 931 0014 9DF82420 		ldrb	r2, [sp, #36]	@ zero_extendqisi2
 932 0018 0192     		str	r2, [sp, #4]
 933 001a 9DF82020 		ldrb	r2, [sp, #32]	@ zero_extendqisi2
 934 001e 0092     		str	r2, [sp]
 935 0020 2A46     		mov	r2, r5
 936 0022 FFF7FEFF 		bl	ip4_output_if_src
 937              	.LVL78:
 788:Middlewares/Third_Party/LwIP/src/core/ipv4/ip4.c **** 
 938              		.loc 1 788 1 view .LVU316
 939 0026 05B0     		add	sp, sp, #20
 940              	.LCFI9:
 941              		.cfi_def_cfa_offset 12
 942              		@ sp needed
 943 0028 30BD     		pop	{r4, r5, pc}
 788:Middlewares/Third_Party/LwIP/src/core/ipv4/ip4.c **** 
 944              		.loc 1 788 1 view .LVU317
 945              		.cfi_endproc
 946              	.LFE162:
 948              		.section	.text.ip4_output,"ax",%progbits
 949              		.align	1
 950              		.global	ip4_output
 951              		.syntax unified
 952              		.thumb
 953              		.thumb_func
 954              		.fpu fpv5-sp-d16
 956              	ip4_output:
 957              	.LVL79:
 958              	.LFB164:
 963:Middlewares/Third_Party/LwIP/src/core/ipv4/ip4.c **** 
 964:Middlewares/Third_Party/LwIP/src/core/ipv4/ip4.c **** /**
 965:Middlewares/Third_Party/LwIP/src/core/ipv4/ip4.c ****  * Simple interface to ip_output_if. It finds the outgoing network
 966:Middlewares/Third_Party/LwIP/src/core/ipv4/ip4.c ****  * interface and calls upon ip_output_if to do the actual work.
 967:Middlewares/Third_Party/LwIP/src/core/ipv4/ip4.c ****  *
 968:Middlewares/Third_Party/LwIP/src/core/ipv4/ip4.c ****  * @param p the packet to send (p->payload points to the data, e.g. next
 969:Middlewares/Third_Party/LwIP/src/core/ipv4/ip4.c ****             protocol header; if dest == LWIP_IP_HDRINCL, p already includes an
 970:Middlewares/Third_Party/LwIP/src/core/ipv4/ip4.c ****             IP header and p->payload points to that IP header)
 971:Middlewares/Third_Party/LwIP/src/core/ipv4/ip4.c ****  * @param src the source IP address to send from (if src == IP4_ADDR_ANY, the
 972:Middlewares/Third_Party/LwIP/src/core/ipv4/ip4.c ****  *         IP  address of the netif used to send is used as source address)
 973:Middlewares/Third_Party/LwIP/src/core/ipv4/ip4.c ****  * @param dest the destination IP address to send the packet to
 974:Middlewares/Third_Party/LwIP/src/core/ipv4/ip4.c ****  * @param ttl the TTL value to be set in the IP header
 975:Middlewares/Third_Party/LwIP/src/core/ipv4/ip4.c ****  * @param tos the TOS value to be set in the IP header
 976:Middlewares/Third_Party/LwIP/src/core/ipv4/ip4.c ****  * @param proto the PROTOCOL to be set in the IP header
 977:Middlewares/Third_Party/LwIP/src/core/ipv4/ip4.c ****  *
 978:Middlewares/Third_Party/LwIP/src/core/ipv4/ip4.c ****  * @return ERR_RTE if no route is found
 979:Middlewares/Third_Party/LwIP/src/core/ipv4/ip4.c ****  *         see ip_output_if() for more return values
 980:Middlewares/Third_Party/LwIP/src/core/ipv4/ip4.c ****  */
 981:Middlewares/Third_Party/LwIP/src/core/ipv4/ip4.c **** err_t
 982:Middlewares/Third_Party/LwIP/src/core/ipv4/ip4.c **** ip4_output(struct pbuf *p, const ip4_addr_t *src, const ip4_addr_t *dest,
 983:Middlewares/Third_Party/LwIP/src/core/ipv4/ip4.c ****           u8_t ttl, u8_t tos, u8_t proto)
 984:Middlewares/Third_Party/LwIP/src/core/ipv4/ip4.c **** {
 959              		.loc 1 984 1 is_stmt 1 view -0
 960              		.cfi_startproc
 961              		@ args = 8, pretend = 0, frame = 0
 962              		@ frame_needed = 0, uses_anonymous_args = 0
 963              		.loc 1 984 1 is_stmt 0 view .LVU319
 964 0000 F0B5     		push	{r4, r5, r6, r7, lr}
ARM GAS  C:\Users\Nina\AppData\Local\Temp\ccc87nAg.s 			page 39


 965              	.LCFI10:
 966              		.cfi_def_cfa_offset 20
 967              		.cfi_offset 4, -20
 968              		.cfi_offset 5, -16
 969              		.cfi_offset 6, -12
 970              		.cfi_offset 7, -8
 971              		.cfi_offset 14, -4
 972 0002 85B0     		sub	sp, sp, #20
 973              	.LCFI11:
 974              		.cfi_def_cfa_offset 40
 975 0004 0446     		mov	r4, r0
 976 0006 0F46     		mov	r7, r1
 977 0008 1546     		mov	r5, r2
 978 000a 1E46     		mov	r6, r3
 985:Middlewares/Third_Party/LwIP/src/core/ipv4/ip4.c ****   struct netif *netif;
 979              		.loc 1 985 3 is_stmt 1 view .LVU320
 986:Middlewares/Third_Party/LwIP/src/core/ipv4/ip4.c **** 
 987:Middlewares/Third_Party/LwIP/src/core/ipv4/ip4.c ****   LWIP_IP_CHECK_PBUF_REF_COUNT_FOR_TX(p);
 980              		.loc 1 987 3 view .LVU321
 981              		.loc 1 987 3 view .LVU322
 982 000c C289     		ldrh	r2, [r0, #14]
 983              	.LVL80:
 984              		.loc 1 987 3 is_stmt 0 view .LVU323
 985 000e 012A     		cmp	r2, #1
 986 0010 12D1     		bne	.L76
 987              	.LVL81:
 988              	.L72:
 989              		.loc 1 987 3 is_stmt 1 discriminator 3 view .LVU324
 990              		.loc 1 987 3 discriminator 3 view .LVU325
 988:Middlewares/Third_Party/LwIP/src/core/ipv4/ip4.c **** 
 989:Middlewares/Third_Party/LwIP/src/core/ipv4/ip4.c ****   if ((netif = ip4_route_src(dest, src)) == NULL) {
 991              		.loc 1 989 3 discriminator 3 view .LVU326
 992              		.loc 1 989 16 is_stmt 0 discriminator 3 view .LVU327
 993 0012 2846     		mov	r0, r5
 994 0014 FFF7FEFF 		bl	ip4_route
 995              	.LVL82:
 996              		.loc 1 989 6 discriminator 3 view .LVU328
 997 0018 B0B1     		cbz	r0, .L74
 990:Middlewares/Third_Party/LwIP/src/core/ipv4/ip4.c ****     LWIP_DEBUGF(IP_DEBUG, ("ip4_output: No route to %"U16_F".%"U16_F".%"U16_F".%"U16_F"\n",
 991:Middlewares/Third_Party/LwIP/src/core/ipv4/ip4.c ****       ip4_addr1_16(dest), ip4_addr2_16(dest), ip4_addr3_16(dest), ip4_addr4_16(dest)));
 992:Middlewares/Third_Party/LwIP/src/core/ipv4/ip4.c ****     IP_STATS_INC(ip.rterr);
 993:Middlewares/Third_Party/LwIP/src/core/ipv4/ip4.c ****     return ERR_RTE;
 994:Middlewares/Third_Party/LwIP/src/core/ipv4/ip4.c ****   }
 995:Middlewares/Third_Party/LwIP/src/core/ipv4/ip4.c **** 
 996:Middlewares/Third_Party/LwIP/src/core/ipv4/ip4.c ****   return ip4_output_if(p, src, dest, ttl, tos, proto, netif);
 998              		.loc 1 996 3 is_stmt 1 view .LVU329
 999              		.loc 1 996 10 is_stmt 0 view .LVU330
 1000 001a 0290     		str	r0, [sp, #8]
 1001 001c 9DF82C30 		ldrb	r3, [sp, #44]	@ zero_extendqisi2
 1002 0020 0193     		str	r3, [sp, #4]
 1003 0022 9DF82830 		ldrb	r3, [sp, #40]	@ zero_extendqisi2
 1004 0026 0093     		str	r3, [sp]
 1005 0028 3346     		mov	r3, r6
 1006 002a 2A46     		mov	r2, r5
 1007 002c 3946     		mov	r1, r7
 1008 002e 2046     		mov	r0, r4
 1009              	.LVL83:
ARM GAS  C:\Users\Nina\AppData\Local\Temp\ccc87nAg.s 			page 40


 1010              		.loc 1 996 10 view .LVU331
 1011 0030 FFF7FEFF 		bl	ip4_output_if
 1012              	.LVL84:
 1013              	.L73:
 997:Middlewares/Third_Party/LwIP/src/core/ipv4/ip4.c **** }
 1014              		.loc 1 997 1 view .LVU332
 1015 0034 05B0     		add	sp, sp, #20
 1016              	.LCFI12:
 1017              		.cfi_remember_state
 1018              		.cfi_def_cfa_offset 20
 1019              		@ sp needed
 1020 0036 F0BD     		pop	{r4, r5, r6, r7, pc}
 1021              	.LVL85:
 1022              	.L76:
 1023              	.LCFI13:
 1024              		.cfi_restore_state
 987:Middlewares/Third_Party/LwIP/src/core/ipv4/ip4.c **** 
 1025              		.loc 1 987 3 is_stmt 1 discriminator 1 view .LVU333
 987:Middlewares/Third_Party/LwIP/src/core/ipv4/ip4.c **** 
 1026              		.loc 1 987 3 discriminator 1 view .LVU334
 1027 0038 054B     		ldr	r3, .L77
 1028              	.LVL86:
 987:Middlewares/Third_Party/LwIP/src/core/ipv4/ip4.c **** 
 1029              		.loc 1 987 3 is_stmt 0 discriminator 1 view .LVU335
 1030 003a 40F2DB32 		movw	r2, #987
 1031 003e 0549     		ldr	r1, .L77+4
 1032              	.LVL87:
 987:Middlewares/Third_Party/LwIP/src/core/ipv4/ip4.c **** 
 1033              		.loc 1 987 3 discriminator 1 view .LVU336
 1034 0040 0548     		ldr	r0, .L77+8
 1035              	.LVL88:
 987:Middlewares/Third_Party/LwIP/src/core/ipv4/ip4.c **** 
 1036              		.loc 1 987 3 discriminator 1 view .LVU337
 1037 0042 FFF7FEFF 		bl	printf
 1038              	.LVL89:
 1039 0046 E4E7     		b	.L72
 1040              	.LVL90:
 1041              	.L74:
 993:Middlewares/Third_Party/LwIP/src/core/ipv4/ip4.c ****   }
 1042              		.loc 1 993 12 view .LVU338
 1043 0048 6FF00300 		mvn	r0, #3
 1044              	.LVL91:
 993:Middlewares/Third_Party/LwIP/src/core/ipv4/ip4.c ****   }
 1045              		.loc 1 993 12 view .LVU339
 1046 004c F2E7     		b	.L73
 1047              	.L78:
 1048 004e 00BF     		.align	2
 1049              	.L77:
 1050 0050 00000000 		.word	.LC0
 1051 0054 34000000 		.word	.LC1
 1052 0058 40000000 		.word	.LC2
 1053              		.cfi_endproc
 1054              	.LFE164:
 1056              		.section	.bss.ip_id,"aw",%nobits
 1057              		.align	1
 1058              		.set	.LANCHOR0,. + 0
 1061              	ip_id:
ARM GAS  C:\Users\Nina\AppData\Local\Temp\ccc87nAg.s 			page 41


 1062 0000 0000     		.space	2
 1063              		.text
 1064              	.Letext0:
 1065              		.file 2 "c:\\program files (x86)\\gnu tools arm embedded\\9 2019-q4-major\\arm-none-eabi\\include\
 1066              		.file 3 "c:\\program files (x86)\\gnu tools arm embedded\\9 2019-q4-major\\arm-none-eabi\\include\
 1067              		.file 4 "Drivers/CMSIS/Include/core_cm7.h"
 1068              		.file 5 "Drivers/CMSIS/Device/ST/STM32F7xx/Include/system_stm32f7xx.h"
 1069              		.file 6 "c:\\program files (x86)\\gnu tools arm embedded\\9 2019-q4-major\\arm-none-eabi\\include\
 1070              		.file 7 "c:\\program files (x86)\\gnu tools arm embedded\\9 2019-q4-major\\arm-none-eabi\\include\
 1071              		.file 8 "c:\\program files (x86)\\gnu tools arm embedded\\9 2019-q4-major\\lib\\gcc\\arm-none-eabi
 1072              		.file 9 "c:\\program files (x86)\\gnu tools arm embedded\\9 2019-q4-major\\arm-none-eabi\\include\
 1073              		.file 10 "c:\\program files (x86)\\gnu tools arm embedded\\9 2019-q4-major\\arm-none-eabi\\include
 1074              		.file 11 "c:\\program files (x86)\\gnu tools arm embedded\\9 2019-q4-major\\arm-none-eabi\\include
 1075              		.file 12 "Middlewares/Third_Party/LwIP/src/include/lwip/arch.h"
 1076              		.file 13 "Middlewares/Third_Party/LwIP/src/include/lwip/err.h"
 1077              		.file 14 "Middlewares/Third_Party/LwIP/src/include/lwip/pbuf.h"
 1078              		.file 15 "Middlewares/Third_Party/LwIP/src/include/lwip/ip4_addr.h"
 1079              		.file 16 "Middlewares/Third_Party/LwIP/src/include/lwip/ip_addr.h"
 1080              		.file 17 "Middlewares/Third_Party/LwIP/src/include/lwip/memp.h"
 1081              		.file 18 "Middlewares/Third_Party/LwIP/src/include/lwip/priv/memp_priv.h"
 1082              		.file 19 "Middlewares/Third_Party/LwIP/src/include/lwip/netif.h"
 1083              		.file 20 "Middlewares/Third_Party/LwIP/src/include/lwip/prot/ip4.h"
 1084              		.file 21 "Middlewares/Third_Party/LwIP/src/include/lwip/ip.h"
 1085              		.file 22 "Middlewares/Third_Party/LwIP/src/include/lwip/icmp.h"
 1086              		.file 23 "Middlewares/Third_Party/LwIP/src/include/lwip/prot/udp.h"
 1087              		.file 24 "Middlewares/Third_Party/LwIP/src/include/lwip/udp.h"
 1088              		.file 25 "Middlewares/Third_Party/LwIP/src/include/lwip/tcp.h"
 1089              		.file 26 "Middlewares/Third_Party/LwIP/src/include/lwip/priv/tcp_priv.h"
 1090              		.file 27 "Middlewares/Third_Party/LwIP/src/include/lwip/prot/tcp.h"
 1091              		.file 28 "c:\\program files (x86)\\gnu tools arm embedded\\9 2019-q4-major\\arm-none-eabi\\include
 1092              		.file 29 "Middlewares/Third_Party/LwIP/src/include/lwip/def.h"
 1093              		.file 30 "Middlewares/Third_Party/LwIP/src/include/lwip/ip4_frag.h"
ARM GAS  C:\Users\Nina\AppData\Local\Temp\ccc87nAg.s 			page 42

