ARM GAS  C:\Users\Nina\AppData\Local\Temp\ccfUDP6L.s 			page 1


   1              		.cpu cortex-m7
   2              		.eabi_attribute 27, 1
   3              		.eabi_attribute 28, 1
   4              		.eabi_attribute 20, 1
   5              		.eabi_attribute 21, 1
   6              		.eabi_attribute 23, 3
   7              		.eabi_attribute 24, 1
   8              		.eabi_attribute 25, 1
   9              		.eabi_attribute 26, 1
  10              		.eabi_attribute 30, 1
  11              		.eabi_attribute 34, 1
  12              		.eabi_attribute 18, 4
  13              		.file	"pbuf.c"
  14              		.text
  15              	.Ltext0:
  16              		.cfi_sections	.debug_frame
  17              		.section	.text.pbuf_skip_const,"ax",%progbits
  18              		.align	1
  19              		.arch armv7e-m
  20              		.syntax unified
  21              		.thumb
  22              		.thumb_func
  23              		.fpu fpv5-sp-d16
  25              	pbuf_skip_const:
  26              	.LVL0:
  27              	.LFB182:
  28              		.file 1 "Middlewares/Third_Party/LwIP/src/core/pbuf.c"
   1:Middlewares/Third_Party/LwIP/src/core/pbuf.c **** /**
   2:Middlewares/Third_Party/LwIP/src/core/pbuf.c ****  * @file
   3:Middlewares/Third_Party/LwIP/src/core/pbuf.c ****  * Packet buffer management
   4:Middlewares/Third_Party/LwIP/src/core/pbuf.c ****  */
   5:Middlewares/Third_Party/LwIP/src/core/pbuf.c **** 
   6:Middlewares/Third_Party/LwIP/src/core/pbuf.c **** /**
   7:Middlewares/Third_Party/LwIP/src/core/pbuf.c ****  * @defgroup pbuf Packet buffers (PBUF)
   8:Middlewares/Third_Party/LwIP/src/core/pbuf.c ****  * @ingroup infrastructure
   9:Middlewares/Third_Party/LwIP/src/core/pbuf.c ****  *
  10:Middlewares/Third_Party/LwIP/src/core/pbuf.c ****  * Packets are built from the pbuf data structure. It supports dynamic
  11:Middlewares/Third_Party/LwIP/src/core/pbuf.c ****  * memory allocation for packet contents or can reference externally
  12:Middlewares/Third_Party/LwIP/src/core/pbuf.c ****  * managed packet contents both in RAM and ROM. Quick allocation for
  13:Middlewares/Third_Party/LwIP/src/core/pbuf.c ****  * incoming packets is provided through pools with fixed sized pbufs.
  14:Middlewares/Third_Party/LwIP/src/core/pbuf.c ****  *
  15:Middlewares/Third_Party/LwIP/src/core/pbuf.c ****  * A packet may span over multiple pbufs, chained as a singly linked
  16:Middlewares/Third_Party/LwIP/src/core/pbuf.c ****  * list. This is called a "pbuf chain".
  17:Middlewares/Third_Party/LwIP/src/core/pbuf.c ****  *
  18:Middlewares/Third_Party/LwIP/src/core/pbuf.c ****  * Multiple packets may be queued, also using this singly linked list.
  19:Middlewares/Third_Party/LwIP/src/core/pbuf.c ****  * This is called a "packet queue".
  20:Middlewares/Third_Party/LwIP/src/core/pbuf.c ****  *
  21:Middlewares/Third_Party/LwIP/src/core/pbuf.c ****  * So, a packet queue consists of one or more pbuf chains, each of
  22:Middlewares/Third_Party/LwIP/src/core/pbuf.c ****  * which consist of one or more pbufs. CURRENTLY, PACKET QUEUES ARE
  23:Middlewares/Third_Party/LwIP/src/core/pbuf.c ****  * NOT SUPPORTED!!! Use helper structs to queue multiple packets.
  24:Middlewares/Third_Party/LwIP/src/core/pbuf.c ****  *
  25:Middlewares/Third_Party/LwIP/src/core/pbuf.c ****  * The differences between a pbuf chain and a packet queue are very
  26:Middlewares/Third_Party/LwIP/src/core/pbuf.c ****  * precise but subtle.
  27:Middlewares/Third_Party/LwIP/src/core/pbuf.c ****  *
  28:Middlewares/Third_Party/LwIP/src/core/pbuf.c ****  * The last pbuf of a packet has a ->tot_len field that equals the
  29:Middlewares/Third_Party/LwIP/src/core/pbuf.c ****  * ->len field. It can be found by traversing the list. If the last
  30:Middlewares/Third_Party/LwIP/src/core/pbuf.c ****  * pbuf of a packet has a ->next field other than NULL, more packets
ARM GAS  C:\Users\Nina\AppData\Local\Temp\ccfUDP6L.s 			page 2


  31:Middlewares/Third_Party/LwIP/src/core/pbuf.c ****  * are on the queue.
  32:Middlewares/Third_Party/LwIP/src/core/pbuf.c ****  *
  33:Middlewares/Third_Party/LwIP/src/core/pbuf.c ****  * Therefore, looping through a pbuf of a single packet, has an
  34:Middlewares/Third_Party/LwIP/src/core/pbuf.c ****  * loop end condition (tot_len == p->len), NOT (next == NULL).
  35:Middlewares/Third_Party/LwIP/src/core/pbuf.c ****  *
  36:Middlewares/Third_Party/LwIP/src/core/pbuf.c ****  * Example of custom pbuf usage for zero-copy RX:
  37:Middlewares/Third_Party/LwIP/src/core/pbuf.c ****   @code{.c}
  38:Middlewares/Third_Party/LwIP/src/core/pbuf.c **** typedef struct my_custom_pbuf
  39:Middlewares/Third_Party/LwIP/src/core/pbuf.c **** {
  40:Middlewares/Third_Party/LwIP/src/core/pbuf.c ****    struct pbuf_custom p;
  41:Middlewares/Third_Party/LwIP/src/core/pbuf.c ****    void* dma_descriptor;
  42:Middlewares/Third_Party/LwIP/src/core/pbuf.c **** } my_custom_pbuf_t;
  43:Middlewares/Third_Party/LwIP/src/core/pbuf.c **** 
  44:Middlewares/Third_Party/LwIP/src/core/pbuf.c **** LWIP_MEMPOOL_DECLARE(RX_POOL, 10, sizeof(my_custom_pbuf_t), "Zero-copy RX PBUF pool");
  45:Middlewares/Third_Party/LwIP/src/core/pbuf.c **** 
  46:Middlewares/Third_Party/LwIP/src/core/pbuf.c **** void my_pbuf_free_custom(void* p)
  47:Middlewares/Third_Party/LwIP/src/core/pbuf.c **** {
  48:Middlewares/Third_Party/LwIP/src/core/pbuf.c ****   my_custom_pbuf_t* my_puf = (my_custom_pbuf_t*)p;
  49:Middlewares/Third_Party/LwIP/src/core/pbuf.c **** 
  50:Middlewares/Third_Party/LwIP/src/core/pbuf.c ****   LOCK_INTERRUPTS();
  51:Middlewares/Third_Party/LwIP/src/core/pbuf.c ****   free_rx_dma_descriptor(my_pbuf->dma_descriptor);
  52:Middlewares/Third_Party/LwIP/src/core/pbuf.c ****   LWIP_MEMPOOL_FREE(RX_POOL, my_pbuf);
  53:Middlewares/Third_Party/LwIP/src/core/pbuf.c ****   UNLOCK_INTERRUPTS();
  54:Middlewares/Third_Party/LwIP/src/core/pbuf.c **** }
  55:Middlewares/Third_Party/LwIP/src/core/pbuf.c **** 
  56:Middlewares/Third_Party/LwIP/src/core/pbuf.c **** void eth_rx_irq()
  57:Middlewares/Third_Party/LwIP/src/core/pbuf.c **** {
  58:Middlewares/Third_Party/LwIP/src/core/pbuf.c ****   dma_descriptor*   dma_desc = get_RX_DMA_descriptor_from_ethernet();
  59:Middlewares/Third_Party/LwIP/src/core/pbuf.c ****   my_custom_pbuf_t* my_pbuf  = (my_custom_pbuf_t*)LWIP_MEMPOOL_ALLOC(RX_POOL);
  60:Middlewares/Third_Party/LwIP/src/core/pbuf.c **** 
  61:Middlewares/Third_Party/LwIP/src/core/pbuf.c ****   my_pbuf->p.custom_free_function = my_pbuf_free_custom;
  62:Middlewares/Third_Party/LwIP/src/core/pbuf.c ****   my_pbuf->dma_descriptor         = dma_desc;
  63:Middlewares/Third_Party/LwIP/src/core/pbuf.c **** 
  64:Middlewares/Third_Party/LwIP/src/core/pbuf.c ****   invalidate_cpu_cache(dma_desc->rx_data, dma_desc->rx_length);
  65:Middlewares/Third_Party/LwIP/src/core/pbuf.c ****   
  66:Middlewares/Third_Party/LwIP/src/core/pbuf.c ****   struct pbuf* p = pbuf_alloced_custom(PBUF_RAW,
  67:Middlewares/Third_Party/LwIP/src/core/pbuf.c ****      dma_desc->rx_length,
  68:Middlewares/Third_Party/LwIP/src/core/pbuf.c ****      PBUF_REF,
  69:Middlewares/Third_Party/LwIP/src/core/pbuf.c ****      &my_pbuf->p,
  70:Middlewares/Third_Party/LwIP/src/core/pbuf.c ****      dma_desc->rx_data,
  71:Middlewares/Third_Party/LwIP/src/core/pbuf.c ****      dma_desc->max_buffer_size);
  72:Middlewares/Third_Party/LwIP/src/core/pbuf.c **** 
  73:Middlewares/Third_Party/LwIP/src/core/pbuf.c ****   if(netif->input(p, netif) != ERR_OK) {
  74:Middlewares/Third_Party/LwIP/src/core/pbuf.c ****     pbuf_free(p);
  75:Middlewares/Third_Party/LwIP/src/core/pbuf.c ****   }
  76:Middlewares/Third_Party/LwIP/src/core/pbuf.c **** }
  77:Middlewares/Third_Party/LwIP/src/core/pbuf.c ****   @endcode
  78:Middlewares/Third_Party/LwIP/src/core/pbuf.c ****  */
  79:Middlewares/Third_Party/LwIP/src/core/pbuf.c **** 
  80:Middlewares/Third_Party/LwIP/src/core/pbuf.c **** /*
  81:Middlewares/Third_Party/LwIP/src/core/pbuf.c ****  * Copyright (c) 2001-2004 Swedish Institute of Computer Science.
  82:Middlewares/Third_Party/LwIP/src/core/pbuf.c ****  * All rights reserved.
  83:Middlewares/Third_Party/LwIP/src/core/pbuf.c ****  *
  84:Middlewares/Third_Party/LwIP/src/core/pbuf.c ****  * Redistribution and use in source and binary forms, with or without modification,
  85:Middlewares/Third_Party/LwIP/src/core/pbuf.c ****  * are permitted provided that the following conditions are met:
  86:Middlewares/Third_Party/LwIP/src/core/pbuf.c ****  *
  87:Middlewares/Third_Party/LwIP/src/core/pbuf.c ****  * 1. Redistributions of source code must retain the above copyright notice,
ARM GAS  C:\Users\Nina\AppData\Local\Temp\ccfUDP6L.s 			page 3


  88:Middlewares/Third_Party/LwIP/src/core/pbuf.c ****  *    this list of conditions and the following disclaimer.
  89:Middlewares/Third_Party/LwIP/src/core/pbuf.c ****  * 2. Redistributions in binary form must reproduce the above copyright notice,
  90:Middlewares/Third_Party/LwIP/src/core/pbuf.c ****  *    this list of conditions and the following disclaimer in the documentation
  91:Middlewares/Third_Party/LwIP/src/core/pbuf.c ****  *    and/or other materials provided with the distribution.
  92:Middlewares/Third_Party/LwIP/src/core/pbuf.c ****  * 3. The name of the author may not be used to endorse or promote products
  93:Middlewares/Third_Party/LwIP/src/core/pbuf.c ****  *    derived from this software without specific prior written permission.
  94:Middlewares/Third_Party/LwIP/src/core/pbuf.c ****  *
  95:Middlewares/Third_Party/LwIP/src/core/pbuf.c ****  * THIS SOFTWARE IS PROVIDED BY THE AUTHOR ``AS IS'' AND ANY EXPRESS OR IMPLIED
  96:Middlewares/Third_Party/LwIP/src/core/pbuf.c ****  * WARRANTIES, INCLUDING, BUT NOT LIMITED TO, THE IMPLIED WARRANTIES OF
  97:Middlewares/Third_Party/LwIP/src/core/pbuf.c ****  * MERCHANTABILITY AND FITNESS FOR A PARTICULAR PURPOSE ARE DISCLAIMED. IN NO EVENT
  98:Middlewares/Third_Party/LwIP/src/core/pbuf.c ****  * SHALL THE AUTHOR BE LIABLE FOR ANY DIRECT, INDIRECT, INCIDENTAL, SPECIAL,
  99:Middlewares/Third_Party/LwIP/src/core/pbuf.c ****  * EXEMPLARY, OR CONSEQUENTIAL DAMAGES (INCLUDING, BUT NOT LIMITED TO, PROCUREMENT
 100:Middlewares/Third_Party/LwIP/src/core/pbuf.c ****  * OF SUBSTITUTE GOODS OR SERVICES; LOSS OF USE, DATA, OR PROFITS; OR BUSINESS
 101:Middlewares/Third_Party/LwIP/src/core/pbuf.c ****  * INTERRUPTION) HOWEVER CAUSED AND ON ANY THEORY OF LIABILITY, WHETHER IN
 102:Middlewares/Third_Party/LwIP/src/core/pbuf.c ****  * CONTRACT, STRICT LIABILITY, OR TORT (INCLUDING NEGLIGENCE OR OTHERWISE) ARISING
 103:Middlewares/Third_Party/LwIP/src/core/pbuf.c ****  * IN ANY WAY OUT OF THE USE OF THIS SOFTWARE, EVEN IF ADVISED OF THE POSSIBILITY
 104:Middlewares/Third_Party/LwIP/src/core/pbuf.c ****  * OF SUCH DAMAGE.
 105:Middlewares/Third_Party/LwIP/src/core/pbuf.c ****  *
 106:Middlewares/Third_Party/LwIP/src/core/pbuf.c ****  * This file is part of the lwIP TCP/IP stack.
 107:Middlewares/Third_Party/LwIP/src/core/pbuf.c ****  *
 108:Middlewares/Third_Party/LwIP/src/core/pbuf.c ****  * Author: Adam Dunkels <adam@sics.se>
 109:Middlewares/Third_Party/LwIP/src/core/pbuf.c ****  *
 110:Middlewares/Third_Party/LwIP/src/core/pbuf.c ****  */
 111:Middlewares/Third_Party/LwIP/src/core/pbuf.c **** 
 112:Middlewares/Third_Party/LwIP/src/core/pbuf.c **** #include "lwip/opt.h"
 113:Middlewares/Third_Party/LwIP/src/core/pbuf.c **** 
 114:Middlewares/Third_Party/LwIP/src/core/pbuf.c **** #include "lwip/stats.h"
 115:Middlewares/Third_Party/LwIP/src/core/pbuf.c **** #include "lwip/def.h"
 116:Middlewares/Third_Party/LwIP/src/core/pbuf.c **** #include "lwip/mem.h"
 117:Middlewares/Third_Party/LwIP/src/core/pbuf.c **** #include "lwip/memp.h"
 118:Middlewares/Third_Party/LwIP/src/core/pbuf.c **** #include "lwip/pbuf.h"
 119:Middlewares/Third_Party/LwIP/src/core/pbuf.c **** #include "lwip/sys.h"
 120:Middlewares/Third_Party/LwIP/src/core/pbuf.c **** #if LWIP_TCP && TCP_QUEUE_OOSEQ
 121:Middlewares/Third_Party/LwIP/src/core/pbuf.c **** #include "lwip/priv/tcp_priv.h"
 122:Middlewares/Third_Party/LwIP/src/core/pbuf.c **** #endif
 123:Middlewares/Third_Party/LwIP/src/core/pbuf.c **** #if LWIP_CHECKSUM_ON_COPY
 124:Middlewares/Third_Party/LwIP/src/core/pbuf.c **** #include "lwip/inet_chksum.h"
 125:Middlewares/Third_Party/LwIP/src/core/pbuf.c **** #endif
 126:Middlewares/Third_Party/LwIP/src/core/pbuf.c **** 
 127:Middlewares/Third_Party/LwIP/src/core/pbuf.c **** #include <string.h>
 128:Middlewares/Third_Party/LwIP/src/core/pbuf.c **** 
 129:Middlewares/Third_Party/LwIP/src/core/pbuf.c **** #define SIZEOF_STRUCT_PBUF        LWIP_MEM_ALIGN_SIZE(sizeof(struct pbuf))
 130:Middlewares/Third_Party/LwIP/src/core/pbuf.c **** /* Since the pool is created in memp, PBUF_POOL_BUFSIZE will be automatically
 131:Middlewares/Third_Party/LwIP/src/core/pbuf.c ****    aligned there. Therefore, PBUF_POOL_BUFSIZE_ALIGNED can be used here. */
 132:Middlewares/Third_Party/LwIP/src/core/pbuf.c **** #define PBUF_POOL_BUFSIZE_ALIGNED LWIP_MEM_ALIGN_SIZE(PBUF_POOL_BUFSIZE)
 133:Middlewares/Third_Party/LwIP/src/core/pbuf.c **** 
 134:Middlewares/Third_Party/LwIP/src/core/pbuf.c **** #if !LWIP_TCP || !TCP_QUEUE_OOSEQ || !PBUF_POOL_FREE_OOSEQ
 135:Middlewares/Third_Party/LwIP/src/core/pbuf.c **** #define PBUF_POOL_IS_EMPTY()
 136:Middlewares/Third_Party/LwIP/src/core/pbuf.c **** #else /* !LWIP_TCP || !TCP_QUEUE_OOSEQ || !PBUF_POOL_FREE_OOSEQ */
 137:Middlewares/Third_Party/LwIP/src/core/pbuf.c **** 
 138:Middlewares/Third_Party/LwIP/src/core/pbuf.c **** #if !NO_SYS
 139:Middlewares/Third_Party/LwIP/src/core/pbuf.c **** #ifndef PBUF_POOL_FREE_OOSEQ_QUEUE_CALL
 140:Middlewares/Third_Party/LwIP/src/core/pbuf.c **** #include "lwip/tcpip.h"
 141:Middlewares/Third_Party/LwIP/src/core/pbuf.c **** #define PBUF_POOL_FREE_OOSEQ_QUEUE_CALL()  do { \
 142:Middlewares/Third_Party/LwIP/src/core/pbuf.c ****   if (tcpip_callback_with_block(pbuf_free_ooseq_callback, NULL, 0) != ERR_OK) { \
 143:Middlewares/Third_Party/LwIP/src/core/pbuf.c ****       SYS_ARCH_PROTECT(old_level); \
 144:Middlewares/Third_Party/LwIP/src/core/pbuf.c ****       pbuf_free_ooseq_pending = 0; \
ARM GAS  C:\Users\Nina\AppData\Local\Temp\ccfUDP6L.s 			page 4


 145:Middlewares/Third_Party/LwIP/src/core/pbuf.c ****       SYS_ARCH_UNPROTECT(old_level); \
 146:Middlewares/Third_Party/LwIP/src/core/pbuf.c ****   } } while(0)
 147:Middlewares/Third_Party/LwIP/src/core/pbuf.c **** #endif /* PBUF_POOL_FREE_OOSEQ_QUEUE_CALL */
 148:Middlewares/Third_Party/LwIP/src/core/pbuf.c **** #endif /* !NO_SYS */
 149:Middlewares/Third_Party/LwIP/src/core/pbuf.c **** 
 150:Middlewares/Third_Party/LwIP/src/core/pbuf.c **** volatile u8_t pbuf_free_ooseq_pending;
 151:Middlewares/Third_Party/LwIP/src/core/pbuf.c **** #define PBUF_POOL_IS_EMPTY() pbuf_pool_is_empty()
 152:Middlewares/Third_Party/LwIP/src/core/pbuf.c **** 
 153:Middlewares/Third_Party/LwIP/src/core/pbuf.c **** /**
 154:Middlewares/Third_Party/LwIP/src/core/pbuf.c ****  * Attempt to reclaim some memory from queued out-of-sequence TCP segments
 155:Middlewares/Third_Party/LwIP/src/core/pbuf.c ****  * if we run out of pool pbufs. It's better to give priority to new packets
 156:Middlewares/Third_Party/LwIP/src/core/pbuf.c ****  * if we're running out.
 157:Middlewares/Third_Party/LwIP/src/core/pbuf.c ****  *
 158:Middlewares/Third_Party/LwIP/src/core/pbuf.c ****  * This must be done in the correct thread context therefore this function
 159:Middlewares/Third_Party/LwIP/src/core/pbuf.c ****  * can only be used with NO_SYS=0 and through tcpip_callback.
 160:Middlewares/Third_Party/LwIP/src/core/pbuf.c ****  */
 161:Middlewares/Third_Party/LwIP/src/core/pbuf.c **** #if !NO_SYS
 162:Middlewares/Third_Party/LwIP/src/core/pbuf.c **** static
 163:Middlewares/Third_Party/LwIP/src/core/pbuf.c **** #endif /* !NO_SYS */
 164:Middlewares/Third_Party/LwIP/src/core/pbuf.c **** void
 165:Middlewares/Third_Party/LwIP/src/core/pbuf.c **** pbuf_free_ooseq(void)
 166:Middlewares/Third_Party/LwIP/src/core/pbuf.c **** {
 167:Middlewares/Third_Party/LwIP/src/core/pbuf.c ****   struct tcp_pcb* pcb;
 168:Middlewares/Third_Party/LwIP/src/core/pbuf.c ****   SYS_ARCH_SET(pbuf_free_ooseq_pending, 0);
 169:Middlewares/Third_Party/LwIP/src/core/pbuf.c **** 
 170:Middlewares/Third_Party/LwIP/src/core/pbuf.c ****   for (pcb = tcp_active_pcbs; NULL != pcb; pcb = pcb->next) {
 171:Middlewares/Third_Party/LwIP/src/core/pbuf.c ****     if (NULL != pcb->ooseq) {
 172:Middlewares/Third_Party/LwIP/src/core/pbuf.c ****       /** Free the ooseq pbufs of one PCB only */
 173:Middlewares/Third_Party/LwIP/src/core/pbuf.c ****       LWIP_DEBUGF(PBUF_DEBUG | LWIP_DBG_TRACE, ("pbuf_free_ooseq: freeing out-of-sequence pbufs\n")
 174:Middlewares/Third_Party/LwIP/src/core/pbuf.c ****       tcp_segs_free(pcb->ooseq);
 175:Middlewares/Third_Party/LwIP/src/core/pbuf.c ****       pcb->ooseq = NULL;
 176:Middlewares/Third_Party/LwIP/src/core/pbuf.c ****       return;
 177:Middlewares/Third_Party/LwIP/src/core/pbuf.c ****     }
 178:Middlewares/Third_Party/LwIP/src/core/pbuf.c ****   }
 179:Middlewares/Third_Party/LwIP/src/core/pbuf.c **** }
 180:Middlewares/Third_Party/LwIP/src/core/pbuf.c **** 
 181:Middlewares/Third_Party/LwIP/src/core/pbuf.c **** #if !NO_SYS
 182:Middlewares/Third_Party/LwIP/src/core/pbuf.c **** /**
 183:Middlewares/Third_Party/LwIP/src/core/pbuf.c ****  * Just a callback function for tcpip_callback() that calls pbuf_free_ooseq().
 184:Middlewares/Third_Party/LwIP/src/core/pbuf.c ****  */
 185:Middlewares/Third_Party/LwIP/src/core/pbuf.c **** static void
 186:Middlewares/Third_Party/LwIP/src/core/pbuf.c **** pbuf_free_ooseq_callback(void *arg)
 187:Middlewares/Third_Party/LwIP/src/core/pbuf.c **** {
 188:Middlewares/Third_Party/LwIP/src/core/pbuf.c ****   LWIP_UNUSED_ARG(arg);
 189:Middlewares/Third_Party/LwIP/src/core/pbuf.c ****   pbuf_free_ooseq();
 190:Middlewares/Third_Party/LwIP/src/core/pbuf.c **** }
 191:Middlewares/Third_Party/LwIP/src/core/pbuf.c **** #endif /* !NO_SYS */
 192:Middlewares/Third_Party/LwIP/src/core/pbuf.c **** 
 193:Middlewares/Third_Party/LwIP/src/core/pbuf.c **** /** Queue a call to pbuf_free_ooseq if not already queued. */
 194:Middlewares/Third_Party/LwIP/src/core/pbuf.c **** static void
 195:Middlewares/Third_Party/LwIP/src/core/pbuf.c **** pbuf_pool_is_empty(void)
 196:Middlewares/Third_Party/LwIP/src/core/pbuf.c **** {
 197:Middlewares/Third_Party/LwIP/src/core/pbuf.c **** #ifndef PBUF_POOL_FREE_OOSEQ_QUEUE_CALL
 198:Middlewares/Third_Party/LwIP/src/core/pbuf.c ****   SYS_ARCH_SET(pbuf_free_ooseq_pending, 1);
 199:Middlewares/Third_Party/LwIP/src/core/pbuf.c **** #else /* PBUF_POOL_FREE_OOSEQ_QUEUE_CALL */
 200:Middlewares/Third_Party/LwIP/src/core/pbuf.c ****   u8_t queued;
 201:Middlewares/Third_Party/LwIP/src/core/pbuf.c ****   SYS_ARCH_DECL_PROTECT(old_level);
ARM GAS  C:\Users\Nina\AppData\Local\Temp\ccfUDP6L.s 			page 5


 202:Middlewares/Third_Party/LwIP/src/core/pbuf.c ****   SYS_ARCH_PROTECT(old_level);
 203:Middlewares/Third_Party/LwIP/src/core/pbuf.c ****   queued = pbuf_free_ooseq_pending;
 204:Middlewares/Third_Party/LwIP/src/core/pbuf.c ****   pbuf_free_ooseq_pending = 1;
 205:Middlewares/Third_Party/LwIP/src/core/pbuf.c ****   SYS_ARCH_UNPROTECT(old_level);
 206:Middlewares/Third_Party/LwIP/src/core/pbuf.c **** 
 207:Middlewares/Third_Party/LwIP/src/core/pbuf.c ****   if (!queued) {
 208:Middlewares/Third_Party/LwIP/src/core/pbuf.c ****     /* queue a call to pbuf_free_ooseq if not already queued */
 209:Middlewares/Third_Party/LwIP/src/core/pbuf.c ****     PBUF_POOL_FREE_OOSEQ_QUEUE_CALL();
 210:Middlewares/Third_Party/LwIP/src/core/pbuf.c ****   }
 211:Middlewares/Third_Party/LwIP/src/core/pbuf.c **** #endif /* PBUF_POOL_FREE_OOSEQ_QUEUE_CALL */
 212:Middlewares/Third_Party/LwIP/src/core/pbuf.c **** }
 213:Middlewares/Third_Party/LwIP/src/core/pbuf.c **** #endif /* !LWIP_TCP || !TCP_QUEUE_OOSEQ || !PBUF_POOL_FREE_OOSEQ */
 214:Middlewares/Third_Party/LwIP/src/core/pbuf.c **** 
 215:Middlewares/Third_Party/LwIP/src/core/pbuf.c **** /**
 216:Middlewares/Third_Party/LwIP/src/core/pbuf.c ****  * @ingroup pbuf
 217:Middlewares/Third_Party/LwIP/src/core/pbuf.c ****  * Allocates a pbuf of the given type (possibly a chain for PBUF_POOL type).
 218:Middlewares/Third_Party/LwIP/src/core/pbuf.c ****  *
 219:Middlewares/Third_Party/LwIP/src/core/pbuf.c ****  * The actual memory allocated for the pbuf is determined by the
 220:Middlewares/Third_Party/LwIP/src/core/pbuf.c ****  * layer at which the pbuf is allocated and the requested size
 221:Middlewares/Third_Party/LwIP/src/core/pbuf.c ****  * (from the size parameter).
 222:Middlewares/Third_Party/LwIP/src/core/pbuf.c ****  *
 223:Middlewares/Third_Party/LwIP/src/core/pbuf.c ****  * @param layer flag to define header size
 224:Middlewares/Third_Party/LwIP/src/core/pbuf.c ****  * @param length size of the pbuf's payload
 225:Middlewares/Third_Party/LwIP/src/core/pbuf.c ****  * @param type this parameter decides how and where the pbuf
 226:Middlewares/Third_Party/LwIP/src/core/pbuf.c ****  * should be allocated as follows:
 227:Middlewares/Third_Party/LwIP/src/core/pbuf.c ****  *
 228:Middlewares/Third_Party/LwIP/src/core/pbuf.c ****  * - PBUF_RAM: buffer memory for pbuf is allocated as one large
 229:Middlewares/Third_Party/LwIP/src/core/pbuf.c ****  *             chunk. This includes protocol headers as well.
 230:Middlewares/Third_Party/LwIP/src/core/pbuf.c ****  * - PBUF_ROM: no buffer memory is allocated for the pbuf, even for
 231:Middlewares/Third_Party/LwIP/src/core/pbuf.c ****  *             protocol headers. Additional headers must be prepended
 232:Middlewares/Third_Party/LwIP/src/core/pbuf.c ****  *             by allocating another pbuf and chain in to the front of
 233:Middlewares/Third_Party/LwIP/src/core/pbuf.c ****  *             the ROM pbuf. It is assumed that the memory used is really
 234:Middlewares/Third_Party/LwIP/src/core/pbuf.c ****  *             similar to ROM in that it is immutable and will not be
 235:Middlewares/Third_Party/LwIP/src/core/pbuf.c ****  *             changed. Memory which is dynamic should generally not
 236:Middlewares/Third_Party/LwIP/src/core/pbuf.c ****  *             be attached to PBUF_ROM pbufs. Use PBUF_REF instead.
 237:Middlewares/Third_Party/LwIP/src/core/pbuf.c ****  * - PBUF_REF: no buffer memory is allocated for the pbuf, even for
 238:Middlewares/Third_Party/LwIP/src/core/pbuf.c ****  *             protocol headers. It is assumed that the pbuf is only
 239:Middlewares/Third_Party/LwIP/src/core/pbuf.c ****  *             being used in a single thread. If the pbuf gets queued,
 240:Middlewares/Third_Party/LwIP/src/core/pbuf.c ****  *             then pbuf_take should be called to copy the buffer.
 241:Middlewares/Third_Party/LwIP/src/core/pbuf.c ****  * - PBUF_POOL: the pbuf is allocated as a pbuf chain, with pbufs from
 242:Middlewares/Third_Party/LwIP/src/core/pbuf.c ****  *              the pbuf pool that is allocated during pbuf_init().
 243:Middlewares/Third_Party/LwIP/src/core/pbuf.c ****  *
 244:Middlewares/Third_Party/LwIP/src/core/pbuf.c ****  * @return the allocated pbuf. If multiple pbufs where allocated, this
 245:Middlewares/Third_Party/LwIP/src/core/pbuf.c ****  * is the first pbuf of a pbuf chain.
 246:Middlewares/Third_Party/LwIP/src/core/pbuf.c ****  */
 247:Middlewares/Third_Party/LwIP/src/core/pbuf.c **** struct pbuf *
 248:Middlewares/Third_Party/LwIP/src/core/pbuf.c **** pbuf_alloc(pbuf_layer layer, u16_t length, pbuf_type type)
 249:Middlewares/Third_Party/LwIP/src/core/pbuf.c **** {
 250:Middlewares/Third_Party/LwIP/src/core/pbuf.c ****   struct pbuf *p, *q, *r;
 251:Middlewares/Third_Party/LwIP/src/core/pbuf.c ****   u16_t offset;
 252:Middlewares/Third_Party/LwIP/src/core/pbuf.c ****   s32_t rem_len; /* remaining length */
 253:Middlewares/Third_Party/LwIP/src/core/pbuf.c ****   LWIP_DEBUGF(PBUF_DEBUG | LWIP_DBG_TRACE, ("pbuf_alloc(length=%"U16_F")\n", length));
 254:Middlewares/Third_Party/LwIP/src/core/pbuf.c **** 
 255:Middlewares/Third_Party/LwIP/src/core/pbuf.c ****   /* determine header offset */
 256:Middlewares/Third_Party/LwIP/src/core/pbuf.c ****   switch (layer) {
 257:Middlewares/Third_Party/LwIP/src/core/pbuf.c ****   case PBUF_TRANSPORT:
 258:Middlewares/Third_Party/LwIP/src/core/pbuf.c ****     /* add room for transport (often TCP) layer header */
ARM GAS  C:\Users\Nina\AppData\Local\Temp\ccfUDP6L.s 			page 6


 259:Middlewares/Third_Party/LwIP/src/core/pbuf.c ****     offset = PBUF_LINK_ENCAPSULATION_HLEN + PBUF_LINK_HLEN + PBUF_IP_HLEN + PBUF_TRANSPORT_HLEN;
 260:Middlewares/Third_Party/LwIP/src/core/pbuf.c ****     break;
 261:Middlewares/Third_Party/LwIP/src/core/pbuf.c ****   case PBUF_IP:
 262:Middlewares/Third_Party/LwIP/src/core/pbuf.c ****     /* add room for IP layer header */
 263:Middlewares/Third_Party/LwIP/src/core/pbuf.c ****     offset = PBUF_LINK_ENCAPSULATION_HLEN + PBUF_LINK_HLEN + PBUF_IP_HLEN;
 264:Middlewares/Third_Party/LwIP/src/core/pbuf.c ****     break;
 265:Middlewares/Third_Party/LwIP/src/core/pbuf.c ****   case PBUF_LINK:
 266:Middlewares/Third_Party/LwIP/src/core/pbuf.c ****     /* add room for link layer header */
 267:Middlewares/Third_Party/LwIP/src/core/pbuf.c ****     offset = PBUF_LINK_ENCAPSULATION_HLEN + PBUF_LINK_HLEN;
 268:Middlewares/Third_Party/LwIP/src/core/pbuf.c ****     break;
 269:Middlewares/Third_Party/LwIP/src/core/pbuf.c ****   case PBUF_RAW_TX:
 270:Middlewares/Third_Party/LwIP/src/core/pbuf.c ****     /* add room for encapsulating link layer headers (e.g. 802.11) */
 271:Middlewares/Third_Party/LwIP/src/core/pbuf.c ****     offset = PBUF_LINK_ENCAPSULATION_HLEN;
 272:Middlewares/Third_Party/LwIP/src/core/pbuf.c ****     break;
 273:Middlewares/Third_Party/LwIP/src/core/pbuf.c ****   case PBUF_RAW:
 274:Middlewares/Third_Party/LwIP/src/core/pbuf.c ****     /* no offset (e.g. RX buffers or chain successors) */
 275:Middlewares/Third_Party/LwIP/src/core/pbuf.c ****     offset = 0;
 276:Middlewares/Third_Party/LwIP/src/core/pbuf.c ****     break;
 277:Middlewares/Third_Party/LwIP/src/core/pbuf.c ****   default:
 278:Middlewares/Third_Party/LwIP/src/core/pbuf.c ****     LWIP_ASSERT("pbuf_alloc: bad pbuf layer", 0);
 279:Middlewares/Third_Party/LwIP/src/core/pbuf.c ****     return NULL;
 280:Middlewares/Third_Party/LwIP/src/core/pbuf.c ****   }
 281:Middlewares/Third_Party/LwIP/src/core/pbuf.c **** 
 282:Middlewares/Third_Party/LwIP/src/core/pbuf.c ****   switch (type) {
 283:Middlewares/Third_Party/LwIP/src/core/pbuf.c ****   case PBUF_POOL:
 284:Middlewares/Third_Party/LwIP/src/core/pbuf.c ****     /* allocate head of pbuf chain into p */
 285:Middlewares/Third_Party/LwIP/src/core/pbuf.c ****     p = (struct pbuf *)memp_malloc(MEMP_PBUF_POOL);
 286:Middlewares/Third_Party/LwIP/src/core/pbuf.c ****     LWIP_DEBUGF(PBUF_DEBUG | LWIP_DBG_TRACE, ("pbuf_alloc: allocated pbuf %p\n", (void *)p));
 287:Middlewares/Third_Party/LwIP/src/core/pbuf.c ****     if (p == NULL) {
 288:Middlewares/Third_Party/LwIP/src/core/pbuf.c ****       PBUF_POOL_IS_EMPTY();
 289:Middlewares/Third_Party/LwIP/src/core/pbuf.c ****       return NULL;
 290:Middlewares/Third_Party/LwIP/src/core/pbuf.c ****     }
 291:Middlewares/Third_Party/LwIP/src/core/pbuf.c ****     p->type = type;
 292:Middlewares/Third_Party/LwIP/src/core/pbuf.c ****     p->next = NULL;
 293:Middlewares/Third_Party/LwIP/src/core/pbuf.c **** 
 294:Middlewares/Third_Party/LwIP/src/core/pbuf.c ****     /* make the payload pointer point 'offset' bytes into pbuf data memory */
 295:Middlewares/Third_Party/LwIP/src/core/pbuf.c ****     p->payload = LWIP_MEM_ALIGN((void *)((u8_t *)p + (SIZEOF_STRUCT_PBUF + offset)));
 296:Middlewares/Third_Party/LwIP/src/core/pbuf.c ****     LWIP_ASSERT("pbuf_alloc: pbuf p->payload properly aligned",
 297:Middlewares/Third_Party/LwIP/src/core/pbuf.c ****             ((mem_ptr_t)p->payload % MEM_ALIGNMENT) == 0);
 298:Middlewares/Third_Party/LwIP/src/core/pbuf.c ****     /* the total length of the pbuf chain is the requested size */
 299:Middlewares/Third_Party/LwIP/src/core/pbuf.c ****     p->tot_len = length;
 300:Middlewares/Third_Party/LwIP/src/core/pbuf.c ****     /* set the length of the first pbuf in the chain */
 301:Middlewares/Third_Party/LwIP/src/core/pbuf.c ****     p->len = LWIP_MIN(length, PBUF_POOL_BUFSIZE_ALIGNED - LWIP_MEM_ALIGN_SIZE(offset));
 302:Middlewares/Third_Party/LwIP/src/core/pbuf.c ****     LWIP_ASSERT("check p->payload + p->len does not overflow pbuf",
 303:Middlewares/Third_Party/LwIP/src/core/pbuf.c ****                 ((u8_t*)p->payload + p->len <=
 304:Middlewares/Third_Party/LwIP/src/core/pbuf.c ****                  (u8_t*)p + SIZEOF_STRUCT_PBUF + PBUF_POOL_BUFSIZE_ALIGNED));
 305:Middlewares/Third_Party/LwIP/src/core/pbuf.c ****     LWIP_ASSERT("PBUF_POOL_BUFSIZE must be bigger than MEM_ALIGNMENT",
 306:Middlewares/Third_Party/LwIP/src/core/pbuf.c ****       (PBUF_POOL_BUFSIZE_ALIGNED - LWIP_MEM_ALIGN_SIZE(offset)) > 0 );
 307:Middlewares/Third_Party/LwIP/src/core/pbuf.c ****     /* set reference count (needed here in case we fail) */
 308:Middlewares/Third_Party/LwIP/src/core/pbuf.c ****     p->ref = 1;
 309:Middlewares/Third_Party/LwIP/src/core/pbuf.c **** 
 310:Middlewares/Third_Party/LwIP/src/core/pbuf.c ****     /* now allocate the tail of the pbuf chain */
 311:Middlewares/Third_Party/LwIP/src/core/pbuf.c **** 
 312:Middlewares/Third_Party/LwIP/src/core/pbuf.c ****     /* remember first pbuf for linkage in next iteration */
 313:Middlewares/Third_Party/LwIP/src/core/pbuf.c ****     r = p;
 314:Middlewares/Third_Party/LwIP/src/core/pbuf.c ****     /* remaining length to be allocated */
 315:Middlewares/Third_Party/LwIP/src/core/pbuf.c ****     rem_len = length - p->len;
ARM GAS  C:\Users\Nina\AppData\Local\Temp\ccfUDP6L.s 			page 7


 316:Middlewares/Third_Party/LwIP/src/core/pbuf.c ****     /* any remaining pbufs to be allocated? */
 317:Middlewares/Third_Party/LwIP/src/core/pbuf.c ****     while (rem_len > 0) {
 318:Middlewares/Third_Party/LwIP/src/core/pbuf.c ****       q = (struct pbuf *)memp_malloc(MEMP_PBUF_POOL);
 319:Middlewares/Third_Party/LwIP/src/core/pbuf.c ****       if (q == NULL) {
 320:Middlewares/Third_Party/LwIP/src/core/pbuf.c ****         PBUF_POOL_IS_EMPTY();
 321:Middlewares/Third_Party/LwIP/src/core/pbuf.c ****         /* free chain so far allocated */
 322:Middlewares/Third_Party/LwIP/src/core/pbuf.c ****         pbuf_free(p);
 323:Middlewares/Third_Party/LwIP/src/core/pbuf.c ****         /* bail out unsuccessfully */
 324:Middlewares/Third_Party/LwIP/src/core/pbuf.c ****         return NULL;
 325:Middlewares/Third_Party/LwIP/src/core/pbuf.c ****       }
 326:Middlewares/Third_Party/LwIP/src/core/pbuf.c ****       q->type = type;
 327:Middlewares/Third_Party/LwIP/src/core/pbuf.c ****       q->flags = 0;
 328:Middlewares/Third_Party/LwIP/src/core/pbuf.c ****       q->next = NULL;
 329:Middlewares/Third_Party/LwIP/src/core/pbuf.c ****       /* make previous pbuf point to this pbuf */
 330:Middlewares/Third_Party/LwIP/src/core/pbuf.c ****       r->next = q;
 331:Middlewares/Third_Party/LwIP/src/core/pbuf.c ****       /* set total length of this pbuf and next in chain */
 332:Middlewares/Third_Party/LwIP/src/core/pbuf.c ****       LWIP_ASSERT("rem_len < max_u16_t", rem_len < 0xffff);
 333:Middlewares/Third_Party/LwIP/src/core/pbuf.c ****       q->tot_len = (u16_t)rem_len;
 334:Middlewares/Third_Party/LwIP/src/core/pbuf.c ****       /* this pbuf length is pool size, unless smaller sized tail */
 335:Middlewares/Third_Party/LwIP/src/core/pbuf.c ****       q->len = LWIP_MIN((u16_t)rem_len, PBUF_POOL_BUFSIZE_ALIGNED);
 336:Middlewares/Third_Party/LwIP/src/core/pbuf.c ****       q->payload = (void *)((u8_t *)q + SIZEOF_STRUCT_PBUF);
 337:Middlewares/Third_Party/LwIP/src/core/pbuf.c ****       LWIP_ASSERT("pbuf_alloc: pbuf q->payload properly aligned",
 338:Middlewares/Third_Party/LwIP/src/core/pbuf.c ****               ((mem_ptr_t)q->payload % MEM_ALIGNMENT) == 0);
 339:Middlewares/Third_Party/LwIP/src/core/pbuf.c ****       LWIP_ASSERT("check p->payload + p->len does not overflow pbuf",
 340:Middlewares/Third_Party/LwIP/src/core/pbuf.c ****                   ((u8_t*)p->payload + p->len <=
 341:Middlewares/Third_Party/LwIP/src/core/pbuf.c ****                    (u8_t*)p + SIZEOF_STRUCT_PBUF + PBUF_POOL_BUFSIZE_ALIGNED));
 342:Middlewares/Third_Party/LwIP/src/core/pbuf.c ****       q->ref = 1;
 343:Middlewares/Third_Party/LwIP/src/core/pbuf.c ****       /* calculate remaining length to be allocated */
 344:Middlewares/Third_Party/LwIP/src/core/pbuf.c ****       rem_len -= q->len;
 345:Middlewares/Third_Party/LwIP/src/core/pbuf.c ****       /* remember this pbuf for linkage in next iteration */
 346:Middlewares/Third_Party/LwIP/src/core/pbuf.c ****       r = q;
 347:Middlewares/Third_Party/LwIP/src/core/pbuf.c ****     }
 348:Middlewares/Third_Party/LwIP/src/core/pbuf.c ****     /* end of chain */
 349:Middlewares/Third_Party/LwIP/src/core/pbuf.c ****     /*r->next = NULL;*/
 350:Middlewares/Third_Party/LwIP/src/core/pbuf.c **** 
 351:Middlewares/Third_Party/LwIP/src/core/pbuf.c ****     break;
 352:Middlewares/Third_Party/LwIP/src/core/pbuf.c ****   case PBUF_RAM:
 353:Middlewares/Third_Party/LwIP/src/core/pbuf.c ****     {
 354:Middlewares/Third_Party/LwIP/src/core/pbuf.c ****       mem_size_t alloc_len = LWIP_MEM_ALIGN_SIZE(SIZEOF_STRUCT_PBUF + offset) + LWIP_MEM_ALIGN_SIZE
 355:Middlewares/Third_Party/LwIP/src/core/pbuf.c ****       
 356:Middlewares/Third_Party/LwIP/src/core/pbuf.c ****       /* bug #50040: Check for integer overflow when calculating alloc_len */
 357:Middlewares/Third_Party/LwIP/src/core/pbuf.c ****       if (alloc_len < LWIP_MEM_ALIGN_SIZE(length)) {
 358:Middlewares/Third_Party/LwIP/src/core/pbuf.c ****         return NULL;
 359:Middlewares/Third_Party/LwIP/src/core/pbuf.c ****       }
 360:Middlewares/Third_Party/LwIP/src/core/pbuf.c ****     
 361:Middlewares/Third_Party/LwIP/src/core/pbuf.c ****       /* If pbuf is to be allocated in RAM, allocate memory for it. */
 362:Middlewares/Third_Party/LwIP/src/core/pbuf.c ****       p = (struct pbuf*)mem_malloc(alloc_len);
 363:Middlewares/Third_Party/LwIP/src/core/pbuf.c ****     }
 364:Middlewares/Third_Party/LwIP/src/core/pbuf.c **** 
 365:Middlewares/Third_Party/LwIP/src/core/pbuf.c ****     if (p == NULL) {
 366:Middlewares/Third_Party/LwIP/src/core/pbuf.c ****       return NULL;
 367:Middlewares/Third_Party/LwIP/src/core/pbuf.c ****     }
 368:Middlewares/Third_Party/LwIP/src/core/pbuf.c ****     /* Set up internal structure of the pbuf. */
 369:Middlewares/Third_Party/LwIP/src/core/pbuf.c ****     p->payload = LWIP_MEM_ALIGN((void *)((u8_t *)p + SIZEOF_STRUCT_PBUF + offset));
 370:Middlewares/Third_Party/LwIP/src/core/pbuf.c ****     p->len = p->tot_len = length;
 371:Middlewares/Third_Party/LwIP/src/core/pbuf.c ****     p->next = NULL;
 372:Middlewares/Third_Party/LwIP/src/core/pbuf.c ****     p->type = type;
ARM GAS  C:\Users\Nina\AppData\Local\Temp\ccfUDP6L.s 			page 8


 373:Middlewares/Third_Party/LwIP/src/core/pbuf.c **** 
 374:Middlewares/Third_Party/LwIP/src/core/pbuf.c ****     LWIP_ASSERT("pbuf_alloc: pbuf->payload properly aligned",
 375:Middlewares/Third_Party/LwIP/src/core/pbuf.c ****            ((mem_ptr_t)p->payload % MEM_ALIGNMENT) == 0);
 376:Middlewares/Third_Party/LwIP/src/core/pbuf.c ****     break;
 377:Middlewares/Third_Party/LwIP/src/core/pbuf.c ****   /* pbuf references existing (non-volatile static constant) ROM payload? */
 378:Middlewares/Third_Party/LwIP/src/core/pbuf.c ****   case PBUF_ROM:
 379:Middlewares/Third_Party/LwIP/src/core/pbuf.c ****   /* pbuf references existing (externally allocated) RAM payload? */
 380:Middlewares/Third_Party/LwIP/src/core/pbuf.c ****   case PBUF_REF:
 381:Middlewares/Third_Party/LwIP/src/core/pbuf.c ****     /* only allocate memory for the pbuf structure */
 382:Middlewares/Third_Party/LwIP/src/core/pbuf.c ****     p = (struct pbuf *)memp_malloc(MEMP_PBUF);
 383:Middlewares/Third_Party/LwIP/src/core/pbuf.c ****     if (p == NULL) {
 384:Middlewares/Third_Party/LwIP/src/core/pbuf.c ****       LWIP_DEBUGF(PBUF_DEBUG | LWIP_DBG_LEVEL_SERIOUS,
 385:Middlewares/Third_Party/LwIP/src/core/pbuf.c ****                   ("pbuf_alloc: Could not allocate MEMP_PBUF for PBUF_%s.\n",
 386:Middlewares/Third_Party/LwIP/src/core/pbuf.c ****                   (type == PBUF_ROM) ? "ROM" : "REF"));
 387:Middlewares/Third_Party/LwIP/src/core/pbuf.c ****       return NULL;
 388:Middlewares/Third_Party/LwIP/src/core/pbuf.c ****     }
 389:Middlewares/Third_Party/LwIP/src/core/pbuf.c ****     /* caller must set this field properly, afterwards */
 390:Middlewares/Third_Party/LwIP/src/core/pbuf.c ****     p->payload = NULL;
 391:Middlewares/Third_Party/LwIP/src/core/pbuf.c ****     p->len = p->tot_len = length;
 392:Middlewares/Third_Party/LwIP/src/core/pbuf.c ****     p->next = NULL;
 393:Middlewares/Third_Party/LwIP/src/core/pbuf.c ****     p->type = type;
 394:Middlewares/Third_Party/LwIP/src/core/pbuf.c ****     break;
 395:Middlewares/Third_Party/LwIP/src/core/pbuf.c ****   default:
 396:Middlewares/Third_Party/LwIP/src/core/pbuf.c ****     LWIP_ASSERT("pbuf_alloc: erroneous type", 0);
 397:Middlewares/Third_Party/LwIP/src/core/pbuf.c ****     return NULL;
 398:Middlewares/Third_Party/LwIP/src/core/pbuf.c ****   }
 399:Middlewares/Third_Party/LwIP/src/core/pbuf.c ****   /* set reference count */
 400:Middlewares/Third_Party/LwIP/src/core/pbuf.c ****   p->ref = 1;
 401:Middlewares/Third_Party/LwIP/src/core/pbuf.c ****   /* set flags */
 402:Middlewares/Third_Party/LwIP/src/core/pbuf.c ****   p->flags = 0;
 403:Middlewares/Third_Party/LwIP/src/core/pbuf.c ****   LWIP_DEBUGF(PBUF_DEBUG | LWIP_DBG_TRACE, ("pbuf_alloc(length=%"U16_F") == %p\n", length, (void *)
 404:Middlewares/Third_Party/LwIP/src/core/pbuf.c ****   return p;
 405:Middlewares/Third_Party/LwIP/src/core/pbuf.c **** }
 406:Middlewares/Third_Party/LwIP/src/core/pbuf.c **** 
 407:Middlewares/Third_Party/LwIP/src/core/pbuf.c **** #if LWIP_SUPPORT_CUSTOM_PBUF
 408:Middlewares/Third_Party/LwIP/src/core/pbuf.c **** /**
 409:Middlewares/Third_Party/LwIP/src/core/pbuf.c ****  * @ingroup pbuf
 410:Middlewares/Third_Party/LwIP/src/core/pbuf.c ****  * Initialize a custom pbuf (already allocated).
 411:Middlewares/Third_Party/LwIP/src/core/pbuf.c ****  *
 412:Middlewares/Third_Party/LwIP/src/core/pbuf.c ****  * @param l flag to define header size
 413:Middlewares/Third_Party/LwIP/src/core/pbuf.c ****  * @param length size of the pbuf's payload
 414:Middlewares/Third_Party/LwIP/src/core/pbuf.c ****  * @param type type of the pbuf (only used to treat the pbuf accordingly, as
 415:Middlewares/Third_Party/LwIP/src/core/pbuf.c ****  *        this function allocates no memory)
 416:Middlewares/Third_Party/LwIP/src/core/pbuf.c ****  * @param p pointer to the custom pbuf to initialize (already allocated)
 417:Middlewares/Third_Party/LwIP/src/core/pbuf.c ****  * @param payload_mem pointer to the buffer that is used for payload and headers,
 418:Middlewares/Third_Party/LwIP/src/core/pbuf.c ****  *        must be at least big enough to hold 'length' plus the header size,
 419:Middlewares/Third_Party/LwIP/src/core/pbuf.c ****  *        may be NULL if set later.
 420:Middlewares/Third_Party/LwIP/src/core/pbuf.c ****  *        ATTENTION: The caller is responsible for correct alignment of this buffer!!
 421:Middlewares/Third_Party/LwIP/src/core/pbuf.c ****  * @param payload_mem_len the size of the 'payload_mem' buffer, must be at least
 422:Middlewares/Third_Party/LwIP/src/core/pbuf.c ****  *        big enough to hold 'length' plus the header size
 423:Middlewares/Third_Party/LwIP/src/core/pbuf.c ****  */
 424:Middlewares/Third_Party/LwIP/src/core/pbuf.c **** struct pbuf*
 425:Middlewares/Third_Party/LwIP/src/core/pbuf.c **** pbuf_alloced_custom(pbuf_layer l, u16_t length, pbuf_type type, struct pbuf_custom *p,
 426:Middlewares/Third_Party/LwIP/src/core/pbuf.c ****                     void *payload_mem, u16_t payload_mem_len)
 427:Middlewares/Third_Party/LwIP/src/core/pbuf.c **** {
 428:Middlewares/Third_Party/LwIP/src/core/pbuf.c ****   u16_t offset;
 429:Middlewares/Third_Party/LwIP/src/core/pbuf.c ****   LWIP_DEBUGF(PBUF_DEBUG | LWIP_DBG_TRACE, ("pbuf_alloced_custom(length=%"U16_F")\n", length));
ARM GAS  C:\Users\Nina\AppData\Local\Temp\ccfUDP6L.s 			page 9


 430:Middlewares/Third_Party/LwIP/src/core/pbuf.c **** 
 431:Middlewares/Third_Party/LwIP/src/core/pbuf.c ****   /* determine header offset */
 432:Middlewares/Third_Party/LwIP/src/core/pbuf.c ****   switch (l) {
 433:Middlewares/Third_Party/LwIP/src/core/pbuf.c ****   case PBUF_TRANSPORT:
 434:Middlewares/Third_Party/LwIP/src/core/pbuf.c ****     /* add room for transport (often TCP) layer header */
 435:Middlewares/Third_Party/LwIP/src/core/pbuf.c ****     offset = PBUF_LINK_ENCAPSULATION_HLEN + PBUF_LINK_HLEN + PBUF_IP_HLEN + PBUF_TRANSPORT_HLEN;
 436:Middlewares/Third_Party/LwIP/src/core/pbuf.c ****     break;
 437:Middlewares/Third_Party/LwIP/src/core/pbuf.c ****   case PBUF_IP:
 438:Middlewares/Third_Party/LwIP/src/core/pbuf.c ****     /* add room for IP layer header */
 439:Middlewares/Third_Party/LwIP/src/core/pbuf.c ****     offset = PBUF_LINK_ENCAPSULATION_HLEN + PBUF_LINK_HLEN + PBUF_IP_HLEN;
 440:Middlewares/Third_Party/LwIP/src/core/pbuf.c ****     break;
 441:Middlewares/Third_Party/LwIP/src/core/pbuf.c ****   case PBUF_LINK:
 442:Middlewares/Third_Party/LwIP/src/core/pbuf.c ****     /* add room for link layer header */
 443:Middlewares/Third_Party/LwIP/src/core/pbuf.c ****     offset = PBUF_LINK_ENCAPSULATION_HLEN + PBUF_LINK_HLEN;
 444:Middlewares/Third_Party/LwIP/src/core/pbuf.c ****     break;
 445:Middlewares/Third_Party/LwIP/src/core/pbuf.c ****   case PBUF_RAW_TX:
 446:Middlewares/Third_Party/LwIP/src/core/pbuf.c ****     /* add room for encapsulating link layer headers (e.g. 802.11) */
 447:Middlewares/Third_Party/LwIP/src/core/pbuf.c ****     offset = PBUF_LINK_ENCAPSULATION_HLEN;
 448:Middlewares/Third_Party/LwIP/src/core/pbuf.c ****     break;
 449:Middlewares/Third_Party/LwIP/src/core/pbuf.c ****   case PBUF_RAW:
 450:Middlewares/Third_Party/LwIP/src/core/pbuf.c ****     offset = 0;
 451:Middlewares/Third_Party/LwIP/src/core/pbuf.c ****     break;
 452:Middlewares/Third_Party/LwIP/src/core/pbuf.c ****   default:
 453:Middlewares/Third_Party/LwIP/src/core/pbuf.c ****     LWIP_ASSERT("pbuf_alloced_custom: bad pbuf layer", 0);
 454:Middlewares/Third_Party/LwIP/src/core/pbuf.c ****     return NULL;
 455:Middlewares/Third_Party/LwIP/src/core/pbuf.c ****   }
 456:Middlewares/Third_Party/LwIP/src/core/pbuf.c **** 
 457:Middlewares/Third_Party/LwIP/src/core/pbuf.c ****   if (LWIP_MEM_ALIGN_SIZE(offset) + length > payload_mem_len) {
 458:Middlewares/Third_Party/LwIP/src/core/pbuf.c ****     LWIP_DEBUGF(PBUF_DEBUG | LWIP_DBG_LEVEL_WARNING, ("pbuf_alloced_custom(length=%"U16_F") buffer 
 459:Middlewares/Third_Party/LwIP/src/core/pbuf.c ****     return NULL;
 460:Middlewares/Third_Party/LwIP/src/core/pbuf.c ****   }
 461:Middlewares/Third_Party/LwIP/src/core/pbuf.c **** 
 462:Middlewares/Third_Party/LwIP/src/core/pbuf.c ****   p->pbuf.next = NULL;
 463:Middlewares/Third_Party/LwIP/src/core/pbuf.c ****   if (payload_mem != NULL) {
 464:Middlewares/Third_Party/LwIP/src/core/pbuf.c ****     p->pbuf.payload = (u8_t *)payload_mem + LWIP_MEM_ALIGN_SIZE(offset);
 465:Middlewares/Third_Party/LwIP/src/core/pbuf.c ****   } else {
 466:Middlewares/Third_Party/LwIP/src/core/pbuf.c ****     p->pbuf.payload = NULL;
 467:Middlewares/Third_Party/LwIP/src/core/pbuf.c ****   }
 468:Middlewares/Third_Party/LwIP/src/core/pbuf.c ****   p->pbuf.flags = PBUF_FLAG_IS_CUSTOM;
 469:Middlewares/Third_Party/LwIP/src/core/pbuf.c ****   p->pbuf.len = p->pbuf.tot_len = length;
 470:Middlewares/Third_Party/LwIP/src/core/pbuf.c ****   p->pbuf.type = type;
 471:Middlewares/Third_Party/LwIP/src/core/pbuf.c ****   p->pbuf.ref = 1;
 472:Middlewares/Third_Party/LwIP/src/core/pbuf.c ****   return &p->pbuf;
 473:Middlewares/Third_Party/LwIP/src/core/pbuf.c **** }
 474:Middlewares/Third_Party/LwIP/src/core/pbuf.c **** #endif /* LWIP_SUPPORT_CUSTOM_PBUF */
 475:Middlewares/Third_Party/LwIP/src/core/pbuf.c **** 
 476:Middlewares/Third_Party/LwIP/src/core/pbuf.c **** /**
 477:Middlewares/Third_Party/LwIP/src/core/pbuf.c ****  * @ingroup pbuf
 478:Middlewares/Third_Party/LwIP/src/core/pbuf.c ****  * Shrink a pbuf chain to a desired length.
 479:Middlewares/Third_Party/LwIP/src/core/pbuf.c ****  *
 480:Middlewares/Third_Party/LwIP/src/core/pbuf.c ****  * @param p pbuf to shrink.
 481:Middlewares/Third_Party/LwIP/src/core/pbuf.c ****  * @param new_len desired new length of pbuf chain
 482:Middlewares/Third_Party/LwIP/src/core/pbuf.c ****  *
 483:Middlewares/Third_Party/LwIP/src/core/pbuf.c ****  * Depending on the desired length, the first few pbufs in a chain might
 484:Middlewares/Third_Party/LwIP/src/core/pbuf.c ****  * be skipped and left unchanged. The new last pbuf in the chain will be
 485:Middlewares/Third_Party/LwIP/src/core/pbuf.c ****  * resized, and any remaining pbufs will be freed.
 486:Middlewares/Third_Party/LwIP/src/core/pbuf.c ****  *
ARM GAS  C:\Users\Nina\AppData\Local\Temp\ccfUDP6L.s 			page 10


 487:Middlewares/Third_Party/LwIP/src/core/pbuf.c ****  * @note If the pbuf is ROM/REF, only the ->tot_len and ->len fields are adjusted.
 488:Middlewares/Third_Party/LwIP/src/core/pbuf.c ****  * @note May not be called on a packet queue.
 489:Middlewares/Third_Party/LwIP/src/core/pbuf.c ****  *
 490:Middlewares/Third_Party/LwIP/src/core/pbuf.c ****  * @note Despite its name, pbuf_realloc cannot grow the size of a pbuf (chain).
 491:Middlewares/Third_Party/LwIP/src/core/pbuf.c ****  */
 492:Middlewares/Third_Party/LwIP/src/core/pbuf.c **** void
 493:Middlewares/Third_Party/LwIP/src/core/pbuf.c **** pbuf_realloc(struct pbuf *p, u16_t new_len)
 494:Middlewares/Third_Party/LwIP/src/core/pbuf.c **** {
 495:Middlewares/Third_Party/LwIP/src/core/pbuf.c ****   struct pbuf *q;
 496:Middlewares/Third_Party/LwIP/src/core/pbuf.c ****   u16_t rem_len; /* remaining length */
 497:Middlewares/Third_Party/LwIP/src/core/pbuf.c ****   s32_t grow;
 498:Middlewares/Third_Party/LwIP/src/core/pbuf.c **** 
 499:Middlewares/Third_Party/LwIP/src/core/pbuf.c ****   LWIP_ASSERT("pbuf_realloc: p != NULL", p != NULL);
 500:Middlewares/Third_Party/LwIP/src/core/pbuf.c ****   LWIP_ASSERT("pbuf_realloc: sane p->type", p->type == PBUF_POOL ||
 501:Middlewares/Third_Party/LwIP/src/core/pbuf.c ****               p->type == PBUF_ROM ||
 502:Middlewares/Third_Party/LwIP/src/core/pbuf.c ****               p->type == PBUF_RAM ||
 503:Middlewares/Third_Party/LwIP/src/core/pbuf.c ****               p->type == PBUF_REF);
 504:Middlewares/Third_Party/LwIP/src/core/pbuf.c **** 
 505:Middlewares/Third_Party/LwIP/src/core/pbuf.c ****   /* desired length larger than current length? */
 506:Middlewares/Third_Party/LwIP/src/core/pbuf.c ****   if (new_len >= p->tot_len) {
 507:Middlewares/Third_Party/LwIP/src/core/pbuf.c ****     /* enlarging not yet supported */
 508:Middlewares/Third_Party/LwIP/src/core/pbuf.c ****     return;
 509:Middlewares/Third_Party/LwIP/src/core/pbuf.c ****   }
 510:Middlewares/Third_Party/LwIP/src/core/pbuf.c **** 
 511:Middlewares/Third_Party/LwIP/src/core/pbuf.c ****   /* the pbuf chain grows by (new_len - p->tot_len) bytes
 512:Middlewares/Third_Party/LwIP/src/core/pbuf.c ****    * (which may be negative in case of shrinking) */
 513:Middlewares/Third_Party/LwIP/src/core/pbuf.c ****   grow = new_len - p->tot_len;
 514:Middlewares/Third_Party/LwIP/src/core/pbuf.c **** 
 515:Middlewares/Third_Party/LwIP/src/core/pbuf.c ****   /* first, step over any pbufs that should remain in the chain */
 516:Middlewares/Third_Party/LwIP/src/core/pbuf.c ****   rem_len = new_len;
 517:Middlewares/Third_Party/LwIP/src/core/pbuf.c ****   q = p;
 518:Middlewares/Third_Party/LwIP/src/core/pbuf.c ****   /* should this pbuf be kept? */
 519:Middlewares/Third_Party/LwIP/src/core/pbuf.c ****   while (rem_len > q->len) {
 520:Middlewares/Third_Party/LwIP/src/core/pbuf.c ****     /* decrease remaining length by pbuf length */
 521:Middlewares/Third_Party/LwIP/src/core/pbuf.c ****     rem_len -= q->len;
 522:Middlewares/Third_Party/LwIP/src/core/pbuf.c ****     /* decrease total length indicator */
 523:Middlewares/Third_Party/LwIP/src/core/pbuf.c ****     LWIP_ASSERT("grow < max_u16_t", grow < 0xffff);
 524:Middlewares/Third_Party/LwIP/src/core/pbuf.c ****     q->tot_len += (u16_t)grow;
 525:Middlewares/Third_Party/LwIP/src/core/pbuf.c ****     /* proceed to next pbuf in chain */
 526:Middlewares/Third_Party/LwIP/src/core/pbuf.c ****     q = q->next;
 527:Middlewares/Third_Party/LwIP/src/core/pbuf.c ****     LWIP_ASSERT("pbuf_realloc: q != NULL", q != NULL);
 528:Middlewares/Third_Party/LwIP/src/core/pbuf.c ****   }
 529:Middlewares/Third_Party/LwIP/src/core/pbuf.c ****   /* we have now reached the new last pbuf (in q) */
 530:Middlewares/Third_Party/LwIP/src/core/pbuf.c ****   /* rem_len == desired length for pbuf q */
 531:Middlewares/Third_Party/LwIP/src/core/pbuf.c **** 
 532:Middlewares/Third_Party/LwIP/src/core/pbuf.c ****   /* shrink allocated memory for PBUF_RAM */
 533:Middlewares/Third_Party/LwIP/src/core/pbuf.c ****   /* (other types merely adjust their length fields */
 534:Middlewares/Third_Party/LwIP/src/core/pbuf.c ****   if ((q->type == PBUF_RAM) && (rem_len != q->len)
 535:Middlewares/Third_Party/LwIP/src/core/pbuf.c **** #if LWIP_SUPPORT_CUSTOM_PBUF
 536:Middlewares/Third_Party/LwIP/src/core/pbuf.c ****       && ((q->flags & PBUF_FLAG_IS_CUSTOM) == 0)
 537:Middlewares/Third_Party/LwIP/src/core/pbuf.c **** #endif /* LWIP_SUPPORT_CUSTOM_PBUF */
 538:Middlewares/Third_Party/LwIP/src/core/pbuf.c ****      ) {
 539:Middlewares/Third_Party/LwIP/src/core/pbuf.c ****     /* reallocate and adjust the length of the pbuf that will be split */
 540:Middlewares/Third_Party/LwIP/src/core/pbuf.c ****     q = (struct pbuf *)mem_trim(q, (u16_t)((u8_t *)q->payload - (u8_t *)q) + rem_len);
 541:Middlewares/Third_Party/LwIP/src/core/pbuf.c ****     LWIP_ASSERT("mem_trim returned q == NULL", q != NULL);
 542:Middlewares/Third_Party/LwIP/src/core/pbuf.c ****   }
 543:Middlewares/Third_Party/LwIP/src/core/pbuf.c ****   /* adjust length fields for new last pbuf */
ARM GAS  C:\Users\Nina\AppData\Local\Temp\ccfUDP6L.s 			page 11


 544:Middlewares/Third_Party/LwIP/src/core/pbuf.c ****   q->len = rem_len;
 545:Middlewares/Third_Party/LwIP/src/core/pbuf.c ****   q->tot_len = q->len;
 546:Middlewares/Third_Party/LwIP/src/core/pbuf.c **** 
 547:Middlewares/Third_Party/LwIP/src/core/pbuf.c ****   /* any remaining pbufs in chain? */
 548:Middlewares/Third_Party/LwIP/src/core/pbuf.c ****   if (q->next != NULL) {
 549:Middlewares/Third_Party/LwIP/src/core/pbuf.c ****     /* free remaining pbufs in chain */
 550:Middlewares/Third_Party/LwIP/src/core/pbuf.c ****     pbuf_free(q->next);
 551:Middlewares/Third_Party/LwIP/src/core/pbuf.c ****   }
 552:Middlewares/Third_Party/LwIP/src/core/pbuf.c ****   /* q is last packet in chain */
 553:Middlewares/Third_Party/LwIP/src/core/pbuf.c ****   q->next = NULL;
 554:Middlewares/Third_Party/LwIP/src/core/pbuf.c **** 
 555:Middlewares/Third_Party/LwIP/src/core/pbuf.c **** }
 556:Middlewares/Third_Party/LwIP/src/core/pbuf.c **** 
 557:Middlewares/Third_Party/LwIP/src/core/pbuf.c **** /**
 558:Middlewares/Third_Party/LwIP/src/core/pbuf.c ****  * Adjusts the payload pointer to hide or reveal headers in the payload.
 559:Middlewares/Third_Party/LwIP/src/core/pbuf.c ****  * @see pbuf_header.
 560:Middlewares/Third_Party/LwIP/src/core/pbuf.c ****  *
 561:Middlewares/Third_Party/LwIP/src/core/pbuf.c ****  * @param p pbuf to change the header size.
 562:Middlewares/Third_Party/LwIP/src/core/pbuf.c ****  * @param header_size_increment Number of bytes to increment header size.
 563:Middlewares/Third_Party/LwIP/src/core/pbuf.c ****  * @param force Allow 'header_size_increment > 0' for PBUF_REF/PBUF_ROM types
 564:Middlewares/Third_Party/LwIP/src/core/pbuf.c ****  *
 565:Middlewares/Third_Party/LwIP/src/core/pbuf.c ****  * @return non-zero on failure, zero on success.
 566:Middlewares/Third_Party/LwIP/src/core/pbuf.c ****  *
 567:Middlewares/Third_Party/LwIP/src/core/pbuf.c ****  */
 568:Middlewares/Third_Party/LwIP/src/core/pbuf.c **** static u8_t
 569:Middlewares/Third_Party/LwIP/src/core/pbuf.c **** pbuf_header_impl(struct pbuf *p, s16_t header_size_increment, u8_t force)
 570:Middlewares/Third_Party/LwIP/src/core/pbuf.c **** {
 571:Middlewares/Third_Party/LwIP/src/core/pbuf.c ****   u16_t type;
 572:Middlewares/Third_Party/LwIP/src/core/pbuf.c ****   void *payload;
 573:Middlewares/Third_Party/LwIP/src/core/pbuf.c ****   u16_t increment_magnitude;
 574:Middlewares/Third_Party/LwIP/src/core/pbuf.c **** 
 575:Middlewares/Third_Party/LwIP/src/core/pbuf.c ****   LWIP_ASSERT("p != NULL", p != NULL);
 576:Middlewares/Third_Party/LwIP/src/core/pbuf.c ****   if ((header_size_increment == 0) || (p == NULL)) {
 577:Middlewares/Third_Party/LwIP/src/core/pbuf.c ****     return 0;
 578:Middlewares/Third_Party/LwIP/src/core/pbuf.c ****   }
 579:Middlewares/Third_Party/LwIP/src/core/pbuf.c **** 
 580:Middlewares/Third_Party/LwIP/src/core/pbuf.c ****   if (header_size_increment < 0) {
 581:Middlewares/Third_Party/LwIP/src/core/pbuf.c ****     increment_magnitude = (u16_t)-header_size_increment;
 582:Middlewares/Third_Party/LwIP/src/core/pbuf.c ****     /* Check that we aren't going to move off the end of the pbuf */
 583:Middlewares/Third_Party/LwIP/src/core/pbuf.c ****     LWIP_ERROR("increment_magnitude <= p->len", (increment_magnitude <= p->len), return 1;);
 584:Middlewares/Third_Party/LwIP/src/core/pbuf.c ****   } else {
 585:Middlewares/Third_Party/LwIP/src/core/pbuf.c ****     increment_magnitude = (u16_t)header_size_increment;
 586:Middlewares/Third_Party/LwIP/src/core/pbuf.c **** #if 0
 587:Middlewares/Third_Party/LwIP/src/core/pbuf.c ****     /* Can't assert these as some callers speculatively call
 588:Middlewares/Third_Party/LwIP/src/core/pbuf.c ****          pbuf_header() to see if it's OK.  Will return 1 below instead. */
 589:Middlewares/Third_Party/LwIP/src/core/pbuf.c ****     /* Check that we've got the correct type of pbuf to work with */
 590:Middlewares/Third_Party/LwIP/src/core/pbuf.c ****     LWIP_ASSERT("p->type == PBUF_RAM || p->type == PBUF_POOL",
 591:Middlewares/Third_Party/LwIP/src/core/pbuf.c ****                 p->type == PBUF_RAM || p->type == PBUF_POOL);
 592:Middlewares/Third_Party/LwIP/src/core/pbuf.c ****     /* Check that we aren't going to move off the beginning of the pbuf */
 593:Middlewares/Third_Party/LwIP/src/core/pbuf.c ****     LWIP_ASSERT("p->payload - increment_magnitude >= p + SIZEOF_STRUCT_PBUF",
 594:Middlewares/Third_Party/LwIP/src/core/pbuf.c ****                 (u8_t *)p->payload - increment_magnitude >= (u8_t *)p + SIZEOF_STRUCT_PBUF);
 595:Middlewares/Third_Party/LwIP/src/core/pbuf.c **** #endif
 596:Middlewares/Third_Party/LwIP/src/core/pbuf.c ****   }
 597:Middlewares/Third_Party/LwIP/src/core/pbuf.c **** 
 598:Middlewares/Third_Party/LwIP/src/core/pbuf.c ****   type = p->type;
 599:Middlewares/Third_Party/LwIP/src/core/pbuf.c ****   /* remember current payload pointer */
 600:Middlewares/Third_Party/LwIP/src/core/pbuf.c ****   payload = p->payload;
ARM GAS  C:\Users\Nina\AppData\Local\Temp\ccfUDP6L.s 			page 12


 601:Middlewares/Third_Party/LwIP/src/core/pbuf.c **** 
 602:Middlewares/Third_Party/LwIP/src/core/pbuf.c ****   /* pbuf types containing payloads? */
 603:Middlewares/Third_Party/LwIP/src/core/pbuf.c ****   if (type == PBUF_RAM || type == PBUF_POOL) {
 604:Middlewares/Third_Party/LwIP/src/core/pbuf.c ****     /* set new payload pointer */
 605:Middlewares/Third_Party/LwIP/src/core/pbuf.c ****     p->payload = (u8_t *)p->payload - header_size_increment;
 606:Middlewares/Third_Party/LwIP/src/core/pbuf.c ****     /* boundary check fails? */
 607:Middlewares/Third_Party/LwIP/src/core/pbuf.c ****     if ((u8_t *)p->payload < (u8_t *)p + SIZEOF_STRUCT_PBUF) {
 608:Middlewares/Third_Party/LwIP/src/core/pbuf.c ****       LWIP_DEBUGF( PBUF_DEBUG | LWIP_DBG_TRACE,
 609:Middlewares/Third_Party/LwIP/src/core/pbuf.c ****         ("pbuf_header: failed as %p < %p (not enough space for new header size)\n",
 610:Middlewares/Third_Party/LwIP/src/core/pbuf.c ****         (void *)p->payload, (void *)((u8_t *)p + SIZEOF_STRUCT_PBUF)));
 611:Middlewares/Third_Party/LwIP/src/core/pbuf.c ****       /* restore old payload pointer */
 612:Middlewares/Third_Party/LwIP/src/core/pbuf.c ****       p->payload = payload;
 613:Middlewares/Third_Party/LwIP/src/core/pbuf.c ****       /* bail out unsuccessfully */
 614:Middlewares/Third_Party/LwIP/src/core/pbuf.c ****       return 1;
 615:Middlewares/Third_Party/LwIP/src/core/pbuf.c ****     }
 616:Middlewares/Third_Party/LwIP/src/core/pbuf.c ****   /* pbuf types referring to external payloads? */
 617:Middlewares/Third_Party/LwIP/src/core/pbuf.c ****   } else if (type == PBUF_REF || type == PBUF_ROM) {
 618:Middlewares/Third_Party/LwIP/src/core/pbuf.c ****     /* hide a header in the payload? */
 619:Middlewares/Third_Party/LwIP/src/core/pbuf.c ****     if ((header_size_increment < 0) && (increment_magnitude <= p->len)) {
 620:Middlewares/Third_Party/LwIP/src/core/pbuf.c ****       /* increase payload pointer */
 621:Middlewares/Third_Party/LwIP/src/core/pbuf.c ****       p->payload = (u8_t *)p->payload - header_size_increment;
 622:Middlewares/Third_Party/LwIP/src/core/pbuf.c ****     } else if ((header_size_increment > 0) && force) {
 623:Middlewares/Third_Party/LwIP/src/core/pbuf.c ****       p->payload = (u8_t *)p->payload - header_size_increment;
 624:Middlewares/Third_Party/LwIP/src/core/pbuf.c ****     } else {
 625:Middlewares/Third_Party/LwIP/src/core/pbuf.c ****       /* cannot expand payload to front (yet!)
 626:Middlewares/Third_Party/LwIP/src/core/pbuf.c ****        * bail out unsuccessfully */
 627:Middlewares/Third_Party/LwIP/src/core/pbuf.c ****       return 1;
 628:Middlewares/Third_Party/LwIP/src/core/pbuf.c ****     }
 629:Middlewares/Third_Party/LwIP/src/core/pbuf.c ****   } else {
 630:Middlewares/Third_Party/LwIP/src/core/pbuf.c ****     /* Unknown type */
 631:Middlewares/Third_Party/LwIP/src/core/pbuf.c ****     LWIP_ASSERT("bad pbuf type", 0);
 632:Middlewares/Third_Party/LwIP/src/core/pbuf.c ****     return 1;
 633:Middlewares/Third_Party/LwIP/src/core/pbuf.c ****   }
 634:Middlewares/Third_Party/LwIP/src/core/pbuf.c ****   /* modify pbuf length fields */
 635:Middlewares/Third_Party/LwIP/src/core/pbuf.c ****   p->len += header_size_increment;
 636:Middlewares/Third_Party/LwIP/src/core/pbuf.c ****   p->tot_len += header_size_increment;
 637:Middlewares/Third_Party/LwIP/src/core/pbuf.c **** 
 638:Middlewares/Third_Party/LwIP/src/core/pbuf.c ****   LWIP_DEBUGF(PBUF_DEBUG | LWIP_DBG_TRACE, ("pbuf_header: old %p new %p (%"S16_F")\n",
 639:Middlewares/Third_Party/LwIP/src/core/pbuf.c ****     (void *)payload, (void *)p->payload, header_size_increment));
 640:Middlewares/Third_Party/LwIP/src/core/pbuf.c **** 
 641:Middlewares/Third_Party/LwIP/src/core/pbuf.c ****   return 0;
 642:Middlewares/Third_Party/LwIP/src/core/pbuf.c **** }
 643:Middlewares/Third_Party/LwIP/src/core/pbuf.c **** 
 644:Middlewares/Third_Party/LwIP/src/core/pbuf.c **** /**
 645:Middlewares/Third_Party/LwIP/src/core/pbuf.c ****  * Adjusts the payload pointer to hide or reveal headers in the payload.
 646:Middlewares/Third_Party/LwIP/src/core/pbuf.c ****  *
 647:Middlewares/Third_Party/LwIP/src/core/pbuf.c ****  * Adjusts the ->payload pointer so that space for a header
 648:Middlewares/Third_Party/LwIP/src/core/pbuf.c ****  * (dis)appears in the pbuf payload.
 649:Middlewares/Third_Party/LwIP/src/core/pbuf.c ****  *
 650:Middlewares/Third_Party/LwIP/src/core/pbuf.c ****  * The ->payload, ->tot_len and ->len fields are adjusted.
 651:Middlewares/Third_Party/LwIP/src/core/pbuf.c ****  *
 652:Middlewares/Third_Party/LwIP/src/core/pbuf.c ****  * @param p pbuf to change the header size.
 653:Middlewares/Third_Party/LwIP/src/core/pbuf.c ****  * @param header_size_increment Number of bytes to increment header size which
 654:Middlewares/Third_Party/LwIP/src/core/pbuf.c ****  * increases the size of the pbuf. New space is on the front.
 655:Middlewares/Third_Party/LwIP/src/core/pbuf.c ****  * (Using a negative value decreases the header size.)
 656:Middlewares/Third_Party/LwIP/src/core/pbuf.c ****  * If hdr_size_inc is 0, this function does nothing and returns successful.
 657:Middlewares/Third_Party/LwIP/src/core/pbuf.c ****  *
ARM GAS  C:\Users\Nina\AppData\Local\Temp\ccfUDP6L.s 			page 13


 658:Middlewares/Third_Party/LwIP/src/core/pbuf.c ****  * PBUF_ROM and PBUF_REF type buffers cannot have their sizes increased, so
 659:Middlewares/Third_Party/LwIP/src/core/pbuf.c ****  * the call will fail. A check is made that the increase in header size does
 660:Middlewares/Third_Party/LwIP/src/core/pbuf.c ****  * not move the payload pointer in front of the start of the buffer.
 661:Middlewares/Third_Party/LwIP/src/core/pbuf.c ****  * @return non-zero on failure, zero on success.
 662:Middlewares/Third_Party/LwIP/src/core/pbuf.c ****  *
 663:Middlewares/Third_Party/LwIP/src/core/pbuf.c ****  */
 664:Middlewares/Third_Party/LwIP/src/core/pbuf.c **** u8_t
 665:Middlewares/Third_Party/LwIP/src/core/pbuf.c **** pbuf_header(struct pbuf *p, s16_t header_size_increment)
 666:Middlewares/Third_Party/LwIP/src/core/pbuf.c **** {
 667:Middlewares/Third_Party/LwIP/src/core/pbuf.c ****    return pbuf_header_impl(p, header_size_increment, 0);
 668:Middlewares/Third_Party/LwIP/src/core/pbuf.c **** }
 669:Middlewares/Third_Party/LwIP/src/core/pbuf.c **** 
 670:Middlewares/Third_Party/LwIP/src/core/pbuf.c **** /**
 671:Middlewares/Third_Party/LwIP/src/core/pbuf.c ****  * Same as pbuf_header but does not check if 'header_size > 0' is allowed.
 672:Middlewares/Third_Party/LwIP/src/core/pbuf.c ****  * This is used internally only, to allow PBUF_REF for RX.
 673:Middlewares/Third_Party/LwIP/src/core/pbuf.c ****  */
 674:Middlewares/Third_Party/LwIP/src/core/pbuf.c **** u8_t
 675:Middlewares/Third_Party/LwIP/src/core/pbuf.c **** pbuf_header_force(struct pbuf *p, s16_t header_size_increment)
 676:Middlewares/Third_Party/LwIP/src/core/pbuf.c **** {
 677:Middlewares/Third_Party/LwIP/src/core/pbuf.c ****    return pbuf_header_impl(p, header_size_increment, 1);
 678:Middlewares/Third_Party/LwIP/src/core/pbuf.c **** }
 679:Middlewares/Third_Party/LwIP/src/core/pbuf.c **** 
 680:Middlewares/Third_Party/LwIP/src/core/pbuf.c **** /**
 681:Middlewares/Third_Party/LwIP/src/core/pbuf.c ****  * @ingroup pbuf
 682:Middlewares/Third_Party/LwIP/src/core/pbuf.c ****  * Dereference a pbuf chain or queue and deallocate any no-longer-used
 683:Middlewares/Third_Party/LwIP/src/core/pbuf.c ****  * pbufs at the head of this chain or queue.
 684:Middlewares/Third_Party/LwIP/src/core/pbuf.c ****  *
 685:Middlewares/Third_Party/LwIP/src/core/pbuf.c ****  * Decrements the pbuf reference count. If it reaches zero, the pbuf is
 686:Middlewares/Third_Party/LwIP/src/core/pbuf.c ****  * deallocated.
 687:Middlewares/Third_Party/LwIP/src/core/pbuf.c ****  *
 688:Middlewares/Third_Party/LwIP/src/core/pbuf.c ****  * For a pbuf chain, this is repeated for each pbuf in the chain,
 689:Middlewares/Third_Party/LwIP/src/core/pbuf.c ****  * up to the first pbuf which has a non-zero reference count after
 690:Middlewares/Third_Party/LwIP/src/core/pbuf.c ****  * decrementing. So, when all reference counts are one, the whole
 691:Middlewares/Third_Party/LwIP/src/core/pbuf.c ****  * chain is free'd.
 692:Middlewares/Third_Party/LwIP/src/core/pbuf.c ****  *
 693:Middlewares/Third_Party/LwIP/src/core/pbuf.c ****  * @param p The pbuf (chain) to be dereferenced.
 694:Middlewares/Third_Party/LwIP/src/core/pbuf.c ****  *
 695:Middlewares/Third_Party/LwIP/src/core/pbuf.c ****  * @return the number of pbufs that were de-allocated
 696:Middlewares/Third_Party/LwIP/src/core/pbuf.c ****  * from the head of the chain.
 697:Middlewares/Third_Party/LwIP/src/core/pbuf.c ****  *
 698:Middlewares/Third_Party/LwIP/src/core/pbuf.c ****  * @note MUST NOT be called on a packet queue (Not verified to work yet).
 699:Middlewares/Third_Party/LwIP/src/core/pbuf.c ****  * @note the reference counter of a pbuf equals the number of pointers
 700:Middlewares/Third_Party/LwIP/src/core/pbuf.c ****  * that refer to the pbuf (or into the pbuf).
 701:Middlewares/Third_Party/LwIP/src/core/pbuf.c ****  *
 702:Middlewares/Third_Party/LwIP/src/core/pbuf.c ****  * @internal examples:
 703:Middlewares/Third_Party/LwIP/src/core/pbuf.c ****  *
 704:Middlewares/Third_Party/LwIP/src/core/pbuf.c ****  * Assuming existing chains a->b->c with the following reference
 705:Middlewares/Third_Party/LwIP/src/core/pbuf.c ****  * counts, calling pbuf_free(a) results in:
 706:Middlewares/Third_Party/LwIP/src/core/pbuf.c ****  *
 707:Middlewares/Third_Party/LwIP/src/core/pbuf.c ****  * 1->2->3 becomes ...1->3
 708:Middlewares/Third_Party/LwIP/src/core/pbuf.c ****  * 3->3->3 becomes 2->3->3
 709:Middlewares/Third_Party/LwIP/src/core/pbuf.c ****  * 1->1->2 becomes ......1
 710:Middlewares/Third_Party/LwIP/src/core/pbuf.c ****  * 2->1->1 becomes 1->1->1
 711:Middlewares/Third_Party/LwIP/src/core/pbuf.c ****  * 1->1->1 becomes .......
 712:Middlewares/Third_Party/LwIP/src/core/pbuf.c ****  *
 713:Middlewares/Third_Party/LwIP/src/core/pbuf.c ****  */
 714:Middlewares/Third_Party/LwIP/src/core/pbuf.c **** u8_t
ARM GAS  C:\Users\Nina\AppData\Local\Temp\ccfUDP6L.s 			page 14


 715:Middlewares/Third_Party/LwIP/src/core/pbuf.c **** pbuf_free(struct pbuf *p)
 716:Middlewares/Third_Party/LwIP/src/core/pbuf.c **** {
 717:Middlewares/Third_Party/LwIP/src/core/pbuf.c ****   u16_t type;
 718:Middlewares/Third_Party/LwIP/src/core/pbuf.c ****   struct pbuf *q;
 719:Middlewares/Third_Party/LwIP/src/core/pbuf.c ****   u8_t count;
 720:Middlewares/Third_Party/LwIP/src/core/pbuf.c **** 
 721:Middlewares/Third_Party/LwIP/src/core/pbuf.c ****   if (p == NULL) {
 722:Middlewares/Third_Party/LwIP/src/core/pbuf.c ****     LWIP_ASSERT("p != NULL", p != NULL);
 723:Middlewares/Third_Party/LwIP/src/core/pbuf.c ****     /* if assertions are disabled, proceed with debug output */
 724:Middlewares/Third_Party/LwIP/src/core/pbuf.c ****     LWIP_DEBUGF(PBUF_DEBUG | LWIP_DBG_LEVEL_SERIOUS,
 725:Middlewares/Third_Party/LwIP/src/core/pbuf.c ****       ("pbuf_free(p == NULL) was called.\n"));
 726:Middlewares/Third_Party/LwIP/src/core/pbuf.c ****     return 0;
 727:Middlewares/Third_Party/LwIP/src/core/pbuf.c ****   }
 728:Middlewares/Third_Party/LwIP/src/core/pbuf.c ****   LWIP_DEBUGF(PBUF_DEBUG | LWIP_DBG_TRACE, ("pbuf_free(%p)\n", (void *)p));
 729:Middlewares/Third_Party/LwIP/src/core/pbuf.c **** 
 730:Middlewares/Third_Party/LwIP/src/core/pbuf.c ****   PERF_START;
 731:Middlewares/Third_Party/LwIP/src/core/pbuf.c **** 
 732:Middlewares/Third_Party/LwIP/src/core/pbuf.c ****   LWIP_ASSERT("pbuf_free: sane type",
 733:Middlewares/Third_Party/LwIP/src/core/pbuf.c ****     p->type == PBUF_RAM || p->type == PBUF_ROM ||
 734:Middlewares/Third_Party/LwIP/src/core/pbuf.c ****     p->type == PBUF_REF || p->type == PBUF_POOL);
 735:Middlewares/Third_Party/LwIP/src/core/pbuf.c **** 
 736:Middlewares/Third_Party/LwIP/src/core/pbuf.c ****   count = 0;
 737:Middlewares/Third_Party/LwIP/src/core/pbuf.c ****   /* de-allocate all consecutive pbufs from the head of the chain that
 738:Middlewares/Third_Party/LwIP/src/core/pbuf.c ****    * obtain a zero reference count after decrementing*/
 739:Middlewares/Third_Party/LwIP/src/core/pbuf.c ****   while (p != NULL) {
 740:Middlewares/Third_Party/LwIP/src/core/pbuf.c ****     u16_t ref;
 741:Middlewares/Third_Party/LwIP/src/core/pbuf.c ****     SYS_ARCH_DECL_PROTECT(old_level);
 742:Middlewares/Third_Party/LwIP/src/core/pbuf.c ****     /* Since decrementing ref cannot be guaranteed to be a single machine operation
 743:Middlewares/Third_Party/LwIP/src/core/pbuf.c ****      * we must protect it. We put the new ref into a local variable to prevent
 744:Middlewares/Third_Party/LwIP/src/core/pbuf.c ****      * further protection. */
 745:Middlewares/Third_Party/LwIP/src/core/pbuf.c ****     SYS_ARCH_PROTECT(old_level);
 746:Middlewares/Third_Party/LwIP/src/core/pbuf.c ****     /* all pbufs in a chain are referenced at least once */
 747:Middlewares/Third_Party/LwIP/src/core/pbuf.c ****     LWIP_ASSERT("pbuf_free: p->ref > 0", p->ref > 0);
 748:Middlewares/Third_Party/LwIP/src/core/pbuf.c ****     /* decrease reference count (number of pointers to pbuf) */
 749:Middlewares/Third_Party/LwIP/src/core/pbuf.c ****     ref = --(p->ref);
 750:Middlewares/Third_Party/LwIP/src/core/pbuf.c ****     SYS_ARCH_UNPROTECT(old_level);
 751:Middlewares/Third_Party/LwIP/src/core/pbuf.c ****     /* this pbuf is no longer referenced to? */
 752:Middlewares/Third_Party/LwIP/src/core/pbuf.c ****     if (ref == 0) {
 753:Middlewares/Third_Party/LwIP/src/core/pbuf.c ****       /* remember next pbuf in chain for next iteration */
 754:Middlewares/Third_Party/LwIP/src/core/pbuf.c ****       q = p->next;
 755:Middlewares/Third_Party/LwIP/src/core/pbuf.c ****       LWIP_DEBUGF( PBUF_DEBUG | LWIP_DBG_TRACE, ("pbuf_free: deallocating %p\n", (void *)p));
 756:Middlewares/Third_Party/LwIP/src/core/pbuf.c ****       type = p->type;
 757:Middlewares/Third_Party/LwIP/src/core/pbuf.c **** #if LWIP_SUPPORT_CUSTOM_PBUF
 758:Middlewares/Third_Party/LwIP/src/core/pbuf.c ****       /* is this a custom pbuf? */
 759:Middlewares/Third_Party/LwIP/src/core/pbuf.c ****       if ((p->flags & PBUF_FLAG_IS_CUSTOM) != 0) {
 760:Middlewares/Third_Party/LwIP/src/core/pbuf.c ****         struct pbuf_custom *pc = (struct pbuf_custom*)p;
 761:Middlewares/Third_Party/LwIP/src/core/pbuf.c ****         LWIP_ASSERT("pc->custom_free_function != NULL", pc->custom_free_function != NULL);
 762:Middlewares/Third_Party/LwIP/src/core/pbuf.c ****         pc->custom_free_function(p);
 763:Middlewares/Third_Party/LwIP/src/core/pbuf.c ****       } else
 764:Middlewares/Third_Party/LwIP/src/core/pbuf.c **** #endif /* LWIP_SUPPORT_CUSTOM_PBUF */
 765:Middlewares/Third_Party/LwIP/src/core/pbuf.c ****       {
 766:Middlewares/Third_Party/LwIP/src/core/pbuf.c ****         /* is this a pbuf from the pool? */
 767:Middlewares/Third_Party/LwIP/src/core/pbuf.c ****         if (type == PBUF_POOL) {
 768:Middlewares/Third_Party/LwIP/src/core/pbuf.c ****           memp_free(MEMP_PBUF_POOL, p);
 769:Middlewares/Third_Party/LwIP/src/core/pbuf.c ****         /* is this a ROM or RAM referencing pbuf? */
 770:Middlewares/Third_Party/LwIP/src/core/pbuf.c ****         } else if (type == PBUF_ROM || type == PBUF_REF) {
 771:Middlewares/Third_Party/LwIP/src/core/pbuf.c ****           memp_free(MEMP_PBUF, p);
ARM GAS  C:\Users\Nina\AppData\Local\Temp\ccfUDP6L.s 			page 15


 772:Middlewares/Third_Party/LwIP/src/core/pbuf.c ****         /* type == PBUF_RAM */
 773:Middlewares/Third_Party/LwIP/src/core/pbuf.c ****         } else {
 774:Middlewares/Third_Party/LwIP/src/core/pbuf.c ****           mem_free(p);
 775:Middlewares/Third_Party/LwIP/src/core/pbuf.c ****         }
 776:Middlewares/Third_Party/LwIP/src/core/pbuf.c ****       }
 777:Middlewares/Third_Party/LwIP/src/core/pbuf.c ****       count++;
 778:Middlewares/Third_Party/LwIP/src/core/pbuf.c ****       /* proceed to next pbuf */
 779:Middlewares/Third_Party/LwIP/src/core/pbuf.c ****       p = q;
 780:Middlewares/Third_Party/LwIP/src/core/pbuf.c ****     /* p->ref > 0, this pbuf is still referenced to */
 781:Middlewares/Third_Party/LwIP/src/core/pbuf.c ****     /* (and so the remaining pbufs in chain as well) */
 782:Middlewares/Third_Party/LwIP/src/core/pbuf.c ****     } else {
 783:Middlewares/Third_Party/LwIP/src/core/pbuf.c ****       LWIP_DEBUGF( PBUF_DEBUG | LWIP_DBG_TRACE, ("pbuf_free: %p has ref %"U16_F", ending here.\n", 
 784:Middlewares/Third_Party/LwIP/src/core/pbuf.c ****       /* stop walking through the chain */
 785:Middlewares/Third_Party/LwIP/src/core/pbuf.c ****       p = NULL;
 786:Middlewares/Third_Party/LwIP/src/core/pbuf.c ****     }
 787:Middlewares/Third_Party/LwIP/src/core/pbuf.c ****   }
 788:Middlewares/Third_Party/LwIP/src/core/pbuf.c ****   PERF_STOP("pbuf_free");
 789:Middlewares/Third_Party/LwIP/src/core/pbuf.c ****   /* return number of de-allocated pbufs */
 790:Middlewares/Third_Party/LwIP/src/core/pbuf.c ****   return count;
 791:Middlewares/Third_Party/LwIP/src/core/pbuf.c **** }
 792:Middlewares/Third_Party/LwIP/src/core/pbuf.c **** 
 793:Middlewares/Third_Party/LwIP/src/core/pbuf.c **** /**
 794:Middlewares/Third_Party/LwIP/src/core/pbuf.c ****  * Count number of pbufs in a chain
 795:Middlewares/Third_Party/LwIP/src/core/pbuf.c ****  *
 796:Middlewares/Third_Party/LwIP/src/core/pbuf.c ****  * @param p first pbuf of chain
 797:Middlewares/Third_Party/LwIP/src/core/pbuf.c ****  * @return the number of pbufs in a chain
 798:Middlewares/Third_Party/LwIP/src/core/pbuf.c ****  */
 799:Middlewares/Third_Party/LwIP/src/core/pbuf.c **** u16_t
 800:Middlewares/Third_Party/LwIP/src/core/pbuf.c **** pbuf_clen(const struct pbuf *p)
 801:Middlewares/Third_Party/LwIP/src/core/pbuf.c **** {
 802:Middlewares/Third_Party/LwIP/src/core/pbuf.c ****   u16_t len;
 803:Middlewares/Third_Party/LwIP/src/core/pbuf.c **** 
 804:Middlewares/Third_Party/LwIP/src/core/pbuf.c ****   len = 0;
 805:Middlewares/Third_Party/LwIP/src/core/pbuf.c ****   while (p != NULL) {
 806:Middlewares/Third_Party/LwIP/src/core/pbuf.c ****     ++len;
 807:Middlewares/Third_Party/LwIP/src/core/pbuf.c ****     p = p->next;
 808:Middlewares/Third_Party/LwIP/src/core/pbuf.c ****   }
 809:Middlewares/Third_Party/LwIP/src/core/pbuf.c ****   return len;
 810:Middlewares/Third_Party/LwIP/src/core/pbuf.c **** }
 811:Middlewares/Third_Party/LwIP/src/core/pbuf.c **** 
 812:Middlewares/Third_Party/LwIP/src/core/pbuf.c **** /**
 813:Middlewares/Third_Party/LwIP/src/core/pbuf.c ****  * @ingroup pbuf
 814:Middlewares/Third_Party/LwIP/src/core/pbuf.c ****  * Increment the reference count of the pbuf.
 815:Middlewares/Third_Party/LwIP/src/core/pbuf.c ****  *
 816:Middlewares/Third_Party/LwIP/src/core/pbuf.c ****  * @param p pbuf to increase reference counter of
 817:Middlewares/Third_Party/LwIP/src/core/pbuf.c ****  *
 818:Middlewares/Third_Party/LwIP/src/core/pbuf.c ****  */
 819:Middlewares/Third_Party/LwIP/src/core/pbuf.c **** void
 820:Middlewares/Third_Party/LwIP/src/core/pbuf.c **** pbuf_ref(struct pbuf *p)
 821:Middlewares/Third_Party/LwIP/src/core/pbuf.c **** {
 822:Middlewares/Third_Party/LwIP/src/core/pbuf.c ****   /* pbuf given? */
 823:Middlewares/Third_Party/LwIP/src/core/pbuf.c ****   if (p != NULL) {
 824:Middlewares/Third_Party/LwIP/src/core/pbuf.c ****     SYS_ARCH_INC(p->ref, 1);
 825:Middlewares/Third_Party/LwIP/src/core/pbuf.c ****     LWIP_ASSERT("pbuf ref overflow", p->ref > 0);
 826:Middlewares/Third_Party/LwIP/src/core/pbuf.c ****   }
 827:Middlewares/Third_Party/LwIP/src/core/pbuf.c **** }
 828:Middlewares/Third_Party/LwIP/src/core/pbuf.c **** 
ARM GAS  C:\Users\Nina\AppData\Local\Temp\ccfUDP6L.s 			page 16


 829:Middlewares/Third_Party/LwIP/src/core/pbuf.c **** /**
 830:Middlewares/Third_Party/LwIP/src/core/pbuf.c ****  * @ingroup pbuf
 831:Middlewares/Third_Party/LwIP/src/core/pbuf.c ****  * Concatenate two pbufs (each may be a pbuf chain) and take over
 832:Middlewares/Third_Party/LwIP/src/core/pbuf.c ****  * the caller's reference of the tail pbuf.
 833:Middlewares/Third_Party/LwIP/src/core/pbuf.c ****  *
 834:Middlewares/Third_Party/LwIP/src/core/pbuf.c ****  * @note The caller MAY NOT reference the tail pbuf afterwards.
 835:Middlewares/Third_Party/LwIP/src/core/pbuf.c ****  * Use pbuf_chain() for that purpose.
 836:Middlewares/Third_Party/LwIP/src/core/pbuf.c ****  *
 837:Middlewares/Third_Party/LwIP/src/core/pbuf.c ****  * @see pbuf_chain()
 838:Middlewares/Third_Party/LwIP/src/core/pbuf.c ****  */
 839:Middlewares/Third_Party/LwIP/src/core/pbuf.c **** void
 840:Middlewares/Third_Party/LwIP/src/core/pbuf.c **** pbuf_cat(struct pbuf *h, struct pbuf *t)
 841:Middlewares/Third_Party/LwIP/src/core/pbuf.c **** {
 842:Middlewares/Third_Party/LwIP/src/core/pbuf.c ****   struct pbuf *p;
 843:Middlewares/Third_Party/LwIP/src/core/pbuf.c **** 
 844:Middlewares/Third_Party/LwIP/src/core/pbuf.c ****   LWIP_ERROR("(h != NULL) && (t != NULL) (programmer violates API)",
 845:Middlewares/Third_Party/LwIP/src/core/pbuf.c ****              ((h != NULL) && (t != NULL)), return;);
 846:Middlewares/Third_Party/LwIP/src/core/pbuf.c **** 
 847:Middlewares/Third_Party/LwIP/src/core/pbuf.c ****   /* proceed to last pbuf of chain */
 848:Middlewares/Third_Party/LwIP/src/core/pbuf.c ****   for (p = h; p->next != NULL; p = p->next) {
 849:Middlewares/Third_Party/LwIP/src/core/pbuf.c ****     /* add total length of second chain to all totals of first chain */
 850:Middlewares/Third_Party/LwIP/src/core/pbuf.c ****     p->tot_len += t->tot_len;
 851:Middlewares/Third_Party/LwIP/src/core/pbuf.c ****   }
 852:Middlewares/Third_Party/LwIP/src/core/pbuf.c ****   /* { p is last pbuf of first h chain, p->next == NULL } */
 853:Middlewares/Third_Party/LwIP/src/core/pbuf.c ****   LWIP_ASSERT("p->tot_len == p->len (of last pbuf in chain)", p->tot_len == p->len);
 854:Middlewares/Third_Party/LwIP/src/core/pbuf.c ****   LWIP_ASSERT("p->next == NULL", p->next == NULL);
 855:Middlewares/Third_Party/LwIP/src/core/pbuf.c ****   /* add total length of second chain to last pbuf total of first chain */
 856:Middlewares/Third_Party/LwIP/src/core/pbuf.c ****   p->tot_len += t->tot_len;
 857:Middlewares/Third_Party/LwIP/src/core/pbuf.c ****   /* chain last pbuf of head (p) with first of tail (t) */
 858:Middlewares/Third_Party/LwIP/src/core/pbuf.c ****   p->next = t;
 859:Middlewares/Third_Party/LwIP/src/core/pbuf.c ****   /* p->next now references t, but the caller will drop its reference to t,
 860:Middlewares/Third_Party/LwIP/src/core/pbuf.c ****    * so netto there is no change to the reference count of t.
 861:Middlewares/Third_Party/LwIP/src/core/pbuf.c ****    */
 862:Middlewares/Third_Party/LwIP/src/core/pbuf.c **** }
 863:Middlewares/Third_Party/LwIP/src/core/pbuf.c **** 
 864:Middlewares/Third_Party/LwIP/src/core/pbuf.c **** /**
 865:Middlewares/Third_Party/LwIP/src/core/pbuf.c ****  * @ingroup pbuf
 866:Middlewares/Third_Party/LwIP/src/core/pbuf.c ****  * Chain two pbufs (or pbuf chains) together.
 867:Middlewares/Third_Party/LwIP/src/core/pbuf.c ****  *
 868:Middlewares/Third_Party/LwIP/src/core/pbuf.c ****  * The caller MUST call pbuf_free(t) once it has stopped
 869:Middlewares/Third_Party/LwIP/src/core/pbuf.c ****  * using it. Use pbuf_cat() instead if you no longer use t.
 870:Middlewares/Third_Party/LwIP/src/core/pbuf.c ****  *
 871:Middlewares/Third_Party/LwIP/src/core/pbuf.c ****  * @param h head pbuf (chain)
 872:Middlewares/Third_Party/LwIP/src/core/pbuf.c ****  * @param t tail pbuf (chain)
 873:Middlewares/Third_Party/LwIP/src/core/pbuf.c ****  * @note The pbufs MUST belong to the same packet.
 874:Middlewares/Third_Party/LwIP/src/core/pbuf.c ****  * @note MAY NOT be called on a packet queue.
 875:Middlewares/Third_Party/LwIP/src/core/pbuf.c ****  *
 876:Middlewares/Third_Party/LwIP/src/core/pbuf.c ****  * The ->tot_len fields of all pbufs of the head chain are adjusted.
 877:Middlewares/Third_Party/LwIP/src/core/pbuf.c ****  * The ->next field of the last pbuf of the head chain is adjusted.
 878:Middlewares/Third_Party/LwIP/src/core/pbuf.c ****  * The ->ref field of the first pbuf of the tail chain is adjusted.
 879:Middlewares/Third_Party/LwIP/src/core/pbuf.c ****  *
 880:Middlewares/Third_Party/LwIP/src/core/pbuf.c ****  */
 881:Middlewares/Third_Party/LwIP/src/core/pbuf.c **** void
 882:Middlewares/Third_Party/LwIP/src/core/pbuf.c **** pbuf_chain(struct pbuf *h, struct pbuf *t)
 883:Middlewares/Third_Party/LwIP/src/core/pbuf.c **** {
 884:Middlewares/Third_Party/LwIP/src/core/pbuf.c ****   pbuf_cat(h, t);
 885:Middlewares/Third_Party/LwIP/src/core/pbuf.c ****   /* t is now referenced by h */
ARM GAS  C:\Users\Nina\AppData\Local\Temp\ccfUDP6L.s 			page 17


 886:Middlewares/Third_Party/LwIP/src/core/pbuf.c ****   pbuf_ref(t);
 887:Middlewares/Third_Party/LwIP/src/core/pbuf.c ****   LWIP_DEBUGF(PBUF_DEBUG | LWIP_DBG_TRACE, ("pbuf_chain: %p references %p\n", (void *)h, (void *)t)
 888:Middlewares/Third_Party/LwIP/src/core/pbuf.c **** }
 889:Middlewares/Third_Party/LwIP/src/core/pbuf.c **** 
 890:Middlewares/Third_Party/LwIP/src/core/pbuf.c **** /**
 891:Middlewares/Third_Party/LwIP/src/core/pbuf.c ****  * Dechains the first pbuf from its succeeding pbufs in the chain.
 892:Middlewares/Third_Party/LwIP/src/core/pbuf.c ****  *
 893:Middlewares/Third_Party/LwIP/src/core/pbuf.c ****  * Makes p->tot_len field equal to p->len.
 894:Middlewares/Third_Party/LwIP/src/core/pbuf.c ****  * @param p pbuf to dechain
 895:Middlewares/Third_Party/LwIP/src/core/pbuf.c ****  * @return remainder of the pbuf chain, or NULL if it was de-allocated.
 896:Middlewares/Third_Party/LwIP/src/core/pbuf.c ****  * @note May not be called on a packet queue.
 897:Middlewares/Third_Party/LwIP/src/core/pbuf.c ****  */
 898:Middlewares/Third_Party/LwIP/src/core/pbuf.c **** struct pbuf *
 899:Middlewares/Third_Party/LwIP/src/core/pbuf.c **** pbuf_dechain(struct pbuf *p)
 900:Middlewares/Third_Party/LwIP/src/core/pbuf.c **** {
 901:Middlewares/Third_Party/LwIP/src/core/pbuf.c ****   struct pbuf *q;
 902:Middlewares/Third_Party/LwIP/src/core/pbuf.c ****   u8_t tail_gone = 1;
 903:Middlewares/Third_Party/LwIP/src/core/pbuf.c ****   /* tail */
 904:Middlewares/Third_Party/LwIP/src/core/pbuf.c ****   q = p->next;
 905:Middlewares/Third_Party/LwIP/src/core/pbuf.c ****   /* pbuf has successor in chain? */
 906:Middlewares/Third_Party/LwIP/src/core/pbuf.c ****   if (q != NULL) {
 907:Middlewares/Third_Party/LwIP/src/core/pbuf.c ****     /* assert tot_len invariant: (p->tot_len == p->len + (p->next? p->next->tot_len: 0) */
 908:Middlewares/Third_Party/LwIP/src/core/pbuf.c ****     LWIP_ASSERT("p->tot_len == p->len + q->tot_len", q->tot_len == p->tot_len - p->len);
 909:Middlewares/Third_Party/LwIP/src/core/pbuf.c ****     /* enforce invariant if assertion is disabled */
 910:Middlewares/Third_Party/LwIP/src/core/pbuf.c ****     q->tot_len = p->tot_len - p->len;
 911:Middlewares/Third_Party/LwIP/src/core/pbuf.c ****     /* decouple pbuf from remainder */
 912:Middlewares/Third_Party/LwIP/src/core/pbuf.c ****     p->next = NULL;
 913:Middlewares/Third_Party/LwIP/src/core/pbuf.c ****     /* total length of pbuf p is its own length only */
 914:Middlewares/Third_Party/LwIP/src/core/pbuf.c ****     p->tot_len = p->len;
 915:Middlewares/Third_Party/LwIP/src/core/pbuf.c ****     /* q is no longer referenced by p, free it */
 916:Middlewares/Third_Party/LwIP/src/core/pbuf.c ****     LWIP_DEBUGF(PBUF_DEBUG | LWIP_DBG_TRACE, ("pbuf_dechain: unreferencing %p\n", (void *)q));
 917:Middlewares/Third_Party/LwIP/src/core/pbuf.c ****     tail_gone = pbuf_free(q);
 918:Middlewares/Third_Party/LwIP/src/core/pbuf.c ****     if (tail_gone > 0) {
 919:Middlewares/Third_Party/LwIP/src/core/pbuf.c ****       LWIP_DEBUGF(PBUF_DEBUG | LWIP_DBG_TRACE,
 920:Middlewares/Third_Party/LwIP/src/core/pbuf.c ****                   ("pbuf_dechain: deallocated %p (as it is no longer referenced)\n", (void *)q));
 921:Middlewares/Third_Party/LwIP/src/core/pbuf.c ****     }
 922:Middlewares/Third_Party/LwIP/src/core/pbuf.c ****     /* return remaining tail or NULL if deallocated */
 923:Middlewares/Third_Party/LwIP/src/core/pbuf.c ****   }
 924:Middlewares/Third_Party/LwIP/src/core/pbuf.c ****   /* assert tot_len invariant: (p->tot_len == p->len + (p->next? p->next->tot_len: 0) */
 925:Middlewares/Third_Party/LwIP/src/core/pbuf.c ****   LWIP_ASSERT("p->tot_len == p->len", p->tot_len == p->len);
 926:Middlewares/Third_Party/LwIP/src/core/pbuf.c ****   return ((tail_gone > 0) ? NULL : q);
 927:Middlewares/Third_Party/LwIP/src/core/pbuf.c **** }
 928:Middlewares/Third_Party/LwIP/src/core/pbuf.c **** 
 929:Middlewares/Third_Party/LwIP/src/core/pbuf.c **** /**
 930:Middlewares/Third_Party/LwIP/src/core/pbuf.c ****  * @ingroup pbuf
 931:Middlewares/Third_Party/LwIP/src/core/pbuf.c ****  * Create PBUF_RAM copies of pbufs.
 932:Middlewares/Third_Party/LwIP/src/core/pbuf.c ****  *
 933:Middlewares/Third_Party/LwIP/src/core/pbuf.c ****  * Used to queue packets on behalf of the lwIP stack, such as
 934:Middlewares/Third_Party/LwIP/src/core/pbuf.c ****  * ARP based queueing.
 935:Middlewares/Third_Party/LwIP/src/core/pbuf.c ****  *
 936:Middlewares/Third_Party/LwIP/src/core/pbuf.c ****  * @note You MUST explicitly use p = pbuf_take(p);
 937:Middlewares/Third_Party/LwIP/src/core/pbuf.c ****  *
 938:Middlewares/Third_Party/LwIP/src/core/pbuf.c ****  * @note Only one packet is copied, no packet queue!
 939:Middlewares/Third_Party/LwIP/src/core/pbuf.c ****  *
 940:Middlewares/Third_Party/LwIP/src/core/pbuf.c ****  * @param p_to pbuf destination of the copy
 941:Middlewares/Third_Party/LwIP/src/core/pbuf.c ****  * @param p_from pbuf source of the copy
 942:Middlewares/Third_Party/LwIP/src/core/pbuf.c ****  *
ARM GAS  C:\Users\Nina\AppData\Local\Temp\ccfUDP6L.s 			page 18


 943:Middlewares/Third_Party/LwIP/src/core/pbuf.c ****  * @return ERR_OK if pbuf was copied
 944:Middlewares/Third_Party/LwIP/src/core/pbuf.c ****  *         ERR_ARG if one of the pbufs is NULL or p_to is not big
 945:Middlewares/Third_Party/LwIP/src/core/pbuf.c ****  *                 enough to hold p_from
 946:Middlewares/Third_Party/LwIP/src/core/pbuf.c ****  */
 947:Middlewares/Third_Party/LwIP/src/core/pbuf.c **** err_t
 948:Middlewares/Third_Party/LwIP/src/core/pbuf.c **** pbuf_copy(struct pbuf *p_to, const struct pbuf *p_from)
 949:Middlewares/Third_Party/LwIP/src/core/pbuf.c **** {
 950:Middlewares/Third_Party/LwIP/src/core/pbuf.c ****   u16_t offset_to=0, offset_from=0, len;
 951:Middlewares/Third_Party/LwIP/src/core/pbuf.c **** 
 952:Middlewares/Third_Party/LwIP/src/core/pbuf.c ****   LWIP_DEBUGF(PBUF_DEBUG | LWIP_DBG_TRACE, ("pbuf_copy(%p, %p)\n",
 953:Middlewares/Third_Party/LwIP/src/core/pbuf.c ****     (const void*)p_to, (const void*)p_from));
 954:Middlewares/Third_Party/LwIP/src/core/pbuf.c **** 
 955:Middlewares/Third_Party/LwIP/src/core/pbuf.c ****   /* is the target big enough to hold the source? */
 956:Middlewares/Third_Party/LwIP/src/core/pbuf.c ****   LWIP_ERROR("pbuf_copy: target not big enough to hold source", ((p_to != NULL) &&
 957:Middlewares/Third_Party/LwIP/src/core/pbuf.c ****              (p_from != NULL) && (p_to->tot_len >= p_from->tot_len)), return ERR_ARG;);
 958:Middlewares/Third_Party/LwIP/src/core/pbuf.c **** 
 959:Middlewares/Third_Party/LwIP/src/core/pbuf.c ****   /* iterate through pbuf chain */
 960:Middlewares/Third_Party/LwIP/src/core/pbuf.c ****   do
 961:Middlewares/Third_Party/LwIP/src/core/pbuf.c ****   {
 962:Middlewares/Third_Party/LwIP/src/core/pbuf.c ****     /* copy one part of the original chain */
 963:Middlewares/Third_Party/LwIP/src/core/pbuf.c ****     if ((p_to->len - offset_to) >= (p_from->len - offset_from)) {
 964:Middlewares/Third_Party/LwIP/src/core/pbuf.c ****       /* complete current p_from fits into current p_to */
 965:Middlewares/Third_Party/LwIP/src/core/pbuf.c ****       len = p_from->len - offset_from;
 966:Middlewares/Third_Party/LwIP/src/core/pbuf.c ****     } else {
 967:Middlewares/Third_Party/LwIP/src/core/pbuf.c ****       /* current p_from does not fit into current p_to */
 968:Middlewares/Third_Party/LwIP/src/core/pbuf.c ****       len = p_to->len - offset_to;
 969:Middlewares/Third_Party/LwIP/src/core/pbuf.c ****     }
 970:Middlewares/Third_Party/LwIP/src/core/pbuf.c ****     MEMCPY((u8_t*)p_to->payload + offset_to, (u8_t*)p_from->payload + offset_from, len);
 971:Middlewares/Third_Party/LwIP/src/core/pbuf.c ****     offset_to += len;
 972:Middlewares/Third_Party/LwIP/src/core/pbuf.c ****     offset_from += len;
 973:Middlewares/Third_Party/LwIP/src/core/pbuf.c ****     LWIP_ASSERT("offset_to <= p_to->len", offset_to <= p_to->len);
 974:Middlewares/Third_Party/LwIP/src/core/pbuf.c ****     LWIP_ASSERT("offset_from <= p_from->len", offset_from <= p_from->len);
 975:Middlewares/Third_Party/LwIP/src/core/pbuf.c ****     if (offset_from >= p_from->len) {
 976:Middlewares/Third_Party/LwIP/src/core/pbuf.c ****       /* on to next p_from (if any) */
 977:Middlewares/Third_Party/LwIP/src/core/pbuf.c ****       offset_from = 0;
 978:Middlewares/Third_Party/LwIP/src/core/pbuf.c ****       p_from = p_from->next;
 979:Middlewares/Third_Party/LwIP/src/core/pbuf.c ****     }
 980:Middlewares/Third_Party/LwIP/src/core/pbuf.c ****     if (offset_to == p_to->len) {
 981:Middlewares/Third_Party/LwIP/src/core/pbuf.c ****       /* on to next p_to (if any) */
 982:Middlewares/Third_Party/LwIP/src/core/pbuf.c ****       offset_to = 0;
 983:Middlewares/Third_Party/LwIP/src/core/pbuf.c ****       p_to = p_to->next;
 984:Middlewares/Third_Party/LwIP/src/core/pbuf.c ****       LWIP_ERROR("p_to != NULL", (p_to != NULL) || (p_from == NULL) , return ERR_ARG;);
 985:Middlewares/Third_Party/LwIP/src/core/pbuf.c ****     }
 986:Middlewares/Third_Party/LwIP/src/core/pbuf.c **** 
 987:Middlewares/Third_Party/LwIP/src/core/pbuf.c ****     if ((p_from != NULL) && (p_from->len == p_from->tot_len)) {
 988:Middlewares/Third_Party/LwIP/src/core/pbuf.c ****       /* don't copy more than one packet! */
 989:Middlewares/Third_Party/LwIP/src/core/pbuf.c ****       LWIP_ERROR("pbuf_copy() does not allow packet queues!",
 990:Middlewares/Third_Party/LwIP/src/core/pbuf.c ****                  (p_from->next == NULL), return ERR_VAL;);
 991:Middlewares/Third_Party/LwIP/src/core/pbuf.c ****     }
 992:Middlewares/Third_Party/LwIP/src/core/pbuf.c ****     if ((p_to != NULL) && (p_to->len == p_to->tot_len)) {
 993:Middlewares/Third_Party/LwIP/src/core/pbuf.c ****       /* don't copy more than one packet! */
 994:Middlewares/Third_Party/LwIP/src/core/pbuf.c ****       LWIP_ERROR("pbuf_copy() does not allow packet queues!",
 995:Middlewares/Third_Party/LwIP/src/core/pbuf.c ****                   (p_to->next == NULL), return ERR_VAL;);
 996:Middlewares/Third_Party/LwIP/src/core/pbuf.c ****     }
 997:Middlewares/Third_Party/LwIP/src/core/pbuf.c ****   } while (p_from);
 998:Middlewares/Third_Party/LwIP/src/core/pbuf.c ****   LWIP_DEBUGF(PBUF_DEBUG | LWIP_DBG_TRACE, ("pbuf_copy: end of chain reached.\n"));
 999:Middlewares/Third_Party/LwIP/src/core/pbuf.c ****   return ERR_OK;
ARM GAS  C:\Users\Nina\AppData\Local\Temp\ccfUDP6L.s 			page 19


1000:Middlewares/Third_Party/LwIP/src/core/pbuf.c **** }
1001:Middlewares/Third_Party/LwIP/src/core/pbuf.c **** 
1002:Middlewares/Third_Party/LwIP/src/core/pbuf.c **** /**
1003:Middlewares/Third_Party/LwIP/src/core/pbuf.c ****  * @ingroup pbuf
1004:Middlewares/Third_Party/LwIP/src/core/pbuf.c ****  * Copy (part of) the contents of a packet buffer
1005:Middlewares/Third_Party/LwIP/src/core/pbuf.c ****  * to an application supplied buffer.
1006:Middlewares/Third_Party/LwIP/src/core/pbuf.c ****  *
1007:Middlewares/Third_Party/LwIP/src/core/pbuf.c ****  * @param buf the pbuf from which to copy data
1008:Middlewares/Third_Party/LwIP/src/core/pbuf.c ****  * @param dataptr the application supplied buffer
1009:Middlewares/Third_Party/LwIP/src/core/pbuf.c ****  * @param len length of data to copy (dataptr must be big enough). No more
1010:Middlewares/Third_Party/LwIP/src/core/pbuf.c ****  * than buf->tot_len will be copied, irrespective of len
1011:Middlewares/Third_Party/LwIP/src/core/pbuf.c ****  * @param offset offset into the packet buffer from where to begin copying len bytes
1012:Middlewares/Third_Party/LwIP/src/core/pbuf.c ****  * @return the number of bytes copied, or 0 on failure
1013:Middlewares/Third_Party/LwIP/src/core/pbuf.c ****  */
1014:Middlewares/Third_Party/LwIP/src/core/pbuf.c **** u16_t
1015:Middlewares/Third_Party/LwIP/src/core/pbuf.c **** pbuf_copy_partial(const struct pbuf *buf, void *dataptr, u16_t len, u16_t offset)
1016:Middlewares/Third_Party/LwIP/src/core/pbuf.c **** {
1017:Middlewares/Third_Party/LwIP/src/core/pbuf.c ****   const struct pbuf *p;
1018:Middlewares/Third_Party/LwIP/src/core/pbuf.c ****   u16_t left;
1019:Middlewares/Third_Party/LwIP/src/core/pbuf.c ****   u16_t buf_copy_len;
1020:Middlewares/Third_Party/LwIP/src/core/pbuf.c ****   u16_t copied_total = 0;
1021:Middlewares/Third_Party/LwIP/src/core/pbuf.c **** 
1022:Middlewares/Third_Party/LwIP/src/core/pbuf.c ****   LWIP_ERROR("pbuf_copy_partial: invalid buf", (buf != NULL), return 0;);
1023:Middlewares/Third_Party/LwIP/src/core/pbuf.c ****   LWIP_ERROR("pbuf_copy_partial: invalid dataptr", (dataptr != NULL), return 0;);
1024:Middlewares/Third_Party/LwIP/src/core/pbuf.c **** 
1025:Middlewares/Third_Party/LwIP/src/core/pbuf.c ****   left = 0;
1026:Middlewares/Third_Party/LwIP/src/core/pbuf.c **** 
1027:Middlewares/Third_Party/LwIP/src/core/pbuf.c ****   if ((buf == NULL) || (dataptr == NULL)) {
1028:Middlewares/Third_Party/LwIP/src/core/pbuf.c ****     return 0;
1029:Middlewares/Third_Party/LwIP/src/core/pbuf.c ****   }
1030:Middlewares/Third_Party/LwIP/src/core/pbuf.c **** 
1031:Middlewares/Third_Party/LwIP/src/core/pbuf.c ****   /* Note some systems use byte copy if dataptr or one of the pbuf payload pointers are unaligned. 
1032:Middlewares/Third_Party/LwIP/src/core/pbuf.c ****   for (p = buf; len != 0 && p != NULL; p = p->next) {
1033:Middlewares/Third_Party/LwIP/src/core/pbuf.c ****     if ((offset != 0) && (offset >= p->len)) {
1034:Middlewares/Third_Party/LwIP/src/core/pbuf.c ****       /* don't copy from this buffer -> on to the next */
1035:Middlewares/Third_Party/LwIP/src/core/pbuf.c ****       offset -= p->len;
1036:Middlewares/Third_Party/LwIP/src/core/pbuf.c ****     } else {
1037:Middlewares/Third_Party/LwIP/src/core/pbuf.c ****       /* copy from this buffer. maybe only partially. */
1038:Middlewares/Third_Party/LwIP/src/core/pbuf.c ****       buf_copy_len = p->len - offset;
1039:Middlewares/Third_Party/LwIP/src/core/pbuf.c ****       if (buf_copy_len > len) {
1040:Middlewares/Third_Party/LwIP/src/core/pbuf.c ****         buf_copy_len = len;
1041:Middlewares/Third_Party/LwIP/src/core/pbuf.c ****       }
1042:Middlewares/Third_Party/LwIP/src/core/pbuf.c ****       /* copy the necessary parts of the buffer */
1043:Middlewares/Third_Party/LwIP/src/core/pbuf.c ****       MEMCPY(&((char*)dataptr)[left], &((char*)p->payload)[offset], buf_copy_len);
1044:Middlewares/Third_Party/LwIP/src/core/pbuf.c ****       copied_total += buf_copy_len;
1045:Middlewares/Third_Party/LwIP/src/core/pbuf.c ****       left += buf_copy_len;
1046:Middlewares/Third_Party/LwIP/src/core/pbuf.c ****       len -= buf_copy_len;
1047:Middlewares/Third_Party/LwIP/src/core/pbuf.c ****       offset = 0;
1048:Middlewares/Third_Party/LwIP/src/core/pbuf.c ****     }
1049:Middlewares/Third_Party/LwIP/src/core/pbuf.c ****   }
1050:Middlewares/Third_Party/LwIP/src/core/pbuf.c ****   return copied_total;
1051:Middlewares/Third_Party/LwIP/src/core/pbuf.c **** }
1052:Middlewares/Third_Party/LwIP/src/core/pbuf.c **** 
1053:Middlewares/Third_Party/LwIP/src/core/pbuf.c **** #if LWIP_TCP && TCP_QUEUE_OOSEQ && LWIP_WND_SCALE
1054:Middlewares/Third_Party/LwIP/src/core/pbuf.c **** /**
1055:Middlewares/Third_Party/LwIP/src/core/pbuf.c ****  * This method modifies a 'pbuf chain', so that its total length is
1056:Middlewares/Third_Party/LwIP/src/core/pbuf.c ****  * smaller than 64K. The remainder of the original pbuf chain is stored
ARM GAS  C:\Users\Nina\AppData\Local\Temp\ccfUDP6L.s 			page 20


1057:Middlewares/Third_Party/LwIP/src/core/pbuf.c ****  * in *rest.
1058:Middlewares/Third_Party/LwIP/src/core/pbuf.c ****  * This function never creates new pbufs, but splits an existing chain
1059:Middlewares/Third_Party/LwIP/src/core/pbuf.c ****  * in two parts. The tot_len of the modified packet queue will likely be
1060:Middlewares/Third_Party/LwIP/src/core/pbuf.c ****  * smaller than 64K.
1061:Middlewares/Third_Party/LwIP/src/core/pbuf.c ****  * 'packet queues' are not supported by this function.
1062:Middlewares/Third_Party/LwIP/src/core/pbuf.c ****  *
1063:Middlewares/Third_Party/LwIP/src/core/pbuf.c ****  * @param p the pbuf queue to be split
1064:Middlewares/Third_Party/LwIP/src/core/pbuf.c ****  * @param rest pointer to store the remainder (after the first 64K)
1065:Middlewares/Third_Party/LwIP/src/core/pbuf.c ****  */
1066:Middlewares/Third_Party/LwIP/src/core/pbuf.c **** void pbuf_split_64k(struct pbuf *p, struct pbuf **rest)
1067:Middlewares/Third_Party/LwIP/src/core/pbuf.c **** {
1068:Middlewares/Third_Party/LwIP/src/core/pbuf.c ****   *rest = NULL;
1069:Middlewares/Third_Party/LwIP/src/core/pbuf.c ****   if ((p != NULL) && (p->next != NULL)) {
1070:Middlewares/Third_Party/LwIP/src/core/pbuf.c ****     u16_t tot_len_front = p->len;
1071:Middlewares/Third_Party/LwIP/src/core/pbuf.c ****     struct pbuf *i = p;
1072:Middlewares/Third_Party/LwIP/src/core/pbuf.c ****     struct pbuf *r = p->next;
1073:Middlewares/Third_Party/LwIP/src/core/pbuf.c **** 
1074:Middlewares/Third_Party/LwIP/src/core/pbuf.c ****     /* continue until the total length (summed up as u16_t) overflows */
1075:Middlewares/Third_Party/LwIP/src/core/pbuf.c ****     while ((r != NULL) && ((u16_t)(tot_len_front + r->len) > tot_len_front)) {
1076:Middlewares/Third_Party/LwIP/src/core/pbuf.c ****       tot_len_front += r->len;
1077:Middlewares/Third_Party/LwIP/src/core/pbuf.c ****       i = r;
1078:Middlewares/Third_Party/LwIP/src/core/pbuf.c ****       r = r->next;
1079:Middlewares/Third_Party/LwIP/src/core/pbuf.c ****     }
1080:Middlewares/Third_Party/LwIP/src/core/pbuf.c ****     /* i now points to last packet of the first segment. Set next
1081:Middlewares/Third_Party/LwIP/src/core/pbuf.c ****        pointer to NULL */
1082:Middlewares/Third_Party/LwIP/src/core/pbuf.c ****     i->next = NULL;
1083:Middlewares/Third_Party/LwIP/src/core/pbuf.c **** 
1084:Middlewares/Third_Party/LwIP/src/core/pbuf.c ****     if (r != NULL) {
1085:Middlewares/Third_Party/LwIP/src/core/pbuf.c ****       /* Update the tot_len field in the first part */
1086:Middlewares/Third_Party/LwIP/src/core/pbuf.c ****       for (i = p; i != NULL; i = i->next) {
1087:Middlewares/Third_Party/LwIP/src/core/pbuf.c ****         i->tot_len -= r->tot_len;
1088:Middlewares/Third_Party/LwIP/src/core/pbuf.c ****         LWIP_ASSERT("tot_len/len mismatch in last pbuf",
1089:Middlewares/Third_Party/LwIP/src/core/pbuf.c ****                     (i->next != NULL) || (i->tot_len == i->len));
1090:Middlewares/Third_Party/LwIP/src/core/pbuf.c ****       }
1091:Middlewares/Third_Party/LwIP/src/core/pbuf.c ****       if (p->flags & PBUF_FLAG_TCP_FIN) {
1092:Middlewares/Third_Party/LwIP/src/core/pbuf.c ****         r->flags |= PBUF_FLAG_TCP_FIN;
1093:Middlewares/Third_Party/LwIP/src/core/pbuf.c ****       }
1094:Middlewares/Third_Party/LwIP/src/core/pbuf.c **** 
1095:Middlewares/Third_Party/LwIP/src/core/pbuf.c ****       /* tot_len field in rest does not need modifications */
1096:Middlewares/Third_Party/LwIP/src/core/pbuf.c ****       /* reference counters do not need modifications */
1097:Middlewares/Third_Party/LwIP/src/core/pbuf.c ****       *rest = r;
1098:Middlewares/Third_Party/LwIP/src/core/pbuf.c ****     }
1099:Middlewares/Third_Party/LwIP/src/core/pbuf.c ****   }
1100:Middlewares/Third_Party/LwIP/src/core/pbuf.c **** }
1101:Middlewares/Third_Party/LwIP/src/core/pbuf.c **** #endif /* LWIP_TCP && TCP_QUEUE_OOSEQ && LWIP_WND_SCALE */
1102:Middlewares/Third_Party/LwIP/src/core/pbuf.c **** 
1103:Middlewares/Third_Party/LwIP/src/core/pbuf.c **** /* Actual implementation of pbuf_skip() but returning const pointer... */
1104:Middlewares/Third_Party/LwIP/src/core/pbuf.c **** static const struct pbuf*
1105:Middlewares/Third_Party/LwIP/src/core/pbuf.c **** pbuf_skip_const(const struct pbuf* in, u16_t in_offset, u16_t* out_offset)
1106:Middlewares/Third_Party/LwIP/src/core/pbuf.c **** {
  29              		.loc 1 1106 1 view -0
  30              		.cfi_startproc
  31              		@ args = 0, pretend = 0, frame = 0
  32              		@ frame_needed = 0, uses_anonymous_args = 0
  33              		@ link register save eliminated.
1107:Middlewares/Third_Party/LwIP/src/core/pbuf.c ****   u16_t offset_left = in_offset;
  34              		.loc 1 1107 3 view .LVU1
ARM GAS  C:\Users\Nina\AppData\Local\Temp\ccfUDP6L.s 			page 21


1108:Middlewares/Third_Party/LwIP/src/core/pbuf.c ****   const struct pbuf* q = in;
  35              		.loc 1 1108 3 view .LVU2
1109:Middlewares/Third_Party/LwIP/src/core/pbuf.c **** 
1110:Middlewares/Third_Party/LwIP/src/core/pbuf.c ****   /* get the correct pbuf */
1111:Middlewares/Third_Party/LwIP/src/core/pbuf.c ****   while ((q != NULL) && (q->len <= offset_left)) {
  36              		.loc 1 1111 3 view .LVU3
  37              	.L2:
  38              		.loc 1 1111 9 view .LVU4
  39 0000 30B1     		cbz	r0, .L3
  40              		.loc 1 1111 27 is_stmt 0 discriminator 1 view .LVU5
  41 0002 4389     		ldrh	r3, [r0, #10]
  42              		.loc 1 1111 22 discriminator 1 view .LVU6
  43 0004 8B42     		cmp	r3, r1
  44 0006 03D8     		bhi	.L3
1112:Middlewares/Third_Party/LwIP/src/core/pbuf.c ****     offset_left -= q->len;
  45              		.loc 1 1112 5 is_stmt 1 view .LVU7
  46              		.loc 1 1112 17 is_stmt 0 view .LVU8
  47 0008 C91A     		subs	r1, r1, r3
  48              	.LVL1:
  49              		.loc 1 1112 17 view .LVU9
  50 000a 89B2     		uxth	r1, r1
  51              	.LVL2:
1113:Middlewares/Third_Party/LwIP/src/core/pbuf.c ****     q = q->next;
  52              		.loc 1 1113 5 is_stmt 1 view .LVU10
  53              		.loc 1 1113 7 is_stmt 0 view .LVU11
  54 000c 0068     		ldr	r0, [r0]
  55              	.LVL3:
  56              		.loc 1 1113 7 view .LVU12
  57 000e F7E7     		b	.L2
  58              	.L3:
1114:Middlewares/Third_Party/LwIP/src/core/pbuf.c ****   }
1115:Middlewares/Third_Party/LwIP/src/core/pbuf.c ****   if (out_offset != NULL) {
  59              		.loc 1 1115 3 is_stmt 1 view .LVU13
  60              		.loc 1 1115 6 is_stmt 0 view .LVU14
  61 0010 02B1     		cbz	r2, .L5
1116:Middlewares/Third_Party/LwIP/src/core/pbuf.c ****     *out_offset = offset_left;
  62              		.loc 1 1116 5 is_stmt 1 view .LVU15
  63              		.loc 1 1116 17 is_stmt 0 view .LVU16
  64 0012 1180     		strh	r1, [r2]	@ movhi
  65              	.L5:
1117:Middlewares/Third_Party/LwIP/src/core/pbuf.c ****   }
1118:Middlewares/Third_Party/LwIP/src/core/pbuf.c ****   return q;
  66              		.loc 1 1118 3 is_stmt 1 view .LVU17
1119:Middlewares/Third_Party/LwIP/src/core/pbuf.c **** }
  67              		.loc 1 1119 1 is_stmt 0 view .LVU18
  68 0014 7047     		bx	lr
  69              		.cfi_endproc
  70              	.LFE182:
  72              		.section	.rodata.pbuf_header_impl.str1.4,"aMS",%progbits,1
  73              		.align	2
  74              	.LC0:
  75 0000 4D696464 		.ascii	"Middlewares/Third_Party/LwIP/src/core/pbuf.c\000"
  75      6C657761 
  75      7265732F 
  75      54686972 
  75      645F5061 
  76 002d 000000   		.align	2
ARM GAS  C:\Users\Nina\AppData\Local\Temp\ccfUDP6L.s 			page 22


  77              	.LC1:
  78 0030 7020213D 		.ascii	"p != NULL\000"
  78      204E554C 
  78      4C00
  79 003a 0000     		.align	2
  80              	.LC2:
  81 003c 41737365 		.ascii	"Assertion \"%s\" failed at line %d in %s\012\000"
  81      7274696F 
  81      6E202225 
  81      73222066 
  81      61696C65 
  82              		.align	2
  83              	.LC3:
  84 0064 696E6372 		.ascii	"increment_magnitude <= p->len\000"
  84      656D656E 
  84      745F6D61 
  84      676E6974 
  84      75646520 
  85 0082 0000     		.align	2
  86              	.LC4:
  87 0084 62616420 		.ascii	"bad pbuf type\000"
  87      70627566 
  87      20747970 
  87      6500
  88              		.section	.text.pbuf_header_impl,"ax",%progbits
  89              		.align	1
  90              		.syntax unified
  91              		.thumb
  92              		.thumb_func
  93              		.fpu fpv5-sp-d16
  95              	pbuf_header_impl:
  96              	.LVL4:
  97              	.LFB171:
 570:Middlewares/Third_Party/LwIP/src/core/pbuf.c ****   u16_t type;
  98              		.loc 1 570 1 is_stmt 1 view -0
  99              		.cfi_startproc
 100              		@ args = 0, pretend = 0, frame = 0
 101              		@ frame_needed = 0, uses_anonymous_args = 0
 570:Middlewares/Third_Party/LwIP/src/core/pbuf.c ****   u16_t type;
 102              		.loc 1 570 1 is_stmt 0 view .LVU20
 103 0000 70B5     		push	{r4, r5, r6, lr}
 104              	.LCFI0:
 105              		.cfi_def_cfa_offset 16
 106              		.cfi_offset 4, -16
 107              		.cfi_offset 5, -12
 108              		.cfi_offset 6, -8
 109              		.cfi_offset 14, -4
 110 0002 0C46     		mov	r4, r1
 111 0004 1646     		mov	r6, r2
 571:Middlewares/Third_Party/LwIP/src/core/pbuf.c ****   void *payload;
 112              		.loc 1 571 3 is_stmt 1 view .LVU21
 572:Middlewares/Third_Party/LwIP/src/core/pbuf.c ****   u16_t increment_magnitude;
 113              		.loc 1 572 3 view .LVU22
 573:Middlewares/Third_Party/LwIP/src/core/pbuf.c **** 
 114              		.loc 1 573 3 view .LVU23
 575:Middlewares/Third_Party/LwIP/src/core/pbuf.c ****   if ((header_size_increment == 0) || (p == NULL)) {
 115              		.loc 1 575 3 view .LVU24
ARM GAS  C:\Users\Nina\AppData\Local\Temp\ccfUDP6L.s 			page 23


 575:Middlewares/Third_Party/LwIP/src/core/pbuf.c ****   if ((header_size_increment == 0) || (p == NULL)) {
 116              		.loc 1 575 3 view .LVU25
 117 0006 0546     		mov	r5, r0
 118 0008 18B3     		cbz	r0, .L18
 119              	.LVL5:
 120              	.L7:
 575:Middlewares/Third_Party/LwIP/src/core/pbuf.c ****   if ((header_size_increment == 0) || (p == NULL)) {
 121              		.loc 1 575 3 discriminator 3 view .LVU26
 575:Middlewares/Third_Party/LwIP/src/core/pbuf.c ****   if ((header_size_increment == 0) || (p == NULL)) {
 122              		.loc 1 575 3 discriminator 3 view .LVU27
 576:Middlewares/Third_Party/LwIP/src/core/pbuf.c ****     return 0;
 123              		.loc 1 576 3 discriminator 3 view .LVU28
 576:Middlewares/Third_Party/LwIP/src/core/pbuf.c ****     return 0;
 124              		.loc 1 576 42 is_stmt 0 discriminator 3 view .LVU29
 125 000a B5FA85F3 		clz	r3, r5
 126 000e 5B09     		lsrs	r3, r3, #5
 576:Middlewares/Third_Party/LwIP/src/core/pbuf.c ****     return 0;
 127              		.loc 1 576 36 discriminator 3 view .LVU30
 128 0010 002C     		cmp	r4, #0
 129 0012 08BF     		it	eq
 130 0014 0123     		moveq	r3, #1
 576:Middlewares/Third_Party/LwIP/src/core/pbuf.c ****     return 0;
 131              		.loc 1 576 6 discriminator 3 view .LVU31
 132 0016 002B     		cmp	r3, #0
 133 0018 51D1     		bne	.L15
 580:Middlewares/Third_Party/LwIP/src/core/pbuf.c ****     increment_magnitude = (u16_t)-header_size_increment;
 134              		.loc 1 580 3 is_stmt 1 view .LVU32
 580:Middlewares/Third_Party/LwIP/src/core/pbuf.c ****     increment_magnitude = (u16_t)-header_size_increment;
 135              		.loc 1 580 6 is_stmt 0 view .LVU33
 136 001a 002C     		cmp	r4, #0
 137 001c 21DB     		blt	.L19
 585:Middlewares/Third_Party/LwIP/src/core/pbuf.c **** #if 0
 138              		.loc 1 585 5 is_stmt 1 view .LVU34
 585:Middlewares/Third_Party/LwIP/src/core/pbuf.c **** #if 0
 139              		.loc 1 585 25 is_stmt 0 view .LVU35
 140 001e A1B2     		uxth	r1, r4
 141              	.LVL6:
 142              	.L10:
 598:Middlewares/Third_Party/LwIP/src/core/pbuf.c ****   /* remember current payload pointer */
 143              		.loc 1 598 3 is_stmt 1 view .LVU36
 598:Middlewares/Third_Party/LwIP/src/core/pbuf.c ****   /* remember current payload pointer */
 144              		.loc 1 598 8 is_stmt 0 view .LVU37
 145 0020 2B7B     		ldrb	r3, [r5, #12]	@ zero_extendqisi2
 146              	.LVL7:
 600:Middlewares/Third_Party/LwIP/src/core/pbuf.c **** 
 147              		.loc 1 600 3 is_stmt 1 view .LVU38
 600:Middlewares/Third_Party/LwIP/src/core/pbuf.c **** 
 148              		.loc 1 600 11 is_stmt 0 view .LVU39
 149 0022 6868     		ldr	r0, [r5, #4]
 150              	.LVL8:
 603:Middlewares/Third_Party/LwIP/src/core/pbuf.c ****     /* set new payload pointer */
 151              		.loc 1 603 3 is_stmt 1 view .LVU40
 603:Middlewares/Third_Party/LwIP/src/core/pbuf.c ****     /* set new payload pointer */
 152              		.loc 1 603 32 is_stmt 0 view .LVU41
 153 0024 032B     		cmp	r3, #3
 154 0026 14BF     		ite	ne
 155 0028 0022     		movne	r2, #0
ARM GAS  C:\Users\Nina\AppData\Local\Temp\ccfUDP6L.s 			page 24


 156 002a 0122     		moveq	r2, #1
 603:Middlewares/Third_Party/LwIP/src/core/pbuf.c ****     /* set new payload pointer */
 157              		.loc 1 603 24 view .LVU42
 158 002c 002B     		cmp	r3, #0
 159 002e 08BF     		it	eq
 160 0030 0122     		moveq	r2, #1
 603:Middlewares/Third_Party/LwIP/src/core/pbuf.c ****     /* set new payload pointer */
 161              		.loc 1 603 6 view .LVU43
 162 0032 42B3     		cbz	r2, .L11
 605:Middlewares/Third_Party/LwIP/src/core/pbuf.c ****     /* boundary check fails? */
 163              		.loc 1 605 5 is_stmt 1 view .LVU44
 605:Middlewares/Third_Party/LwIP/src/core/pbuf.c ****     /* boundary check fails? */
 164              		.loc 1 605 37 is_stmt 0 view .LVU45
 165 0034 031B     		subs	r3, r0, r4
 166              	.LVL9:
 605:Middlewares/Third_Party/LwIP/src/core/pbuf.c ****     /* boundary check fails? */
 167              		.loc 1 605 16 view .LVU46
 168 0036 6B60     		str	r3, [r5, #4]
 607:Middlewares/Third_Party/LwIP/src/core/pbuf.c ****       LWIP_DEBUGF( PBUF_DEBUG | LWIP_DBG_TRACE,
 169              		.loc 1 607 5 is_stmt 1 view .LVU47
 607:Middlewares/Third_Party/LwIP/src/core/pbuf.c ****       LWIP_DEBUGF( PBUF_DEBUG | LWIP_DBG_TRACE,
 170              		.loc 1 607 40 is_stmt 0 view .LVU48
 171 0038 05F11002 		add	r2, r5, #16
 607:Middlewares/Third_Party/LwIP/src/core/pbuf.c ****       LWIP_DEBUGF( PBUF_DEBUG | LWIP_DBG_TRACE,
 172              		.loc 1 607 8 view .LVU49
 173 003c 9342     		cmp	r3, r2
 174 003e 1FD3     		bcc	.L20
 175              	.LVL10:
 176              	.L12:
 635:Middlewares/Third_Party/LwIP/src/core/pbuf.c ****   p->tot_len += header_size_increment;
 177              		.loc 1 635 3 is_stmt 1 view .LVU50
 635:Middlewares/Third_Party/LwIP/src/core/pbuf.c ****   p->tot_len += header_size_increment;
 178              		.loc 1 635 10 is_stmt 0 view .LVU51
 179 0040 A4B2     		uxth	r4, r4
 180 0042 6B89     		ldrh	r3, [r5, #10]
 181 0044 2344     		add	r3, r3, r4
 182 0046 6B81     		strh	r3, [r5, #10]	@ movhi
 636:Middlewares/Third_Party/LwIP/src/core/pbuf.c **** 
 183              		.loc 1 636 3 is_stmt 1 view .LVU52
 636:Middlewares/Third_Party/LwIP/src/core/pbuf.c **** 
 184              		.loc 1 636 14 is_stmt 0 view .LVU53
 185 0048 2989     		ldrh	r1, [r5, #8]
 186              	.LVL11:
 636:Middlewares/Third_Party/LwIP/src/core/pbuf.c **** 
 187              		.loc 1 636 14 view .LVU54
 188 004a 0C44     		add	r4, r4, r1
 189 004c 2C81     		strh	r4, [r5, #8]	@ movhi
 639:Middlewares/Third_Party/LwIP/src/core/pbuf.c **** 
 190              		.loc 1 639 65 is_stmt 1 view .LVU55
 641:Middlewares/Third_Party/LwIP/src/core/pbuf.c **** }
 191              		.loc 1 641 3 view .LVU56
 641:Middlewares/Third_Party/LwIP/src/core/pbuf.c **** }
 192              		.loc 1 641 10 is_stmt 0 view .LVU57
 193 004e 0020     		movs	r0, #0
 194              	.LVL12:
 195              	.L8:
 642:Middlewares/Third_Party/LwIP/src/core/pbuf.c **** 
ARM GAS  C:\Users\Nina\AppData\Local\Temp\ccfUDP6L.s 			page 25


 196              		.loc 1 642 1 view .LVU58
 197 0050 70BD     		pop	{r4, r5, r6, pc}
 198              	.LVL13:
 199              	.L18:
 575:Middlewares/Third_Party/LwIP/src/core/pbuf.c ****   if ((header_size_increment == 0) || (p == NULL)) {
 200              		.loc 1 575 3 is_stmt 1 discriminator 1 view .LVU59
 575:Middlewares/Third_Party/LwIP/src/core/pbuf.c ****   if ((header_size_increment == 0) || (p == NULL)) {
 201              		.loc 1 575 3 discriminator 1 view .LVU60
 202 0052 1D4B     		ldr	r3, .L22
 203 0054 40F23F22 		movw	r2, #575
 204              	.LVL14:
 575:Middlewares/Third_Party/LwIP/src/core/pbuf.c ****   if ((header_size_increment == 0) || (p == NULL)) {
 205              		.loc 1 575 3 is_stmt 0 discriminator 1 view .LVU61
 206 0058 1C49     		ldr	r1, .L22+4
 207              	.LVL15:
 575:Middlewares/Third_Party/LwIP/src/core/pbuf.c ****   if ((header_size_increment == 0) || (p == NULL)) {
 208              		.loc 1 575 3 discriminator 1 view .LVU62
 209 005a 1D48     		ldr	r0, .L22+8
 210              	.LVL16:
 575:Middlewares/Third_Party/LwIP/src/core/pbuf.c ****   if ((header_size_increment == 0) || (p == NULL)) {
 211              		.loc 1 575 3 discriminator 1 view .LVU63
 212 005c FFF7FEFF 		bl	printf
 213              	.LVL17:
 214 0060 D3E7     		b	.L7
 215              	.L19:
 581:Middlewares/Third_Party/LwIP/src/core/pbuf.c ****     /* Check that we aren't going to move off the end of the pbuf */
 216              		.loc 1 581 5 is_stmt 1 view .LVU64
 581:Middlewares/Third_Party/LwIP/src/core/pbuf.c ****     /* Check that we aren't going to move off the end of the pbuf */
 217              		.loc 1 581 27 is_stmt 0 view .LVU65
 218 0062 A1B2     		uxth	r1, r4
 581:Middlewares/Third_Party/LwIP/src/core/pbuf.c ****     /* Check that we aren't going to move off the end of the pbuf */
 219              		.loc 1 581 25 view .LVU66
 220 0064 4942     		rsbs	r1, r1, #0
 221 0066 89B2     		uxth	r1, r1
 222              	.LVL18:
 583:Middlewares/Third_Party/LwIP/src/core/pbuf.c ****   } else {
 223              		.loc 1 583 5 is_stmt 1 view .LVU67
 583:Middlewares/Third_Party/LwIP/src/core/pbuf.c ****   } else {
 224              		.loc 1 583 5 view .LVU68
 225 0068 6B89     		ldrh	r3, [r5, #10]
 226 006a 8B42     		cmp	r3, r1
 227 006c D8D2     		bcs	.L10
 583:Middlewares/Third_Party/LwIP/src/core/pbuf.c ****   } else {
 228              		.loc 1 583 5 discriminator 1 view .LVU69
 583:Middlewares/Third_Party/LwIP/src/core/pbuf.c ****   } else {
 229              		.loc 1 583 5 discriminator 1 view .LVU70
 230 006e 164B     		ldr	r3, .L22
 231 0070 40F24722 		movw	r2, #583
 232 0074 1749     		ldr	r1, .L22+12
 233              	.LVL19:
 583:Middlewares/Third_Party/LwIP/src/core/pbuf.c ****   } else {
 234              		.loc 1 583 5 is_stmt 0 discriminator 1 view .LVU71
 235 0076 1648     		ldr	r0, .L22+8
 236 0078 FFF7FEFF 		bl	printf
 237              	.LVL20:
 583:Middlewares/Third_Party/LwIP/src/core/pbuf.c ****   } else {
 238              		.loc 1 583 5 is_stmt 1 discriminator 1 view .LVU72
ARM GAS  C:\Users\Nina\AppData\Local\Temp\ccfUDP6L.s 			page 26


 583:Middlewares/Third_Party/LwIP/src/core/pbuf.c ****   } else {
 239              		.loc 1 583 5 discriminator 1 view .LVU73
 240 007c 0120     		movs	r0, #1
 241 007e E7E7     		b	.L8
 242              	.LVL21:
 243              	.L20:
 610:Middlewares/Third_Party/LwIP/src/core/pbuf.c ****       /* restore old payload pointer */
 244              		.loc 1 610 71 view .LVU74
 612:Middlewares/Third_Party/LwIP/src/core/pbuf.c ****       /* bail out unsuccessfully */
 245              		.loc 1 612 7 view .LVU75
 612:Middlewares/Third_Party/LwIP/src/core/pbuf.c ****       /* bail out unsuccessfully */
 246              		.loc 1 612 18 is_stmt 0 view .LVU76
 247 0080 6860     		str	r0, [r5, #4]
 614:Middlewares/Third_Party/LwIP/src/core/pbuf.c ****     }
 248              		.loc 1 614 7 is_stmt 1 view .LVU77
 614:Middlewares/Third_Party/LwIP/src/core/pbuf.c ****     }
 249              		.loc 1 614 14 is_stmt 0 view .LVU78
 250 0082 0120     		movs	r0, #1
 251              	.LVL22:
 614:Middlewares/Third_Party/LwIP/src/core/pbuf.c ****     }
 252              		.loc 1 614 14 view .LVU79
 253 0084 E4E7     		b	.L8
 254              	.LVL23:
 255              	.L11:
 617:Middlewares/Third_Party/LwIP/src/core/pbuf.c ****     /* hide a header in the payload? */
 256              		.loc 1 617 10 is_stmt 1 view .LVU80
 617:Middlewares/Third_Party/LwIP/src/core/pbuf.c ****     /* hide a header in the payload? */
 257              		.loc 1 617 31 is_stmt 0 view .LVU81
 258 0086 013B     		subs	r3, r3, #1
 259              	.LVL24:
 617:Middlewares/Third_Party/LwIP/src/core/pbuf.c ****     /* hide a header in the payload? */
 260              		.loc 1 617 31 view .LVU82
 261 0088 9BB2     		uxth	r3, r3
 262              	.LVL25:
 617:Middlewares/Third_Party/LwIP/src/core/pbuf.c ****     /* hide a header in the payload? */
 263              		.loc 1 617 13 view .LVU83
 264 008a 012B     		cmp	r3, #1
 265 008c 0ED8     		bhi	.L13
 619:Middlewares/Third_Party/LwIP/src/core/pbuf.c ****       /* increase payload pointer */
 266              		.loc 1 619 5 is_stmt 1 view .LVU84
 619:Middlewares/Third_Party/LwIP/src/core/pbuf.c ****       /* increase payload pointer */
 267              		.loc 1 619 8 is_stmt 0 view .LVU85
 268 008e 002C     		cmp	r4, #0
 269 0090 06DB     		blt	.L21
 270              	.L14:
 622:Middlewares/Third_Party/LwIP/src/core/pbuf.c ****       p->payload = (u8_t *)p->payload - header_size_increment;
 271              		.loc 1 622 12 is_stmt 1 view .LVU86
 622:Middlewares/Third_Party/LwIP/src/core/pbuf.c ****       p->payload = (u8_t *)p->payload - header_size_increment;
 272              		.loc 1 622 15 is_stmt 0 view .LVU87
 273 0092 002E     		cmp	r6, #0
 274 0094 18BF     		it	ne
 275 0096 002C     		cmpne	r4, #0
 276 0098 13DD     		ble	.L16
 623:Middlewares/Third_Party/LwIP/src/core/pbuf.c ****     } else {
 277              		.loc 1 623 7 is_stmt 1 view .LVU88
 623:Middlewares/Third_Party/LwIP/src/core/pbuf.c ****     } else {
 278              		.loc 1 623 39 is_stmt 0 view .LVU89
ARM GAS  C:\Users\Nina\AppData\Local\Temp\ccfUDP6L.s 			page 27


 279 009a 001B     		subs	r0, r0, r4
 280              	.LVL26:
 623:Middlewares/Third_Party/LwIP/src/core/pbuf.c ****     } else {
 281              		.loc 1 623 18 view .LVU90
 282 009c 6860     		str	r0, [r5, #4]
 283              	.LVL27:
 623:Middlewares/Third_Party/LwIP/src/core/pbuf.c ****     } else {
 284              		.loc 1 623 18 view .LVU91
 285 009e CFE7     		b	.L12
 286              	.LVL28:
 287              	.L21:
 619:Middlewares/Third_Party/LwIP/src/core/pbuf.c ****       /* increase payload pointer */
 288              		.loc 1 619 65 discriminator 1 view .LVU92
 289 00a0 6B89     		ldrh	r3, [r5, #10]
 619:Middlewares/Third_Party/LwIP/src/core/pbuf.c ****       /* increase payload pointer */
 290              		.loc 1 619 37 discriminator 1 view .LVU93
 291 00a2 8B42     		cmp	r3, r1
 292 00a4 F5D3     		bcc	.L14
 621:Middlewares/Third_Party/LwIP/src/core/pbuf.c ****     } else if ((header_size_increment > 0) && force) {
 293              		.loc 1 621 7 is_stmt 1 view .LVU94
 621:Middlewares/Third_Party/LwIP/src/core/pbuf.c ****     } else if ((header_size_increment > 0) && force) {
 294              		.loc 1 621 39 is_stmt 0 view .LVU95
 295 00a6 001B     		subs	r0, r0, r4
 296              	.LVL29:
 621:Middlewares/Third_Party/LwIP/src/core/pbuf.c ****     } else if ((header_size_increment > 0) && force) {
 297              		.loc 1 621 18 view .LVU96
 298 00a8 6860     		str	r0, [r5, #4]
 299              	.LVL30:
 621:Middlewares/Third_Party/LwIP/src/core/pbuf.c ****     } else if ((header_size_increment > 0) && force) {
 300              		.loc 1 621 18 view .LVU97
 301 00aa C9E7     		b	.L12
 302              	.LVL31:
 303              	.L13:
 631:Middlewares/Third_Party/LwIP/src/core/pbuf.c ****     return 1;
 304              		.loc 1 631 5 is_stmt 1 discriminator 1 view .LVU98
 631:Middlewares/Third_Party/LwIP/src/core/pbuf.c ****     return 1;
 305              		.loc 1 631 5 discriminator 1 view .LVU99
 631:Middlewares/Third_Party/LwIP/src/core/pbuf.c ****     return 1;
 306              		.loc 1 631 5 discriminator 1 view .LVU100
 631:Middlewares/Third_Party/LwIP/src/core/pbuf.c ****     return 1;
 307              		.loc 1 631 5 discriminator 1 view .LVU101
 308 00ac 064B     		ldr	r3, .L22
 309 00ae 40F27722 		movw	r2, #631
 310 00b2 0949     		ldr	r1, .L22+16
 311              	.LVL32:
 631:Middlewares/Third_Party/LwIP/src/core/pbuf.c ****     return 1;
 312              		.loc 1 631 5 is_stmt 0 discriminator 1 view .LVU102
 313 00b4 0648     		ldr	r0, .L22+8
 314              	.LVL33:
 631:Middlewares/Third_Party/LwIP/src/core/pbuf.c ****     return 1;
 315              		.loc 1 631 5 discriminator 1 view .LVU103
 316 00b6 FFF7FEFF 		bl	printf
 317              	.LVL34:
 631:Middlewares/Third_Party/LwIP/src/core/pbuf.c ****     return 1;
 318              		.loc 1 631 5 is_stmt 1 discriminator 1 view .LVU104
 631:Middlewares/Third_Party/LwIP/src/core/pbuf.c ****     return 1;
 319              		.loc 1 631 5 discriminator 1 view .LVU105
ARM GAS  C:\Users\Nina\AppData\Local\Temp\ccfUDP6L.s 			page 28


 632:Middlewares/Third_Party/LwIP/src/core/pbuf.c ****   }
 320              		.loc 1 632 5 discriminator 1 view .LVU106
 632:Middlewares/Third_Party/LwIP/src/core/pbuf.c ****   }
 321              		.loc 1 632 12 is_stmt 0 discriminator 1 view .LVU107
 322 00ba 0120     		movs	r0, #1
 323 00bc C8E7     		b	.L8
 324              	.L15:
 577:Middlewares/Third_Party/LwIP/src/core/pbuf.c ****   }
 325              		.loc 1 577 12 view .LVU108
 326 00be 0020     		movs	r0, #0
 327 00c0 C6E7     		b	.L8
 328              	.LVL35:
 329              	.L16:
 627:Middlewares/Third_Party/LwIP/src/core/pbuf.c ****     }
 330              		.loc 1 627 14 view .LVU109
 331 00c2 0120     		movs	r0, #1
 332              	.LVL36:
 627:Middlewares/Third_Party/LwIP/src/core/pbuf.c ****     }
 333              		.loc 1 627 14 view .LVU110
 334 00c4 C4E7     		b	.L8
 335              	.L23:
 336 00c6 00BF     		.align	2
 337              	.L22:
 338 00c8 00000000 		.word	.LC0
 339 00cc 30000000 		.word	.LC1
 340 00d0 3C000000 		.word	.LC2
 341 00d4 64000000 		.word	.LC3
 342 00d8 84000000 		.word	.LC4
 343              		.cfi_endproc
 344              	.LFE171:
 346              		.section	.text.pbuf_pool_is_empty,"ax",%progbits
 347              		.align	1
 348              		.syntax unified
 349              		.thumb
 350              		.thumb_func
 351              		.fpu fpv5-sp-d16
 353              	pbuf_pool_is_empty:
 354              	.LFB167:
 196:Middlewares/Third_Party/LwIP/src/core/pbuf.c **** #ifndef PBUF_POOL_FREE_OOSEQ_QUEUE_CALL
 355              		.loc 1 196 1 is_stmt 1 view -0
 356              		.cfi_startproc
 357              		@ args = 0, pretend = 0, frame = 0
 358              		@ frame_needed = 0, uses_anonymous_args = 0
 359 0000 10B5     		push	{r4, lr}
 360              	.LCFI1:
 361              		.cfi_def_cfa_offset 8
 362              		.cfi_offset 4, -8
 363              		.cfi_offset 14, -4
 200:Middlewares/Third_Party/LwIP/src/core/pbuf.c ****   SYS_ARCH_DECL_PROTECT(old_level);
 364              		.loc 1 200 3 view .LVU112
 201:Middlewares/Third_Party/LwIP/src/core/pbuf.c ****   SYS_ARCH_PROTECT(old_level);
 365              		.loc 1 201 3 view .LVU113
 202:Middlewares/Third_Party/LwIP/src/core/pbuf.c ****   queued = pbuf_free_ooseq_pending;
 366              		.loc 1 202 3 view .LVU114
 367 0002 FFF7FEFF 		bl	sys_arch_protect
 368              	.LVL37:
 203:Middlewares/Third_Party/LwIP/src/core/pbuf.c ****   pbuf_free_ooseq_pending = 1;
ARM GAS  C:\Users\Nina\AppData\Local\Temp\ccfUDP6L.s 			page 29


 369              		.loc 1 203 3 view .LVU115
 203:Middlewares/Third_Party/LwIP/src/core/pbuf.c ****   pbuf_free_ooseq_pending = 1;
 370              		.loc 1 203 10 is_stmt 0 view .LVU116
 371 0006 0C4B     		ldr	r3, .L28
 372 0008 1C78     		ldrb	r4, [r3]	@ zero_extendqisi2
 373 000a E4B2     		uxtb	r4, r4
 374              	.LVL38:
 204:Middlewares/Third_Party/LwIP/src/core/pbuf.c ****   SYS_ARCH_UNPROTECT(old_level);
 375              		.loc 1 204 3 is_stmt 1 view .LVU117
 204:Middlewares/Third_Party/LwIP/src/core/pbuf.c ****   SYS_ARCH_UNPROTECT(old_level);
 376              		.loc 1 204 27 is_stmt 0 view .LVU118
 377 000c 0122     		movs	r2, #1
 378 000e 1A70     		strb	r2, [r3]
 205:Middlewares/Third_Party/LwIP/src/core/pbuf.c **** 
 379              		.loc 1 205 3 is_stmt 1 view .LVU119
 380 0010 FFF7FEFF 		bl	sys_arch_unprotect
 381              	.LVL39:
 207:Middlewares/Third_Party/LwIP/src/core/pbuf.c ****     /* queue a call to pbuf_free_ooseq if not already queued */
 382              		.loc 1 207 3 view .LVU120
 207:Middlewares/Third_Party/LwIP/src/core/pbuf.c ****     /* queue a call to pbuf_free_ooseq if not already queued */
 383              		.loc 1 207 6 is_stmt 0 view .LVU121
 384 0014 04B1     		cbz	r4, .L27
 385              	.L24:
 212:Middlewares/Third_Party/LwIP/src/core/pbuf.c **** #endif /* !LWIP_TCP || !TCP_QUEUE_OOSEQ || !PBUF_POOL_FREE_OOSEQ */
 386              		.loc 1 212 1 view .LVU122
 387 0016 10BD     		pop	{r4, pc}
 388              	.LVL40:
 389              	.L27:
 209:Middlewares/Third_Party/LwIP/src/core/pbuf.c ****   }
 390              		.loc 1 209 5 is_stmt 1 view .LVU123
 209:Middlewares/Third_Party/LwIP/src/core/pbuf.c ****   }
 391              		.loc 1 209 5 view .LVU124
 392 0018 0022     		movs	r2, #0
 393 001a 1146     		mov	r1, r2
 394 001c 0748     		ldr	r0, .L28+4
 395 001e FFF7FEFF 		bl	tcpip_callback_with_block
 396              	.LVL41:
 397 0022 0028     		cmp	r0, #0
 398 0024 F7D0     		beq	.L24
 209:Middlewares/Third_Party/LwIP/src/core/pbuf.c ****   }
 399              		.loc 1 209 5 discriminator 1 view .LVU125
 400 0026 FFF7FEFF 		bl	sys_arch_protect
 401              	.LVL42:
 209:Middlewares/Third_Party/LwIP/src/core/pbuf.c ****   }
 402              		.loc 1 209 5 discriminator 1 view .LVU126
 403 002a 034B     		ldr	r3, .L28
 404 002c 0022     		movs	r2, #0
 405 002e 1A70     		strb	r2, [r3]
 209:Middlewares/Third_Party/LwIP/src/core/pbuf.c ****   }
 406              		.loc 1 209 5 discriminator 1 view .LVU127
 407 0030 FFF7FEFF 		bl	sys_arch_unprotect
 408              	.LVL43:
 209:Middlewares/Third_Party/LwIP/src/core/pbuf.c ****   }
 409              		.loc 1 209 5 discriminator 1 view .LVU128
 212:Middlewares/Third_Party/LwIP/src/core/pbuf.c **** #endif /* !LWIP_TCP || !TCP_QUEUE_OOSEQ || !PBUF_POOL_FREE_OOSEQ */
 410              		.loc 1 212 1 is_stmt 0 discriminator 1 view .LVU129
 411 0034 EFE7     		b	.L24
ARM GAS  C:\Users\Nina\AppData\Local\Temp\ccfUDP6L.s 			page 30


 412              	.L29:
 413 0036 00BF     		.align	2
 414              	.L28:
 415 0038 00000000 		.word	pbuf_free_ooseq_pending
 416 003c 00000000 		.word	pbuf_free_ooseq_callback
 417              		.cfi_endproc
 418              	.LFE167:
 420              		.section	.text.pbuf_free_ooseq,"ax",%progbits
 421              		.align	1
 422              		.syntax unified
 423              		.thumb
 424              		.thumb_func
 425              		.fpu fpv5-sp-d16
 427              	pbuf_free_ooseq:
 428              	.LFB165:
 166:Middlewares/Third_Party/LwIP/src/core/pbuf.c ****   struct tcp_pcb* pcb;
 429              		.loc 1 166 1 is_stmt 1 view -0
 430              		.cfi_startproc
 431              		@ args = 0, pretend = 0, frame = 0
 432              		@ frame_needed = 0, uses_anonymous_args = 0
 433 0000 10B5     		push	{r4, lr}
 434              	.LCFI2:
 435              		.cfi_def_cfa_offset 8
 436              		.cfi_offset 4, -8
 437              		.cfi_offset 14, -4
 167:Middlewares/Third_Party/LwIP/src/core/pbuf.c ****   SYS_ARCH_SET(pbuf_free_ooseq_pending, 0);
 438              		.loc 1 167 3 view .LVU131
 168:Middlewares/Third_Party/LwIP/src/core/pbuf.c **** 
 439              		.loc 1 168 3 view .LVU132
 440              	.LBB2:
 168:Middlewares/Third_Party/LwIP/src/core/pbuf.c **** 
 441              		.loc 1 168 3 view .LVU133
 168:Middlewares/Third_Party/LwIP/src/core/pbuf.c **** 
 442              		.loc 1 168 3 view .LVU134
 443 0002 FFF7FEFF 		bl	sys_arch_protect
 444              	.LVL44:
 168:Middlewares/Third_Party/LwIP/src/core/pbuf.c **** 
 445              		.loc 1 168 3 view .LVU135
 446 0006 084B     		ldr	r3, .L37
 447 0008 0022     		movs	r2, #0
 448 000a 1A70     		strb	r2, [r3]
 168:Middlewares/Third_Party/LwIP/src/core/pbuf.c **** 
 449              		.loc 1 168 3 view .LVU136
 450 000c FFF7FEFF 		bl	sys_arch_unprotect
 451              	.LVL45:
 168:Middlewares/Third_Party/LwIP/src/core/pbuf.c **** 
 452              		.loc 1 168 3 is_stmt 0 view .LVU137
 453              	.LBE2:
 168:Middlewares/Third_Party/LwIP/src/core/pbuf.c **** 
 454              		.loc 1 168 3 is_stmt 1 view .LVU138
 170:Middlewares/Third_Party/LwIP/src/core/pbuf.c ****     if (NULL != pcb->ooseq) {
 455              		.loc 1 170 3 view .LVU139
 170:Middlewares/Third_Party/LwIP/src/core/pbuf.c ****     if (NULL != pcb->ooseq) {
 456              		.loc 1 170 12 is_stmt 0 view .LVU140
 457 0010 064B     		ldr	r3, .L37+4
 458 0012 1C68     		ldr	r4, [r3]
 459              	.LVL46:
ARM GAS  C:\Users\Nina\AppData\Local\Temp\ccfUDP6L.s 			page 31


 460              	.L31:
 170:Middlewares/Third_Party/LwIP/src/core/pbuf.c ****     if (NULL != pcb->ooseq) {
 461              		.loc 1 170 31 is_stmt 1 discriminator 1 view .LVU141
 170:Middlewares/Third_Party/LwIP/src/core/pbuf.c ****     if (NULL != pcb->ooseq) {
 462              		.loc 1 170 3 is_stmt 0 discriminator 1 view .LVU142
 463 0014 3CB1     		cbz	r4, .L30
 171:Middlewares/Third_Party/LwIP/src/core/pbuf.c ****       /** Free the ooseq pbufs of one PCB only */
 464              		.loc 1 171 5 is_stmt 1 view .LVU143
 171:Middlewares/Third_Party/LwIP/src/core/pbuf.c ****       /** Free the ooseq pbufs of one PCB only */
 465              		.loc 1 171 20 is_stmt 0 view .LVU144
 466 0016 206F     		ldr	r0, [r4, #112]
 171:Middlewares/Third_Party/LwIP/src/core/pbuf.c ****       /** Free the ooseq pbufs of one PCB only */
 467              		.loc 1 171 8 view .LVU145
 468 0018 08B9     		cbnz	r0, .L36
 170:Middlewares/Third_Party/LwIP/src/core/pbuf.c ****     if (NULL != pcb->ooseq) {
 469              		.loc 1 170 44 is_stmt 1 discriminator 2 view .LVU146
 170:Middlewares/Third_Party/LwIP/src/core/pbuf.c ****     if (NULL != pcb->ooseq) {
 470              		.loc 1 170 48 is_stmt 0 discriminator 2 view .LVU147
 471 001a E468     		ldr	r4, [r4, #12]
 472              	.LVL47:
 170:Middlewares/Third_Party/LwIP/src/core/pbuf.c ****     if (NULL != pcb->ooseq) {
 473              		.loc 1 170 48 discriminator 2 view .LVU148
 474 001c FAE7     		b	.L31
 475              	.L36:
 173:Middlewares/Third_Party/LwIP/src/core/pbuf.c ****       tcp_segs_free(pcb->ooseq);
 476              		.loc 1 173 101 is_stmt 1 view .LVU149
 174:Middlewares/Third_Party/LwIP/src/core/pbuf.c ****       pcb->ooseq = NULL;
 477              		.loc 1 174 7 view .LVU150
 478 001e FFF7FEFF 		bl	tcp_segs_free
 479              	.LVL48:
 175:Middlewares/Third_Party/LwIP/src/core/pbuf.c ****       return;
 480              		.loc 1 175 7 view .LVU151
 175:Middlewares/Third_Party/LwIP/src/core/pbuf.c ****       return;
 481              		.loc 1 175 18 is_stmt 0 view .LVU152
 482 0022 0023     		movs	r3, #0
 483 0024 2367     		str	r3, [r4, #112]
 176:Middlewares/Third_Party/LwIP/src/core/pbuf.c ****     }
 484              		.loc 1 176 7 is_stmt 1 view .LVU153
 485              	.L30:
 179:Middlewares/Third_Party/LwIP/src/core/pbuf.c **** 
 486              		.loc 1 179 1 is_stmt 0 view .LVU154
 487 0026 10BD     		pop	{r4, pc}
 488              	.LVL49:
 489              	.L38:
 179:Middlewares/Third_Party/LwIP/src/core/pbuf.c **** 
 490              		.loc 1 179 1 view .LVU155
 491              		.align	2
 492              	.L37:
 493 0028 00000000 		.word	pbuf_free_ooseq_pending
 494 002c 00000000 		.word	tcp_active_pcbs
 495              		.cfi_endproc
 496              	.LFE165:
 498              		.section	.text.pbuf_free_ooseq_callback,"ax",%progbits
 499              		.align	1
 500              		.syntax unified
 501              		.thumb
 502              		.thumb_func
ARM GAS  C:\Users\Nina\AppData\Local\Temp\ccfUDP6L.s 			page 32


 503              		.fpu fpv5-sp-d16
 505              	pbuf_free_ooseq_callback:
 506              	.LVL50:
 507              	.LFB166:
 187:Middlewares/Third_Party/LwIP/src/core/pbuf.c ****   LWIP_UNUSED_ARG(arg);
 508              		.loc 1 187 1 is_stmt 1 view -0
 509              		.cfi_startproc
 510              		@ args = 0, pretend = 0, frame = 0
 511              		@ frame_needed = 0, uses_anonymous_args = 0
 187:Middlewares/Third_Party/LwIP/src/core/pbuf.c ****   LWIP_UNUSED_ARG(arg);
 512              		.loc 1 187 1 is_stmt 0 view .LVU157
 513 0000 08B5     		push	{r3, lr}
 514              	.LCFI3:
 515              		.cfi_def_cfa_offset 8
 516              		.cfi_offset 3, -8
 517              		.cfi_offset 14, -4
 188:Middlewares/Third_Party/LwIP/src/core/pbuf.c ****   pbuf_free_ooseq();
 518              		.loc 1 188 3 is_stmt 1 view .LVU158
 189:Middlewares/Third_Party/LwIP/src/core/pbuf.c **** }
 519              		.loc 1 189 3 view .LVU159
 520 0002 FFF7FEFF 		bl	pbuf_free_ooseq
 521              	.LVL51:
 190:Middlewares/Third_Party/LwIP/src/core/pbuf.c **** #endif /* !NO_SYS */
 522              		.loc 1 190 1 is_stmt 0 view .LVU160
 523 0006 08BD     		pop	{r3, pc}
 524              		.cfi_endproc
 525              	.LFE166:
 527              		.section	.rodata.pbuf_alloced_custom.str1.4,"aMS",%progbits,1
 528              		.align	2
 529              	.LC5:
 530 0000 70627566 		.ascii	"pbuf_alloced_custom: bad pbuf layer\000"
 530      5F616C6C 
 530      6F636564 
 530      5F637573 
 530      746F6D3A 
 531              		.section	.text.pbuf_alloced_custom,"ax",%progbits
 532              		.align	1
 533              		.global	pbuf_alloced_custom
 534              		.syntax unified
 535              		.thumb
 536              		.thumb_func
 537              		.fpu fpv5-sp-d16
 539              	pbuf_alloced_custom:
 540              	.LVL52:
 541              	.LFB169:
 427:Middlewares/Third_Party/LwIP/src/core/pbuf.c ****   u16_t offset;
 542              		.loc 1 427 1 is_stmt 1 view -0
 543              		.cfi_startproc
 544              		@ args = 8, pretend = 0, frame = 0
 545              		@ frame_needed = 0, uses_anonymous_args = 0
 427:Middlewares/Third_Party/LwIP/src/core/pbuf.c ****   u16_t offset;
 546              		.loc 1 427 1 is_stmt 0 view .LVU162
 547 0000 70B5     		push	{r4, r5, r6, lr}
 548              	.LCFI4:
 549              		.cfi_def_cfa_offset 16
 550              		.cfi_offset 4, -16
 551              		.cfi_offset 5, -12
ARM GAS  C:\Users\Nina\AppData\Local\Temp\ccfUDP6L.s 			page 33


 552              		.cfi_offset 6, -8
 553              		.cfi_offset 14, -4
 554 0002 049C     		ldr	r4, [sp, #16]
 428:Middlewares/Third_Party/LwIP/src/core/pbuf.c ****   LWIP_DEBUGF(PBUF_DEBUG | LWIP_DBG_TRACE, ("pbuf_alloced_custom(length=%"U16_F")\n", length));
 555              		.loc 1 428 3 is_stmt 1 view .LVU163
 429:Middlewares/Third_Party/LwIP/src/core/pbuf.c **** 
 556              		.loc 1 429 95 view .LVU164
 432:Middlewares/Third_Party/LwIP/src/core/pbuf.c ****   case PBUF_TRANSPORT:
 557              		.loc 1 432 3 view .LVU165
 558 0004 0428     		cmp	r0, #4
 559 0006 0AD8     		bhi	.L42
 560 0008 DFE800F0 		tbb	[pc, r0]
 561              	.L44:
 562 000c 12       		.byte	(.L48-.L44)/2
 563 000d 29       		.byte	(.L52-.L44)/2
 564 000e 03       		.byte	(.L46-.L44)/2
 565 000f 05       		.byte	(.L45-.L44)/2
 566 0010 07       		.byte	(.L43-.L44)/2
 567 0011 00       		.p2align 1
 568              	.L46:
 443:Middlewares/Third_Party/LwIP/src/core/pbuf.c ****     break;
 569              		.loc 1 443 5 view .LVU166
 570              	.LVL53:
 444:Middlewares/Third_Party/LwIP/src/core/pbuf.c ****   case PBUF_RAW_TX:
 571              		.loc 1 444 5 view .LVU167
 443:Middlewares/Third_Party/LwIP/src/core/pbuf.c ****     break;
 572              		.loc 1 443 12 is_stmt 0 view .LVU168
 573 0012 0E20     		movs	r0, #14
 574              	.LVL54:
 444:Middlewares/Third_Party/LwIP/src/core/pbuf.c ****   case PBUF_RAW_TX:
 575              		.loc 1 444 5 view .LVU169
 576 0014 0DE0     		b	.L47
 577              	.LVL55:
 578              	.L45:
 447:Middlewares/Third_Party/LwIP/src/core/pbuf.c ****     break;
 579              		.loc 1 447 5 is_stmt 1 view .LVU170
 448:Middlewares/Third_Party/LwIP/src/core/pbuf.c ****   case PBUF_RAW:
 580              		.loc 1 448 5 view .LVU171
 447:Middlewares/Third_Party/LwIP/src/core/pbuf.c ****     break;
 581              		.loc 1 447 12 is_stmt 0 view .LVU172
 582 0016 0020     		movs	r0, #0
 583              	.LVL56:
 448:Middlewares/Third_Party/LwIP/src/core/pbuf.c ****   case PBUF_RAW:
 584              		.loc 1 448 5 view .LVU173
 585 0018 0BE0     		b	.L47
 586              	.LVL57:
 587              	.L43:
 450:Middlewares/Third_Party/LwIP/src/core/pbuf.c ****     break;
 588              		.loc 1 450 5 is_stmt 1 view .LVU174
 451:Middlewares/Third_Party/LwIP/src/core/pbuf.c ****   default:
 589              		.loc 1 451 5 view .LVU175
 450:Middlewares/Third_Party/LwIP/src/core/pbuf.c ****     break;
 590              		.loc 1 450 12 is_stmt 0 view .LVU176
 591 001a 0020     		movs	r0, #0
 592              	.LVL58:
 451:Middlewares/Third_Party/LwIP/src/core/pbuf.c ****   default:
 593              		.loc 1 451 5 view .LVU177
ARM GAS  C:\Users\Nina\AppData\Local\Temp\ccfUDP6L.s 			page 34


 594 001c 09E0     		b	.L47
 595              	.LVL59:
 596              	.L42:
 453:Middlewares/Third_Party/LwIP/src/core/pbuf.c ****     return NULL;
 597              		.loc 1 453 5 is_stmt 1 discriminator 1 view .LVU178
 453:Middlewares/Third_Party/LwIP/src/core/pbuf.c ****     return NULL;
 598              		.loc 1 453 5 discriminator 1 view .LVU179
 453:Middlewares/Third_Party/LwIP/src/core/pbuf.c ****     return NULL;
 599              		.loc 1 453 5 discriminator 1 view .LVU180
 453:Middlewares/Third_Party/LwIP/src/core/pbuf.c ****     return NULL;
 600              		.loc 1 453 5 discriminator 1 view .LVU181
 601 001e 134B     		ldr	r3, .L55
 602              	.LVL60:
 453:Middlewares/Third_Party/LwIP/src/core/pbuf.c ****     return NULL;
 603              		.loc 1 453 5 is_stmt 0 discriminator 1 view .LVU182
 604 0020 40F2C512 		movw	r2, #453
 605              	.LVL61:
 453:Middlewares/Third_Party/LwIP/src/core/pbuf.c ****     return NULL;
 606              		.loc 1 453 5 discriminator 1 view .LVU183
 607 0024 1249     		ldr	r1, .L55+4
 608              	.LVL62:
 453:Middlewares/Third_Party/LwIP/src/core/pbuf.c ****     return NULL;
 609              		.loc 1 453 5 discriminator 1 view .LVU184
 610 0026 1348     		ldr	r0, .L55+8
 611              	.LVL63:
 453:Middlewares/Third_Party/LwIP/src/core/pbuf.c ****     return NULL;
 612              		.loc 1 453 5 discriminator 1 view .LVU185
 613 0028 FFF7FEFF 		bl	printf
 614              	.LVL64:
 453:Middlewares/Third_Party/LwIP/src/core/pbuf.c ****     return NULL;
 615              		.loc 1 453 5 is_stmt 1 discriminator 1 view .LVU186
 453:Middlewares/Third_Party/LwIP/src/core/pbuf.c ****     return NULL;
 616              		.loc 1 453 5 discriminator 1 view .LVU187
 454:Middlewares/Third_Party/LwIP/src/core/pbuf.c ****   }
 617              		.loc 1 454 5 discriminator 1 view .LVU188
 454:Middlewares/Third_Party/LwIP/src/core/pbuf.c ****   }
 618              		.loc 1 454 12 is_stmt 0 discriminator 1 view .LVU189
 619 002c 0020     		movs	r0, #0
 620 002e 15E0     		b	.L41
 621              	.LVL65:
 622              	.L48:
 447:Middlewares/Third_Party/LwIP/src/core/pbuf.c ****     break;
 623              		.loc 1 447 12 view .LVU190
 624 0030 3620     		movs	r0, #54
 625              	.LVL66:
 626              	.L47:
 457:Middlewares/Third_Party/LwIP/src/core/pbuf.c ****     LWIP_DEBUGF(PBUF_DEBUG | LWIP_DBG_LEVEL_WARNING, ("pbuf_alloced_custom(length=%"U16_F") buffer 
 627              		.loc 1 457 3 is_stmt 1 view .LVU191
 457:Middlewares/Third_Party/LwIP/src/core/pbuf.c ****     LWIP_DEBUGF(PBUF_DEBUG | LWIP_DBG_LEVEL_WARNING, ("pbuf_alloced_custom(length=%"U16_F") buffer 
 628              		.loc 1 457 7 is_stmt 0 view .LVU192
 629 0032 0330     		adds	r0, r0, #3
 630              	.LVL67:
 457:Middlewares/Third_Party/LwIP/src/core/pbuf.c ****     LWIP_DEBUGF(PBUF_DEBUG | LWIP_DBG_LEVEL_WARNING, ("pbuf_alloced_custom(length=%"U16_F") buffer 
 631              		.loc 1 457 7 view .LVU193
 632 0034 20F00300 		bic	r0, r0, #3
 457:Middlewares/Third_Party/LwIP/src/core/pbuf.c ****     LWIP_DEBUGF(PBUF_DEBUG | LWIP_DBG_LEVEL_WARNING, ("pbuf_alloced_custom(length=%"U16_F") buffer 
 633              		.loc 1 457 35 view .LVU194
ARM GAS  C:\Users\Nina\AppData\Local\Temp\ccfUDP6L.s 			page 35


 634 0038 0E18     		adds	r6, r1, r0
 457:Middlewares/Third_Party/LwIP/src/core/pbuf.c ****     LWIP_DEBUGF(PBUF_DEBUG | LWIP_DBG_LEVEL_WARNING, ("pbuf_alloced_custom(length=%"U16_F") buffer 
 635              		.loc 1 457 6 view .LVU195
 636 003a BDF81450 		ldrh	r5, [sp, #20]
 637 003e AE42     		cmp	r6, r5
 638 0040 12D8     		bhi	.L53
 462:Middlewares/Third_Party/LwIP/src/core/pbuf.c ****   if (payload_mem != NULL) {
 639              		.loc 1 462 3 is_stmt 1 view .LVU196
 462:Middlewares/Third_Party/LwIP/src/core/pbuf.c ****   if (payload_mem != NULL) {
 640              		.loc 1 462 16 is_stmt 0 view .LVU197
 641 0042 0025     		movs	r5, #0
 642 0044 1D60     		str	r5, [r3]
 463:Middlewares/Third_Party/LwIP/src/core/pbuf.c ****     p->pbuf.payload = (u8_t *)payload_mem + LWIP_MEM_ALIGN_SIZE(offset);
 643              		.loc 1 463 3 is_stmt 1 view .LVU198
 463:Middlewares/Third_Party/LwIP/src/core/pbuf.c ****     p->pbuf.payload = (u8_t *)payload_mem + LWIP_MEM_ALIGN_SIZE(offset);
 644              		.loc 1 463 6 is_stmt 0 view .LVU199
 645 0046 64B1     		cbz	r4, .L50
 464:Middlewares/Third_Party/LwIP/src/core/pbuf.c ****   } else {
 646              		.loc 1 464 5 is_stmt 1 view .LVU200
 464:Middlewares/Third_Party/LwIP/src/core/pbuf.c ****   } else {
 647              		.loc 1 464 43 is_stmt 0 view .LVU201
 648 0048 2044     		add	r0, r0, r4
 464:Middlewares/Third_Party/LwIP/src/core/pbuf.c ****   } else {
 649              		.loc 1 464 21 view .LVU202
 650 004a 5860     		str	r0, [r3, #4]
 651              	.L51:
 468:Middlewares/Third_Party/LwIP/src/core/pbuf.c ****   p->pbuf.len = p->pbuf.tot_len = length;
 652              		.loc 1 468 3 is_stmt 1 view .LVU203
 468:Middlewares/Third_Party/LwIP/src/core/pbuf.c ****   p->pbuf.len = p->pbuf.tot_len = length;
 653              		.loc 1 468 17 is_stmt 0 view .LVU204
 654 004c 0220     		movs	r0, #2
 655 004e 5873     		strb	r0, [r3, #13]
 469:Middlewares/Third_Party/LwIP/src/core/pbuf.c ****   p->pbuf.type = type;
 656              		.loc 1 469 3 is_stmt 1 view .LVU205
 469:Middlewares/Third_Party/LwIP/src/core/pbuf.c ****   p->pbuf.type = type;
 657              		.loc 1 469 33 is_stmt 0 view .LVU206
 658 0050 1981     		strh	r1, [r3, #8]	@ movhi
 469:Middlewares/Third_Party/LwIP/src/core/pbuf.c ****   p->pbuf.type = type;
 659              		.loc 1 469 15 view .LVU207
 660 0052 5981     		strh	r1, [r3, #10]	@ movhi
 470:Middlewares/Third_Party/LwIP/src/core/pbuf.c ****   p->pbuf.ref = 1;
 661              		.loc 1 470 3 is_stmt 1 view .LVU208
 470:Middlewares/Third_Party/LwIP/src/core/pbuf.c ****   p->pbuf.ref = 1;
 662              		.loc 1 470 16 is_stmt 0 view .LVU209
 663 0054 1A73     		strb	r2, [r3, #12]
 471:Middlewares/Third_Party/LwIP/src/core/pbuf.c ****   return &p->pbuf;
 664              		.loc 1 471 3 is_stmt 1 view .LVU210
 471:Middlewares/Third_Party/LwIP/src/core/pbuf.c ****   return &p->pbuf;
 665              		.loc 1 471 15 is_stmt 0 view .LVU211
 666 0056 0122     		movs	r2, #1
 667              	.LVL68:
 471:Middlewares/Third_Party/LwIP/src/core/pbuf.c ****   return &p->pbuf;
 668              		.loc 1 471 15 view .LVU212
 669 0058 DA81     		strh	r2, [r3, #14]	@ movhi
 472:Middlewares/Third_Party/LwIP/src/core/pbuf.c **** }
 670              		.loc 1 472 3 is_stmt 1 view .LVU213
 472:Middlewares/Third_Party/LwIP/src/core/pbuf.c **** }
ARM GAS  C:\Users\Nina\AppData\Local\Temp\ccfUDP6L.s 			page 36


 671              		.loc 1 472 10 is_stmt 0 view .LVU214
 672 005a 1846     		mov	r0, r3
 673              	.LVL69:
 674              	.L41:
 473:Middlewares/Third_Party/LwIP/src/core/pbuf.c **** #endif /* LWIP_SUPPORT_CUSTOM_PBUF */
 675              		.loc 1 473 1 view .LVU215
 676 005c 70BD     		pop	{r4, r5, r6, pc}
 677              	.LVL70:
 678              	.L52:
 439:Middlewares/Third_Party/LwIP/src/core/pbuf.c ****     break;
 679              		.loc 1 439 12 view .LVU216
 680 005e 2220     		movs	r0, #34
 681              	.LVL71:
 439:Middlewares/Third_Party/LwIP/src/core/pbuf.c ****     break;
 682              		.loc 1 439 12 view .LVU217
 683 0060 E7E7     		b	.L47
 684              	.L50:
 466:Middlewares/Third_Party/LwIP/src/core/pbuf.c ****   }
 685              		.loc 1 466 5 is_stmt 1 view .LVU218
 466:Middlewares/Third_Party/LwIP/src/core/pbuf.c ****   }
 686              		.loc 1 466 21 is_stmt 0 view .LVU219
 687 0062 0020     		movs	r0, #0
 688 0064 5860     		str	r0, [r3, #4]
 689 0066 F1E7     		b	.L51
 690              	.L53:
 459:Middlewares/Third_Party/LwIP/src/core/pbuf.c ****   }
 691              		.loc 1 459 12 view .LVU220
 692 0068 0020     		movs	r0, #0
 693 006a F7E7     		b	.L41
 694              	.L56:
 695              		.align	2
 696              	.L55:
 697 006c 00000000 		.word	.LC0
 698 0070 00000000 		.word	.LC5
 699 0074 3C000000 		.word	.LC2
 700              		.cfi_endproc
 701              	.LFE169:
 703              		.section	.text.pbuf_header,"ax",%progbits
 704              		.align	1
 705              		.global	pbuf_header
 706              		.syntax unified
 707              		.thumb
 708              		.thumb_func
 709              		.fpu fpv5-sp-d16
 711              	pbuf_header:
 712              	.LVL72:
 713              	.LFB172:
 666:Middlewares/Third_Party/LwIP/src/core/pbuf.c ****    return pbuf_header_impl(p, header_size_increment, 0);
 714              		.loc 1 666 1 is_stmt 1 view -0
 715              		.cfi_startproc
 716              		@ args = 0, pretend = 0, frame = 0
 717              		@ frame_needed = 0, uses_anonymous_args = 0
 666:Middlewares/Third_Party/LwIP/src/core/pbuf.c ****    return pbuf_header_impl(p, header_size_increment, 0);
 718              		.loc 1 666 1 is_stmt 0 view .LVU222
 719 0000 08B5     		push	{r3, lr}
 720              	.LCFI5:
 721              		.cfi_def_cfa_offset 8
ARM GAS  C:\Users\Nina\AppData\Local\Temp\ccfUDP6L.s 			page 37


 722              		.cfi_offset 3, -8
 723              		.cfi_offset 14, -4
 667:Middlewares/Third_Party/LwIP/src/core/pbuf.c **** }
 724              		.loc 1 667 4 is_stmt 1 view .LVU223
 667:Middlewares/Third_Party/LwIP/src/core/pbuf.c **** }
 725              		.loc 1 667 11 is_stmt 0 view .LVU224
 726 0002 0022     		movs	r2, #0
 727 0004 FFF7FEFF 		bl	pbuf_header_impl
 728              	.LVL73:
 668:Middlewares/Third_Party/LwIP/src/core/pbuf.c **** 
 729              		.loc 1 668 1 view .LVU225
 730 0008 08BD     		pop	{r3, pc}
 731              		.cfi_endproc
 732              	.LFE172:
 734              		.section	.text.pbuf_header_force,"ax",%progbits
 735              		.align	1
 736              		.global	pbuf_header_force
 737              		.syntax unified
 738              		.thumb
 739              		.thumb_func
 740              		.fpu fpv5-sp-d16
 742              	pbuf_header_force:
 743              	.LVL74:
 744              	.LFB173:
 676:Middlewares/Third_Party/LwIP/src/core/pbuf.c ****    return pbuf_header_impl(p, header_size_increment, 1);
 745              		.loc 1 676 1 is_stmt 1 view -0
 746              		.cfi_startproc
 747              		@ args = 0, pretend = 0, frame = 0
 748              		@ frame_needed = 0, uses_anonymous_args = 0
 676:Middlewares/Third_Party/LwIP/src/core/pbuf.c ****    return pbuf_header_impl(p, header_size_increment, 1);
 749              		.loc 1 676 1 is_stmt 0 view .LVU227
 750 0000 08B5     		push	{r3, lr}
 751              	.LCFI6:
 752              		.cfi_def_cfa_offset 8
 753              		.cfi_offset 3, -8
 754              		.cfi_offset 14, -4
 677:Middlewares/Third_Party/LwIP/src/core/pbuf.c **** }
 755              		.loc 1 677 4 is_stmt 1 view .LVU228
 677:Middlewares/Third_Party/LwIP/src/core/pbuf.c **** }
 756              		.loc 1 677 11 is_stmt 0 view .LVU229
 757 0002 0122     		movs	r2, #1
 758 0004 FFF7FEFF 		bl	pbuf_header_impl
 759              	.LVL75:
 678:Middlewares/Third_Party/LwIP/src/core/pbuf.c **** 
 760              		.loc 1 678 1 view .LVU230
 761 0008 08BD     		pop	{r3, pc}
 762              		.cfi_endproc
 763              	.LFE173:
 765              		.section	.rodata.pbuf_free.str1.4,"aMS",%progbits,1
 766              		.align	2
 767              	.LC6:
 768 0000 70627566 		.ascii	"pbuf_free: sane type\000"
 768      5F667265 
 768      653A2073 
 768      616E6520 
 768      74797065 
 769 0015 000000   		.align	2
ARM GAS  C:\Users\Nina\AppData\Local\Temp\ccfUDP6L.s 			page 38


 770              	.LC7:
 771 0018 70627566 		.ascii	"pbuf_free: p->ref > 0\000"
 771      5F667265 
 771      653A2070 
 771      2D3E7265 
 771      66203E20 
 772 002e 0000     		.align	2
 773              	.LC8:
 774 0030 70632D3E 		.ascii	"pc->custom_free_function != NULL\000"
 774      63757374 
 774      6F6D5F66 
 774      7265655F 
 774      66756E63 
 775              		.section	.text.pbuf_free,"ax",%progbits
 776              		.align	1
 777              		.global	pbuf_free
 778              		.syntax unified
 779              		.thumb
 780              		.thumb_func
 781              		.fpu fpv5-sp-d16
 783              	pbuf_free:
 784              	.LVL76:
 785              	.LFB174:
 716:Middlewares/Third_Party/LwIP/src/core/pbuf.c ****   u16_t type;
 786              		.loc 1 716 1 is_stmt 1 view -0
 787              		.cfi_startproc
 788              		@ args = 0, pretend = 0, frame = 0
 789              		@ frame_needed = 0, uses_anonymous_args = 0
 716:Middlewares/Third_Party/LwIP/src/core/pbuf.c ****   u16_t type;
 790              		.loc 1 716 1 is_stmt 0 view .LVU232
 791 0000 F8B5     		push	{r3, r4, r5, r6, r7, lr}
 792              	.LCFI7:
 793              		.cfi_def_cfa_offset 24
 794              		.cfi_offset 3, -24
 795              		.cfi_offset 4, -20
 796              		.cfi_offset 5, -16
 797              		.cfi_offset 6, -12
 798              		.cfi_offset 7, -8
 799              		.cfi_offset 14, -4
 717:Middlewares/Third_Party/LwIP/src/core/pbuf.c ****   struct pbuf *q;
 800              		.loc 1 717 3 is_stmt 1 view .LVU233
 718:Middlewares/Third_Party/LwIP/src/core/pbuf.c ****   u8_t count;
 801              		.loc 1 718 3 view .LVU234
 719:Middlewares/Third_Party/LwIP/src/core/pbuf.c **** 
 802              		.loc 1 719 3 view .LVU235
 721:Middlewares/Third_Party/LwIP/src/core/pbuf.c ****     LWIP_ASSERT("p != NULL", p != NULL);
 803              		.loc 1 721 3 view .LVU236
 721:Middlewares/Third_Party/LwIP/src/core/pbuf.c ****     LWIP_ASSERT("p != NULL", p != NULL);
 804              		.loc 1 721 6 is_stmt 0 view .LVU237
 805 0002 28B1     		cbz	r0, .L74
 806 0004 0446     		mov	r4, r0
 728:Middlewares/Third_Party/LwIP/src/core/pbuf.c **** 
 807              		.loc 1 728 75 is_stmt 1 view .LVU238
 730:Middlewares/Third_Party/LwIP/src/core/pbuf.c **** 
 808              		.loc 1 730 13 view .LVU239
 732:Middlewares/Third_Party/LwIP/src/core/pbuf.c ****     p->type == PBUF_RAM || p->type == PBUF_ROM ||
 809              		.loc 1 732 3 view .LVU240
ARM GAS  C:\Users\Nina\AppData\Local\Temp\ccfUDP6L.s 			page 39


 732:Middlewares/Third_Party/LwIP/src/core/pbuf.c ****     p->type == PBUF_RAM || p->type == PBUF_ROM ||
 810              		.loc 1 732 3 view .LVU241
 811 0006 037B     		ldrb	r3, [r0, #12]	@ zero_extendqisi2
 812 0008 032B     		cmp	r3, #3
 813 000a 0BD8     		bhi	.L75
 814              	.LVL77:
 815              	.L64:
 716:Middlewares/Third_Party/LwIP/src/core/pbuf.c ****   u16_t type;
 816              		.loc 1 716 1 is_stmt 0 view .LVU242
 817 000c 0026     		movs	r6, #0
 818 000e 1FE0     		b	.L71
 819              	.LVL78:
 820              	.L74:
 722:Middlewares/Third_Party/LwIP/src/core/pbuf.c ****     /* if assertions are disabled, proceed with debug output */
 821              		.loc 1 722 5 is_stmt 1 discriminator 1 view .LVU243
 722:Middlewares/Third_Party/LwIP/src/core/pbuf.c ****     /* if assertions are disabled, proceed with debug output */
 822              		.loc 1 722 5 discriminator 1 view .LVU244
 722:Middlewares/Third_Party/LwIP/src/core/pbuf.c ****     /* if assertions are disabled, proceed with debug output */
 823              		.loc 1 722 5 discriminator 1 view .LVU245
 722:Middlewares/Third_Party/LwIP/src/core/pbuf.c ****     /* if assertions are disabled, proceed with debug output */
 824              		.loc 1 722 5 discriminator 1 view .LVU246
 825 0010 2A4B     		ldr	r3, .L79
 826 0012 40F2D222 		movw	r2, #722
 827 0016 2A49     		ldr	r1, .L79+4
 828 0018 2A48     		ldr	r0, .L79+8
 829              	.LVL79:
 722:Middlewares/Third_Party/LwIP/src/core/pbuf.c ****     /* if assertions are disabled, proceed with debug output */
 830              		.loc 1 722 5 is_stmt 0 discriminator 1 view .LVU247
 831 001a FFF7FEFF 		bl	printf
 832              	.LVL80:
 722:Middlewares/Third_Party/LwIP/src/core/pbuf.c ****     /* if assertions are disabled, proceed with debug output */
 833              		.loc 1 722 5 is_stmt 1 discriminator 1 view .LVU248
 722:Middlewares/Third_Party/LwIP/src/core/pbuf.c ****     /* if assertions are disabled, proceed with debug output */
 834              		.loc 1 722 5 discriminator 1 view .LVU249
 725:Middlewares/Third_Party/LwIP/src/core/pbuf.c ****     return 0;
 835              		.loc 1 725 46 discriminator 1 view .LVU250
 726:Middlewares/Third_Party/LwIP/src/core/pbuf.c ****   }
 836              		.loc 1 726 5 discriminator 1 view .LVU251
 726:Middlewares/Third_Party/LwIP/src/core/pbuf.c ****   }
 837              		.loc 1 726 12 is_stmt 0 discriminator 1 view .LVU252
 838 001e 0026     		movs	r6, #0
 839              	.LVL81:
 840              	.L63:
 791:Middlewares/Third_Party/LwIP/src/core/pbuf.c **** 
 841              		.loc 1 791 1 view .LVU253
 842 0020 3046     		mov	r0, r6
 843 0022 F8BD     		pop	{r3, r4, r5, r6, r7, pc}
 844              	.LVL82:
 845              	.L75:
 732:Middlewares/Third_Party/LwIP/src/core/pbuf.c ****     p->type == PBUF_RAM || p->type == PBUF_ROM ||
 846              		.loc 1 732 3 is_stmt 1 discriminator 1 view .LVU254
 732:Middlewares/Third_Party/LwIP/src/core/pbuf.c ****     p->type == PBUF_RAM || p->type == PBUF_ROM ||
 847              		.loc 1 732 3 discriminator 1 view .LVU255
 848 0024 254B     		ldr	r3, .L79
 849 0026 4FF43772 		mov	r2, #732
 850 002a 2749     		ldr	r1, .L79+12
 851 002c 2548     		ldr	r0, .L79+8
ARM GAS  C:\Users\Nina\AppData\Local\Temp\ccfUDP6L.s 			page 40


 852              	.LVL83:
 732:Middlewares/Third_Party/LwIP/src/core/pbuf.c ****     p->type == PBUF_RAM || p->type == PBUF_ROM ||
 853              		.loc 1 732 3 is_stmt 0 discriminator 1 view .LVU256
 854 002e FFF7FEFF 		bl	printf
 855              	.LVL84:
 856 0032 EBE7     		b	.L64
 857              	.LVL85:
 858              	.L76:
 859              	.LBB3:
 747:Middlewares/Third_Party/LwIP/src/core/pbuf.c ****     /* decrease reference count (number of pointers to pbuf) */
 860              		.loc 1 747 5 is_stmt 1 discriminator 1 view .LVU257
 747:Middlewares/Third_Party/LwIP/src/core/pbuf.c ****     /* decrease reference count (number of pointers to pbuf) */
 861              		.loc 1 747 5 discriminator 1 view .LVU258
 862 0034 214B     		ldr	r3, .L79
 863 0036 40F2EB22 		movw	r2, #747
 864 003a 2449     		ldr	r1, .L79+16
 865 003c 2148     		ldr	r0, .L79+8
 866              	.LVL86:
 747:Middlewares/Third_Party/LwIP/src/core/pbuf.c ****     /* decrease reference count (number of pointers to pbuf) */
 867              		.loc 1 747 5 is_stmt 0 discriminator 1 view .LVU259
 868 003e FFF7FEFF 		bl	printf
 869              	.LVL87:
 870 0042 0DE0     		b	.L65
 871              	.LVL88:
 872              	.L67:
 873              	.LBB4:
 761:Middlewares/Third_Party/LwIP/src/core/pbuf.c ****         pc->custom_free_function(p);
 874              		.loc 1 761 9 is_stmt 1 discriminator 3 view .LVU260
 761:Middlewares/Third_Party/LwIP/src/core/pbuf.c ****         pc->custom_free_function(p);
 875              		.loc 1 761 9 discriminator 3 view .LVU261
 762:Middlewares/Third_Party/LwIP/src/core/pbuf.c ****       } else
 876              		.loc 1 762 9 discriminator 3 view .LVU262
 762:Middlewares/Third_Party/LwIP/src/core/pbuf.c ****       } else
 877              		.loc 1 762 11 is_stmt 0 discriminator 3 view .LVU263
 878 0044 2369     		ldr	r3, [r4, #16]
 762:Middlewares/Third_Party/LwIP/src/core/pbuf.c ****       } else
 879              		.loc 1 762 9 discriminator 3 view .LVU264
 880 0046 2046     		mov	r0, r4
 881 0048 9847     		blx	r3
 882              	.LVL89:
 883              	.L68:
 762:Middlewares/Third_Party/LwIP/src/core/pbuf.c ****       } else
 884              		.loc 1 762 9 discriminator 3 view .LVU265
 885              	.LBE4:
 777:Middlewares/Third_Party/LwIP/src/core/pbuf.c ****       /* proceed to next pbuf */
 886              		.loc 1 777 7 is_stmt 1 view .LVU266
 777:Middlewares/Third_Party/LwIP/src/core/pbuf.c ****       /* proceed to next pbuf */
 887              		.loc 1 777 12 is_stmt 0 view .LVU267
 888 004a 0136     		adds	r6, r6, #1
 889              	.LVL90:
 777:Middlewares/Third_Party/LwIP/src/core/pbuf.c ****       /* proceed to next pbuf */
 890              		.loc 1 777 12 view .LVU268
 891 004c F6B2     		uxtb	r6, r6
 892              	.LVL91:
 779:Middlewares/Third_Party/LwIP/src/core/pbuf.c ****     /* p->ref > 0, this pbuf is still referenced to */
 893              		.loc 1 779 7 is_stmt 1 view .LVU269
 779:Middlewares/Third_Party/LwIP/src/core/pbuf.c ****     /* p->ref > 0, this pbuf is still referenced to */
ARM GAS  C:\Users\Nina\AppData\Local\Temp\ccfUDP6L.s 			page 41


 894              		.loc 1 779 9 is_stmt 0 view .LVU270
 895 004e 2C46     		mov	r4, r5
 896              	.LVL92:
 897              	.L71:
 779:Middlewares/Third_Party/LwIP/src/core/pbuf.c ****     /* p->ref > 0, this pbuf is still referenced to */
 898              		.loc 1 779 9 view .LVU271
 899              	.LBE3:
 739:Middlewares/Third_Party/LwIP/src/core/pbuf.c ****     u16_t ref;
 900              		.loc 1 739 9 is_stmt 1 view .LVU272
 901 0050 002C     		cmp	r4, #0
 902 0052 E5D0     		beq	.L63
 903              	.LBB6:
 740:Middlewares/Third_Party/LwIP/src/core/pbuf.c ****     SYS_ARCH_DECL_PROTECT(old_level);
 904              		.loc 1 740 5 view .LVU273
 741:Middlewares/Third_Party/LwIP/src/core/pbuf.c ****     /* Since decrementing ref cannot be guaranteed to be a single machine operation
 905              		.loc 1 741 5 view .LVU274
 745:Middlewares/Third_Party/LwIP/src/core/pbuf.c ****     /* all pbufs in a chain are referenced at least once */
 906              		.loc 1 745 5 view .LVU275
 907 0054 FFF7FEFF 		bl	sys_arch_protect
 908              	.LVL93:
 909 0058 0746     		mov	r7, r0
 910              	.LVL94:
 747:Middlewares/Third_Party/LwIP/src/core/pbuf.c ****     /* decrease reference count (number of pointers to pbuf) */
 911              		.loc 1 747 5 view .LVU276
 747:Middlewares/Third_Party/LwIP/src/core/pbuf.c ****     /* decrease reference count (number of pointers to pbuf) */
 912              		.loc 1 747 5 view .LVU277
 913 005a E389     		ldrh	r3, [r4, #14]
 914 005c 002B     		cmp	r3, #0
 915 005e E9D0     		beq	.L76
 916              	.LVL95:
 917              	.L65:
 747:Middlewares/Third_Party/LwIP/src/core/pbuf.c ****     /* decrease reference count (number of pointers to pbuf) */
 918              		.loc 1 747 5 discriminator 3 view .LVU278
 747:Middlewares/Third_Party/LwIP/src/core/pbuf.c ****     /* decrease reference count (number of pointers to pbuf) */
 919              		.loc 1 747 5 discriminator 3 view .LVU279
 749:Middlewares/Third_Party/LwIP/src/core/pbuf.c ****     SYS_ARCH_UNPROTECT(old_level);
 920              		.loc 1 749 5 discriminator 3 view .LVU280
 749:Middlewares/Third_Party/LwIP/src/core/pbuf.c ****     SYS_ARCH_UNPROTECT(old_level);
 921              		.loc 1 749 15 is_stmt 0 discriminator 3 view .LVU281
 922 0060 E589     		ldrh	r5, [r4, #14]
 749:Middlewares/Third_Party/LwIP/src/core/pbuf.c ****     SYS_ARCH_UNPROTECT(old_level);
 923              		.loc 1 749 11 discriminator 3 view .LVU282
 924 0062 013D     		subs	r5, r5, #1
 925 0064 ADB2     		uxth	r5, r5
 749:Middlewares/Third_Party/LwIP/src/core/pbuf.c ****     SYS_ARCH_UNPROTECT(old_level);
 926              		.loc 1 749 9 discriminator 3 view .LVU283
 927 0066 E581     		strh	r5, [r4, #14]	@ movhi
 928              	.LVL96:
 750:Middlewares/Third_Party/LwIP/src/core/pbuf.c ****     /* this pbuf is no longer referenced to? */
 929              		.loc 1 750 5 is_stmt 1 discriminator 3 view .LVU284
 930 0068 3846     		mov	r0, r7
 931 006a FFF7FEFF 		bl	sys_arch_unprotect
 932              	.LVL97:
 752:Middlewares/Third_Party/LwIP/src/core/pbuf.c ****       /* remember next pbuf in chain for next iteration */
 933              		.loc 1 752 5 discriminator 3 view .LVU285
 752:Middlewares/Third_Party/LwIP/src/core/pbuf.c ****       /* remember next pbuf in chain for next iteration */
 934              		.loc 1 752 8 is_stmt 0 discriminator 3 view .LVU286
ARM GAS  C:\Users\Nina\AppData\Local\Temp\ccfUDP6L.s 			page 42


 935 006e 002D     		cmp	r5, #0
 936 0070 D6D1     		bne	.L63
 754:Middlewares/Third_Party/LwIP/src/core/pbuf.c ****       LWIP_DEBUGF( PBUF_DEBUG | LWIP_DBG_TRACE, ("pbuf_free: deallocating %p\n", (void *)p));
 937              		.loc 1 754 7 is_stmt 1 view .LVU287
 754:Middlewares/Third_Party/LwIP/src/core/pbuf.c ****       LWIP_DEBUGF( PBUF_DEBUG | LWIP_DBG_TRACE, ("pbuf_free: deallocating %p\n", (void *)p));
 938              		.loc 1 754 9 is_stmt 0 view .LVU288
 939 0072 2568     		ldr	r5, [r4]
 940              	.LVL98:
 755:Middlewares/Third_Party/LwIP/src/core/pbuf.c ****       type = p->type;
 941              		.loc 1 755 93 is_stmt 1 view .LVU289
 756:Middlewares/Third_Party/LwIP/src/core/pbuf.c **** #if LWIP_SUPPORT_CUSTOM_PBUF
 942              		.loc 1 756 7 view .LVU290
 756:Middlewares/Third_Party/LwIP/src/core/pbuf.c **** #if LWIP_SUPPORT_CUSTOM_PBUF
 943              		.loc 1 756 12 is_stmt 0 view .LVU291
 944 0074 237B     		ldrb	r3, [r4, #12]	@ zero_extendqisi2
 945              	.LVL99:
 759:Middlewares/Third_Party/LwIP/src/core/pbuf.c ****         struct pbuf_custom *pc = (struct pbuf_custom*)p;
 946              		.loc 1 759 7 is_stmt 1 view .LVU292
 759:Middlewares/Third_Party/LwIP/src/core/pbuf.c ****         struct pbuf_custom *pc = (struct pbuf_custom*)p;
 947              		.loc 1 759 13 is_stmt 0 view .LVU293
 948 0076 627B     		ldrb	r2, [r4, #13]	@ zero_extendqisi2
 759:Middlewares/Third_Party/LwIP/src/core/pbuf.c ****         struct pbuf_custom *pc = (struct pbuf_custom*)p;
 949              		.loc 1 759 10 view .LVU294
 950 0078 12F0020F 		tst	r2, #2
 951 007c 0AD0     		beq	.L66
 952              	.LBB5:
 760:Middlewares/Third_Party/LwIP/src/core/pbuf.c ****         LWIP_ASSERT("pc->custom_free_function != NULL", pc->custom_free_function != NULL);
 953              		.loc 1 760 9 is_stmt 1 view .LVU295
 954              	.LVL100:
 761:Middlewares/Third_Party/LwIP/src/core/pbuf.c ****         pc->custom_free_function(p);
 955              		.loc 1 761 9 view .LVU296
 761:Middlewares/Third_Party/LwIP/src/core/pbuf.c ****         pc->custom_free_function(p);
 956              		.loc 1 761 9 view .LVU297
 957 007e 2369     		ldr	r3, [r4, #16]
 958              	.LVL101:
 761:Middlewares/Third_Party/LwIP/src/core/pbuf.c ****         pc->custom_free_function(p);
 959              		.loc 1 761 9 is_stmt 0 view .LVU298
 960 0080 002B     		cmp	r3, #0
 961 0082 DFD1     		bne	.L67
 761:Middlewares/Third_Party/LwIP/src/core/pbuf.c ****         pc->custom_free_function(p);
 962              		.loc 1 761 9 is_stmt 1 discriminator 1 view .LVU299
 761:Middlewares/Third_Party/LwIP/src/core/pbuf.c ****         pc->custom_free_function(p);
 963              		.loc 1 761 9 discriminator 1 view .LVU300
 964 0084 0D4B     		ldr	r3, .L79
 965 0086 40F2F922 		movw	r2, #761
 966 008a 1149     		ldr	r1, .L79+20
 967 008c 0D48     		ldr	r0, .L79+8
 968 008e FFF7FEFF 		bl	printf
 969              	.LVL102:
 761:Middlewares/Third_Party/LwIP/src/core/pbuf.c ****         pc->custom_free_function(p);
 970              		.loc 1 761 9 is_stmt 0 discriminator 1 view .LVU301
 971 0092 D7E7     		b	.L67
 972              	.LVL103:
 973              	.L66:
 761:Middlewares/Third_Party/LwIP/src/core/pbuf.c ****         pc->custom_free_function(p);
 974              		.loc 1 761 9 discriminator 1 view .LVU302
 975              	.LBE5:
ARM GAS  C:\Users\Nina\AppData\Local\Temp\ccfUDP6L.s 			page 43


 767:Middlewares/Third_Party/LwIP/src/core/pbuf.c ****           memp_free(MEMP_PBUF_POOL, p);
 976              		.loc 1 767 9 is_stmt 1 view .LVU303
 767:Middlewares/Third_Party/LwIP/src/core/pbuf.c ****           memp_free(MEMP_PBUF_POOL, p);
 977              		.loc 1 767 12 is_stmt 0 view .LVU304
 978 0094 032B     		cmp	r3, #3
 979 0096 07D0     		beq	.L77
 770:Middlewares/Third_Party/LwIP/src/core/pbuf.c ****           memp_free(MEMP_PBUF, p);
 980              		.loc 1 770 16 is_stmt 1 view .LVU305
 770:Middlewares/Third_Party/LwIP/src/core/pbuf.c ****           memp_free(MEMP_PBUF, p);
 981              		.loc 1 770 37 is_stmt 0 view .LVU306
 982 0098 013B     		subs	r3, r3, #1
 983              	.LVL104:
 770:Middlewares/Third_Party/LwIP/src/core/pbuf.c ****           memp_free(MEMP_PBUF, p);
 984              		.loc 1 770 37 view .LVU307
 985 009a 9BB2     		uxth	r3, r3
 986              	.LVL105:
 770:Middlewares/Third_Party/LwIP/src/core/pbuf.c ****           memp_free(MEMP_PBUF, p);
 987              		.loc 1 770 19 view .LVU308
 988 009c 012B     		cmp	r3, #1
 989 009e 08D9     		bls	.L78
 774:Middlewares/Third_Party/LwIP/src/core/pbuf.c ****         }
 990              		.loc 1 774 11 is_stmt 1 view .LVU309
 991 00a0 2046     		mov	r0, r4
 992 00a2 FFF7FEFF 		bl	mem_free
 993              	.LVL106:
 774:Middlewares/Third_Party/LwIP/src/core/pbuf.c ****         }
 994              		.loc 1 774 11 is_stmt 0 view .LVU310
 995 00a6 D0E7     		b	.L68
 996              	.LVL107:
 997              	.L77:
 768:Middlewares/Third_Party/LwIP/src/core/pbuf.c ****         /* is this a ROM or RAM referencing pbuf? */
 998              		.loc 1 768 11 is_stmt 1 view .LVU311
 999 00a8 2146     		mov	r1, r4
 1000 00aa 0D20     		movs	r0, #13
 1001 00ac FFF7FEFF 		bl	memp_free
 1002              	.LVL108:
 768:Middlewares/Third_Party/LwIP/src/core/pbuf.c ****         /* is this a ROM or RAM referencing pbuf? */
 1003              		.loc 1 768 11 is_stmt 0 view .LVU312
 1004 00b0 CBE7     		b	.L68
 1005              	.LVL109:
 1006              	.L78:
 771:Middlewares/Third_Party/LwIP/src/core/pbuf.c ****         /* type == PBUF_RAM */
 1007              		.loc 1 771 11 is_stmt 1 view .LVU313
 1008 00b2 2146     		mov	r1, r4
 1009 00b4 0C20     		movs	r0, #12
 1010 00b6 FFF7FEFF 		bl	memp_free
 1011              	.LVL110:
 771:Middlewares/Third_Party/LwIP/src/core/pbuf.c ****         /* type == PBUF_RAM */
 1012              		.loc 1 771 11 is_stmt 0 view .LVU314
 1013 00ba C6E7     		b	.L68
 1014              	.L80:
 1015              		.align	2
 1016              	.L79:
 1017 00bc 00000000 		.word	.LC0
 1018 00c0 30000000 		.word	.LC1
 1019 00c4 3C000000 		.word	.LC2
 1020 00c8 00000000 		.word	.LC6
ARM GAS  C:\Users\Nina\AppData\Local\Temp\ccfUDP6L.s 			page 44


 1021 00cc 18000000 		.word	.LC7
 1022 00d0 30000000 		.word	.LC8
 1023              	.LBE6:
 1024              		.cfi_endproc
 1025              	.LFE174:
 1027              		.section	.rodata.pbuf_alloc.str1.4,"aMS",%progbits,1
 1028              		.align	2
 1029              	.LC9:
 1030 0000 70627566 		.ascii	"pbuf_alloc: bad pbuf layer\000"
 1030      5F616C6C 
 1030      6F633A20 
 1030      62616420 
 1030      70627566 
 1031 001b 00       		.align	2
 1032              	.LC10:
 1033 001c 63686563 		.ascii	"check p->payload + p->len does not overflow pbuf\000"
 1033      6B20702D 
 1033      3E706179 
 1033      6C6F6164 
 1033      202B2070 
 1034 004d 000000   		.align	2
 1035              	.LC11:
 1036 0050 50425546 		.ascii	"PBUF_POOL_BUFSIZE must be bigger than MEM_ALIGNMENT"
 1036      5F504F4F 
 1036      4C5F4255 
 1036      4653495A 
 1036      45206D75 
 1037 0083 00       		.ascii	"\000"
 1038              		.align	2
 1039              	.LC12:
 1040 0084 72656D5F 		.ascii	"rem_len < max_u16_t\000"
 1040      6C656E20 
 1040      3C206D61 
 1040      785F7531 
 1040      365F7400 
 1041              		.align	2
 1042              	.LC13:
 1043 0098 70627566 		.ascii	"pbuf_alloc: pbuf q->payload properly aligned\000"
 1043      5F616C6C 
 1043      6F633A20 
 1043      70627566 
 1043      20712D3E 
 1044 00c5 000000   		.align	2
 1045              	.LC14:
 1046 00c8 70627566 		.ascii	"pbuf_alloc: erroneous type\000"
 1046      5F616C6C 
 1046      6F633A20 
 1046      6572726F 
 1046      6E656F75 
 1047              		.section	.text.pbuf_alloc,"ax",%progbits
 1048              		.align	1
 1049              		.global	pbuf_alloc
 1050              		.syntax unified
 1051              		.thumb
 1052              		.thumb_func
 1053              		.fpu fpv5-sp-d16
 1055              	pbuf_alloc:
ARM GAS  C:\Users\Nina\AppData\Local\Temp\ccfUDP6L.s 			page 45


 1056              	.LVL111:
 1057              	.LFB168:
 249:Middlewares/Third_Party/LwIP/src/core/pbuf.c ****   struct pbuf *p, *q, *r;
 1058              		.loc 1 249 1 is_stmt 1 view -0
 1059              		.cfi_startproc
 1060              		@ args = 0, pretend = 0, frame = 0
 1061              		@ frame_needed = 0, uses_anonymous_args = 0
 249:Middlewares/Third_Party/LwIP/src/core/pbuf.c ****   struct pbuf *p, *q, *r;
 1062              		.loc 1 249 1 is_stmt 0 view .LVU316
 1063 0000 2DE9F843 		push	{r3, r4, r5, r6, r7, r8, r9, lr}
 1064              	.LCFI8:
 1065              		.cfi_def_cfa_offset 32
 1066              		.cfi_offset 3, -32
 1067              		.cfi_offset 4, -28
 1068              		.cfi_offset 5, -24
 1069              		.cfi_offset 6, -20
 1070              		.cfi_offset 7, -16
 1071              		.cfi_offset 8, -12
 1072              		.cfi_offset 9, -8
 1073              		.cfi_offset 14, -4
 1074 0004 0D46     		mov	r5, r1
 1075 0006 1746     		mov	r7, r2
 250:Middlewares/Third_Party/LwIP/src/core/pbuf.c ****   u16_t offset;
 1076              		.loc 1 250 3 is_stmt 1 view .LVU317
 251:Middlewares/Third_Party/LwIP/src/core/pbuf.c ****   s32_t rem_len; /* remaining length */
 1077              		.loc 1 251 3 view .LVU318
 252:Middlewares/Third_Party/LwIP/src/core/pbuf.c ****   LWIP_DEBUGF(PBUF_DEBUG | LWIP_DBG_TRACE, ("pbuf_alloc(length=%"U16_F")\n", length));
 1078              		.loc 1 252 3 view .LVU319
 253:Middlewares/Third_Party/LwIP/src/core/pbuf.c **** 
 1079              		.loc 1 253 86 view .LVU320
 256:Middlewares/Third_Party/LwIP/src/core/pbuf.c ****   case PBUF_TRANSPORT:
 1080              		.loc 1 256 3 view .LVU321
 1081 0008 0428     		cmp	r0, #4
 1082 000a 0AD8     		bhi	.L82
 1083 000c DFE800F0 		tbb	[pc, r0]
 1084              	.L84:
 1085 0010 12       		.byte	(.L88-.L84)/2
 1086 0011 3F       		.byte	(.L104-.L84)/2
 1087 0012 03       		.byte	(.L86-.L84)/2
 1088 0013 05       		.byte	(.L85-.L84)/2
 1089 0014 07       		.byte	(.L83-.L84)/2
 1090 0015 00       		.p2align 1
 1091              	.L86:
 267:Middlewares/Third_Party/LwIP/src/core/pbuf.c ****     break;
 1092              		.loc 1 267 5 view .LVU322
 1093              	.LVL112:
 268:Middlewares/Third_Party/LwIP/src/core/pbuf.c ****   case PBUF_RAW_TX:
 1094              		.loc 1 268 5 view .LVU323
 267:Middlewares/Third_Party/LwIP/src/core/pbuf.c ****     break;
 1095              		.loc 1 267 12 is_stmt 0 view .LVU324
 1096 0016 0E24     		movs	r4, #14
 268:Middlewares/Third_Party/LwIP/src/core/pbuf.c ****   case PBUF_RAW_TX:
 1097              		.loc 1 268 5 view .LVU325
 1098 0018 0DE0     		b	.L87
 1099              	.LVL113:
 1100              	.L85:
 271:Middlewares/Third_Party/LwIP/src/core/pbuf.c ****     break;
ARM GAS  C:\Users\Nina\AppData\Local\Temp\ccfUDP6L.s 			page 46


 1101              		.loc 1 271 5 is_stmt 1 view .LVU326
 272:Middlewares/Third_Party/LwIP/src/core/pbuf.c ****   case PBUF_RAW:
 1102              		.loc 1 272 5 view .LVU327
 271:Middlewares/Third_Party/LwIP/src/core/pbuf.c ****     break;
 1103              		.loc 1 271 12 is_stmt 0 view .LVU328
 1104 001a 0024     		movs	r4, #0
 272:Middlewares/Third_Party/LwIP/src/core/pbuf.c ****   case PBUF_RAW:
 1105              		.loc 1 272 5 view .LVU329
 1106 001c 0BE0     		b	.L87
 1107              	.LVL114:
 1108              	.L83:
 275:Middlewares/Third_Party/LwIP/src/core/pbuf.c ****     break;
 1109              		.loc 1 275 5 is_stmt 1 view .LVU330
 276:Middlewares/Third_Party/LwIP/src/core/pbuf.c ****   default:
 1110              		.loc 1 276 5 view .LVU331
 275:Middlewares/Third_Party/LwIP/src/core/pbuf.c ****     break;
 1111              		.loc 1 275 12 is_stmt 0 view .LVU332
 1112 001e 0024     		movs	r4, #0
 276:Middlewares/Third_Party/LwIP/src/core/pbuf.c ****   default:
 1113              		.loc 1 276 5 view .LVU333
 1114 0020 09E0     		b	.L87
 1115              	.LVL115:
 1116              	.L82:
 278:Middlewares/Third_Party/LwIP/src/core/pbuf.c ****     return NULL;
 1117              		.loc 1 278 5 is_stmt 1 discriminator 1 view .LVU334
 278:Middlewares/Third_Party/LwIP/src/core/pbuf.c ****     return NULL;
 1118              		.loc 1 278 5 discriminator 1 view .LVU335
 278:Middlewares/Third_Party/LwIP/src/core/pbuf.c ****     return NULL;
 1119              		.loc 1 278 5 discriminator 1 view .LVU336
 278:Middlewares/Third_Party/LwIP/src/core/pbuf.c ****     return NULL;
 1120              		.loc 1 278 5 discriminator 1 view .LVU337
 1121 0022 684B     		ldr	r3, .L113
 1122 0024 4FF48B72 		mov	r2, #278
 1123              	.LVL116:
 278:Middlewares/Third_Party/LwIP/src/core/pbuf.c ****     return NULL;
 1124              		.loc 1 278 5 is_stmt 0 discriminator 1 view .LVU338
 1125 0028 6749     		ldr	r1, .L113+4
 1126              	.LVL117:
 278:Middlewares/Third_Party/LwIP/src/core/pbuf.c ****     return NULL;
 1127              		.loc 1 278 5 discriminator 1 view .LVU339
 1128 002a 6848     		ldr	r0, .L113+8
 1129              	.LVL118:
 278:Middlewares/Third_Party/LwIP/src/core/pbuf.c ****     return NULL;
 1130              		.loc 1 278 5 discriminator 1 view .LVU340
 1131 002c FFF7FEFF 		bl	printf
 1132              	.LVL119:
 278:Middlewares/Third_Party/LwIP/src/core/pbuf.c ****     return NULL;
 1133              		.loc 1 278 5 is_stmt 1 discriminator 1 view .LVU341
 278:Middlewares/Third_Party/LwIP/src/core/pbuf.c ****     return NULL;
 1134              		.loc 1 278 5 discriminator 1 view .LVU342
 279:Middlewares/Third_Party/LwIP/src/core/pbuf.c ****   }
 1135              		.loc 1 279 5 discriminator 1 view .LVU343
 279:Middlewares/Third_Party/LwIP/src/core/pbuf.c ****   }
 1136              		.loc 1 279 12 is_stmt 0 discriminator 1 view .LVU344
 1137 0030 0026     		movs	r6, #0
 1138 0032 B9E0     		b	.L81
 1139              	.LVL120:
ARM GAS  C:\Users\Nina\AppData\Local\Temp\ccfUDP6L.s 			page 47


 1140              	.L88:
 271:Middlewares/Third_Party/LwIP/src/core/pbuf.c ****     break;
 1141              		.loc 1 271 12 view .LVU345
 1142 0034 3624     		movs	r4, #54
 1143              	.L87:
 1144              	.LVL121:
 282:Middlewares/Third_Party/LwIP/src/core/pbuf.c ****   case PBUF_POOL:
 1145              		.loc 1 282 3 is_stmt 1 view .LVU346
 1146 0036 022F     		cmp	r7, #2
 1147 0038 2BD8     		bhi	.L90
 1148 003a 7BB2     		sxtb	r3, r7
 1149 003c 002B     		cmp	r3, #0
 1150 003e 40F0A480 		bne	.L91
 1151 0042 002F     		cmp	r7, #0
 1152 0044 40F0B380 		bne	.L93
 1153              	.LBB7:
 354:Middlewares/Third_Party/LwIP/src/core/pbuf.c ****       
 1154              		.loc 1 354 7 view .LVU347
 354:Middlewares/Third_Party/LwIP/src/core/pbuf.c ****       
 1155              		.loc 1 354 30 is_stmt 0 view .LVU348
 1156 0048 04F11300 		add	r0, r4, #19
 1157              	.LVL122:
 354:Middlewares/Third_Party/LwIP/src/core/pbuf.c ****       
 1158              		.loc 1 354 30 view .LVU349
 1159 004c 20F00300 		bic	r0, r0, #3
 1160 0050 83B2     		uxth	r3, r0
 354:Middlewares/Third_Party/LwIP/src/core/pbuf.c ****       
 1161              		.loc 1 354 81 view .LVU350
 1162 0052 EA1C     		adds	r2, r5, #3
 1163              	.LVL123:
 354:Middlewares/Third_Party/LwIP/src/core/pbuf.c ****       
 1164              		.loc 1 354 81 view .LVU351
 1165 0054 90B2     		uxth	r0, r2
 1166 0056 20F00300 		bic	r0, r0, #3
 354:Middlewares/Third_Party/LwIP/src/core/pbuf.c ****       
 1167              		.loc 1 354 18 view .LVU352
 1168 005a 1844     		add	r0, r0, r3
 1169 005c 80B2     		uxth	r0, r0
 1170              	.LVL124:
 357:Middlewares/Third_Party/LwIP/src/core/pbuf.c ****         return NULL;
 1171              		.loc 1 357 7 is_stmt 1 view .LVU353
 357:Middlewares/Third_Party/LwIP/src/core/pbuf.c ****         return NULL;
 1172              		.loc 1 357 23 is_stmt 0 view .LVU354
 1173 005e 22F00302 		bic	r2, r2, #3
 357:Middlewares/Third_Party/LwIP/src/core/pbuf.c ****         return NULL;
 1174              		.loc 1 357 10 view .LVU355
 1175 0062 9042     		cmp	r0, r2
 1176 0064 C0F0AC80 		bcc	.L105
 362:Middlewares/Third_Party/LwIP/src/core/pbuf.c ****     }
 1177              		.loc 1 362 7 is_stmt 1 view .LVU356
 362:Middlewares/Third_Party/LwIP/src/core/pbuf.c ****     }
 1178              		.loc 1 362 25 is_stmt 0 view .LVU357
 1179 0068 FFF7FEFF 		bl	mem_malloc
 1180              	.LVL125:
 362:Middlewares/Third_Party/LwIP/src/core/pbuf.c ****     }
 1181              		.loc 1 362 25 view .LVU358
 1182              	.LBE7:
ARM GAS  C:\Users\Nina\AppData\Local\Temp\ccfUDP6L.s 			page 48


 365:Middlewares/Third_Party/LwIP/src/core/pbuf.c ****       return NULL;
 1183              		.loc 1 365 5 is_stmt 1 view .LVU359
 365:Middlewares/Third_Party/LwIP/src/core/pbuf.c ****       return NULL;
 1184              		.loc 1 365 8 is_stmt 0 view .LVU360
 1185 006c 0646     		mov	r6, r0
 1186 006e 0028     		cmp	r0, #0
 1187 0070 00F09A80 		beq	.L81
 369:Middlewares/Third_Party/LwIP/src/core/pbuf.c ****     p->len = p->tot_len = length;
 1188              		.loc 1 369 5 is_stmt 1 view .LVU361
 369:Middlewares/Third_Party/LwIP/src/core/pbuf.c ****     p->len = p->tot_len = length;
 1189              		.loc 1 369 18 is_stmt 0 view .LVU362
 1190 0074 04F11003 		add	r3, r4, #16
 1191 0078 0344     		add	r3, r3, r0
 1192 007a 0333     		adds	r3, r3, #3
 1193 007c 23F00303 		bic	r3, r3, #3
 369:Middlewares/Third_Party/LwIP/src/core/pbuf.c ****     p->len = p->tot_len = length;
 1194              		.loc 1 369 16 view .LVU363
 1195 0080 4360     		str	r3, [r0, #4]
 370:Middlewares/Third_Party/LwIP/src/core/pbuf.c ****     p->next = NULL;
 1196              		.loc 1 370 5 is_stmt 1 view .LVU364
 370:Middlewares/Third_Party/LwIP/src/core/pbuf.c ****     p->next = NULL;
 1197              		.loc 1 370 25 is_stmt 0 view .LVU365
 1198 0082 0581     		strh	r5, [r0, #8]	@ movhi
 370:Middlewares/Third_Party/LwIP/src/core/pbuf.c ****     p->next = NULL;
 1199              		.loc 1 370 12 view .LVU366
 1200 0084 4581     		strh	r5, [r0, #10]	@ movhi
 371:Middlewares/Third_Party/LwIP/src/core/pbuf.c ****     p->type = type;
 1201              		.loc 1 371 5 is_stmt 1 view .LVU367
 371:Middlewares/Third_Party/LwIP/src/core/pbuf.c ****     p->type = type;
 1202              		.loc 1 371 13 is_stmt 0 view .LVU368
 1203 0086 0023     		movs	r3, #0
 1204 0088 0360     		str	r3, [r0]
 372:Middlewares/Third_Party/LwIP/src/core/pbuf.c **** 
 1205              		.loc 1 372 5 is_stmt 1 view .LVU369
 372:Middlewares/Third_Party/LwIP/src/core/pbuf.c **** 
 1206              		.loc 1 372 13 is_stmt 0 view .LVU370
 1207 008a 0773     		strb	r7, [r0, #12]
 374:Middlewares/Third_Party/LwIP/src/core/pbuf.c ****            ((mem_ptr_t)p->payload % MEM_ALIGNMENT) == 0);
 1208              		.loc 1 374 5 is_stmt 1 view .LVU371
 374:Middlewares/Third_Party/LwIP/src/core/pbuf.c ****            ((mem_ptr_t)p->payload % MEM_ALIGNMENT) == 0);
 1209              		.loc 1 374 5 view .LVU372
 1210 008c 88E0     		b	.L103
 1211              	.LVL126:
 1212              	.L104:
 263:Middlewares/Third_Party/LwIP/src/core/pbuf.c ****     break;
 1213              		.loc 1 263 12 is_stmt 0 view .LVU373
 1214 008e 2224     		movs	r4, #34
 1215 0090 D1E7     		b	.L87
 1216              	.LVL127:
 1217              	.L90:
 282:Middlewares/Third_Party/LwIP/src/core/pbuf.c ****   case PBUF_POOL:
 1218              		.loc 1 282 3 view .LVU374
 1219 0092 032F     		cmp	r7, #3
 1220 0094 40F08B80 		bne	.L93
 285:Middlewares/Third_Party/LwIP/src/core/pbuf.c ****     LWIP_DEBUGF(PBUF_DEBUG | LWIP_DBG_TRACE, ("pbuf_alloc: allocated pbuf %p\n", (void *)p));
 1221              		.loc 1 285 5 is_stmt 1 view .LVU375
 285:Middlewares/Third_Party/LwIP/src/core/pbuf.c ****     LWIP_DEBUGF(PBUF_DEBUG | LWIP_DBG_TRACE, ("pbuf_alloc: allocated pbuf %p\n", (void *)p));
ARM GAS  C:\Users\Nina\AppData\Local\Temp\ccfUDP6L.s 			page 49


 1222              		.loc 1 285 24 is_stmt 0 view .LVU376
 1223 0098 0D20     		movs	r0, #13
 1224              	.LVL128:
 285:Middlewares/Third_Party/LwIP/src/core/pbuf.c ****     LWIP_DEBUGF(PBUF_DEBUG | LWIP_DBG_TRACE, ("pbuf_alloc: allocated pbuf %p\n", (void *)p));
 1225              		.loc 1 285 24 view .LVU377
 1226 009a FFF7FEFF 		bl	memp_malloc
 1227              	.LVL129:
 286:Middlewares/Third_Party/LwIP/src/core/pbuf.c ****     if (p == NULL) {
 1228              		.loc 1 286 93 is_stmt 1 view .LVU378
 287:Middlewares/Third_Party/LwIP/src/core/pbuf.c ****       PBUF_POOL_IS_EMPTY();
 1229              		.loc 1 287 5 view .LVU379
 287:Middlewares/Third_Party/LwIP/src/core/pbuf.c ****       PBUF_POOL_IS_EMPTY();
 1230              		.loc 1 287 8 is_stmt 0 view .LVU380
 1231 009e 0646     		mov	r6, r0
 1232 00a0 F8B1     		cbz	r0, .L107
 291:Middlewares/Third_Party/LwIP/src/core/pbuf.c ****     p->next = NULL;
 1233              		.loc 1 291 5 is_stmt 1 view .LVU381
 291:Middlewares/Third_Party/LwIP/src/core/pbuf.c ****     p->next = NULL;
 1234              		.loc 1 291 13 is_stmt 0 view .LVU382
 1235 00a2 0773     		strb	r7, [r0, #12]
 292:Middlewares/Third_Party/LwIP/src/core/pbuf.c **** 
 1236              		.loc 1 292 5 is_stmt 1 view .LVU383
 292:Middlewares/Third_Party/LwIP/src/core/pbuf.c **** 
 1237              		.loc 1 292 13 is_stmt 0 view .LVU384
 1238 00a4 0023     		movs	r3, #0
 1239 00a6 0360     		str	r3, [r0]
 295:Middlewares/Third_Party/LwIP/src/core/pbuf.c ****     LWIP_ASSERT("pbuf_alloc: pbuf p->payload properly aligned",
 1240              		.loc 1 295 5 is_stmt 1 view .LVU385
 295:Middlewares/Third_Party/LwIP/src/core/pbuf.c ****     LWIP_ASSERT("pbuf_alloc: pbuf p->payload properly aligned",
 1241              		.loc 1 295 18 is_stmt 0 view .LVU386
 1242 00a8 04F11003 		add	r3, r4, #16
 1243 00ac 0344     		add	r3, r3, r0
 1244 00ae 0333     		adds	r3, r3, #3
 1245 00b0 23F00303 		bic	r3, r3, #3
 295:Middlewares/Third_Party/LwIP/src/core/pbuf.c ****     LWIP_ASSERT("pbuf_alloc: pbuf p->payload properly aligned",
 1246              		.loc 1 295 16 view .LVU387
 1247 00b4 4360     		str	r3, [r0, #4]
 296:Middlewares/Third_Party/LwIP/src/core/pbuf.c ****             ((mem_ptr_t)p->payload % MEM_ALIGNMENT) == 0);
 1248              		.loc 1 296 5 is_stmt 1 view .LVU388
 296:Middlewares/Third_Party/LwIP/src/core/pbuf.c ****             ((mem_ptr_t)p->payload % MEM_ALIGNMENT) == 0);
 1249              		.loc 1 296 5 view .LVU389
 296:Middlewares/Third_Party/LwIP/src/core/pbuf.c ****             ((mem_ptr_t)p->payload % MEM_ALIGNMENT) == 0);
 1250              		.loc 1 296 5 view .LVU390
 296:Middlewares/Third_Party/LwIP/src/core/pbuf.c ****             ((mem_ptr_t)p->payload % MEM_ALIGNMENT) == 0);
 1251              		.loc 1 296 5 view .LVU391
 299:Middlewares/Third_Party/LwIP/src/core/pbuf.c ****     /* set the length of the first pbuf in the chain */
 1252              		.loc 1 299 5 view .LVU392
 299:Middlewares/Third_Party/LwIP/src/core/pbuf.c ****     /* set the length of the first pbuf in the chain */
 1253              		.loc 1 299 16 is_stmt 0 view .LVU393
 1254 00b6 0581     		strh	r5, [r0, #8]	@ movhi
 301:Middlewares/Third_Party/LwIP/src/core/pbuf.c ****     LWIP_ASSERT("check p->payload + p->len does not overflow pbuf",
 1255              		.loc 1 301 5 is_stmt 1 view .LVU394
 301:Middlewares/Third_Party/LwIP/src/core/pbuf.c ****     LWIP_ASSERT("check p->payload + p->len does not overflow pbuf",
 1256              		.loc 1 301 14 is_stmt 0 view .LVU395
 1257 00b8 E21C     		adds	r2, r4, #3
 1258 00ba 22F00302 		bic	r2, r2, #3
 1259 00be C2F51472 		rsb	r2, r2, #592
ARM GAS  C:\Users\Nina\AppData\Local\Temp\ccfUDP6L.s 			page 50


 1260 00c2 AA42     		cmp	r2, r5
 1261 00c4 28BF     		it	cs
 1262 00c6 2A46     		movcs	r2, r5
 301:Middlewares/Third_Party/LwIP/src/core/pbuf.c ****     LWIP_ASSERT("check p->payload + p->len does not overflow pbuf",
 1263              		.loc 1 301 12 view .LVU396
 1264 00c8 92B2     		uxth	r2, r2
 1265 00ca 4281     		strh	r2, [r0, #10]	@ movhi
 302:Middlewares/Third_Party/LwIP/src/core/pbuf.c ****                 ((u8_t*)p->payload + p->len <=
 1266              		.loc 1 302 5 is_stmt 1 view .LVU397
 302:Middlewares/Third_Party/LwIP/src/core/pbuf.c ****                 ((u8_t*)p->payload + p->len <=
 1267              		.loc 1 302 5 view .LVU398
 1268 00cc 1344     		add	r3, r3, r2
 1269 00ce 00F51878 		add	r8, r0, #608
 1270 00d2 4345     		cmp	r3, r8
 1271 00d4 08D8     		bhi	.L108
 1272              	.LVL130:
 1273              	.L96:
 305:Middlewares/Third_Party/LwIP/src/core/pbuf.c ****       (PBUF_POOL_BUFSIZE_ALIGNED - LWIP_MEM_ALIGN_SIZE(offset)) > 0 );
 1274              		.loc 1 305 5 discriminator 3 view .LVU399
 305:Middlewares/Third_Party/LwIP/src/core/pbuf.c ****       (PBUF_POOL_BUFSIZE_ALIGNED - LWIP_MEM_ALIGN_SIZE(offset)) > 0 );
 1275              		.loc 1 305 5 discriminator 3 view .LVU400
 308:Middlewares/Third_Party/LwIP/src/core/pbuf.c **** 
 1276              		.loc 1 308 5 discriminator 3 view .LVU401
 308:Middlewares/Third_Party/LwIP/src/core/pbuf.c **** 
 1277              		.loc 1 308 12 is_stmt 0 discriminator 3 view .LVU402
 1278 00d6 0123     		movs	r3, #1
 1279 00d8 F381     		strh	r3, [r6, #14]	@ movhi
 313:Middlewares/Third_Party/LwIP/src/core/pbuf.c ****     /* remaining length to be allocated */
 1280              		.loc 1 313 5 is_stmt 1 discriminator 3 view .LVU403
 1281              	.LVL131:
 315:Middlewares/Third_Party/LwIP/src/core/pbuf.c ****     /* any remaining pbufs to be allocated? */
 1282              		.loc 1 315 5 discriminator 3 view .LVU404
 315:Middlewares/Third_Party/LwIP/src/core/pbuf.c ****     /* any remaining pbufs to be allocated? */
 1283              		.loc 1 315 25 is_stmt 0 discriminator 3 view .LVU405
 1284 00da 7189     		ldrh	r1, [r6, #10]
 315:Middlewares/Third_Party/LwIP/src/core/pbuf.c ****     /* any remaining pbufs to be allocated? */
 1285              		.loc 1 315 13 discriminator 3 view .LVU406
 1286 00dc 6D1A     		subs	r5, r5, r1
 1287              	.LVL132:
 317:Middlewares/Third_Party/LwIP/src/core/pbuf.c ****       q = (struct pbuf *)memp_malloc(MEMP_PBUF_POOL);
 1288              		.loc 1 317 5 is_stmt 1 discriminator 3 view .LVU407
 313:Middlewares/Third_Party/LwIP/src/core/pbuf.c ****     /* remaining length to be allocated */
 1289              		.loc 1 313 7 is_stmt 0 discriminator 3 view .LVU408
 1290 00de B146     		mov	r9, r6
 317:Middlewares/Third_Party/LwIP/src/core/pbuf.c ****       q = (struct pbuf *)memp_malloc(MEMP_PBUF_POOL);
 1291              		.loc 1 317 11 discriminator 3 view .LVU409
 1292 00e0 2DE0     		b	.L97
 1293              	.LVL133:
 1294              	.L107:
 288:Middlewares/Third_Party/LwIP/src/core/pbuf.c ****       return NULL;
 1295              		.loc 1 288 7 is_stmt 1 view .LVU410
 1296 00e2 FFF7FEFF 		bl	pbuf_pool_is_empty
 1297              	.LVL134:
 289:Middlewares/Third_Party/LwIP/src/core/pbuf.c ****     }
 1298              		.loc 1 289 7 view .LVU411
 289:Middlewares/Third_Party/LwIP/src/core/pbuf.c ****     }
 1299              		.loc 1 289 14 is_stmt 0 view .LVU412
ARM GAS  C:\Users\Nina\AppData\Local\Temp\ccfUDP6L.s 			page 51


 1300 00e6 5FE0     		b	.L81
 1301              	.LVL135:
 1302              	.L108:
 302:Middlewares/Third_Party/LwIP/src/core/pbuf.c ****                 ((u8_t*)p->payload + p->len <=
 1303              		.loc 1 302 5 is_stmt 1 discriminator 1 view .LVU413
 302:Middlewares/Third_Party/LwIP/src/core/pbuf.c ****                 ((u8_t*)p->payload + p->len <=
 1304              		.loc 1 302 5 discriminator 1 view .LVU414
 1305 00e8 364B     		ldr	r3, .L113
 1306 00ea 4FF49772 		mov	r2, #302
 1307 00ee 3849     		ldr	r1, .L113+12
 1308 00f0 3648     		ldr	r0, .L113+8
 1309              	.LVL136:
 302:Middlewares/Third_Party/LwIP/src/core/pbuf.c ****                 ((u8_t*)p->payload + p->len <=
 1310              		.loc 1 302 5 is_stmt 0 discriminator 1 view .LVU415
 1311 00f2 FFF7FEFF 		bl	printf
 1312              	.LVL137:
 302:Middlewares/Third_Party/LwIP/src/core/pbuf.c ****                 ((u8_t*)p->payload + p->len <=
 1313              		.loc 1 302 5 is_stmt 1 discriminator 1 view .LVU416
 302:Middlewares/Third_Party/LwIP/src/core/pbuf.c ****                 ((u8_t*)p->payload + p->len <=
 1314              		.loc 1 302 5 discriminator 1 view .LVU417
 305:Middlewares/Third_Party/LwIP/src/core/pbuf.c ****       (PBUF_POOL_BUFSIZE_ALIGNED - LWIP_MEM_ALIGN_SIZE(offset)) > 0 );
 1315              		.loc 1 305 5 discriminator 1 view .LVU418
 305:Middlewares/Third_Party/LwIP/src/core/pbuf.c ****       (PBUF_POOL_BUFSIZE_ALIGNED - LWIP_MEM_ALIGN_SIZE(offset)) > 0 );
 1316              		.loc 1 305 5 discriminator 1 view .LVU419
 1317 00f6 EEE7     		b	.L96
 1318              	.LVL138:
 1319              	.L109:
 320:Middlewares/Third_Party/LwIP/src/core/pbuf.c ****         /* free chain so far allocated */
 1320              		.loc 1 320 9 view .LVU420
 1321 00f8 FFF7FEFF 		bl	pbuf_pool_is_empty
 1322              	.LVL139:
 322:Middlewares/Third_Party/LwIP/src/core/pbuf.c ****         /* bail out unsuccessfully */
 1323              		.loc 1 322 9 view .LVU421
 1324 00fc 3046     		mov	r0, r6
 1325 00fe FFF7FEFF 		bl	pbuf_free
 1326              	.LVL140:
 324:Middlewares/Third_Party/LwIP/src/core/pbuf.c ****       }
 1327              		.loc 1 324 9 view .LVU422
 324:Middlewares/Third_Party/LwIP/src/core/pbuf.c ****       }
 1328              		.loc 1 324 16 is_stmt 0 view .LVU423
 1329 0102 2646     		mov	r6, r4
 1330              	.LVL141:
 324:Middlewares/Third_Party/LwIP/src/core/pbuf.c ****       }
 1331              		.loc 1 324 16 view .LVU424
 1332 0104 50E0     		b	.L81
 1333              	.LVL142:
 1334              	.L110:
 332:Middlewares/Third_Party/LwIP/src/core/pbuf.c ****       q->tot_len = (u16_t)rem_len;
 1335              		.loc 1 332 7 is_stmt 1 discriminator 1 view .LVU425
 332:Middlewares/Third_Party/LwIP/src/core/pbuf.c ****       q->tot_len = (u16_t)rem_len;
 1336              		.loc 1 332 7 discriminator 1 view .LVU426
 1337 0106 2F4B     		ldr	r3, .L113
 1338 0108 4FF4A672 		mov	r2, #332
 1339 010c 3149     		ldr	r1, .L113+16
 1340 010e 2F48     		ldr	r0, .L113+8
 1341              	.LVL143:
 332:Middlewares/Third_Party/LwIP/src/core/pbuf.c ****       q->tot_len = (u16_t)rem_len;
ARM GAS  C:\Users\Nina\AppData\Local\Temp\ccfUDP6L.s 			page 52


 1342              		.loc 1 332 7 is_stmt 0 discriminator 1 view .LVU427
 1343 0110 FFF7FEFF 		bl	printf
 1344              	.LVL144:
 1345 0114 25E0     		b	.L99
 1346              	.L111:
 337:Middlewares/Third_Party/LwIP/src/core/pbuf.c ****               ((mem_ptr_t)q->payload % MEM_ALIGNMENT) == 0);
 1347              		.loc 1 337 7 is_stmt 1 discriminator 1 view .LVU428
 337:Middlewares/Third_Party/LwIP/src/core/pbuf.c ****               ((mem_ptr_t)q->payload % MEM_ALIGNMENT) == 0);
 1348              		.loc 1 337 7 discriminator 1 view .LVU429
 1349 0116 2B4B     		ldr	r3, .L113
 1350 0118 40F25112 		movw	r2, #337
 1351 011c 2E49     		ldr	r1, .L113+20
 1352 011e 2B48     		ldr	r0, .L113+8
 1353 0120 FFF7FEFF 		bl	printf
 1354              	.LVL145:
 1355 0124 2BE0     		b	.L100
 1356              	.L112:
 339:Middlewares/Third_Party/LwIP/src/core/pbuf.c ****                   ((u8_t*)p->payload + p->len <=
 1357              		.loc 1 339 7 discriminator 1 view .LVU430
 339:Middlewares/Third_Party/LwIP/src/core/pbuf.c ****                   ((u8_t*)p->payload + p->len <=
 1358              		.loc 1 339 7 discriminator 1 view .LVU431
 1359 0126 274B     		ldr	r3, .L113
 1360 0128 40F25312 		movw	r2, #339
 1361 012c 2849     		ldr	r1, .L113+12
 1362 012e 2748     		ldr	r0, .L113+8
 1363 0130 FFF7FEFF 		bl	printf
 1364              	.LVL146:
 1365              	.L101:
 339:Middlewares/Third_Party/LwIP/src/core/pbuf.c ****                   ((u8_t*)p->payload + p->len <=
 1366              		.loc 1 339 7 discriminator 3 view .LVU432
 339:Middlewares/Third_Party/LwIP/src/core/pbuf.c ****                   ((u8_t*)p->payload + p->len <=
 1367              		.loc 1 339 7 discriminator 3 view .LVU433
 342:Middlewares/Third_Party/LwIP/src/core/pbuf.c ****       /* calculate remaining length to be allocated */
 1368              		.loc 1 342 7 discriminator 3 view .LVU434
 342:Middlewares/Third_Party/LwIP/src/core/pbuf.c ****       /* calculate remaining length to be allocated */
 1369              		.loc 1 342 14 is_stmt 0 discriminator 3 view .LVU435
 1370 0134 0123     		movs	r3, #1
 1371 0136 E381     		strh	r3, [r4, #14]	@ movhi
 344:Middlewares/Third_Party/LwIP/src/core/pbuf.c ****       /* remember this pbuf for linkage in next iteration */
 1372              		.loc 1 344 7 is_stmt 1 discriminator 3 view .LVU436
 344:Middlewares/Third_Party/LwIP/src/core/pbuf.c ****       /* remember this pbuf for linkage in next iteration */
 1373              		.loc 1 344 19 is_stmt 0 discriminator 3 view .LVU437
 1374 0138 6389     		ldrh	r3, [r4, #10]
 344:Middlewares/Third_Party/LwIP/src/core/pbuf.c ****       /* remember this pbuf for linkage in next iteration */
 1375              		.loc 1 344 15 discriminator 3 view .LVU438
 1376 013a ED1A     		subs	r5, r5, r3
 1377              	.LVL147:
 346:Middlewares/Third_Party/LwIP/src/core/pbuf.c ****     }
 1378              		.loc 1 346 7 is_stmt 1 discriminator 3 view .LVU439
 346:Middlewares/Third_Party/LwIP/src/core/pbuf.c ****     }
 1379              		.loc 1 346 9 is_stmt 0 discriminator 3 view .LVU440
 1380 013c A146     		mov	r9, r4
 1381              	.LVL148:
 1382              	.L97:
 317:Middlewares/Third_Party/LwIP/src/core/pbuf.c ****       q = (struct pbuf *)memp_malloc(MEMP_PBUF_POOL);
 1383              		.loc 1 317 11 is_stmt 1 view .LVU441
 1384 013e 002D     		cmp	r5, #0
ARM GAS  C:\Users\Nina\AppData\Local\Temp\ccfUDP6L.s 			page 53


 1385 0140 2EDD     		ble	.L103
 318:Middlewares/Third_Party/LwIP/src/core/pbuf.c ****       if (q == NULL) {
 1386              		.loc 1 318 7 view .LVU442
 318:Middlewares/Third_Party/LwIP/src/core/pbuf.c ****       if (q == NULL) {
 1387              		.loc 1 318 26 is_stmt 0 view .LVU443
 1388 0142 0D20     		movs	r0, #13
 1389 0144 FFF7FEFF 		bl	memp_malloc
 1390              	.LVL149:
 319:Middlewares/Third_Party/LwIP/src/core/pbuf.c ****         PBUF_POOL_IS_EMPTY();
 1391              		.loc 1 319 7 is_stmt 1 view .LVU444
 319:Middlewares/Third_Party/LwIP/src/core/pbuf.c ****         PBUF_POOL_IS_EMPTY();
 1392              		.loc 1 319 10 is_stmt 0 view .LVU445
 1393 0148 0446     		mov	r4, r0
 1394 014a 0028     		cmp	r0, #0
 1395 014c D4D0     		beq	.L109
 326:Middlewares/Third_Party/LwIP/src/core/pbuf.c ****       q->flags = 0;
 1396              		.loc 1 326 7 is_stmt 1 view .LVU446
 326:Middlewares/Third_Party/LwIP/src/core/pbuf.c ****       q->flags = 0;
 1397              		.loc 1 326 15 is_stmt 0 view .LVU447
 1398 014e 0773     		strb	r7, [r0, #12]
 327:Middlewares/Third_Party/LwIP/src/core/pbuf.c ****       q->next = NULL;
 1399              		.loc 1 327 7 is_stmt 1 view .LVU448
 327:Middlewares/Third_Party/LwIP/src/core/pbuf.c ****       q->next = NULL;
 1400              		.loc 1 327 16 is_stmt 0 view .LVU449
 1401 0150 0023     		movs	r3, #0
 1402 0152 4373     		strb	r3, [r0, #13]
 328:Middlewares/Third_Party/LwIP/src/core/pbuf.c ****       /* make previous pbuf point to this pbuf */
 1403              		.loc 1 328 7 is_stmt 1 view .LVU450
 328:Middlewares/Third_Party/LwIP/src/core/pbuf.c ****       /* make previous pbuf point to this pbuf */
 1404              		.loc 1 328 15 is_stmt 0 view .LVU451
 1405 0154 0360     		str	r3, [r0]
 330:Middlewares/Third_Party/LwIP/src/core/pbuf.c ****       /* set total length of this pbuf and next in chain */
 1406              		.loc 1 330 7 is_stmt 1 view .LVU452
 330:Middlewares/Third_Party/LwIP/src/core/pbuf.c ****       /* set total length of this pbuf and next in chain */
 1407              		.loc 1 330 15 is_stmt 0 view .LVU453
 1408 0156 C9F80000 		str	r0, [r9]
 332:Middlewares/Third_Party/LwIP/src/core/pbuf.c ****       q->tot_len = (u16_t)rem_len;
 1409              		.loc 1 332 7 is_stmt 1 view .LVU454
 332:Middlewares/Third_Party/LwIP/src/core/pbuf.c ****       q->tot_len = (u16_t)rem_len;
 1410              		.loc 1 332 7 view .LVU455
 1411 015a 4FF6FE73 		movw	r3, #65534
 1412 015e 9D42     		cmp	r5, r3
 1413 0160 D1DC     		bgt	.L110
 1414              	.LVL150:
 1415              	.L99:
 332:Middlewares/Third_Party/LwIP/src/core/pbuf.c ****       q->tot_len = (u16_t)rem_len;
 1416              		.loc 1 332 7 discriminator 3 view .LVU456
 332:Middlewares/Third_Party/LwIP/src/core/pbuf.c ****       q->tot_len = (u16_t)rem_len;
 1417              		.loc 1 332 7 discriminator 3 view .LVU457
 333:Middlewares/Third_Party/LwIP/src/core/pbuf.c ****       /* this pbuf length is pool size, unless smaller sized tail */
 1418              		.loc 1 333 7 discriminator 3 view .LVU458
 333:Middlewares/Third_Party/LwIP/src/core/pbuf.c ****       /* this pbuf length is pool size, unless smaller sized tail */
 1419              		.loc 1 333 20 is_stmt 0 discriminator 3 view .LVU459
 1420 0162 ABB2     		uxth	r3, r5
 333:Middlewares/Third_Party/LwIP/src/core/pbuf.c ****       /* this pbuf length is pool size, unless smaller sized tail */
 1421              		.loc 1 333 18 discriminator 3 view .LVU460
 1422 0164 2381     		strh	r3, [r4, #8]	@ movhi
ARM GAS  C:\Users\Nina\AppData\Local\Temp\ccfUDP6L.s 			page 54


 335:Middlewares/Third_Party/LwIP/src/core/pbuf.c ****       q->payload = (void *)((u8_t *)q + SIZEOF_STRUCT_PBUF);
 1423              		.loc 1 335 7 is_stmt 1 discriminator 3 view .LVU461
 335:Middlewares/Third_Party/LwIP/src/core/pbuf.c ****       q->payload = (void *)((u8_t *)q + SIZEOF_STRUCT_PBUF);
 1424              		.loc 1 335 16 is_stmt 0 discriminator 3 view .LVU462
 1425 0166 B3F5147F 		cmp	r3, #592
 1426 016a 28BF     		it	cs
 1427 016c 4FF41473 		movcs	r3, #592
 335:Middlewares/Third_Party/LwIP/src/core/pbuf.c ****       q->payload = (void *)((u8_t *)q + SIZEOF_STRUCT_PBUF);
 1428              		.loc 1 335 14 discriminator 3 view .LVU463
 1429 0170 6381     		strh	r3, [r4, #10]	@ movhi
 336:Middlewares/Third_Party/LwIP/src/core/pbuf.c ****       LWIP_ASSERT("pbuf_alloc: pbuf q->payload properly aligned",
 1430              		.loc 1 336 7 is_stmt 1 discriminator 3 view .LVU464
 336:Middlewares/Third_Party/LwIP/src/core/pbuf.c ****       LWIP_ASSERT("pbuf_alloc: pbuf q->payload properly aligned",
 1431              		.loc 1 336 20 is_stmt 0 discriminator 3 view .LVU465
 1432 0172 04F11003 		add	r3, r4, #16
 336:Middlewares/Third_Party/LwIP/src/core/pbuf.c ****       LWIP_ASSERT("pbuf_alloc: pbuf q->payload properly aligned",
 1433              		.loc 1 336 18 discriminator 3 view .LVU466
 1434 0176 6360     		str	r3, [r4, #4]
 337:Middlewares/Third_Party/LwIP/src/core/pbuf.c ****               ((mem_ptr_t)q->payload % MEM_ALIGNMENT) == 0);
 1435              		.loc 1 337 7 is_stmt 1 discriminator 3 view .LVU467
 337:Middlewares/Third_Party/LwIP/src/core/pbuf.c ****               ((mem_ptr_t)q->payload % MEM_ALIGNMENT) == 0);
 1436              		.loc 1 337 7 discriminator 3 view .LVU468
 1437 0178 13F0030F 		tst	r3, #3
 1438 017c CBD1     		bne	.L111
 1439              	.L100:
 337:Middlewares/Third_Party/LwIP/src/core/pbuf.c ****               ((mem_ptr_t)q->payload % MEM_ALIGNMENT) == 0);
 1440              		.loc 1 337 7 discriminator 3 view .LVU469
 337:Middlewares/Third_Party/LwIP/src/core/pbuf.c ****               ((mem_ptr_t)q->payload % MEM_ALIGNMENT) == 0);
 1441              		.loc 1 337 7 discriminator 3 view .LVU470
 339:Middlewares/Third_Party/LwIP/src/core/pbuf.c ****                   ((u8_t*)p->payload + p->len <=
 1442              		.loc 1 339 7 discriminator 3 view .LVU471
 339:Middlewares/Third_Party/LwIP/src/core/pbuf.c ****                   ((u8_t*)p->payload + p->len <=
 1443              		.loc 1 339 7 discriminator 3 view .LVU472
 1444 017e 7368     		ldr	r3, [r6, #4]
 1445 0180 7289     		ldrh	r2, [r6, #10]
 1446 0182 1344     		add	r3, r3, r2
 1447 0184 9845     		cmp	r8, r3
 1448 0186 D5D2     		bcs	.L101
 1449 0188 CDE7     		b	.L112
 1450              	.LVL151:
 1451              	.L91:
 382:Middlewares/Third_Party/LwIP/src/core/pbuf.c ****     if (p == NULL) {
 1452              		.loc 1 382 5 view .LVU473
 382:Middlewares/Third_Party/LwIP/src/core/pbuf.c ****     if (p == NULL) {
 1453              		.loc 1 382 24 is_stmt 0 view .LVU474
 1454 018a 0C20     		movs	r0, #12
 1455              	.LVL152:
 382:Middlewares/Third_Party/LwIP/src/core/pbuf.c ****     if (p == NULL) {
 1456              		.loc 1 382 24 view .LVU475
 1457 018c FFF7FEFF 		bl	memp_malloc
 1458              	.LVL153:
 383:Middlewares/Third_Party/LwIP/src/core/pbuf.c ****       LWIP_DEBUGF(PBUF_DEBUG | LWIP_DBG_LEVEL_SERIOUS,
 1459              		.loc 1 383 5 is_stmt 1 view .LVU476
 383:Middlewares/Third_Party/LwIP/src/core/pbuf.c ****       LWIP_DEBUGF(PBUF_DEBUG | LWIP_DBG_LEVEL_SERIOUS,
 1460              		.loc 1 383 8 is_stmt 0 view .LVU477
 1461 0190 0646     		mov	r6, r0
 1462 0192 48B1     		cbz	r0, .L81
ARM GAS  C:\Users\Nina\AppData\Local\Temp\ccfUDP6L.s 			page 55


 390:Middlewares/Third_Party/LwIP/src/core/pbuf.c ****     p->len = p->tot_len = length;
 1463              		.loc 1 390 5 is_stmt 1 view .LVU478
 390:Middlewares/Third_Party/LwIP/src/core/pbuf.c ****     p->len = p->tot_len = length;
 1464              		.loc 1 390 16 is_stmt 0 view .LVU479
 1465 0194 0023     		movs	r3, #0
 1466 0196 4360     		str	r3, [r0, #4]
 391:Middlewares/Third_Party/LwIP/src/core/pbuf.c ****     p->next = NULL;
 1467              		.loc 1 391 5 is_stmt 1 view .LVU480
 391:Middlewares/Third_Party/LwIP/src/core/pbuf.c ****     p->next = NULL;
 1468              		.loc 1 391 25 is_stmt 0 view .LVU481
 1469 0198 0581     		strh	r5, [r0, #8]	@ movhi
 391:Middlewares/Third_Party/LwIP/src/core/pbuf.c ****     p->next = NULL;
 1470              		.loc 1 391 12 view .LVU482
 1471 019a 4581     		strh	r5, [r0, #10]	@ movhi
 392:Middlewares/Third_Party/LwIP/src/core/pbuf.c ****     p->type = type;
 1472              		.loc 1 392 5 is_stmt 1 view .LVU483
 392:Middlewares/Third_Party/LwIP/src/core/pbuf.c ****     p->type = type;
 1473              		.loc 1 392 13 is_stmt 0 view .LVU484
 1474 019c 0360     		str	r3, [r0]
 393:Middlewares/Third_Party/LwIP/src/core/pbuf.c ****     break;
 1475              		.loc 1 393 5 is_stmt 1 view .LVU485
 393:Middlewares/Third_Party/LwIP/src/core/pbuf.c ****     break;
 1476              		.loc 1 393 13 is_stmt 0 view .LVU486
 1477 019e 0773     		strb	r7, [r0, #12]
 394:Middlewares/Third_Party/LwIP/src/core/pbuf.c ****   default:
 1478              		.loc 1 394 5 is_stmt 1 view .LVU487
 1479              	.LVL154:
 1480              	.L103:
 400:Middlewares/Third_Party/LwIP/src/core/pbuf.c ****   /* set flags */
 1481              		.loc 1 400 3 view .LVU488
 400:Middlewares/Third_Party/LwIP/src/core/pbuf.c ****   /* set flags */
 1482              		.loc 1 400 10 is_stmt 0 view .LVU489
 1483 01a0 0123     		movs	r3, #1
 1484 01a2 F381     		strh	r3, [r6, #14]	@ movhi
 402:Middlewares/Third_Party/LwIP/src/core/pbuf.c ****   LWIP_DEBUGF(PBUF_DEBUG | LWIP_DBG_TRACE, ("pbuf_alloc(length=%"U16_F") == %p\n", length, (void *)
 1485              		.loc 1 402 3 is_stmt 1 view .LVU490
 402:Middlewares/Third_Party/LwIP/src/core/pbuf.c ****   LWIP_DEBUGF(PBUF_DEBUG | LWIP_DBG_TRACE, ("pbuf_alloc(length=%"U16_F") == %p\n", length, (void *)
 1486              		.loc 1 402 12 is_stmt 0 view .LVU491
 1487 01a4 0023     		movs	r3, #0
 1488 01a6 7373     		strb	r3, [r6, #13]
 403:Middlewares/Third_Party/LwIP/src/core/pbuf.c ****   return p;
 1489              		.loc 1 403 103 is_stmt 1 view .LVU492
 404:Middlewares/Third_Party/LwIP/src/core/pbuf.c **** }
 1490              		.loc 1 404 3 view .LVU493
 1491              	.LVL155:
 1492              	.L81:
 405:Middlewares/Third_Party/LwIP/src/core/pbuf.c **** 
 1493              		.loc 1 405 1 is_stmt 0 view .LVU494
 1494 01a8 3046     		mov	r0, r6
 1495 01aa BDE8F883 		pop	{r3, r4, r5, r6, r7, r8, r9, pc}
 1496              	.LVL156:
 1497              	.L93:
 396:Middlewares/Third_Party/LwIP/src/core/pbuf.c ****     return NULL;
 1498              		.loc 1 396 5 is_stmt 1 discriminator 1 view .LVU495
 396:Middlewares/Third_Party/LwIP/src/core/pbuf.c ****     return NULL;
 1499              		.loc 1 396 5 discriminator 1 view .LVU496
 396:Middlewares/Third_Party/LwIP/src/core/pbuf.c ****     return NULL;
ARM GAS  C:\Users\Nina\AppData\Local\Temp\ccfUDP6L.s 			page 56


 1500              		.loc 1 396 5 discriminator 1 view .LVU497
 396:Middlewares/Third_Party/LwIP/src/core/pbuf.c ****     return NULL;
 1501              		.loc 1 396 5 discriminator 1 view .LVU498
 1502 01ae 054B     		ldr	r3, .L113
 1503 01b0 4FF4C672 		mov	r2, #396
 1504              	.LVL157:
 396:Middlewares/Third_Party/LwIP/src/core/pbuf.c ****     return NULL;
 1505              		.loc 1 396 5 is_stmt 0 discriminator 1 view .LVU499
 1506 01b4 0949     		ldr	r1, .L113+24
 1507              	.LVL158:
 396:Middlewares/Third_Party/LwIP/src/core/pbuf.c ****     return NULL;
 1508              		.loc 1 396 5 discriminator 1 view .LVU500
 1509 01b6 0548     		ldr	r0, .L113+8
 1510              	.LVL159:
 396:Middlewares/Third_Party/LwIP/src/core/pbuf.c ****     return NULL;
 1511              		.loc 1 396 5 discriminator 1 view .LVU501
 1512 01b8 FFF7FEFF 		bl	printf
 1513              	.LVL160:
 396:Middlewares/Third_Party/LwIP/src/core/pbuf.c ****     return NULL;
 1514              		.loc 1 396 5 is_stmt 1 discriminator 1 view .LVU502
 396:Middlewares/Third_Party/LwIP/src/core/pbuf.c ****     return NULL;
 1515              		.loc 1 396 5 discriminator 1 view .LVU503
 397:Middlewares/Third_Party/LwIP/src/core/pbuf.c ****   }
 1516              		.loc 1 397 5 discriminator 1 view .LVU504
 397:Middlewares/Third_Party/LwIP/src/core/pbuf.c ****   }
 1517              		.loc 1 397 12 is_stmt 0 discriminator 1 view .LVU505
 1518 01bc 0026     		movs	r6, #0
 1519 01be F3E7     		b	.L81
 1520              	.LVL161:
 1521              	.L105:
 1522              	.LBB8:
 358:Middlewares/Third_Party/LwIP/src/core/pbuf.c ****       }
 1523              		.loc 1 358 16 view .LVU506
 1524 01c0 0026     		movs	r6, #0
 1525 01c2 F1E7     		b	.L81
 1526              	.L114:
 1527              		.align	2
 1528              	.L113:
 1529 01c4 00000000 		.word	.LC0
 1530 01c8 00000000 		.word	.LC9
 1531 01cc 3C000000 		.word	.LC2
 1532 01d0 1C000000 		.word	.LC10
 1533 01d4 84000000 		.word	.LC12
 1534 01d8 98000000 		.word	.LC13
 1535 01dc C8000000 		.word	.LC14
 1536              	.LBE8:
 1537              		.cfi_endproc
 1538              	.LFE168:
 1540              		.section	.rodata.pbuf_realloc.str1.4,"aMS",%progbits,1
 1541              		.align	2
 1542              	.LC15:
 1543 0000 70627566 		.ascii	"pbuf_realloc: p != NULL\000"
 1543      5F726561 
 1543      6C6C6F63 
 1543      3A207020 
 1543      213D204E 
 1544              		.align	2
ARM GAS  C:\Users\Nina\AppData\Local\Temp\ccfUDP6L.s 			page 57


 1545              	.LC16:
 1546 0018 70627566 		.ascii	"pbuf_realloc: sane p->type\000"
 1546      5F726561 
 1546      6C6C6F63 
 1546      3A207361 
 1546      6E652070 
 1547 0033 00       		.align	2
 1548              	.LC17:
 1549 0034 67726F77 		.ascii	"grow < max_u16_t\000"
 1549      203C206D 
 1549      61785F75 
 1549      31365F74 
 1549      00
 1550 0045 000000   		.align	2
 1551              	.LC18:
 1552 0048 70627566 		.ascii	"pbuf_realloc: q != NULL\000"
 1552      5F726561 
 1552      6C6C6F63 
 1552      3A207120 
 1552      213D204E 
 1553              		.align	2
 1554              	.LC19:
 1555 0060 6D656D5F 		.ascii	"mem_trim returned q == NULL\000"
 1555      7472696D 
 1555      20726574 
 1555      75726E65 
 1555      64207120 
 1556              		.section	.text.pbuf_realloc,"ax",%progbits
 1557              		.align	1
 1558              		.global	pbuf_realloc
 1559              		.syntax unified
 1560              		.thumb
 1561              		.thumb_func
 1562              		.fpu fpv5-sp-d16
 1564              	pbuf_realloc:
 1565              	.LVL162:
 1566              	.LFB170:
 494:Middlewares/Third_Party/LwIP/src/core/pbuf.c ****   struct pbuf *q;
 1567              		.loc 1 494 1 is_stmt 1 view -0
 1568              		.cfi_startproc
 1569              		@ args = 0, pretend = 0, frame = 0
 1570              		@ frame_needed = 0, uses_anonymous_args = 0
 494:Middlewares/Third_Party/LwIP/src/core/pbuf.c ****   struct pbuf *q;
 1571              		.loc 1 494 1 is_stmt 0 view .LVU508
 1572 0000 2DE9F041 		push	{r4, r5, r6, r7, r8, lr}
 1573              	.LCFI9:
 1574              		.cfi_def_cfa_offset 24
 1575              		.cfi_offset 4, -24
 1576              		.cfi_offset 5, -20
 1577              		.cfi_offset 6, -16
 1578              		.cfi_offset 7, -12
 1579              		.cfi_offset 8, -8
 1580              		.cfi_offset 14, -4
 1581 0004 0E46     		mov	r6, r1
 495:Middlewares/Third_Party/LwIP/src/core/pbuf.c ****   u16_t rem_len; /* remaining length */
 1582              		.loc 1 495 3 is_stmt 1 view .LVU509
 496:Middlewares/Third_Party/LwIP/src/core/pbuf.c ****   s32_t grow;
ARM GAS  C:\Users\Nina\AppData\Local\Temp\ccfUDP6L.s 			page 58


 1583              		.loc 1 496 3 view .LVU510
 497:Middlewares/Third_Party/LwIP/src/core/pbuf.c **** 
 1584              		.loc 1 497 3 view .LVU511
 499:Middlewares/Third_Party/LwIP/src/core/pbuf.c ****   LWIP_ASSERT("pbuf_realloc: sane p->type", p->type == PBUF_POOL ||
 1585              		.loc 1 499 3 view .LVU512
 499:Middlewares/Third_Party/LwIP/src/core/pbuf.c ****   LWIP_ASSERT("pbuf_realloc: sane p->type", p->type == PBUF_POOL ||
 1586              		.loc 1 499 3 view .LVU513
 1587 0006 0446     		mov	r4, r0
 1588 0008 70B1     		cbz	r0, .L126
 1589              	.LVL163:
 1590              	.L116:
 499:Middlewares/Third_Party/LwIP/src/core/pbuf.c ****   LWIP_ASSERT("pbuf_realloc: sane p->type", p->type == PBUF_POOL ||
 1591              		.loc 1 499 3 discriminator 3 view .LVU514
 499:Middlewares/Third_Party/LwIP/src/core/pbuf.c ****   LWIP_ASSERT("pbuf_realloc: sane p->type", p->type == PBUF_POOL ||
 1592              		.loc 1 499 3 discriminator 3 view .LVU515
 500:Middlewares/Third_Party/LwIP/src/core/pbuf.c ****               p->type == PBUF_ROM ||
 1593              		.loc 1 500 3 discriminator 3 view .LVU516
 500:Middlewares/Third_Party/LwIP/src/core/pbuf.c ****               p->type == PBUF_ROM ||
 1594              		.loc 1 500 3 discriminator 3 view .LVU517
 1595 000a 237B     		ldrb	r3, [r4, #12]	@ zero_extendqisi2
 1596 000c 032B     		cmp	r3, #3
 1597 000e 18BF     		it	ne
 1598 0010 012B     		cmpne	r3, #1
 1599 0012 02D0     		beq	.L117
 500:Middlewares/Third_Party/LwIP/src/core/pbuf.c ****               p->type == PBUF_ROM ||
 1600              		.loc 1 500 3 is_stmt 0 discriminator 1 view .LVU518
 1601 0014 0BB1     		cbz	r3, .L117
 500:Middlewares/Third_Party/LwIP/src/core/pbuf.c ****               p->type == PBUF_ROM ||
 1602              		.loc 1 500 3 discriminator 3 view .LVU519
 1603 0016 022B     		cmp	r3, #2
 1604 0018 0ED1     		bne	.L127
 1605              	.L117:
 500:Middlewares/Third_Party/LwIP/src/core/pbuf.c ****               p->type == PBUF_ROM ||
 1606              		.loc 1 500 3 is_stmt 1 discriminator 7 view .LVU520
 500:Middlewares/Third_Party/LwIP/src/core/pbuf.c ****               p->type == PBUF_ROM ||
 1607              		.loc 1 500 3 discriminator 7 view .LVU521
 506:Middlewares/Third_Party/LwIP/src/core/pbuf.c ****     /* enlarging not yet supported */
 1608              		.loc 1 506 3 discriminator 7 view .LVU522
 506:Middlewares/Third_Party/LwIP/src/core/pbuf.c ****     /* enlarging not yet supported */
 1609              		.loc 1 506 19 is_stmt 0 discriminator 7 view .LVU523
 1610 001a 2789     		ldrh	r7, [r4, #8]
 506:Middlewares/Third_Party/LwIP/src/core/pbuf.c ****     /* enlarging not yet supported */
 1611              		.loc 1 506 6 discriminator 7 view .LVU524
 1612 001c B742     		cmp	r7, r6
 1613 001e 43D9     		bls	.L115
 513:Middlewares/Third_Party/LwIP/src/core/pbuf.c **** 
 1614              		.loc 1 513 3 is_stmt 1 view .LVU525
 513:Middlewares/Third_Party/LwIP/src/core/pbuf.c **** 
 1615              		.loc 1 513 8 is_stmt 0 view .LVU526
 1616 0020 A6EB0708 		sub	r8, r6, r7
 1617              	.LVL164:
 516:Middlewares/Third_Party/LwIP/src/core/pbuf.c ****   q = p;
 1618              		.loc 1 516 3 is_stmt 1 view .LVU527
 517:Middlewares/Third_Party/LwIP/src/core/pbuf.c ****   /* should this pbuf be kept? */
 1619              		.loc 1 517 3 view .LVU528
 519:Middlewares/Third_Party/LwIP/src/core/pbuf.c ****     /* decrease remaining length by pbuf length */
 1620              		.loc 1 519 3 view .LVU529
ARM GAS  C:\Users\Nina\AppData\Local\Temp\ccfUDP6L.s 			page 59


 516:Middlewares/Third_Party/LwIP/src/core/pbuf.c ****   q = p;
 1621              		.loc 1 516 11 is_stmt 0 view .LVU530
 1622 0024 3546     		mov	r5, r6
 519:Middlewares/Third_Party/LwIP/src/core/pbuf.c ****     /* decrease remaining length by pbuf length */
 1623              		.loc 1 519 9 view .LVU531
 1624 0026 1DE0     		b	.L119
 1625              	.LVL165:
 1626              	.L126:
 499:Middlewares/Third_Party/LwIP/src/core/pbuf.c ****   LWIP_ASSERT("pbuf_realloc: sane p->type", p->type == PBUF_POOL ||
 1627              		.loc 1 499 3 is_stmt 1 discriminator 1 view .LVU532
 499:Middlewares/Third_Party/LwIP/src/core/pbuf.c ****   LWIP_ASSERT("pbuf_realloc: sane p->type", p->type == PBUF_POOL ||
 1628              		.loc 1 499 3 discriminator 1 view .LVU533
 1629 0028 2A4B     		ldr	r3, .L132
 1630 002a 40F2F312 		movw	r2, #499
 1631 002e 2A49     		ldr	r1, .L132+4
 1632              	.LVL166:
 499:Middlewares/Third_Party/LwIP/src/core/pbuf.c ****   LWIP_ASSERT("pbuf_realloc: sane p->type", p->type == PBUF_POOL ||
 1633              		.loc 1 499 3 is_stmt 0 discriminator 1 view .LVU534
 1634 0030 2A48     		ldr	r0, .L132+8
 1635              	.LVL167:
 499:Middlewares/Third_Party/LwIP/src/core/pbuf.c ****   LWIP_ASSERT("pbuf_realloc: sane p->type", p->type == PBUF_POOL ||
 1636              		.loc 1 499 3 discriminator 1 view .LVU535
 1637 0032 FFF7FEFF 		bl	printf
 1638              	.LVL168:
 1639 0036 E8E7     		b	.L116
 1640              	.L127:
 500:Middlewares/Third_Party/LwIP/src/core/pbuf.c ****               p->type == PBUF_ROM ||
 1641              		.loc 1 500 3 is_stmt 1 discriminator 5 view .LVU536
 500:Middlewares/Third_Party/LwIP/src/core/pbuf.c ****               p->type == PBUF_ROM ||
 1642              		.loc 1 500 3 discriminator 5 view .LVU537
 1643 0038 264B     		ldr	r3, .L132
 1644 003a 4FF4FA72 		mov	r2, #500
 1645 003e 2849     		ldr	r1, .L132+12
 1646 0040 2648     		ldr	r0, .L132+8
 1647 0042 FFF7FEFF 		bl	printf
 1648              	.LVL169:
 1649 0046 E8E7     		b	.L117
 1650              	.LVL170:
 1651              	.L130:
 523:Middlewares/Third_Party/LwIP/src/core/pbuf.c ****     q->tot_len += (u16_t)grow;
 1652              		.loc 1 523 5 discriminator 1 view .LVU538
 523:Middlewares/Third_Party/LwIP/src/core/pbuf.c ****     q->tot_len += (u16_t)grow;
 1653              		.loc 1 523 5 discriminator 1 view .LVU539
 1654 0048 224B     		ldr	r3, .L132
 1655 004a 40F20B22 		movw	r2, #523
 1656 004e 2549     		ldr	r1, .L132+16
 1657 0050 2248     		ldr	r0, .L132+8
 1658 0052 FFF7FEFF 		bl	printf
 1659              	.LVL171:
 1660              	.L120:
 523:Middlewares/Third_Party/LwIP/src/core/pbuf.c ****     q->tot_len += (u16_t)grow;
 1661              		.loc 1 523 5 discriminator 3 view .LVU540
 523:Middlewares/Third_Party/LwIP/src/core/pbuf.c ****     q->tot_len += (u16_t)grow;
 1662              		.loc 1 523 5 discriminator 3 view .LVU541
 524:Middlewares/Third_Party/LwIP/src/core/pbuf.c ****     /* proceed to next pbuf in chain */
 1663              		.loc 1 524 5 discriminator 3 view .LVU542
 524:Middlewares/Third_Party/LwIP/src/core/pbuf.c ****     /* proceed to next pbuf in chain */
ARM GAS  C:\Users\Nina\AppData\Local\Temp\ccfUDP6L.s 			page 60


 1664              		.loc 1 524 19 is_stmt 0 discriminator 3 view .LVU543
 1665 0056 F31B     		subs	r3, r6, r7
 524:Middlewares/Third_Party/LwIP/src/core/pbuf.c ****     /* proceed to next pbuf in chain */
 1666              		.loc 1 524 16 discriminator 3 view .LVU544
 1667 0058 2289     		ldrh	r2, [r4, #8]
 1668 005a 12FA83F3 		uxtah	r3, r2, r3
 1669 005e 2381     		strh	r3, [r4, #8]	@ movhi
 526:Middlewares/Third_Party/LwIP/src/core/pbuf.c ****     LWIP_ASSERT("pbuf_realloc: q != NULL", q != NULL);
 1670              		.loc 1 526 5 is_stmt 1 discriminator 3 view .LVU545
 526:Middlewares/Third_Party/LwIP/src/core/pbuf.c ****     LWIP_ASSERT("pbuf_realloc: q != NULL", q != NULL);
 1671              		.loc 1 526 7 is_stmt 0 discriminator 3 view .LVU546
 1672 0060 2468     		ldr	r4, [r4]
 1673              	.LVL172:
 527:Middlewares/Third_Party/LwIP/src/core/pbuf.c ****   }
 1674              		.loc 1 527 5 is_stmt 1 discriminator 3 view .LVU547
 527:Middlewares/Third_Party/LwIP/src/core/pbuf.c ****   }
 1675              		.loc 1 527 5 discriminator 3 view .LVU548
 1676 0062 4CB1     		cbz	r4, .L128
 1677              	.LVL173:
 1678              	.L119:
 527:Middlewares/Third_Party/LwIP/src/core/pbuf.c ****   }
 1679              		.loc 1 527 5 discriminator 3 view .LVU549
 527:Middlewares/Third_Party/LwIP/src/core/pbuf.c ****   }
 1680              		.loc 1 527 5 discriminator 3 view .LVU550
 519:Middlewares/Third_Party/LwIP/src/core/pbuf.c ****     /* decrease remaining length by pbuf length */
 1681              		.loc 1 519 9 discriminator 3 view .LVU551
 519:Middlewares/Third_Party/LwIP/src/core/pbuf.c ****     /* decrease remaining length by pbuf length */
 1682              		.loc 1 519 21 is_stmt 0 discriminator 3 view .LVU552
 1683 0064 6389     		ldrh	r3, [r4, #10]
 519:Middlewares/Third_Party/LwIP/src/core/pbuf.c ****     /* decrease remaining length by pbuf length */
 1684              		.loc 1 519 9 discriminator 3 view .LVU553
 1685 0066 AB42     		cmp	r3, r5
 1686 0068 0ED2     		bcs	.L129
 521:Middlewares/Third_Party/LwIP/src/core/pbuf.c ****     /* decrease total length indicator */
 1687              		.loc 1 521 5 is_stmt 1 view .LVU554
 521:Middlewares/Third_Party/LwIP/src/core/pbuf.c ****     /* decrease total length indicator */
 1688              		.loc 1 521 13 is_stmt 0 view .LVU555
 1689 006a ED1A     		subs	r5, r5, r3
 1690              	.LVL174:
 521:Middlewares/Third_Party/LwIP/src/core/pbuf.c ****     /* decrease total length indicator */
 1691              		.loc 1 521 13 view .LVU556
 1692 006c ADB2     		uxth	r5, r5
 1693              	.LVL175:
 523:Middlewares/Third_Party/LwIP/src/core/pbuf.c ****     q->tot_len += (u16_t)grow;
 1694              		.loc 1 523 5 is_stmt 1 view .LVU557
 523:Middlewares/Third_Party/LwIP/src/core/pbuf.c ****     q->tot_len += (u16_t)grow;
 1695              		.loc 1 523 5 view .LVU558
 1696 006e 4FF6FE73 		movw	r3, #65534
 1697 0072 9845     		cmp	r8, r3
 1698 0074 EFDD     		ble	.L120
 1699 0076 E7E7     		b	.L130
 1700              	.L128:
 527:Middlewares/Third_Party/LwIP/src/core/pbuf.c ****   }
 1701              		.loc 1 527 5 discriminator 1 view .LVU559
 527:Middlewares/Third_Party/LwIP/src/core/pbuf.c ****   }
 1702              		.loc 1 527 5 discriminator 1 view .LVU560
 1703 0078 164B     		ldr	r3, .L132
ARM GAS  C:\Users\Nina\AppData\Local\Temp\ccfUDP6L.s 			page 61


 1704 007a 40F20F22 		movw	r2, #527
 1705 007e 1A49     		ldr	r1, .L132+20
 1706 0080 1648     		ldr	r0, .L132+8
 1707 0082 FFF7FEFF 		bl	printf
 1708              	.LVL176:
 1709 0086 EDE7     		b	.L119
 1710              	.L129:
 534:Middlewares/Third_Party/LwIP/src/core/pbuf.c **** #if LWIP_SUPPORT_CUSTOM_PBUF
 1711              		.loc 1 534 3 view .LVU561
 534:Middlewares/Third_Party/LwIP/src/core/pbuf.c **** #if LWIP_SUPPORT_CUSTOM_PBUF
 1712              		.loc 1 534 9 is_stmt 0 view .LVU562
 1713 0088 227B     		ldrb	r2, [r4, #12]	@ zero_extendqisi2
 534:Middlewares/Third_Party/LwIP/src/core/pbuf.c **** #if LWIP_SUPPORT_CUSTOM_PBUF
 1714              		.loc 1 534 6 view .LVU563
 1715 008a 2AB9     		cbnz	r2, .L123
 534:Middlewares/Third_Party/LwIP/src/core/pbuf.c **** #if LWIP_SUPPORT_CUSTOM_PBUF
 1716              		.loc 1 534 29 discriminator 1 view .LVU564
 1717 008c AB42     		cmp	r3, r5
 1718 008e 03D0     		beq	.L123
 536:Middlewares/Third_Party/LwIP/src/core/pbuf.c **** #endif /* LWIP_SUPPORT_CUSTOM_PBUF */
 1719              		.loc 1 536 13 view .LVU565
 1720 0090 637B     		ldrb	r3, [r4, #13]	@ zero_extendqisi2
 536:Middlewares/Third_Party/LwIP/src/core/pbuf.c **** #endif /* LWIP_SUPPORT_CUSTOM_PBUF */
 1721              		.loc 1 536 7 view .LVU566
 1722 0092 13F0020F 		tst	r3, #2
 1723 0096 09D0     		beq	.L131
 1724              	.L123:
 541:Middlewares/Third_Party/LwIP/src/core/pbuf.c ****   }
 1725              		.loc 1 541 5 is_stmt 1 discriminator 3 view .LVU567
 541:Middlewares/Third_Party/LwIP/src/core/pbuf.c ****   }
 1726              		.loc 1 541 5 discriminator 3 view .LVU568
 544:Middlewares/Third_Party/LwIP/src/core/pbuf.c ****   q->tot_len = q->len;
 1727              		.loc 1 544 3 discriminator 3 view .LVU569
 544:Middlewares/Third_Party/LwIP/src/core/pbuf.c ****   q->tot_len = q->len;
 1728              		.loc 1 544 10 is_stmt 0 discriminator 3 view .LVU570
 1729 0098 6581     		strh	r5, [r4, #10]	@ movhi
 545:Middlewares/Third_Party/LwIP/src/core/pbuf.c **** 
 1730              		.loc 1 545 3 is_stmt 1 discriminator 3 view .LVU571
 545:Middlewares/Third_Party/LwIP/src/core/pbuf.c **** 
 1731              		.loc 1 545 14 is_stmt 0 discriminator 3 view .LVU572
 1732 009a 2581     		strh	r5, [r4, #8]	@ movhi
 548:Middlewares/Third_Party/LwIP/src/core/pbuf.c ****     /* free remaining pbufs in chain */
 1733              		.loc 1 548 3 is_stmt 1 discriminator 3 view .LVU573
 548:Middlewares/Third_Party/LwIP/src/core/pbuf.c ****     /* free remaining pbufs in chain */
 1734              		.loc 1 548 8 is_stmt 0 discriminator 3 view .LVU574
 1735 009c 2068     		ldr	r0, [r4]
 548:Middlewares/Third_Party/LwIP/src/core/pbuf.c ****     /* free remaining pbufs in chain */
 1736              		.loc 1 548 6 discriminator 3 view .LVU575
 1737 009e 08B1     		cbz	r0, .L124
 550:Middlewares/Third_Party/LwIP/src/core/pbuf.c ****   }
 1738              		.loc 1 550 5 is_stmt 1 view .LVU576
 1739 00a0 FFF7FEFF 		bl	pbuf_free
 1740              	.LVL177:
 1741              	.L124:
 553:Middlewares/Third_Party/LwIP/src/core/pbuf.c **** 
 1742              		.loc 1 553 3 view .LVU577
 553:Middlewares/Third_Party/LwIP/src/core/pbuf.c **** 
ARM GAS  C:\Users\Nina\AppData\Local\Temp\ccfUDP6L.s 			page 62


 1743              		.loc 1 553 11 is_stmt 0 view .LVU578
 1744 00a4 0023     		movs	r3, #0
 1745 00a6 2360     		str	r3, [r4]
 1746              	.LVL178:
 1747              	.L115:
 555:Middlewares/Third_Party/LwIP/src/core/pbuf.c **** 
 1748              		.loc 1 555 1 view .LVU579
 1749 00a8 BDE8F081 		pop	{r4, r5, r6, r7, r8, pc}
 1750              	.LVL179:
 1751              	.L131:
 540:Middlewares/Third_Party/LwIP/src/core/pbuf.c ****     LWIP_ASSERT("mem_trim returned q == NULL", q != NULL);
 1752              		.loc 1 540 5 is_stmt 1 view .LVU580
 540:Middlewares/Third_Party/LwIP/src/core/pbuf.c ****     LWIP_ASSERT("mem_trim returned q == NULL", q != NULL);
 1753              		.loc 1 540 53 is_stmt 0 view .LVU581
 1754 00ac 6368     		ldr	r3, [r4, #4]
 540:Middlewares/Third_Party/LwIP/src/core/pbuf.c ****     LWIP_ASSERT("mem_trim returned q == NULL", q != NULL);
 1755              		.loc 1 540 63 view .LVU582
 1756 00ae 1B1B     		subs	r3, r3, r4
 540:Middlewares/Third_Party/LwIP/src/core/pbuf.c ****     LWIP_ASSERT("mem_trim returned q == NULL", q != NULL);
 1757              		.loc 1 540 24 view .LVU583
 1758 00b0 15FA83F1 		uxtah	r1, r5, r3
 1759 00b4 89B2     		uxth	r1, r1
 1760 00b6 2046     		mov	r0, r4
 1761 00b8 FFF7FEFF 		bl	mem_trim
 1762              	.LVL180:
 541:Middlewares/Third_Party/LwIP/src/core/pbuf.c ****   }
 1763              		.loc 1 541 5 is_stmt 1 view .LVU584
 541:Middlewares/Third_Party/LwIP/src/core/pbuf.c ****   }
 1764              		.loc 1 541 5 view .LVU585
 1765 00bc 0446     		mov	r4, r0
 1766 00be 0028     		cmp	r0, #0
 1767 00c0 EAD1     		bne	.L123
 541:Middlewares/Third_Party/LwIP/src/core/pbuf.c ****   }
 1768              		.loc 1 541 5 discriminator 1 view .LVU586
 541:Middlewares/Third_Party/LwIP/src/core/pbuf.c ****   }
 1769              		.loc 1 541 5 discriminator 1 view .LVU587
 1770 00c2 044B     		ldr	r3, .L132
 1771 00c4 40F21D22 		movw	r2, #541
 1772 00c8 0849     		ldr	r1, .L132+24
 1773 00ca 0448     		ldr	r0, .L132+8
 1774              	.LVL181:
 541:Middlewares/Third_Party/LwIP/src/core/pbuf.c ****   }
 1775              		.loc 1 541 5 is_stmt 0 discriminator 1 view .LVU588
 1776 00cc FFF7FEFF 		bl	printf
 1777              	.LVL182:
 1778 00d0 E2E7     		b	.L123
 1779              	.L133:
 1780 00d2 00BF     		.align	2
 1781              	.L132:
 1782 00d4 00000000 		.word	.LC0
 1783 00d8 00000000 		.word	.LC15
 1784 00dc 3C000000 		.word	.LC2
 1785 00e0 18000000 		.word	.LC16
 1786 00e4 34000000 		.word	.LC17
 1787 00e8 48000000 		.word	.LC18
 1788 00ec 60000000 		.word	.LC19
 1789              		.cfi_endproc
ARM GAS  C:\Users\Nina\AppData\Local\Temp\ccfUDP6L.s 			page 63


 1790              	.LFE170:
 1792              		.section	.text.pbuf_clen,"ax",%progbits
 1793              		.align	1
 1794              		.global	pbuf_clen
 1795              		.syntax unified
 1796              		.thumb
 1797              		.thumb_func
 1798              		.fpu fpv5-sp-d16
 1800              	pbuf_clen:
 1801              	.LVL183:
 1802              	.LFB175:
 801:Middlewares/Third_Party/LwIP/src/core/pbuf.c ****   u16_t len;
 1803              		.loc 1 801 1 is_stmt 1 view -0
 1804              		.cfi_startproc
 1805              		@ args = 0, pretend = 0, frame = 0
 1806              		@ frame_needed = 0, uses_anonymous_args = 0
 1807              		@ link register save eliminated.
 801:Middlewares/Third_Party/LwIP/src/core/pbuf.c ****   u16_t len;
 1808              		.loc 1 801 1 is_stmt 0 view .LVU590
 1809 0000 0346     		mov	r3, r0
 802:Middlewares/Third_Party/LwIP/src/core/pbuf.c **** 
 1810              		.loc 1 802 3 is_stmt 1 view .LVU591
 804:Middlewares/Third_Party/LwIP/src/core/pbuf.c ****   while (p != NULL) {
 1811              		.loc 1 804 3 view .LVU592
 1812              	.LVL184:
 805:Middlewares/Third_Party/LwIP/src/core/pbuf.c ****     ++len;
 1813              		.loc 1 805 3 view .LVU593
 804:Middlewares/Third_Party/LwIP/src/core/pbuf.c ****   while (p != NULL) {
 1814              		.loc 1 804 7 is_stmt 0 view .LVU594
 1815 0002 0020     		movs	r0, #0
 1816              	.LVL185:
 1817              	.L135:
 805:Middlewares/Third_Party/LwIP/src/core/pbuf.c ****     ++len;
 1818              		.loc 1 805 9 is_stmt 1 view .LVU595
 1819 0004 1BB1     		cbz	r3, .L137
 806:Middlewares/Third_Party/LwIP/src/core/pbuf.c ****     p = p->next;
 1820              		.loc 1 806 5 view .LVU596
 1821 0006 0130     		adds	r0, r0, #1
 1822              	.LVL186:
 806:Middlewares/Third_Party/LwIP/src/core/pbuf.c ****     p = p->next;
 1823              		.loc 1 806 5 is_stmt 0 view .LVU597
 1824 0008 80B2     		uxth	r0, r0
 1825              	.LVL187:
 807:Middlewares/Third_Party/LwIP/src/core/pbuf.c ****   }
 1826              		.loc 1 807 5 is_stmt 1 view .LVU598
 807:Middlewares/Third_Party/LwIP/src/core/pbuf.c ****   }
 1827              		.loc 1 807 7 is_stmt 0 view .LVU599
 1828 000a 1B68     		ldr	r3, [r3]
 1829              	.LVL188:
 807:Middlewares/Third_Party/LwIP/src/core/pbuf.c ****   }
 1830              		.loc 1 807 7 view .LVU600
 1831 000c FAE7     		b	.L135
 1832              	.L137:
 810:Middlewares/Third_Party/LwIP/src/core/pbuf.c **** 
 1833              		.loc 1 810 1 view .LVU601
 1834 000e 7047     		bx	lr
 1835              		.cfi_endproc
ARM GAS  C:\Users\Nina\AppData\Local\Temp\ccfUDP6L.s 			page 64


 1836              	.LFE175:
 1838              		.section	.rodata.pbuf_ref.str1.4,"aMS",%progbits,1
 1839              		.align	2
 1840              	.LC20:
 1841 0000 70627566 		.ascii	"pbuf ref overflow\000"
 1841      20726566 
 1841      206F7665 
 1841      72666C6F 
 1841      7700
 1842              		.section	.text.pbuf_ref,"ax",%progbits
 1843              		.align	1
 1844              		.global	pbuf_ref
 1845              		.syntax unified
 1846              		.thumb
 1847              		.thumb_func
 1848              		.fpu fpv5-sp-d16
 1850              	pbuf_ref:
 1851              	.LVL189:
 1852              	.LFB176:
 821:Middlewares/Third_Party/LwIP/src/core/pbuf.c ****   /* pbuf given? */
 1853              		.loc 1 821 1 is_stmt 1 view -0
 1854              		.cfi_startproc
 1855              		@ args = 0, pretend = 0, frame = 0
 1856              		@ frame_needed = 0, uses_anonymous_args = 0
 823:Middlewares/Third_Party/LwIP/src/core/pbuf.c ****     SYS_ARCH_INC(p->ref, 1);
 1857              		.loc 1 823 3 view .LVU603
 823:Middlewares/Third_Party/LwIP/src/core/pbuf.c ****     SYS_ARCH_INC(p->ref, 1);
 1858              		.loc 1 823 6 is_stmt 0 view .LVU604
 1859 0000 98B1     		cbz	r0, .L141
 821:Middlewares/Third_Party/LwIP/src/core/pbuf.c ****   /* pbuf given? */
 1860              		.loc 1 821 1 view .LVU605
 1861 0002 10B5     		push	{r4, lr}
 1862              	.LCFI10:
 1863              		.cfi_def_cfa_offset 8
 1864              		.cfi_offset 4, -8
 1865              		.cfi_offset 14, -4
 1866 0004 0446     		mov	r4, r0
 824:Middlewares/Third_Party/LwIP/src/core/pbuf.c ****     LWIP_ASSERT("pbuf ref overflow", p->ref > 0);
 1867              		.loc 1 824 5 is_stmt 1 view .LVU606
 1868              	.LBB9:
 824:Middlewares/Third_Party/LwIP/src/core/pbuf.c ****     LWIP_ASSERT("pbuf ref overflow", p->ref > 0);
 1869              		.loc 1 824 5 view .LVU607
 824:Middlewares/Third_Party/LwIP/src/core/pbuf.c ****     LWIP_ASSERT("pbuf ref overflow", p->ref > 0);
 1870              		.loc 1 824 5 view .LVU608
 1871 0006 FFF7FEFF 		bl	sys_arch_protect
 1872              	.LVL190:
 824:Middlewares/Third_Party/LwIP/src/core/pbuf.c ****     LWIP_ASSERT("pbuf ref overflow", p->ref > 0);
 1873              		.loc 1 824 5 view .LVU609
 1874 000a E389     		ldrh	r3, [r4, #14]
 1875 000c 0133     		adds	r3, r3, #1
 1876 000e E381     		strh	r3, [r4, #14]	@ movhi
 824:Middlewares/Third_Party/LwIP/src/core/pbuf.c ****     LWIP_ASSERT("pbuf ref overflow", p->ref > 0);
 1877              		.loc 1 824 5 view .LVU610
 1878 0010 FFF7FEFF 		bl	sys_arch_unprotect
 1879              	.LVL191:
 824:Middlewares/Third_Party/LwIP/src/core/pbuf.c ****     LWIP_ASSERT("pbuf ref overflow", p->ref > 0);
 1880              		.loc 1 824 5 is_stmt 0 view .LVU611
ARM GAS  C:\Users\Nina\AppData\Local\Temp\ccfUDP6L.s 			page 65


 1881              	.LBE9:
 824:Middlewares/Third_Party/LwIP/src/core/pbuf.c ****     LWIP_ASSERT("pbuf ref overflow", p->ref > 0);
 1882              		.loc 1 824 5 is_stmt 1 view .LVU612
 825:Middlewares/Third_Party/LwIP/src/core/pbuf.c ****   }
 1883              		.loc 1 825 5 view .LVU613
 825:Middlewares/Third_Party/LwIP/src/core/pbuf.c ****   }
 1884              		.loc 1 825 5 view .LVU614
 1885 0014 E389     		ldrh	r3, [r4, #14]
 1886 0016 03B1     		cbz	r3, .L144
 1887              	.L138:
 827:Middlewares/Third_Party/LwIP/src/core/pbuf.c **** 
 1888              		.loc 1 827 1 is_stmt 0 view .LVU615
 1889 0018 10BD     		pop	{r4, pc}
 1890              	.LVL192:
 1891              	.L144:
 825:Middlewares/Third_Party/LwIP/src/core/pbuf.c ****   }
 1892              		.loc 1 825 5 is_stmt 1 discriminator 1 view .LVU616
 825:Middlewares/Third_Party/LwIP/src/core/pbuf.c ****   }
 1893              		.loc 1 825 5 discriminator 1 view .LVU617
 1894 001a 044B     		ldr	r3, .L145
 1895 001c 40F23932 		movw	r2, #825
 1896 0020 0349     		ldr	r1, .L145+4
 1897 0022 0448     		ldr	r0, .L145+8
 1898 0024 FFF7FEFF 		bl	printf
 1899              	.LVL193:
 825:Middlewares/Third_Party/LwIP/src/core/pbuf.c ****   }
 1900              		.loc 1 825 5 discriminator 1 view .LVU618
 825:Middlewares/Third_Party/LwIP/src/core/pbuf.c ****   }
 1901              		.loc 1 825 5 discriminator 1 view .LVU619
 827:Middlewares/Third_Party/LwIP/src/core/pbuf.c **** 
 1902              		.loc 1 827 1 is_stmt 0 discriminator 1 view .LVU620
 1903 0028 F6E7     		b	.L138
 1904              	.LVL194:
 1905              	.L141:
 1906              	.LCFI11:
 1907              		.cfi_def_cfa_offset 0
 1908              		.cfi_restore 4
 1909              		.cfi_restore 14
 827:Middlewares/Third_Party/LwIP/src/core/pbuf.c **** 
 1910              		.loc 1 827 1 discriminator 1 view .LVU621
 1911 002a 7047     		bx	lr
 1912              	.L146:
 1913              		.align	2
 1914              	.L145:
 1915 002c 00000000 		.word	.LC0
 1916 0030 00000000 		.word	.LC20
 1917 0034 3C000000 		.word	.LC2
 1918              		.cfi_endproc
 1919              	.LFE176:
 1921              		.section	.rodata.pbuf_cat.str1.4,"aMS",%progbits,1
 1922              		.align	2
 1923              	.LC21:
 1924 0000 28682021 		.ascii	"(h != NULL) && (t != NULL) (programmer violates API"
 1924      3D204E55 
 1924      4C4C2920 
 1924      26262028 
 1924      7420213D 
ARM GAS  C:\Users\Nina\AppData\Local\Temp\ccfUDP6L.s 			page 66


 1925 0033 2900     		.ascii	")\000"
 1926 0035 000000   		.align	2
 1927              	.LC22:
 1928 0038 702D3E74 		.ascii	"p->tot_len == p->len (of last pbuf in chain)\000"
 1928      6F745F6C 
 1928      656E203D 
 1928      3D20702D 
 1928      3E6C656E 
 1929 0065 000000   		.align	2
 1930              	.LC23:
 1931 0068 702D3E6E 		.ascii	"p->next == NULL\000"
 1931      65787420 
 1931      3D3D204E 
 1931      554C4C00 
 1932              		.section	.text.pbuf_cat,"ax",%progbits
 1933              		.align	1
 1934              		.global	pbuf_cat
 1935              		.syntax unified
 1936              		.thumb
 1937              		.thumb_func
 1938              		.fpu fpv5-sp-d16
 1940              	pbuf_cat:
 1941              	.LVL195:
 1942              	.LFB177:
 841:Middlewares/Third_Party/LwIP/src/core/pbuf.c ****   struct pbuf *p;
 1943              		.loc 1 841 1 is_stmt 1 view -0
 1944              		.cfi_startproc
 1945              		@ args = 0, pretend = 0, frame = 0
 1946              		@ frame_needed = 0, uses_anonymous_args = 0
 841:Middlewares/Third_Party/LwIP/src/core/pbuf.c ****   struct pbuf *p;
 1947              		.loc 1 841 1 is_stmt 0 view .LVU623
 1948 0000 38B5     		push	{r3, r4, r5, lr}
 1949              	.LCFI12:
 1950              		.cfi_def_cfa_offset 16
 1951              		.cfi_offset 3, -16
 1952              		.cfi_offset 4, -12
 1953              		.cfi_offset 5, -8
 1954              		.cfi_offset 14, -4
 842:Middlewares/Third_Party/LwIP/src/core/pbuf.c **** 
 1955              		.loc 1 842 3 is_stmt 1 view .LVU624
 844:Middlewares/Third_Party/LwIP/src/core/pbuf.c ****              ((h != NULL) && (t != NULL)), return;);
 1956              		.loc 1 844 3 view .LVU625
 844:Middlewares/Third_Party/LwIP/src/core/pbuf.c ****              ((h != NULL) && (t != NULL)), return;);
 1957              		.loc 1 844 3 view .LVU626
 1958 0002 0446     		mov	r4, r0
 1959 0004 0D46     		mov	r5, r1
 1960 0006 B1FA81F1 		clz	r1, r1
 1961              	.LVL196:
 844:Middlewares/Third_Party/LwIP/src/core/pbuf.c ****              ((h != NULL) && (t != NULL)), return;);
 1962              		.loc 1 844 3 is_stmt 0 view .LVU627
 1963 000a 4909     		lsrs	r1, r1, #5
 1964 000c 0028     		cmp	r0, #0
 1965 000e 08BF     		it	eq
 1966 0010 0121     		moveq	r1, #1
 1967 0012 61B1     		cbz	r1, .L148
 844:Middlewares/Third_Party/LwIP/src/core/pbuf.c ****              ((h != NULL) && (t != NULL)), return;);
 1968              		.loc 1 844 3 is_stmt 1 discriminator 1 view .LVU628
ARM GAS  C:\Users\Nina\AppData\Local\Temp\ccfUDP6L.s 			page 67


 844:Middlewares/Third_Party/LwIP/src/core/pbuf.c ****              ((h != NULL) && (t != NULL)), return;);
 1969              		.loc 1 844 3 discriminator 1 view .LVU629
 1970 0014 154B     		ldr	r3, .L155
 1971 0016 4FF45372 		mov	r2, #844
 1972 001a 1549     		ldr	r1, .L155+4
 1973 001c 1548     		ldr	r0, .L155+8
 1974              	.LVL197:
 844:Middlewares/Third_Party/LwIP/src/core/pbuf.c ****              ((h != NULL) && (t != NULL)), return;);
 1975              		.loc 1 844 3 is_stmt 0 discriminator 1 view .LVU630
 1976 001e FFF7FEFF 		bl	printf
 1977              	.LVL198:
 844:Middlewares/Third_Party/LwIP/src/core/pbuf.c ****              ((h != NULL) && (t != NULL)), return;);
 1978              		.loc 1 844 3 is_stmt 1 discriminator 1 view .LVU631
 844:Middlewares/Third_Party/LwIP/src/core/pbuf.c ****              ((h != NULL) && (t != NULL)), return;);
 1979              		.loc 1 844 3 discriminator 1 view .LVU632
 1980 0022 19E0     		b	.L147
 1981              	.LVL199:
 1982              	.L150:
 850:Middlewares/Third_Party/LwIP/src/core/pbuf.c ****   }
 1983              		.loc 1 850 5 discriminator 3 view .LVU633
 850:Middlewares/Third_Party/LwIP/src/core/pbuf.c ****   }
 1984              		.loc 1 850 20 is_stmt 0 discriminator 3 view .LVU634
 1985 0024 2B89     		ldrh	r3, [r5, #8]
 850:Middlewares/Third_Party/LwIP/src/core/pbuf.c ****   }
 1986              		.loc 1 850 16 discriminator 3 view .LVU635
 1987 0026 2189     		ldrh	r1, [r4, #8]
 1988 0028 0B44     		add	r3, r3, r1
 1989 002a 2381     		strh	r3, [r4, #8]	@ movhi
 848:Middlewares/Third_Party/LwIP/src/core/pbuf.c ****     /* add total length of second chain to all totals of first chain */
 1990              		.loc 1 848 32 is_stmt 1 discriminator 3 view .LVU636
 1991              	.LVL200:
 848:Middlewares/Third_Party/LwIP/src/core/pbuf.c ****     /* add total length of second chain to all totals of first chain */
 1992              		.loc 1 848 34 is_stmt 0 discriminator 3 view .LVU637
 1993 002c 1446     		mov	r4, r2
 1994              	.LVL201:
 1995              	.L148:
 848:Middlewares/Third_Party/LwIP/src/core/pbuf.c ****     /* add total length of second chain to all totals of first chain */
 1996              		.loc 1 848 15 is_stmt 1 discriminator 1 view .LVU638
 848:Middlewares/Third_Party/LwIP/src/core/pbuf.c ****     /* add total length of second chain to all totals of first chain */
 1997              		.loc 1 848 16 is_stmt 0 discriminator 1 view .LVU639
 1998 002e 2268     		ldr	r2, [r4]
 848:Middlewares/Third_Party/LwIP/src/core/pbuf.c ****     /* add total length of second chain to all totals of first chain */
 1999              		.loc 1 848 3 discriminator 1 view .LVU640
 2000 0030 002A     		cmp	r2, #0
 2001 0032 F7D1     		bne	.L150
 853:Middlewares/Third_Party/LwIP/src/core/pbuf.c ****   LWIP_ASSERT("p->next == NULL", p->next == NULL);
 2002              		.loc 1 853 3 is_stmt 1 view .LVU641
 853:Middlewares/Third_Party/LwIP/src/core/pbuf.c ****   LWIP_ASSERT("p->next == NULL", p->next == NULL);
 2003              		.loc 1 853 3 view .LVU642
 2004 0034 2289     		ldrh	r2, [r4, #8]
 2005 0036 6389     		ldrh	r3, [r4, #10]
 2006 0038 9A42     		cmp	r2, r3
 2007 003a 0ED1     		bne	.L154
 2008              	.LVL202:
 2009              	.L151:
 853:Middlewares/Third_Party/LwIP/src/core/pbuf.c ****   LWIP_ASSERT("p->next == NULL", p->next == NULL);
 2010              		.loc 1 853 3 discriminator 3 view .LVU643
ARM GAS  C:\Users\Nina\AppData\Local\Temp\ccfUDP6L.s 			page 68


 853:Middlewares/Third_Party/LwIP/src/core/pbuf.c ****   LWIP_ASSERT("p->next == NULL", p->next == NULL);
 2011              		.loc 1 853 3 discriminator 3 view .LVU644
 854:Middlewares/Third_Party/LwIP/src/core/pbuf.c ****   /* add total length of second chain to last pbuf total of first chain */
 2012              		.loc 1 854 3 discriminator 3 view .LVU645
 854:Middlewares/Third_Party/LwIP/src/core/pbuf.c ****   /* add total length of second chain to last pbuf total of first chain */
 2013              		.loc 1 854 3 discriminator 3 view .LVU646
 2014 003c 2368     		ldr	r3, [r4]
 2015 003e 33B1     		cbz	r3, .L152
 854:Middlewares/Third_Party/LwIP/src/core/pbuf.c ****   /* add total length of second chain to last pbuf total of first chain */
 2016              		.loc 1 854 3 discriminator 1 view .LVU647
 854:Middlewares/Third_Party/LwIP/src/core/pbuf.c ****   /* add total length of second chain to last pbuf total of first chain */
 2017              		.loc 1 854 3 discriminator 1 view .LVU648
 2018 0040 0A4B     		ldr	r3, .L155
 2019 0042 40F25632 		movw	r2, #854
 2020 0046 0C49     		ldr	r1, .L155+12
 2021 0048 0A48     		ldr	r0, .L155+8
 2022 004a FFF7FEFF 		bl	printf
 2023              	.LVL203:
 2024              	.L152:
 854:Middlewares/Third_Party/LwIP/src/core/pbuf.c ****   /* add total length of second chain to last pbuf total of first chain */
 2025              		.loc 1 854 3 discriminator 3 view .LVU649
 854:Middlewares/Third_Party/LwIP/src/core/pbuf.c ****   /* add total length of second chain to last pbuf total of first chain */
 2026              		.loc 1 854 3 discriminator 3 view .LVU650
 856:Middlewares/Third_Party/LwIP/src/core/pbuf.c ****   /* chain last pbuf of head (p) with first of tail (t) */
 2027              		.loc 1 856 3 discriminator 3 view .LVU651
 856:Middlewares/Third_Party/LwIP/src/core/pbuf.c ****   /* chain last pbuf of head (p) with first of tail (t) */
 2028              		.loc 1 856 18 is_stmt 0 discriminator 3 view .LVU652
 2029 004e 2B89     		ldrh	r3, [r5, #8]
 856:Middlewares/Third_Party/LwIP/src/core/pbuf.c ****   /* chain last pbuf of head (p) with first of tail (t) */
 2030              		.loc 1 856 14 discriminator 3 view .LVU653
 2031 0050 2289     		ldrh	r2, [r4, #8]
 2032 0052 1344     		add	r3, r3, r2
 2033 0054 2381     		strh	r3, [r4, #8]	@ movhi
 858:Middlewares/Third_Party/LwIP/src/core/pbuf.c ****   /* p->next now references t, but the caller will drop its reference to t,
 2034              		.loc 1 858 3 is_stmt 1 discriminator 3 view .LVU654
 858:Middlewares/Third_Party/LwIP/src/core/pbuf.c ****   /* p->next now references t, but the caller will drop its reference to t,
 2035              		.loc 1 858 11 is_stmt 0 discriminator 3 view .LVU655
 2036 0056 2560     		str	r5, [r4]
 2037              	.LVL204:
 2038              	.L147:
 862:Middlewares/Third_Party/LwIP/src/core/pbuf.c **** 
 2039              		.loc 1 862 1 view .LVU656
 2040 0058 38BD     		pop	{r3, r4, r5, pc}
 2041              	.LVL205:
 2042              	.L154:
 853:Middlewares/Third_Party/LwIP/src/core/pbuf.c ****   LWIP_ASSERT("p->next == NULL", p->next == NULL);
 2043              		.loc 1 853 3 is_stmt 1 discriminator 1 view .LVU657
 853:Middlewares/Third_Party/LwIP/src/core/pbuf.c ****   LWIP_ASSERT("p->next == NULL", p->next == NULL);
 2044              		.loc 1 853 3 discriminator 1 view .LVU658
 2045 005a 044B     		ldr	r3, .L155
 2046 005c 40F25532 		movw	r2, #853
 2047 0060 0649     		ldr	r1, .L155+16
 2048 0062 0448     		ldr	r0, .L155+8
 2049              	.LVL206:
 853:Middlewares/Third_Party/LwIP/src/core/pbuf.c ****   LWIP_ASSERT("p->next == NULL", p->next == NULL);
 2050              		.loc 1 853 3 is_stmt 0 discriminator 1 view .LVU659
 2051 0064 FFF7FEFF 		bl	printf
ARM GAS  C:\Users\Nina\AppData\Local\Temp\ccfUDP6L.s 			page 69


 2052              	.LVL207:
 2053 0068 E8E7     		b	.L151
 2054              	.L156:
 2055 006a 00BF     		.align	2
 2056              	.L155:
 2057 006c 00000000 		.word	.LC0
 2058 0070 00000000 		.word	.LC21
 2059 0074 3C000000 		.word	.LC2
 2060 0078 68000000 		.word	.LC23
 2061 007c 38000000 		.word	.LC22
 2062              		.cfi_endproc
 2063              	.LFE177:
 2065              		.section	.text.pbuf_chain,"ax",%progbits
 2066              		.align	1
 2067              		.global	pbuf_chain
 2068              		.syntax unified
 2069              		.thumb
 2070              		.thumb_func
 2071              		.fpu fpv5-sp-d16
 2073              	pbuf_chain:
 2074              	.LVL208:
 2075              	.LFB178:
 883:Middlewares/Third_Party/LwIP/src/core/pbuf.c ****   pbuf_cat(h, t);
 2076              		.loc 1 883 1 is_stmt 1 view -0
 2077              		.cfi_startproc
 2078              		@ args = 0, pretend = 0, frame = 0
 2079              		@ frame_needed = 0, uses_anonymous_args = 0
 883:Middlewares/Third_Party/LwIP/src/core/pbuf.c ****   pbuf_cat(h, t);
 2080              		.loc 1 883 1 is_stmt 0 view .LVU661
 2081 0000 10B5     		push	{r4, lr}
 2082              	.LCFI13:
 2083              		.cfi_def_cfa_offset 8
 2084              		.cfi_offset 4, -8
 2085              		.cfi_offset 14, -4
 2086 0002 0C46     		mov	r4, r1
 884:Middlewares/Third_Party/LwIP/src/core/pbuf.c ****   /* t is now referenced by h */
 2087              		.loc 1 884 3 is_stmt 1 view .LVU662
 2088 0004 FFF7FEFF 		bl	pbuf_cat
 2089              	.LVL209:
 886:Middlewares/Third_Party/LwIP/src/core/pbuf.c ****   LWIP_DEBUGF(PBUF_DEBUG | LWIP_DBG_TRACE, ("pbuf_chain: %p references %p\n", (void *)h, (void *)t)
 2090              		.loc 1 886 3 view .LVU663
 2091 0008 2046     		mov	r0, r4
 2092 000a FFF7FEFF 		bl	pbuf_ref
 2093              	.LVL210:
 887:Middlewares/Third_Party/LwIP/src/core/pbuf.c **** }
 2094              		.loc 1 887 101 view .LVU664
 888:Middlewares/Third_Party/LwIP/src/core/pbuf.c **** 
 2095              		.loc 1 888 1 is_stmt 0 view .LVU665
 2096 000e 10BD     		pop	{r4, pc}
 888:Middlewares/Third_Party/LwIP/src/core/pbuf.c **** 
 2097              		.loc 1 888 1 view .LVU666
 2098              		.cfi_endproc
 2099              	.LFE178:
 2101              		.section	.rodata.pbuf_dechain.str1.4,"aMS",%progbits,1
 2102              		.align	2
 2103              	.LC24:
 2104 0000 702D3E74 		.ascii	"p->tot_len == p->len + q->tot_len\000"
ARM GAS  C:\Users\Nina\AppData\Local\Temp\ccfUDP6L.s 			page 70


 2104      6F745F6C 
 2104      656E203D 
 2104      3D20702D 
 2104      3E6C656E 
 2105 0022 0000     		.align	2
 2106              	.LC25:
 2107 0024 702D3E74 		.ascii	"p->tot_len == p->len\000"
 2107      6F745F6C 
 2107      656E203D 
 2107      3D20702D 
 2107      3E6C656E 
 2108              		.section	.text.pbuf_dechain,"ax",%progbits
 2109              		.align	1
 2110              		.global	pbuf_dechain
 2111              		.syntax unified
 2112              		.thumb
 2113              		.thumb_func
 2114              		.fpu fpv5-sp-d16
 2116              	pbuf_dechain:
 2117              	.LVL211:
 2118              	.LFB179:
 900:Middlewares/Third_Party/LwIP/src/core/pbuf.c ****   struct pbuf *q;
 2119              		.loc 1 900 1 is_stmt 1 view -0
 2120              		.cfi_startproc
 2121              		@ args = 0, pretend = 0, frame = 0
 2122              		@ frame_needed = 0, uses_anonymous_args = 0
 900:Middlewares/Third_Party/LwIP/src/core/pbuf.c ****   struct pbuf *q;
 2123              		.loc 1 900 1 is_stmt 0 view .LVU668
 2124 0000 70B5     		push	{r4, r5, r6, lr}
 2125              	.LCFI14:
 2126              		.cfi_def_cfa_offset 16
 2127              		.cfi_offset 4, -16
 2128              		.cfi_offset 5, -12
 2129              		.cfi_offset 6, -8
 2130              		.cfi_offset 14, -4
 2131 0002 0446     		mov	r4, r0
 901:Middlewares/Third_Party/LwIP/src/core/pbuf.c ****   u8_t tail_gone = 1;
 2132              		.loc 1 901 3 is_stmt 1 view .LVU669
 902:Middlewares/Third_Party/LwIP/src/core/pbuf.c ****   /* tail */
 2133              		.loc 1 902 3 view .LVU670
 2134              	.LVL212:
 904:Middlewares/Third_Party/LwIP/src/core/pbuf.c ****   /* pbuf has successor in chain? */
 2135              		.loc 1 904 3 view .LVU671
 904:Middlewares/Third_Party/LwIP/src/core/pbuf.c ****   /* pbuf has successor in chain? */
 2136              		.loc 1 904 5 is_stmt 0 view .LVU672
 2137 0004 0568     		ldr	r5, [r0]
 2138              	.LVL213:
 906:Middlewares/Third_Party/LwIP/src/core/pbuf.c ****     /* assert tot_len invariant: (p->tot_len == p->len + (p->next? p->next->tot_len: 0) */
 2139              		.loc 1 906 3 is_stmt 1 view .LVU673
 906:Middlewares/Third_Party/LwIP/src/core/pbuf.c ****     /* assert tot_len invariant: (p->tot_len == p->len + (p->next? p->next->tot_len: 0) */
 2140              		.loc 1 906 6 is_stmt 0 view .LVU674
 2141 0006 05B3     		cbz	r5, .L164
 908:Middlewares/Third_Party/LwIP/src/core/pbuf.c ****     /* enforce invariant if assertion is disabled */
 2142              		.loc 1 908 5 is_stmt 1 view .LVU675
 908:Middlewares/Third_Party/LwIP/src/core/pbuf.c ****     /* enforce invariant if assertion is disabled */
 2143              		.loc 1 908 5 view .LVU676
 2144 0008 2A89     		ldrh	r2, [r5, #8]
ARM GAS  C:\Users\Nina\AppData\Local\Temp\ccfUDP6L.s 			page 71


 2145 000a 0389     		ldrh	r3, [r0, #8]
 2146 000c 4189     		ldrh	r1, [r0, #10]
 2147 000e 5B1A     		subs	r3, r3, r1
 2148 0010 9A42     		cmp	r2, r3
 2149 0012 12D1     		bne	.L167
 2150              	.LVL214:
 2151              	.L161:
 908:Middlewares/Third_Party/LwIP/src/core/pbuf.c ****     /* enforce invariant if assertion is disabled */
 2152              		.loc 1 908 5 discriminator 3 view .LVU677
 908:Middlewares/Third_Party/LwIP/src/core/pbuf.c ****     /* enforce invariant if assertion is disabled */
 2153              		.loc 1 908 5 discriminator 3 view .LVU678
 910:Middlewares/Third_Party/LwIP/src/core/pbuf.c ****     /* decouple pbuf from remainder */
 2154              		.loc 1 910 5 discriminator 3 view .LVU679
 910:Middlewares/Third_Party/LwIP/src/core/pbuf.c ****     /* decouple pbuf from remainder */
 2155              		.loc 1 910 19 is_stmt 0 discriminator 3 view .LVU680
 2156 0014 2389     		ldrh	r3, [r4, #8]
 910:Middlewares/Third_Party/LwIP/src/core/pbuf.c ****     /* decouple pbuf from remainder */
 2157              		.loc 1 910 32 discriminator 3 view .LVU681
 2158 0016 6289     		ldrh	r2, [r4, #10]
 910:Middlewares/Third_Party/LwIP/src/core/pbuf.c ****     /* decouple pbuf from remainder */
 2159              		.loc 1 910 29 discriminator 3 view .LVU682
 2160 0018 9B1A     		subs	r3, r3, r2
 910:Middlewares/Third_Party/LwIP/src/core/pbuf.c ****     /* decouple pbuf from remainder */
 2161              		.loc 1 910 16 discriminator 3 view .LVU683
 2162 001a 2B81     		strh	r3, [r5, #8]	@ movhi
 912:Middlewares/Third_Party/LwIP/src/core/pbuf.c ****     /* total length of pbuf p is its own length only */
 2163              		.loc 1 912 5 is_stmt 1 discriminator 3 view .LVU684
 912:Middlewares/Third_Party/LwIP/src/core/pbuf.c ****     /* total length of pbuf p is its own length only */
 2164              		.loc 1 912 13 is_stmt 0 discriminator 3 view .LVU685
 2165 001c 0023     		movs	r3, #0
 2166 001e 2360     		str	r3, [r4]
 914:Middlewares/Third_Party/LwIP/src/core/pbuf.c ****     /* q is no longer referenced by p, free it */
 2167              		.loc 1 914 5 is_stmt 1 discriminator 3 view .LVU686
 914:Middlewares/Third_Party/LwIP/src/core/pbuf.c ****     /* q is no longer referenced by p, free it */
 2168              		.loc 1 914 19 is_stmt 0 discriminator 3 view .LVU687
 2169 0020 6389     		ldrh	r3, [r4, #10]
 914:Middlewares/Third_Party/LwIP/src/core/pbuf.c ****     /* q is no longer referenced by p, free it */
 2170              		.loc 1 914 16 discriminator 3 view .LVU688
 2171 0022 2381     		strh	r3, [r4, #8]	@ movhi
 916:Middlewares/Third_Party/LwIP/src/core/pbuf.c ****     tail_gone = pbuf_free(q);
 2172              		.loc 1 916 94 is_stmt 1 discriminator 3 view .LVU689
 917:Middlewares/Third_Party/LwIP/src/core/pbuf.c ****     if (tail_gone > 0) {
 2173              		.loc 1 917 5 discriminator 3 view .LVU690
 917:Middlewares/Third_Party/LwIP/src/core/pbuf.c ****     if (tail_gone > 0) {
 2174              		.loc 1 917 17 is_stmt 0 discriminator 3 view .LVU691
 2175 0024 2846     		mov	r0, r5
 2176 0026 FFF7FEFF 		bl	pbuf_free
 2177              	.LVL215:
 2178 002a 0646     		mov	r6, r0
 2179              	.LVL216:
 918:Middlewares/Third_Party/LwIP/src/core/pbuf.c ****       LWIP_DEBUGF(PBUF_DEBUG | LWIP_DBG_TRACE,
 2180              		.loc 1 918 5 is_stmt 1 discriminator 3 view .LVU692
 2181              	.L160:
 920:Middlewares/Third_Party/LwIP/src/core/pbuf.c ****     }
 2182              		.loc 1 920 97 view .LVU693
 925:Middlewares/Third_Party/LwIP/src/core/pbuf.c ****   return ((tail_gone > 0) ? NULL : q);
 2183              		.loc 1 925 3 view .LVU694
ARM GAS  C:\Users\Nina\AppData\Local\Temp\ccfUDP6L.s 			page 72


 925:Middlewares/Third_Party/LwIP/src/core/pbuf.c ****   return ((tail_gone > 0) ? NULL : q);
 2184              		.loc 1 925 3 view .LVU695
 2185 002c 2289     		ldrh	r2, [r4, #8]
 2186 002e 6389     		ldrh	r3, [r4, #10]
 2187 0030 9A42     		cmp	r2, r3
 2188 0032 0CD1     		bne	.L168
 2189              	.L162:
 925:Middlewares/Third_Party/LwIP/src/core/pbuf.c ****   return ((tail_gone > 0) ? NULL : q);
 2190              		.loc 1 925 3 discriminator 3 view .LVU696
 925:Middlewares/Third_Party/LwIP/src/core/pbuf.c ****   return ((tail_gone > 0) ? NULL : q);
 2191              		.loc 1 925 3 discriminator 3 view .LVU697
 926:Middlewares/Third_Party/LwIP/src/core/pbuf.c **** }
 2192              		.loc 1 926 3 discriminator 3 view .LVU698
 926:Middlewares/Third_Party/LwIP/src/core/pbuf.c **** }
 2193              		.loc 1 926 34 is_stmt 0 discriminator 3 view .LVU699
 2194 0034 9EB9     		cbnz	r6, .L169
 2195              	.LVL217:
 2196              	.L159:
 927:Middlewares/Third_Party/LwIP/src/core/pbuf.c **** 
 2197              		.loc 1 927 1 view .LVU700
 2198 0036 2846     		mov	r0, r5
 2199 0038 70BD     		pop	{r4, r5, r6, pc}
 2200              	.LVL218:
 2201              	.L167:
 908:Middlewares/Third_Party/LwIP/src/core/pbuf.c ****     /* enforce invariant if assertion is disabled */
 2202              		.loc 1 908 5 is_stmt 1 discriminator 1 view .LVU701
 908:Middlewares/Third_Party/LwIP/src/core/pbuf.c ****     /* enforce invariant if assertion is disabled */
 2203              		.loc 1 908 5 discriminator 1 view .LVU702
 2204 003a 0A4B     		ldr	r3, .L170
 2205 003c 4FF46372 		mov	r2, #908
 2206 0040 0949     		ldr	r1, .L170+4
 2207 0042 0A48     		ldr	r0, .L170+8
 2208              	.LVL219:
 908:Middlewares/Third_Party/LwIP/src/core/pbuf.c ****     /* enforce invariant if assertion is disabled */
 2209              		.loc 1 908 5 is_stmt 0 discriminator 1 view .LVU703
 2210 0044 FFF7FEFF 		bl	printf
 2211              	.LVL220:
 2212 0048 E4E7     		b	.L161
 2213              	.LVL221:
 2214              	.L164:
 902:Middlewares/Third_Party/LwIP/src/core/pbuf.c ****   /* tail */
 2215              		.loc 1 902 8 view .LVU704
 2216 004a 0126     		movs	r6, #1
 2217 004c EEE7     		b	.L160
 2218              	.LVL222:
 2219              	.L168:
 925:Middlewares/Third_Party/LwIP/src/core/pbuf.c ****   return ((tail_gone > 0) ? NULL : q);
 2220              		.loc 1 925 3 is_stmt 1 discriminator 1 view .LVU705
 925:Middlewares/Third_Party/LwIP/src/core/pbuf.c ****   return ((tail_gone > 0) ? NULL : q);
 2221              		.loc 1 925 3 discriminator 1 view .LVU706
 2222 004e 054B     		ldr	r3, .L170
 2223 0050 40F29D32 		movw	r2, #925
 2224 0054 0649     		ldr	r1, .L170+12
 2225 0056 0548     		ldr	r0, .L170+8
 2226 0058 FFF7FEFF 		bl	printf
 2227              	.LVL223:
 2228 005c EAE7     		b	.L162
ARM GAS  C:\Users\Nina\AppData\Local\Temp\ccfUDP6L.s 			page 73


 2229              	.L169:
 926:Middlewares/Third_Party/LwIP/src/core/pbuf.c **** }
 2230              		.loc 1 926 34 is_stmt 0 view .LVU707
 2231 005e 0025     		movs	r5, #0
 2232              	.LVL224:
 926:Middlewares/Third_Party/LwIP/src/core/pbuf.c **** }
 2233              		.loc 1 926 34 view .LVU708
 2234 0060 E9E7     		b	.L159
 2235              	.L171:
 2236 0062 00BF     		.align	2
 2237              	.L170:
 2238 0064 00000000 		.word	.LC0
 2239 0068 00000000 		.word	.LC24
 2240 006c 3C000000 		.word	.LC2
 2241 0070 24000000 		.word	.LC25
 2242              		.cfi_endproc
 2243              	.LFE179:
 2245              		.section	.rodata.pbuf_copy.str1.4,"aMS",%progbits,1
 2246              		.align	2
 2247              	.LC26:
 2248 0000 70627566 		.ascii	"pbuf_copy: target not big enough to hold source\000"
 2248      5F636F70 
 2248      793A2074 
 2248      61726765 
 2248      74206E6F 
 2249              		.align	2
 2250              	.LC27:
 2251 0030 6F666673 		.ascii	"offset_to <= p_to->len\000"
 2251      65745F74 
 2251      6F203C3D 
 2251      20705F74 
 2251      6F2D3E6C 
 2252 0047 00       		.align	2
 2253              	.LC28:
 2254 0048 6F666673 		.ascii	"offset_from <= p_from->len\000"
 2254      65745F66 
 2254      726F6D20 
 2254      3C3D2070 
 2254      5F66726F 
 2255 0063 00       		.align	2
 2256              	.LC29:
 2257 0064 705F746F 		.ascii	"p_to != NULL\000"
 2257      20213D20 
 2257      4E554C4C 
 2257      00
 2258 0071 000000   		.align	2
 2259              	.LC30:
 2260 0074 70627566 		.ascii	"pbuf_copy() does not allow packet queues!\000"
 2260      5F636F70 
 2260      79282920 
 2260      646F6573 
 2260      206E6F74 
 2261              		.section	.text.pbuf_copy,"ax",%progbits
 2262              		.align	1
 2263              		.global	pbuf_copy
 2264              		.syntax unified
 2265              		.thumb
ARM GAS  C:\Users\Nina\AppData\Local\Temp\ccfUDP6L.s 			page 74


 2266              		.thumb_func
 2267              		.fpu fpv5-sp-d16
 2269              	pbuf_copy:
 2270              	.LVL225:
 2271              	.LFB180:
 949:Middlewares/Third_Party/LwIP/src/core/pbuf.c ****   u16_t offset_to=0, offset_from=0, len;
 2272              		.loc 1 949 1 is_stmt 1 view -0
 2273              		.cfi_startproc
 2274              		@ args = 0, pretend = 0, frame = 0
 2275              		@ frame_needed = 0, uses_anonymous_args = 0
 949:Middlewares/Third_Party/LwIP/src/core/pbuf.c ****   u16_t offset_to=0, offset_from=0, len;
 2276              		.loc 1 949 1 is_stmt 0 view .LVU710
 2277 0000 2DE9F041 		push	{r4, r5, r6, r7, r8, lr}
 2278              	.LCFI15:
 2279              		.cfi_def_cfa_offset 24
 2280              		.cfi_offset 4, -24
 2281              		.cfi_offset 5, -20
 2282              		.cfi_offset 6, -16
 2283              		.cfi_offset 7, -12
 2284              		.cfi_offset 8, -8
 2285              		.cfi_offset 14, -4
 950:Middlewares/Third_Party/LwIP/src/core/pbuf.c **** 
 2286              		.loc 1 950 3 is_stmt 1 view .LVU711
 2287              	.LVL226:
 953:Middlewares/Third_Party/LwIP/src/core/pbuf.c **** 
 2288              		.loc 1 953 45 view .LVU712
 956:Middlewares/Third_Party/LwIP/src/core/pbuf.c ****              (p_from != NULL) && (p_to->tot_len >= p_from->tot_len)), return ERR_ARG;);
 2289              		.loc 1 956 3 view .LVU713
 956:Middlewares/Third_Party/LwIP/src/core/pbuf.c ****              (p_from != NULL) && (p_to->tot_len >= p_from->tot_len)), return ERR_ARG;);
 2290              		.loc 1 956 3 view .LVU714
 2291 0004 0D46     		mov	r5, r1
 2292 0006 B1FA81F1 		clz	r1, r1
 2293              	.LVL227:
 956:Middlewares/Third_Party/LwIP/src/core/pbuf.c ****              (p_from != NULL) && (p_to->tot_len >= p_from->tot_len)), return ERR_ARG;);
 2294              		.loc 1 956 3 is_stmt 0 view .LVU715
 2295 000a 4909     		lsrs	r1, r1, #5
 2296 000c 0028     		cmp	r0, #0
 2297 000e 08BF     		it	eq
 2298 0010 0121     		moveq	r1, #1
 2299 0012 41B9     		cbnz	r1, .L173
 2300 0014 0746     		mov	r7, r0
 956:Middlewares/Third_Party/LwIP/src/core/pbuf.c ****              (p_from != NULL) && (p_to->tot_len >= p_from->tot_len)), return ERR_ARG;);
 2301              		.loc 1 956 3 discriminator 2 view .LVU716
 2302 0016 0289     		ldrh	r2, [r0, #8]
 2303 0018 2B89     		ldrh	r3, [r5, #8]
 2304 001a 9A42     		cmp	r2, r3
 2305 001c 03D3     		bcc	.L173
 950:Middlewares/Third_Party/LwIP/src/core/pbuf.c **** 
 2306              		.loc 1 950 22 view .LVU717
 2307 001e 4FF00008 		mov	r8, #0
 950:Middlewares/Third_Party/LwIP/src/core/pbuf.c **** 
 2308              		.loc 1 950 9 view .LVU718
 2309 0022 4646     		mov	r6, r8
 2310 0024 3FE0     		b	.L174
 2311              	.L173:
 956:Middlewares/Third_Party/LwIP/src/core/pbuf.c ****              (p_from != NULL) && (p_to->tot_len >= p_from->tot_len)), return ERR_ARG;);
 2312              		.loc 1 956 3 is_stmt 1 discriminator 3 view .LVU719
ARM GAS  C:\Users\Nina\AppData\Local\Temp\ccfUDP6L.s 			page 75


 956:Middlewares/Third_Party/LwIP/src/core/pbuf.c ****              (p_from != NULL) && (p_to->tot_len >= p_from->tot_len)), return ERR_ARG;);
 2313              		.loc 1 956 3 discriminator 3 view .LVU720
 2314 0026 3F4B     		ldr	r3, .L193
 2315 0028 4FF46F72 		mov	r2, #956
 2316 002c 3E49     		ldr	r1, .L193+4
 2317 002e 3F48     		ldr	r0, .L193+8
 2318              	.LVL228:
 956:Middlewares/Third_Party/LwIP/src/core/pbuf.c ****              (p_from != NULL) && (p_to->tot_len >= p_from->tot_len)), return ERR_ARG;);
 2319              		.loc 1 956 3 is_stmt 0 discriminator 3 view .LVU721
 2320 0030 FFF7FEFF 		bl	printf
 2321              	.LVL229:
 956:Middlewares/Third_Party/LwIP/src/core/pbuf.c ****              (p_from != NULL) && (p_to->tot_len >= p_from->tot_len)), return ERR_ARG;);
 2322              		.loc 1 956 3 is_stmt 1 discriminator 3 view .LVU722
 956:Middlewares/Third_Party/LwIP/src/core/pbuf.c ****              (p_from != NULL) && (p_to->tot_len >= p_from->tot_len)), return ERR_ARG;);
 2323              		.loc 1 956 3 discriminator 3 view .LVU723
 2324 0034 6FF00F00 		mvn	r0, #15
 2325 0038 71E0     		b	.L175
 2326              	.LVL230:
 2327              	.L176:
 968:Middlewares/Third_Party/LwIP/src/core/pbuf.c ****     }
 2328              		.loc 1 968 7 view .LVU724
 968:Middlewares/Third_Party/LwIP/src/core/pbuf.c ****     }
 2329              		.loc 1 968 11 is_stmt 0 view .LVU725
 2330 003a 9B1B     		subs	r3, r3, r6
 2331 003c 9CB2     		uxth	r4, r3
 2332              	.LVL231:
 968:Middlewares/Third_Party/LwIP/src/core/pbuf.c ****     }
 2333              		.loc 1 968 11 view .LVU726
 2334 003e 3AE0     		b	.L177
 2335              	.LVL232:
 2336              	.L189:
 973:Middlewares/Third_Party/LwIP/src/core/pbuf.c ****     LWIP_ASSERT("offset_from <= p_from->len", offset_from <= p_from->len);
 2337              		.loc 1 973 5 is_stmt 1 discriminator 1 view .LVU727
 973:Middlewares/Third_Party/LwIP/src/core/pbuf.c ****     LWIP_ASSERT("offset_from <= p_from->len", offset_from <= p_from->len);
 2338              		.loc 1 973 5 discriminator 1 view .LVU728
 2339 0040 384B     		ldr	r3, .L193
 2340 0042 40F2CD32 		movw	r2, #973
 2341 0046 3A49     		ldr	r1, .L193+12
 2342 0048 3848     		ldr	r0, .L193+8
 2343 004a FFF7FEFF 		bl	printf
 2344              	.LVL233:
 2345 004e 41E0     		b	.L178
 2346              	.L190:
 974:Middlewares/Third_Party/LwIP/src/core/pbuf.c ****     if (offset_from >= p_from->len) {
 2347              		.loc 1 974 5 discriminator 1 view .LVU729
 974:Middlewares/Third_Party/LwIP/src/core/pbuf.c ****     if (offset_from >= p_from->len) {
 2348              		.loc 1 974 5 discriminator 1 view .LVU730
 2349 0050 344B     		ldr	r3, .L193
 2350 0052 40F2CE32 		movw	r2, #974
 2351 0056 3749     		ldr	r1, .L193+16
 2352 0058 3448     		ldr	r0, .L193+8
 2353 005a FFF7FEFF 		bl	printf
 2354              	.LVL234:
 2355 005e 3CE0     		b	.L179
 2356              	.L191:
 982:Middlewares/Third_Party/LwIP/src/core/pbuf.c ****       p_to = p_to->next;
 2357              		.loc 1 982 7 view .LVU731
ARM GAS  C:\Users\Nina\AppData\Local\Temp\ccfUDP6L.s 			page 76


 2358              	.LVL235:
 983:Middlewares/Third_Party/LwIP/src/core/pbuf.c ****       LWIP_ERROR("p_to != NULL", (p_to != NULL) || (p_from == NULL) , return ERR_ARG;);
 2359              		.loc 1 983 7 view .LVU732
 983:Middlewares/Third_Party/LwIP/src/core/pbuf.c ****       LWIP_ERROR("p_to != NULL", (p_to != NULL) || (p_from == NULL) , return ERR_ARG;);
 2360              		.loc 1 983 12 is_stmt 0 view .LVU733
 2361 0060 3F68     		ldr	r7, [r7]
 2362              	.LVL236:
 984:Middlewares/Third_Party/LwIP/src/core/pbuf.c ****     }
 2363              		.loc 1 984 7 is_stmt 1 view .LVU734
 984:Middlewares/Third_Party/LwIP/src/core/pbuf.c ****     }
 2364              		.loc 1 984 7 view .LVU735
 2365 0062 2B1E     		subs	r3, r5, #0
 2366 0064 18BF     		it	ne
 2367 0066 0123     		movne	r3, #1
 2368 0068 002F     		cmp	r7, #0
 2369 006a 18BF     		it	ne
 2370 006c 0023     		movne	r3, #0
 2371 006e 0BB9     		cbnz	r3, .L187
 982:Middlewares/Third_Party/LwIP/src/core/pbuf.c ****       p_to = p_to->next;
 2372              		.loc 1 982 17 is_stmt 0 view .LVU736
 2373 0070 0026     		movs	r6, #0
 2374 0072 3BE0     		b	.L181
 2375              	.L187:
 984:Middlewares/Third_Party/LwIP/src/core/pbuf.c ****     }
 2376              		.loc 1 984 7 is_stmt 1 discriminator 1 view .LVU737
 984:Middlewares/Third_Party/LwIP/src/core/pbuf.c ****     }
 2377              		.loc 1 984 7 discriminator 1 view .LVU738
 2378 0074 2B4B     		ldr	r3, .L193
 2379 0076 4FF47672 		mov	r2, #984
 2380 007a 2F49     		ldr	r1, .L193+20
 2381 007c 2B48     		ldr	r0, .L193+8
 2382 007e FFF7FEFF 		bl	printf
 2383              	.LVL237:
 984:Middlewares/Third_Party/LwIP/src/core/pbuf.c ****     }
 2384              		.loc 1 984 7 discriminator 1 view .LVU739
 984:Middlewares/Third_Party/LwIP/src/core/pbuf.c ****     }
 2385              		.loc 1 984 7 discriminator 1 view .LVU740
 2386 0082 6FF00F00 		mvn	r0, #15
 2387 0086 4AE0     		b	.L175
 2388              	.LVL238:
 2389              	.L192:
 989:Middlewares/Third_Party/LwIP/src/core/pbuf.c ****                  (p_from->next == NULL), return ERR_VAL;);
 2390              		.loc 1 989 7 view .LVU741
 989:Middlewares/Third_Party/LwIP/src/core/pbuf.c ****                  (p_from->next == NULL), return ERR_VAL;);
 2391              		.loc 1 989 7 view .LVU742
 2392 0088 2B68     		ldr	r3, [r5]
 2393 008a 002B     		cmp	r3, #0
 2394 008c 33D0     		beq	.L182
 989:Middlewares/Third_Party/LwIP/src/core/pbuf.c ****                  (p_from->next == NULL), return ERR_VAL;);
 2395              		.loc 1 989 7 discriminator 1 view .LVU743
 989:Middlewares/Third_Party/LwIP/src/core/pbuf.c ****                  (p_from->next == NULL), return ERR_VAL;);
 2396              		.loc 1 989 7 discriminator 1 view .LVU744
 2397 008e 254B     		ldr	r3, .L193
 2398 0090 40F2DD32 		movw	r2, #989
 2399 0094 2949     		ldr	r1, .L193+24
 2400 0096 2548     		ldr	r0, .L193+8
 2401 0098 FFF7FEFF 		bl	printf
ARM GAS  C:\Users\Nina\AppData\Local\Temp\ccfUDP6L.s 			page 77


 2402              	.LVL239:
 989:Middlewares/Third_Party/LwIP/src/core/pbuf.c ****                  (p_from->next == NULL), return ERR_VAL;);
 2403              		.loc 1 989 7 discriminator 1 view .LVU745
 989:Middlewares/Third_Party/LwIP/src/core/pbuf.c ****                  (p_from->next == NULL), return ERR_VAL;);
 2404              		.loc 1 989 7 discriminator 1 view .LVU746
 2405 009c 6FF00500 		mvn	r0, #5
 2406 00a0 3DE0     		b	.L175
 2407              	.L183:
 994:Middlewares/Third_Party/LwIP/src/core/pbuf.c ****                   (p_to->next == NULL), return ERR_VAL;);
 2408              		.loc 1 994 7 discriminator 2 view .LVU747
 994:Middlewares/Third_Party/LwIP/src/core/pbuf.c ****                   (p_to->next == NULL), return ERR_VAL;);
 2409              		.loc 1 994 7 discriminator 2 view .LVU748
 997:Middlewares/Third_Party/LwIP/src/core/pbuf.c ****   LWIP_DEBUGF(PBUF_DEBUG | LWIP_DBG_TRACE, ("pbuf_copy: end of chain reached.\n"));
 2410              		.loc 1 997 11 discriminator 2 view .LVU749
 997:Middlewares/Third_Party/LwIP/src/core/pbuf.c ****   LWIP_DEBUGF(PBUF_DEBUG | LWIP_DBG_TRACE, ("pbuf_copy: end of chain reached.\n"));
 2411              		.loc 1 997 3 is_stmt 0 discriminator 2 view .LVU750
 2412 00a2 002D     		cmp	r5, #0
 2413 00a4 3AD0     		beq	.L188
 2414              	.LVL240:
 2415              	.L174:
 956:Middlewares/Third_Party/LwIP/src/core/pbuf.c ****              (p_from != NULL) && (p_to->tot_len >= p_from->tot_len)), return ERR_ARG;);
 2416              		.loc 1 956 3 is_stmt 1 discriminator 4 view .LVU751
 956:Middlewares/Third_Party/LwIP/src/core/pbuf.c ****              (p_from != NULL) && (p_to->tot_len >= p_from->tot_len)), return ERR_ARG;);
 2417              		.loc 1 956 3 discriminator 4 view .LVU752
 960:Middlewares/Third_Party/LwIP/src/core/pbuf.c ****   {
 2418              		.loc 1 960 3 discriminator 4 view .LVU753
 963:Middlewares/Third_Party/LwIP/src/core/pbuf.c ****       /* complete current p_from fits into current p_to */
 2419              		.loc 1 963 5 discriminator 4 view .LVU754
 963:Middlewares/Third_Party/LwIP/src/core/pbuf.c ****       /* complete current p_from fits into current p_to */
 2420              		.loc 1 963 14 is_stmt 0 discriminator 4 view .LVU755
 2421 00a6 7B89     		ldrh	r3, [r7, #10]
 963:Middlewares/Third_Party/LwIP/src/core/pbuf.c ****       /* complete current p_from fits into current p_to */
 2422              		.loc 1 963 20 discriminator 4 view .LVU756
 2423 00a8 991B     		subs	r1, r3, r6
 963:Middlewares/Third_Party/LwIP/src/core/pbuf.c ****       /* complete current p_from fits into current p_to */
 2424              		.loc 1 963 43 discriminator 4 view .LVU757
 2425 00aa 6C89     		ldrh	r4, [r5, #10]
 963:Middlewares/Third_Party/LwIP/src/core/pbuf.c ****       /* complete current p_from fits into current p_to */
 2426              		.loc 1 963 49 discriminator 4 view .LVU758
 2427 00ac A4EB0802 		sub	r2, r4, r8
 963:Middlewares/Third_Party/LwIP/src/core/pbuf.c ****       /* complete current p_from fits into current p_to */
 2428              		.loc 1 963 8 discriminator 4 view .LVU759
 2429 00b0 9142     		cmp	r1, r2
 2430 00b2 C2DB     		blt	.L176
 965:Middlewares/Third_Party/LwIP/src/core/pbuf.c ****     } else {
 2431              		.loc 1 965 7 is_stmt 1 view .LVU760
 965:Middlewares/Third_Party/LwIP/src/core/pbuf.c ****     } else {
 2432              		.loc 1 965 11 is_stmt 0 view .LVU761
 2433 00b4 94B2     		uxth	r4, r2
 2434              	.LVL241:
 2435              	.L177:
 970:Middlewares/Third_Party/LwIP/src/core/pbuf.c ****     offset_to += len;
 2436              		.loc 1 970 5 is_stmt 1 view .LVU762
 2437 00b6 7868     		ldr	r0, [r7, #4]
 2438 00b8 6968     		ldr	r1, [r5, #4]
 2439 00ba 2246     		mov	r2, r4
 2440 00bc 4144     		add	r1, r1, r8
ARM GAS  C:\Users\Nina\AppData\Local\Temp\ccfUDP6L.s 			page 78


 2441 00be 3044     		add	r0, r0, r6
 2442 00c0 FFF7FEFF 		bl	memcpy
 2443              	.LVL242:
 971:Middlewares/Third_Party/LwIP/src/core/pbuf.c ****     offset_from += len;
 2444              		.loc 1 971 5 view .LVU763
 971:Middlewares/Third_Party/LwIP/src/core/pbuf.c ****     offset_from += len;
 2445              		.loc 1 971 15 is_stmt 0 view .LVU764
 2446 00c4 2644     		add	r6, r6, r4
 2447              	.LVL243:
 971:Middlewares/Third_Party/LwIP/src/core/pbuf.c ****     offset_from += len;
 2448              		.loc 1 971 15 view .LVU765
 2449 00c6 B6B2     		uxth	r6, r6
 2450              	.LVL244:
 972:Middlewares/Third_Party/LwIP/src/core/pbuf.c ****     LWIP_ASSERT("offset_to <= p_to->len", offset_to <= p_to->len);
 2451              		.loc 1 972 5 is_stmt 1 view .LVU766
 972:Middlewares/Third_Party/LwIP/src/core/pbuf.c ****     LWIP_ASSERT("offset_to <= p_to->len", offset_to <= p_to->len);
 2452              		.loc 1 972 17 is_stmt 0 view .LVU767
 2453 00c8 4444     		add	r4, r4, r8
 2454              	.LVL245:
 972:Middlewares/Third_Party/LwIP/src/core/pbuf.c ****     LWIP_ASSERT("offset_to <= p_to->len", offset_to <= p_to->len);
 2455              		.loc 1 972 17 view .LVU768
 2456 00ca 1FFA84F8 		uxth	r8, r4
 2457              	.LVL246:
 973:Middlewares/Third_Party/LwIP/src/core/pbuf.c ****     LWIP_ASSERT("offset_from <= p_from->len", offset_from <= p_from->len);
 2458              		.loc 1 973 5 is_stmt 1 view .LVU769
 973:Middlewares/Third_Party/LwIP/src/core/pbuf.c ****     LWIP_ASSERT("offset_from <= p_from->len", offset_from <= p_from->len);
 2459              		.loc 1 973 5 view .LVU770
 2460 00ce 7B89     		ldrh	r3, [r7, #10]
 2461 00d0 B342     		cmp	r3, r6
 2462 00d2 B5D3     		bcc	.L189
 2463              	.L178:
 973:Middlewares/Third_Party/LwIP/src/core/pbuf.c ****     LWIP_ASSERT("offset_from <= p_from->len", offset_from <= p_from->len);
 2464              		.loc 1 973 5 discriminator 3 view .LVU771
 973:Middlewares/Third_Party/LwIP/src/core/pbuf.c ****     LWIP_ASSERT("offset_from <= p_from->len", offset_from <= p_from->len);
 2465              		.loc 1 973 5 discriminator 3 view .LVU772
 974:Middlewares/Third_Party/LwIP/src/core/pbuf.c ****     if (offset_from >= p_from->len) {
 2466              		.loc 1 974 5 discriminator 3 view .LVU773
 974:Middlewares/Third_Party/LwIP/src/core/pbuf.c ****     if (offset_from >= p_from->len) {
 2467              		.loc 1 974 5 discriminator 3 view .LVU774
 2468 00d4 6B89     		ldrh	r3, [r5, #10]
 2469 00d6 4345     		cmp	r3, r8
 2470 00d8 BAD3     		bcc	.L190
 2471              	.L179:
 974:Middlewares/Third_Party/LwIP/src/core/pbuf.c ****     if (offset_from >= p_from->len) {
 2472              		.loc 1 974 5 discriminator 3 view .LVU775
 974:Middlewares/Third_Party/LwIP/src/core/pbuf.c ****     if (offset_from >= p_from->len) {
 2473              		.loc 1 974 5 discriminator 3 view .LVU776
 975:Middlewares/Third_Party/LwIP/src/core/pbuf.c ****       /* on to next p_from (if any) */
 2474              		.loc 1 975 5 discriminator 3 view .LVU777
 975:Middlewares/Third_Party/LwIP/src/core/pbuf.c ****       /* on to next p_from (if any) */
 2475              		.loc 1 975 30 is_stmt 0 discriminator 3 view .LVU778
 2476 00da 6B89     		ldrh	r3, [r5, #10]
 975:Middlewares/Third_Party/LwIP/src/core/pbuf.c ****       /* on to next p_from (if any) */
 2477              		.loc 1 975 8 discriminator 3 view .LVU779
 2478 00dc 4345     		cmp	r3, r8
 2479 00de 02D8     		bhi	.L180
 977:Middlewares/Third_Party/LwIP/src/core/pbuf.c ****       p_from = p_from->next;
ARM GAS  C:\Users\Nina\AppData\Local\Temp\ccfUDP6L.s 			page 79


 2480              		.loc 1 977 7 is_stmt 1 view .LVU780
 2481              	.LVL247:
 978:Middlewares/Third_Party/LwIP/src/core/pbuf.c ****     }
 2482              		.loc 1 978 7 view .LVU781
 978:Middlewares/Third_Party/LwIP/src/core/pbuf.c ****     }
 2483              		.loc 1 978 14 is_stmt 0 view .LVU782
 2484 00e0 2D68     		ldr	r5, [r5]
 2485              	.LVL248:
 977:Middlewares/Third_Party/LwIP/src/core/pbuf.c ****       p_from = p_from->next;
 2486              		.loc 1 977 19 view .LVU783
 2487 00e2 4FF00008 		mov	r8, #0
 2488              	.LVL249:
 2489              	.L180:
 980:Middlewares/Third_Party/LwIP/src/core/pbuf.c ****       /* on to next p_to (if any) */
 2490              		.loc 1 980 5 is_stmt 1 view .LVU784
 980:Middlewares/Third_Party/LwIP/src/core/pbuf.c ****       /* on to next p_to (if any) */
 2491              		.loc 1 980 26 is_stmt 0 view .LVU785
 2492 00e6 7B89     		ldrh	r3, [r7, #10]
 980:Middlewares/Third_Party/LwIP/src/core/pbuf.c ****       /* on to next p_to (if any) */
 2493              		.loc 1 980 8 view .LVU786
 2494 00e8 B342     		cmp	r3, r6
 2495 00ea B9D0     		beq	.L191
 2496              	.LVL250:
 2497              	.L181:
 984:Middlewares/Third_Party/LwIP/src/core/pbuf.c ****     }
 2498              		.loc 1 984 7 is_stmt 1 discriminator 2 view .LVU787
 984:Middlewares/Third_Party/LwIP/src/core/pbuf.c ****     }
 2499              		.loc 1 984 7 discriminator 2 view .LVU788
 987:Middlewares/Third_Party/LwIP/src/core/pbuf.c ****       /* don't copy more than one packet! */
 2500              		.loc 1 987 5 discriminator 2 view .LVU789
 987:Middlewares/Third_Party/LwIP/src/core/pbuf.c ****       /* don't copy more than one packet! */
 2501              		.loc 1 987 8 is_stmt 0 discriminator 2 view .LVU790
 2502 00ec 1DB1     		cbz	r5, .L182
 987:Middlewares/Third_Party/LwIP/src/core/pbuf.c ****       /* don't copy more than one packet! */
 2503              		.loc 1 987 36 discriminator 1 view .LVU791
 2504 00ee 6A89     		ldrh	r2, [r5, #10]
 987:Middlewares/Third_Party/LwIP/src/core/pbuf.c ****       /* don't copy more than one packet! */
 2505              		.loc 1 987 51 discriminator 1 view .LVU792
 2506 00f0 2B89     		ldrh	r3, [r5, #8]
 987:Middlewares/Third_Party/LwIP/src/core/pbuf.c ****       /* don't copy more than one packet! */
 2507              		.loc 1 987 26 discriminator 1 view .LVU793
 2508 00f2 9A42     		cmp	r2, r3
 2509 00f4 C8D0     		beq	.L192
 2510              	.L182:
 989:Middlewares/Third_Party/LwIP/src/core/pbuf.c ****                  (p_from->next == NULL), return ERR_VAL;);
 2511              		.loc 1 989 7 is_stmt 1 discriminator 2 view .LVU794
 989:Middlewares/Third_Party/LwIP/src/core/pbuf.c ****                  (p_from->next == NULL), return ERR_VAL;);
 2512              		.loc 1 989 7 discriminator 2 view .LVU795
 992:Middlewares/Third_Party/LwIP/src/core/pbuf.c ****       /* don't copy more than one packet! */
 2513              		.loc 1 992 5 discriminator 2 view .LVU796
 992:Middlewares/Third_Party/LwIP/src/core/pbuf.c ****       /* don't copy more than one packet! */
 2514              		.loc 1 992 8 is_stmt 0 discriminator 2 view .LVU797
 2515 00f6 002F     		cmp	r7, #0
 2516 00f8 D3D0     		beq	.L183
 992:Middlewares/Third_Party/LwIP/src/core/pbuf.c ****       /* don't copy more than one packet! */
 2517              		.loc 1 992 32 discriminator 1 view .LVU798
 2518 00fa 7A89     		ldrh	r2, [r7, #10]
ARM GAS  C:\Users\Nina\AppData\Local\Temp\ccfUDP6L.s 			page 80


 992:Middlewares/Third_Party/LwIP/src/core/pbuf.c ****       /* don't copy more than one packet! */
 2519              		.loc 1 992 45 discriminator 1 view .LVU799
 2520 00fc 3B89     		ldrh	r3, [r7, #8]
 992:Middlewares/Third_Party/LwIP/src/core/pbuf.c ****       /* don't copy more than one packet! */
 2521              		.loc 1 992 24 discriminator 1 view .LVU800
 2522 00fe 9A42     		cmp	r2, r3
 2523 0100 CFD1     		bne	.L183
 994:Middlewares/Third_Party/LwIP/src/core/pbuf.c ****                   (p_to->next == NULL), return ERR_VAL;);
 2524              		.loc 1 994 7 is_stmt 1 view .LVU801
 994:Middlewares/Third_Party/LwIP/src/core/pbuf.c ****                   (p_to->next == NULL), return ERR_VAL;);
 2525              		.loc 1 994 7 view .LVU802
 2526 0102 3B68     		ldr	r3, [r7]
 2527 0104 002B     		cmp	r3, #0
 2528 0106 CCD0     		beq	.L183
 994:Middlewares/Third_Party/LwIP/src/core/pbuf.c ****                   (p_to->next == NULL), return ERR_VAL;);
 2529              		.loc 1 994 7 discriminator 1 view .LVU803
 994:Middlewares/Third_Party/LwIP/src/core/pbuf.c ****                   (p_to->next == NULL), return ERR_VAL;);
 2530              		.loc 1 994 7 discriminator 1 view .LVU804
 2531 0108 064B     		ldr	r3, .L193
 2532 010a 40F2E232 		movw	r2, #994
 2533 010e 0B49     		ldr	r1, .L193+24
 2534 0110 0648     		ldr	r0, .L193+8
 2535 0112 FFF7FEFF 		bl	printf
 2536              	.LVL251:
 994:Middlewares/Third_Party/LwIP/src/core/pbuf.c ****                   (p_to->next == NULL), return ERR_VAL;);
 2537              		.loc 1 994 7 discriminator 1 view .LVU805
 994:Middlewares/Third_Party/LwIP/src/core/pbuf.c ****                   (p_to->next == NULL), return ERR_VAL;);
 2538              		.loc 1 994 7 discriminator 1 view .LVU806
 2539 0116 6FF00500 		mvn	r0, #5
 2540 011a 00E0     		b	.L175
 2541              	.L188:
 999:Middlewares/Third_Party/LwIP/src/core/pbuf.c **** }
 2542              		.loc 1 999 10 is_stmt 0 view .LVU807
 2543 011c 0020     		movs	r0, #0
 2544              	.LVL252:
 2545              	.L175:
1000:Middlewares/Third_Party/LwIP/src/core/pbuf.c **** 
 2546              		.loc 1 1000 1 view .LVU808
 2547 011e BDE8F081 		pop	{r4, r5, r6, r7, r8, pc}
 2548              	.LVL253:
 2549              	.L194:
1000:Middlewares/Third_Party/LwIP/src/core/pbuf.c **** 
 2550              		.loc 1 1000 1 view .LVU809
 2551 0122 00BF     		.align	2
 2552              	.L193:
 2553 0124 00000000 		.word	.LC0
 2554 0128 00000000 		.word	.LC26
 2555 012c 3C000000 		.word	.LC2
 2556 0130 30000000 		.word	.LC27
 2557 0134 48000000 		.word	.LC28
 2558 0138 64000000 		.word	.LC29
 2559 013c 74000000 		.word	.LC30
 2560              		.cfi_endproc
 2561              	.LFE180:
 2563              		.section	.rodata.pbuf_copy_partial.str1.4,"aMS",%progbits,1
 2564              		.align	2
 2565              	.LC31:
ARM GAS  C:\Users\Nina\AppData\Local\Temp\ccfUDP6L.s 			page 81


 2566 0000 70627566 		.ascii	"pbuf_copy_partial: invalid buf\000"
 2566      5F636F70 
 2566      795F7061 
 2566      72746961 
 2566      6C3A2069 
 2567 001f 00       		.align	2
 2568              	.LC32:
 2569 0020 70627566 		.ascii	"pbuf_copy_partial: invalid dataptr\000"
 2569      5F636F70 
 2569      795F7061 
 2569      72746961 
 2569      6C3A2069 
 2570              		.section	.text.pbuf_copy_partial,"ax",%progbits
 2571              		.align	1
 2572              		.global	pbuf_copy_partial
 2573              		.syntax unified
 2574              		.thumb
 2575              		.thumb_func
 2576              		.fpu fpv5-sp-d16
 2578              	pbuf_copy_partial:
 2579              	.LVL254:
 2580              	.LFB181:
1016:Middlewares/Third_Party/LwIP/src/core/pbuf.c ****   const struct pbuf *p;
 2581              		.loc 1 1016 1 is_stmt 1 view -0
 2582              		.cfi_startproc
 2583              		@ args = 0, pretend = 0, frame = 0
 2584              		@ frame_needed = 0, uses_anonymous_args = 0
1016:Middlewares/Third_Party/LwIP/src/core/pbuf.c ****   const struct pbuf *p;
 2585              		.loc 1 1016 1 is_stmt 0 view .LVU811
 2586 0000 2DE9F843 		push	{r3, r4, r5, r6, r7, r8, r9, lr}
 2587              	.LCFI16:
 2588              		.cfi_def_cfa_offset 32
 2589              		.cfi_offset 3, -32
 2590              		.cfi_offset 4, -28
 2591              		.cfi_offset 5, -24
 2592              		.cfi_offset 6, -20
 2593              		.cfi_offset 7, -16
 2594              		.cfi_offset 8, -12
 2595              		.cfi_offset 9, -8
 2596              		.cfi_offset 14, -4
1017:Middlewares/Third_Party/LwIP/src/core/pbuf.c ****   u16_t left;
 2597              		.loc 1 1017 3 is_stmt 1 view .LVU812
1018:Middlewares/Third_Party/LwIP/src/core/pbuf.c ****   u16_t buf_copy_len;
 2598              		.loc 1 1018 3 view .LVU813
1019:Middlewares/Third_Party/LwIP/src/core/pbuf.c ****   u16_t copied_total = 0;
 2599              		.loc 1 1019 3 view .LVU814
1020:Middlewares/Third_Party/LwIP/src/core/pbuf.c **** 
 2600              		.loc 1 1020 3 view .LVU815
 2601              	.LVL255:
1022:Middlewares/Third_Party/LwIP/src/core/pbuf.c ****   LWIP_ERROR("pbuf_copy_partial: invalid dataptr", (dataptr != NULL), return 0;);
 2602              		.loc 1 1022 3 view .LVU816
1022:Middlewares/Third_Party/LwIP/src/core/pbuf.c ****   LWIP_ERROR("pbuf_copy_partial: invalid dataptr", (dataptr != NULL), return 0;);
 2603              		.loc 1 1022 3 view .LVU817
 2604 0004 30B1     		cbz	r0, .L206
 2605 0006 8846     		mov	r8, r1
 2606 0008 9146     		mov	r9, r2
 2607 000a 0546     		mov	r5, r0
ARM GAS  C:\Users\Nina\AppData\Local\Temp\ccfUDP6L.s 			page 82


1022:Middlewares/Third_Party/LwIP/src/core/pbuf.c ****   LWIP_ERROR("pbuf_copy_partial: invalid dataptr", (dataptr != NULL), return 0;);
 2608              		.loc 1 1022 3 discriminator 2 view .LVU818
1022:Middlewares/Third_Party/LwIP/src/core/pbuf.c ****   LWIP_ERROR("pbuf_copy_partial: invalid dataptr", (dataptr != NULL), return 0;);
 2609              		.loc 1 1022 3 discriminator 2 view .LVU819
1023:Middlewares/Third_Party/LwIP/src/core/pbuf.c **** 
 2610              		.loc 1 1023 3 discriminator 2 view .LVU820
1023:Middlewares/Third_Party/LwIP/src/core/pbuf.c **** 
 2611              		.loc 1 1023 3 discriminator 2 view .LVU821
 2612 000c 69B1     		cbz	r1, .L207
1020:Middlewares/Third_Party/LwIP/src/core/pbuf.c **** 
 2613              		.loc 1 1020 9 is_stmt 0 view .LVU822
 2614 000e 0027     		movs	r7, #0
1025:Middlewares/Third_Party/LwIP/src/core/pbuf.c **** 
 2615              		.loc 1 1025 8 view .LVU823
 2616 0010 3E46     		mov	r6, r7
 2617 0012 2AE0     		b	.L198
 2618              	.L206:
1022:Middlewares/Third_Party/LwIP/src/core/pbuf.c ****   LWIP_ERROR("pbuf_copy_partial: invalid dataptr", (dataptr != NULL), return 0;);
 2619              		.loc 1 1022 3 is_stmt 1 discriminator 1 view .LVU824
1022:Middlewares/Third_Party/LwIP/src/core/pbuf.c ****   LWIP_ERROR("pbuf_copy_partial: invalid dataptr", (dataptr != NULL), return 0;);
 2620              		.loc 1 1022 3 discriminator 1 view .LVU825
 2621 0014 1D4B     		ldr	r3, .L208
 2622              	.LVL256:
1022:Middlewares/Third_Party/LwIP/src/core/pbuf.c ****   LWIP_ERROR("pbuf_copy_partial: invalid dataptr", (dataptr != NULL), return 0;);
 2623              		.loc 1 1022 3 is_stmt 0 discriminator 1 view .LVU826
 2624 0016 40F2FE32 		movw	r2, #1022
 2625              	.LVL257:
1022:Middlewares/Third_Party/LwIP/src/core/pbuf.c ****   LWIP_ERROR("pbuf_copy_partial: invalid dataptr", (dataptr != NULL), return 0;);
 2626              		.loc 1 1022 3 discriminator 1 view .LVU827
 2627 001a 1D49     		ldr	r1, .L208+4
 2628              	.LVL258:
1022:Middlewares/Third_Party/LwIP/src/core/pbuf.c ****   LWIP_ERROR("pbuf_copy_partial: invalid dataptr", (dataptr != NULL), return 0;);
 2629              		.loc 1 1022 3 discriminator 1 view .LVU828
 2630 001c 1D48     		ldr	r0, .L208+8
 2631              	.LVL259:
1022:Middlewares/Third_Party/LwIP/src/core/pbuf.c ****   LWIP_ERROR("pbuf_copy_partial: invalid dataptr", (dataptr != NULL), return 0;);
 2632              		.loc 1 1022 3 discriminator 1 view .LVU829
 2633 001e FFF7FEFF 		bl	printf
 2634              	.LVL260:
1022:Middlewares/Third_Party/LwIP/src/core/pbuf.c ****   LWIP_ERROR("pbuf_copy_partial: invalid dataptr", (dataptr != NULL), return 0;);
 2635              		.loc 1 1022 3 is_stmt 1 discriminator 1 view .LVU830
1022:Middlewares/Third_Party/LwIP/src/core/pbuf.c ****   LWIP_ERROR("pbuf_copy_partial: invalid dataptr", (dataptr != NULL), return 0;);
 2636              		.loc 1 1022 3 discriminator 1 view .LVU831
 2637 0022 0027     		movs	r7, #0
 2638              	.LVL261:
 2639              	.L197:
1051:Middlewares/Third_Party/LwIP/src/core/pbuf.c **** 
 2640              		.loc 1 1051 1 is_stmt 0 view .LVU832
 2641 0024 3846     		mov	r0, r7
 2642 0026 BDE8F883 		pop	{r3, r4, r5, r6, r7, r8, r9, pc}
 2643              	.LVL262:
 2644              	.L207:
1023:Middlewares/Third_Party/LwIP/src/core/pbuf.c **** 
 2645              		.loc 1 1023 3 is_stmt 1 discriminator 1 view .LVU833
1023:Middlewares/Third_Party/LwIP/src/core/pbuf.c **** 
 2646              		.loc 1 1023 3 discriminator 1 view .LVU834
 2647 002a 184B     		ldr	r3, .L208
ARM GAS  C:\Users\Nina\AppData\Local\Temp\ccfUDP6L.s 			page 83


 2648              	.LVL263:
1023:Middlewares/Third_Party/LwIP/src/core/pbuf.c **** 
 2649              		.loc 1 1023 3 is_stmt 0 discriminator 1 view .LVU835
 2650 002c 40F2FF32 		movw	r2, #1023
 2651              	.LVL264:
1023:Middlewares/Third_Party/LwIP/src/core/pbuf.c **** 
 2652              		.loc 1 1023 3 discriminator 1 view .LVU836
 2653 0030 1949     		ldr	r1, .L208+12
 2654              	.LVL265:
1023:Middlewares/Third_Party/LwIP/src/core/pbuf.c **** 
 2655              		.loc 1 1023 3 discriminator 1 view .LVU837
 2656 0032 1848     		ldr	r0, .L208+8
 2657              	.LVL266:
1023:Middlewares/Third_Party/LwIP/src/core/pbuf.c **** 
 2658              		.loc 1 1023 3 discriminator 1 view .LVU838
 2659 0034 FFF7FEFF 		bl	printf
 2660              	.LVL267:
1023:Middlewares/Third_Party/LwIP/src/core/pbuf.c **** 
 2661              		.loc 1 1023 3 is_stmt 1 discriminator 1 view .LVU839
1023:Middlewares/Third_Party/LwIP/src/core/pbuf.c **** 
 2662              		.loc 1 1023 3 discriminator 1 view .LVU840
 2663 0038 0027     		movs	r7, #0
 2664 003a F3E7     		b	.L197
 2665              	.LVL268:
 2666              	.L199:
1038:Middlewares/Third_Party/LwIP/src/core/pbuf.c ****       if (buf_copy_len > len) {
 2667              		.loc 1 1038 7 view .LVU841
1038:Middlewares/Third_Party/LwIP/src/core/pbuf.c ****       if (buf_copy_len > len) {
 2668              		.loc 1 1038 23 is_stmt 0 view .LVU842
 2669 003c 6C89     		ldrh	r4, [r5, #10]
1038:Middlewares/Third_Party/LwIP/src/core/pbuf.c ****       if (buf_copy_len > len) {
 2670              		.loc 1 1038 20 view .LVU843
 2671 003e E41A     		subs	r4, r4, r3
 2672 0040 A4B2     		uxth	r4, r4
 2673              	.LVL269:
1039:Middlewares/Third_Party/LwIP/src/core/pbuf.c ****         buf_copy_len = len;
 2674              		.loc 1 1039 7 is_stmt 1 view .LVU844
1039:Middlewares/Third_Party/LwIP/src/core/pbuf.c ****         buf_copy_len = len;
 2675              		.loc 1 1039 10 is_stmt 0 view .LVU845
 2676 0042 A145     		cmp	r9, r4
 2677 0044 00D2     		bcs	.L201
1040:Middlewares/Third_Party/LwIP/src/core/pbuf.c ****       }
 2678              		.loc 1 1040 22 view .LVU846
 2679 0046 4C46     		mov	r4, r9
 2680              	.LVL270:
 2681              	.L201:
1043:Middlewares/Third_Party/LwIP/src/core/pbuf.c ****       copied_total += buf_copy_len;
 2682              		.loc 1 1043 7 is_stmt 1 view .LVU847
 2683 0048 6968     		ldr	r1, [r5, #4]
 2684 004a 2246     		mov	r2, r4
 2685 004c 1944     		add	r1, r1, r3
 2686 004e 08EB0600 		add	r0, r8, r6
 2687 0052 FFF7FEFF 		bl	memcpy
 2688              	.LVL271:
1044:Middlewares/Third_Party/LwIP/src/core/pbuf.c ****       left += buf_copy_len;
 2689              		.loc 1 1044 7 view .LVU848
1044:Middlewares/Third_Party/LwIP/src/core/pbuf.c ****       left += buf_copy_len;
ARM GAS  C:\Users\Nina\AppData\Local\Temp\ccfUDP6L.s 			page 84


 2690              		.loc 1 1044 20 is_stmt 0 view .LVU849
 2691 0056 2744     		add	r7, r7, r4
 2692              	.LVL272:
1044:Middlewares/Third_Party/LwIP/src/core/pbuf.c ****       left += buf_copy_len;
 2693              		.loc 1 1044 20 view .LVU850
 2694 0058 BFB2     		uxth	r7, r7
 2695              	.LVL273:
1045:Middlewares/Third_Party/LwIP/src/core/pbuf.c ****       len -= buf_copy_len;
 2696              		.loc 1 1045 7 is_stmt 1 view .LVU851
1045:Middlewares/Third_Party/LwIP/src/core/pbuf.c ****       len -= buf_copy_len;
 2697              		.loc 1 1045 12 is_stmt 0 view .LVU852
 2698 005a 2644     		add	r6, r6, r4
 2699              	.LVL274:
1045:Middlewares/Third_Party/LwIP/src/core/pbuf.c ****       len -= buf_copy_len;
 2700              		.loc 1 1045 12 view .LVU853
 2701 005c B6B2     		uxth	r6, r6
 2702              	.LVL275:
1046:Middlewares/Third_Party/LwIP/src/core/pbuf.c ****       offset = 0;
 2703              		.loc 1 1046 7 is_stmt 1 view .LVU854
1046:Middlewares/Third_Party/LwIP/src/core/pbuf.c ****       offset = 0;
 2704              		.loc 1 1046 11 is_stmt 0 view .LVU855
 2705 005e A9EB0404 		sub	r4, r9, r4
 2706              	.LVL276:
1046:Middlewares/Third_Party/LwIP/src/core/pbuf.c ****       offset = 0;
 2707              		.loc 1 1046 11 view .LVU856
 2708 0062 1FFA84F9 		uxth	r9, r4
 2709              	.LVL277:
1047:Middlewares/Third_Party/LwIP/src/core/pbuf.c ****     }
 2710              		.loc 1 1047 7 is_stmt 1 view .LVU857
1047:Middlewares/Third_Party/LwIP/src/core/pbuf.c ****     }
 2711              		.loc 1 1047 14 is_stmt 0 view .LVU858
 2712 0066 0023     		movs	r3, #0
 2713              	.LVL278:
 2714              	.L200:
1032:Middlewares/Third_Party/LwIP/src/core/pbuf.c ****     if ((offset != 0) && (offset >= p->len)) {
 2715              		.loc 1 1032 40 is_stmt 1 discriminator 2 view .LVU859
1032:Middlewares/Third_Party/LwIP/src/core/pbuf.c ****     if ((offset != 0) && (offset >= p->len)) {
 2716              		.loc 1 1032 42 is_stmt 0 discriminator 2 view .LVU860
 2717 0068 2D68     		ldr	r5, [r5]
 2718              	.LVL279:
 2719              	.L198:
1032:Middlewares/Third_Party/LwIP/src/core/pbuf.c ****     if ((offset != 0) && (offset >= p->len)) {
 2720              		.loc 1 1032 17 is_stmt 1 discriminator 1 view .LVU861
1032:Middlewares/Third_Party/LwIP/src/core/pbuf.c ****     if ((offset != 0) && (offset >= p->len)) {
 2721              		.loc 1 1032 31 is_stmt 0 discriminator 1 view .LVU862
 2722 006a 281E     		subs	r0, r5, #0
 2723 006c 18BF     		it	ne
 2724 006e 0120     		movne	r0, #1
1032:Middlewares/Third_Party/LwIP/src/core/pbuf.c ****     if ((offset != 0) && (offset >= p->len)) {
 2725              		.loc 1 1032 26 discriminator 1 view .LVU863
 2726 0070 B9F1000F 		cmp	r9, #0
 2727 0074 08BF     		it	eq
 2728 0076 0020     		moveq	r0, #0
1032:Middlewares/Third_Party/LwIP/src/core/pbuf.c ****     if ((offset != 0) && (offset >= p->len)) {
 2729              		.loc 1 1032 3 discriminator 1 view .LVU864
 2730 0078 0028     		cmp	r0, #0
 2731 007a D3D0     		beq	.L197
ARM GAS  C:\Users\Nina\AppData\Local\Temp\ccfUDP6L.s 			page 85


1033:Middlewares/Third_Party/LwIP/src/core/pbuf.c ****       /* don't copy from this buffer -> on to the next */
 2732              		.loc 1 1033 5 is_stmt 1 view .LVU865
1033:Middlewares/Third_Party/LwIP/src/core/pbuf.c ****       /* don't copy from this buffer -> on to the next */
 2733              		.loc 1 1033 8 is_stmt 0 view .LVU866
 2734 007c 002B     		cmp	r3, #0
 2735 007e DDD0     		beq	.L199
1033:Middlewares/Third_Party/LwIP/src/core/pbuf.c ****       /* don't copy from this buffer -> on to the next */
 2736              		.loc 1 1033 38 discriminator 1 view .LVU867
 2737 0080 6989     		ldrh	r1, [r5, #10]
1033:Middlewares/Third_Party/LwIP/src/core/pbuf.c ****       /* don't copy from this buffer -> on to the next */
 2738              		.loc 1 1033 23 discriminator 1 view .LVU868
 2739 0082 9942     		cmp	r1, r3
 2740 0084 DAD8     		bhi	.L199
1035:Middlewares/Third_Party/LwIP/src/core/pbuf.c ****     } else {
 2741              		.loc 1 1035 7 is_stmt 1 view .LVU869
1035:Middlewares/Third_Party/LwIP/src/core/pbuf.c ****     } else {
 2742              		.loc 1 1035 14 is_stmt 0 view .LVU870
 2743 0086 5B1A     		subs	r3, r3, r1
 2744              	.LVL280:
1035:Middlewares/Third_Party/LwIP/src/core/pbuf.c ****     } else {
 2745              		.loc 1 1035 14 view .LVU871
 2746 0088 9BB2     		uxth	r3, r3
 2747              	.LVL281:
1035:Middlewares/Third_Party/LwIP/src/core/pbuf.c ****     } else {
 2748              		.loc 1 1035 14 view .LVU872
 2749 008a EDE7     		b	.L200
 2750              	.L209:
 2751              		.align	2
 2752              	.L208:
 2753 008c 00000000 		.word	.LC0
 2754 0090 00000000 		.word	.LC31
 2755 0094 3C000000 		.word	.LC2
 2756 0098 20000000 		.word	.LC32
 2757              		.cfi_endproc
 2758              	.LFE181:
 2760              		.section	.text.pbuf_skip,"ax",%progbits
 2761              		.align	1
 2762              		.global	pbuf_skip
 2763              		.syntax unified
 2764              		.thumb
 2765              		.thumb_func
 2766              		.fpu fpv5-sp-d16
 2768              	pbuf_skip:
 2769              	.LVL282:
 2770              	.LFB183:
1120:Middlewares/Third_Party/LwIP/src/core/pbuf.c **** 
1121:Middlewares/Third_Party/LwIP/src/core/pbuf.c **** /**
1122:Middlewares/Third_Party/LwIP/src/core/pbuf.c ****  * @ingroup pbuf
1123:Middlewares/Third_Party/LwIP/src/core/pbuf.c ****  * Skip a number of bytes at the start of a pbuf
1124:Middlewares/Third_Party/LwIP/src/core/pbuf.c ****  *
1125:Middlewares/Third_Party/LwIP/src/core/pbuf.c ****  * @param in input pbuf
1126:Middlewares/Third_Party/LwIP/src/core/pbuf.c ****  * @param in_offset offset to skip
1127:Middlewares/Third_Party/LwIP/src/core/pbuf.c ****  * @param out_offset resulting offset in the returned pbuf
1128:Middlewares/Third_Party/LwIP/src/core/pbuf.c ****  * @return the pbuf in the queue where the offset is
1129:Middlewares/Third_Party/LwIP/src/core/pbuf.c ****  */
1130:Middlewares/Third_Party/LwIP/src/core/pbuf.c **** struct pbuf*
1131:Middlewares/Third_Party/LwIP/src/core/pbuf.c **** pbuf_skip(struct pbuf* in, u16_t in_offset, u16_t* out_offset)
ARM GAS  C:\Users\Nina\AppData\Local\Temp\ccfUDP6L.s 			page 86


1132:Middlewares/Third_Party/LwIP/src/core/pbuf.c **** {
 2771              		.loc 1 1132 1 is_stmt 1 view -0
 2772              		.cfi_startproc
 2773              		@ args = 0, pretend = 0, frame = 0
 2774              		@ frame_needed = 0, uses_anonymous_args = 0
 2775              		.loc 1 1132 1 is_stmt 0 view .LVU874
 2776 0000 08B5     		push	{r3, lr}
 2777              	.LCFI17:
 2778              		.cfi_def_cfa_offset 8
 2779              		.cfi_offset 3, -8
 2780              		.cfi_offset 14, -4
1133:Middlewares/Third_Party/LwIP/src/core/pbuf.c ****   const struct pbuf* out = pbuf_skip_const(in, in_offset, out_offset);
 2781              		.loc 1 1133 3 is_stmt 1 view .LVU875
 2782              		.loc 1 1133 28 is_stmt 0 view .LVU876
 2783 0002 FFF7FEFF 		bl	pbuf_skip_const
 2784              	.LVL283:
1134:Middlewares/Third_Party/LwIP/src/core/pbuf.c ****   return LWIP_CONST_CAST(struct pbuf*, out);
 2785              		.loc 1 1134 3 is_stmt 1 view .LVU877
1135:Middlewares/Third_Party/LwIP/src/core/pbuf.c **** }
 2786              		.loc 1 1135 1 is_stmt 0 view .LVU878
 2787 0006 08BD     		pop	{r3, pc}
 2788              		.cfi_endproc
 2789              	.LFE183:
 2791              		.section	.rodata.pbuf_take.str1.4,"aMS",%progbits,1
 2792              		.align	2
 2793              	.LC33:
 2794 0000 70627566 		.ascii	"pbuf_take: invalid buf\000"
 2794      5F74616B 
 2794      653A2069 
 2794      6E76616C 
 2794      69642062 
 2795 0017 00       		.align	2
 2796              	.LC34:
 2797 0018 70627566 		.ascii	"pbuf_take: invalid dataptr\000"
 2797      5F74616B 
 2797      653A2069 
 2797      6E76616C 
 2797      69642064 
 2798 0033 00       		.align	2
 2799              	.LC35:
 2800 0034 70627566 		.ascii	"pbuf_take: buf not large enough\000"
 2800      5F74616B 
 2800      653A2062 
 2800      7566206E 
 2800      6F74206C 
 2801              		.align	2
 2802              	.LC36:
 2803 0054 70627566 		.ascii	"pbuf_take: invalid pbuf\000"
 2803      5F74616B 
 2803      653A2069 
 2803      6E76616C 
 2803      69642070 
 2804              		.align	2
 2805              	.LC37:
 2806 006c 64696420 		.ascii	"did not copy all data\000"
 2806      6E6F7420 
 2806      636F7079 
ARM GAS  C:\Users\Nina\AppData\Local\Temp\ccfUDP6L.s 			page 87


 2806      20616C6C 
 2806      20646174 
 2807              		.section	.text.pbuf_take,"ax",%progbits
 2808              		.align	1
 2809              		.global	pbuf_take
 2810              		.syntax unified
 2811              		.thumb
 2812              		.thumb_func
 2813              		.fpu fpv5-sp-d16
 2815              	pbuf_take:
 2816              	.LVL284:
 2817              	.LFB184:
1136:Middlewares/Third_Party/LwIP/src/core/pbuf.c **** 
1137:Middlewares/Third_Party/LwIP/src/core/pbuf.c **** /**
1138:Middlewares/Third_Party/LwIP/src/core/pbuf.c ****  * @ingroup pbuf
1139:Middlewares/Third_Party/LwIP/src/core/pbuf.c ****  * Copy application supplied data into a pbuf.
1140:Middlewares/Third_Party/LwIP/src/core/pbuf.c ****  * This function can only be used to copy the equivalent of buf->tot_len data.
1141:Middlewares/Third_Party/LwIP/src/core/pbuf.c ****  *
1142:Middlewares/Third_Party/LwIP/src/core/pbuf.c ****  * @param buf pbuf to fill with data
1143:Middlewares/Third_Party/LwIP/src/core/pbuf.c ****  * @param dataptr application supplied data buffer
1144:Middlewares/Third_Party/LwIP/src/core/pbuf.c ****  * @param len length of the application supplied data buffer
1145:Middlewares/Third_Party/LwIP/src/core/pbuf.c ****  *
1146:Middlewares/Third_Party/LwIP/src/core/pbuf.c ****  * @return ERR_OK if successful, ERR_MEM if the pbuf is not big enough
1147:Middlewares/Third_Party/LwIP/src/core/pbuf.c ****  */
1148:Middlewares/Third_Party/LwIP/src/core/pbuf.c **** err_t
1149:Middlewares/Third_Party/LwIP/src/core/pbuf.c **** pbuf_take(struct pbuf *buf, const void *dataptr, u16_t len)
1150:Middlewares/Third_Party/LwIP/src/core/pbuf.c **** {
 2818              		.loc 1 1150 1 is_stmt 1 view -0
 2819              		.cfi_startproc
 2820              		@ args = 0, pretend = 0, frame = 0
 2821              		@ frame_needed = 0, uses_anonymous_args = 0
 2822              		.loc 1 1150 1 is_stmt 0 view .LVU880
 2823 0000 2DE9F843 		push	{r3, r4, r5, r6, r7, r8, r9, lr}
 2824              	.LCFI18:
 2825              		.cfi_def_cfa_offset 32
 2826              		.cfi_offset 3, -32
 2827              		.cfi_offset 4, -28
 2828              		.cfi_offset 5, -24
 2829              		.cfi_offset 6, -20
 2830              		.cfi_offset 7, -16
 2831              		.cfi_offset 8, -12
 2832              		.cfi_offset 9, -8
 2833              		.cfi_offset 14, -4
1151:Middlewares/Third_Party/LwIP/src/core/pbuf.c ****   struct pbuf *p;
 2834              		.loc 1 1151 3 is_stmt 1 view .LVU881
1152:Middlewares/Third_Party/LwIP/src/core/pbuf.c ****   u16_t buf_copy_len;
 2835              		.loc 1 1152 3 view .LVU882
1153:Middlewares/Third_Party/LwIP/src/core/pbuf.c ****   u16_t total_copy_len = len;
 2836              		.loc 1 1153 3 view .LVU883
 2837              	.LVL285:
1154:Middlewares/Third_Party/LwIP/src/core/pbuf.c ****   u16_t copied_total = 0;
 2838              		.loc 1 1154 3 view .LVU884
1155:Middlewares/Third_Party/LwIP/src/core/pbuf.c **** 
1156:Middlewares/Third_Party/LwIP/src/core/pbuf.c ****   LWIP_ERROR("pbuf_take: invalid buf", (buf != NULL), return ERR_ARG;);
 2839              		.loc 1 1156 3 view .LVU885
 2840              		.loc 1 1156 3 view .LVU886
 2841 0004 48B1     		cbz	r0, .L223
ARM GAS  C:\Users\Nina\AppData\Local\Temp\ccfUDP6L.s 			page 88


 2842 0006 8846     		mov	r8, r1
 2843 0008 9146     		mov	r9, r2
 2844 000a 0646     		mov	r6, r0
 2845              		.loc 1 1156 3 discriminator 2 view .LVU887
 2846              		.loc 1 1156 3 discriminator 2 view .LVU888
1157:Middlewares/Third_Party/LwIP/src/core/pbuf.c ****   LWIP_ERROR("pbuf_take: invalid dataptr", (dataptr != NULL), return ERR_ARG;);
 2847              		.loc 1 1157 3 discriminator 2 view .LVU889
 2848              		.loc 1 1157 3 discriminator 2 view .LVU890
 2849 000c 79B1     		cbz	r1, .L224
 2850              		.loc 1 1157 3 discriminator 2 view .LVU891
 2851              		.loc 1 1157 3 discriminator 2 view .LVU892
1158:Middlewares/Third_Party/LwIP/src/core/pbuf.c ****   LWIP_ERROR("pbuf_take: buf not large enough", (buf->tot_len >= len), return ERR_MEM;);
 2852              		.loc 1 1158 3 discriminator 2 view .LVU893
 2853              		.loc 1 1158 3 discriminator 2 view .LVU894
 2854 000e 0389     		ldrh	r3, [r0, #8]
 2855 0010 9342     		cmp	r3, r2
 2856 0012 16D3     		bcc	.L225
1153:Middlewares/Third_Party/LwIP/src/core/pbuf.c ****   u16_t copied_total = 0;
 2857              		.loc 1 1153 9 is_stmt 0 view .LVU895
 2858 0014 1446     		mov	r4, r2
1154:Middlewares/Third_Party/LwIP/src/core/pbuf.c **** 
 2859              		.loc 1 1154 9 view .LVU896
 2860 0016 0027     		movs	r7, #0
 2861 0018 30E0     		b	.L216
 2862              	.L223:
1156:Middlewares/Third_Party/LwIP/src/core/pbuf.c ****   LWIP_ERROR("pbuf_take: invalid dataptr", (dataptr != NULL), return ERR_ARG;);
 2863              		.loc 1 1156 3 is_stmt 1 discriminator 1 view .LVU897
1156:Middlewares/Third_Party/LwIP/src/core/pbuf.c ****   LWIP_ERROR("pbuf_take: invalid dataptr", (dataptr != NULL), return ERR_ARG;);
 2864              		.loc 1 1156 3 discriminator 1 view .LVU898
 2865 001a 234B     		ldr	r3, .L229
 2866 001c 40F28442 		movw	r2, #1156
 2867              	.LVL286:
1156:Middlewares/Third_Party/LwIP/src/core/pbuf.c ****   LWIP_ERROR("pbuf_take: invalid dataptr", (dataptr != NULL), return ERR_ARG;);
 2868              		.loc 1 1156 3 is_stmt 0 discriminator 1 view .LVU899
 2869 0020 2249     		ldr	r1, .L229+4
 2870              	.LVL287:
1156:Middlewares/Third_Party/LwIP/src/core/pbuf.c ****   LWIP_ERROR("pbuf_take: invalid dataptr", (dataptr != NULL), return ERR_ARG;);
 2871              		.loc 1 1156 3 discriminator 1 view .LVU900
 2872 0022 2348     		ldr	r0, .L229+8
 2873              	.LVL288:
1156:Middlewares/Third_Party/LwIP/src/core/pbuf.c ****   LWIP_ERROR("pbuf_take: invalid dataptr", (dataptr != NULL), return ERR_ARG;);
 2874              		.loc 1 1156 3 discriminator 1 view .LVU901
 2875 0024 FFF7FEFF 		bl	printf
 2876              	.LVL289:
1156:Middlewares/Third_Party/LwIP/src/core/pbuf.c ****   LWIP_ERROR("pbuf_take: invalid dataptr", (dataptr != NULL), return ERR_ARG;);
 2877              		.loc 1 1156 3 is_stmt 1 discriminator 1 view .LVU902
1156:Middlewares/Third_Party/LwIP/src/core/pbuf.c ****   LWIP_ERROR("pbuf_take: invalid dataptr", (dataptr != NULL), return ERR_ARG;);
 2878              		.loc 1 1156 3 discriminator 1 view .LVU903
 2879 0028 6FF00F00 		mvn	r0, #15
 2880 002c 31E0     		b	.L214
 2881              	.LVL290:
 2882              	.L224:
1157:Middlewares/Third_Party/LwIP/src/core/pbuf.c ****   LWIP_ERROR("pbuf_take: buf not large enough", (buf->tot_len >= len), return ERR_MEM;);
 2883              		.loc 1 1157 3 discriminator 1 view .LVU904
1157:Middlewares/Third_Party/LwIP/src/core/pbuf.c ****   LWIP_ERROR("pbuf_take: buf not large enough", (buf->tot_len >= len), return ERR_MEM;);
 2884              		.loc 1 1157 3 discriminator 1 view .LVU905
 2885 002e 1E4B     		ldr	r3, .L229
ARM GAS  C:\Users\Nina\AppData\Local\Temp\ccfUDP6L.s 			page 89


 2886 0030 40F28542 		movw	r2, #1157
 2887              	.LVL291:
1157:Middlewares/Third_Party/LwIP/src/core/pbuf.c ****   LWIP_ERROR("pbuf_take: buf not large enough", (buf->tot_len >= len), return ERR_MEM;);
 2888              		.loc 1 1157 3 is_stmt 0 discriminator 1 view .LVU906
 2889 0034 1F49     		ldr	r1, .L229+12
 2890              	.LVL292:
1157:Middlewares/Third_Party/LwIP/src/core/pbuf.c ****   LWIP_ERROR("pbuf_take: buf not large enough", (buf->tot_len >= len), return ERR_MEM;);
 2891              		.loc 1 1157 3 discriminator 1 view .LVU907
 2892 0036 1E48     		ldr	r0, .L229+8
 2893              	.LVL293:
1157:Middlewares/Third_Party/LwIP/src/core/pbuf.c ****   LWIP_ERROR("pbuf_take: buf not large enough", (buf->tot_len >= len), return ERR_MEM;);
 2894              		.loc 1 1157 3 discriminator 1 view .LVU908
 2895 0038 FFF7FEFF 		bl	printf
 2896              	.LVL294:
1157:Middlewares/Third_Party/LwIP/src/core/pbuf.c ****   LWIP_ERROR("pbuf_take: buf not large enough", (buf->tot_len >= len), return ERR_MEM;);
 2897              		.loc 1 1157 3 is_stmt 1 discriminator 1 view .LVU909
1157:Middlewares/Third_Party/LwIP/src/core/pbuf.c ****   LWIP_ERROR("pbuf_take: buf not large enough", (buf->tot_len >= len), return ERR_MEM;);
 2898              		.loc 1 1157 3 discriminator 1 view .LVU910
 2899 003c 6FF00F00 		mvn	r0, #15
 2900 0040 27E0     		b	.L214
 2901              	.LVL295:
 2902              	.L225:
 2903              		.loc 1 1158 3 discriminator 1 view .LVU911
 2904              		.loc 1 1158 3 discriminator 1 view .LVU912
 2905 0042 194B     		ldr	r3, .L229
 2906 0044 40F28642 		movw	r2, #1158
 2907              	.LVL296:
 2908              		.loc 1 1158 3 is_stmt 0 discriminator 1 view .LVU913
 2909 0048 1B49     		ldr	r1, .L229+16
 2910              	.LVL297:
 2911              		.loc 1 1158 3 discriminator 1 view .LVU914
 2912 004a 1948     		ldr	r0, .L229+8
 2913              	.LVL298:
 2914              		.loc 1 1158 3 discriminator 1 view .LVU915
 2915 004c FFF7FEFF 		bl	printf
 2916              	.LVL299:
 2917              		.loc 1 1158 3 is_stmt 1 discriminator 1 view .LVU916
 2918              		.loc 1 1158 3 discriminator 1 view .LVU917
 2919 0050 4FF0FF30 		mov	r0, #-1
 2920 0054 1DE0     		b	.L214
 2921              	.LVL300:
 2922              	.L227:
1159:Middlewares/Third_Party/LwIP/src/core/pbuf.c **** 
1160:Middlewares/Third_Party/LwIP/src/core/pbuf.c ****   if ((buf == NULL) || (dataptr == NULL) || (buf->tot_len < len)) {
1161:Middlewares/Third_Party/LwIP/src/core/pbuf.c ****     return ERR_ARG;
1162:Middlewares/Third_Party/LwIP/src/core/pbuf.c ****   }
1163:Middlewares/Third_Party/LwIP/src/core/pbuf.c **** 
1164:Middlewares/Third_Party/LwIP/src/core/pbuf.c ****   /* Note some systems use byte copy if dataptr or one of the pbuf payload pointers are unaligned. 
1165:Middlewares/Third_Party/LwIP/src/core/pbuf.c ****   for (p = buf; total_copy_len != 0; p = p->next) {
1166:Middlewares/Third_Party/LwIP/src/core/pbuf.c ****     LWIP_ASSERT("pbuf_take: invalid pbuf", p != NULL);
 2923              		.loc 1 1166 5 discriminator 1 view .LVU918
 2924              		.loc 1 1166 5 discriminator 1 view .LVU919
 2925 0056 144B     		ldr	r3, .L229
 2926 0058 40F28E42 		movw	r2, #1166
 2927 005c 1749     		ldr	r1, .L229+20
 2928 005e 1448     		ldr	r0, .L229+8
 2929 0060 FFF7FEFF 		bl	printf
ARM GAS  C:\Users\Nina\AppData\Local\Temp\ccfUDP6L.s 			page 90


 2930              	.LVL301:
 2931 0064 0DE0     		b	.L217
 2932              	.LVL302:
 2933              	.L218:
1167:Middlewares/Third_Party/LwIP/src/core/pbuf.c ****     buf_copy_len = total_copy_len;
1168:Middlewares/Third_Party/LwIP/src/core/pbuf.c ****     if (buf_copy_len > p->len) {
1169:Middlewares/Third_Party/LwIP/src/core/pbuf.c ****       /* this pbuf cannot hold all remaining data */
1170:Middlewares/Third_Party/LwIP/src/core/pbuf.c ****       buf_copy_len = p->len;
1171:Middlewares/Third_Party/LwIP/src/core/pbuf.c ****     }
1172:Middlewares/Third_Party/LwIP/src/core/pbuf.c ****     /* copy the necessary parts of the buffer */
1173:Middlewares/Third_Party/LwIP/src/core/pbuf.c ****     MEMCPY(p->payload, &((const char*)dataptr)[copied_total], buf_copy_len);
 2934              		.loc 1 1173 5 discriminator 2 view .LVU920
 2935 0066 2A46     		mov	r2, r5
 2936 0068 08EB0701 		add	r1, r8, r7
 2937 006c 7068     		ldr	r0, [r6, #4]
 2938 006e FFF7FEFF 		bl	memcpy
 2939              	.LVL303:
1174:Middlewares/Third_Party/LwIP/src/core/pbuf.c ****     total_copy_len -= buf_copy_len;
 2940              		.loc 1 1174 5 discriminator 2 view .LVU921
 2941              		.loc 1 1174 20 is_stmt 0 discriminator 2 view .LVU922
 2942 0072 641B     		subs	r4, r4, r5
 2943              	.LVL304:
 2944              		.loc 1 1174 20 discriminator 2 view .LVU923
 2945 0074 A4B2     		uxth	r4, r4
 2946              	.LVL305:
1175:Middlewares/Third_Party/LwIP/src/core/pbuf.c ****     copied_total += buf_copy_len;
 2947              		.loc 1 1175 5 is_stmt 1 discriminator 2 view .LVU924
 2948              		.loc 1 1175 18 is_stmt 0 discriminator 2 view .LVU925
 2949 0076 2F44     		add	r7, r7, r5
 2950              	.LVL306:
 2951              		.loc 1 1175 18 discriminator 2 view .LVU926
 2952 0078 BFB2     		uxth	r7, r7
 2953              	.LVL307:
1165:Middlewares/Third_Party/LwIP/src/core/pbuf.c ****     LWIP_ASSERT("pbuf_take: invalid pbuf", p != NULL);
 2954              		.loc 1 1165 38 is_stmt 1 discriminator 2 view .LVU927
1165:Middlewares/Third_Party/LwIP/src/core/pbuf.c ****     LWIP_ASSERT("pbuf_take: invalid pbuf", p != NULL);
 2955              		.loc 1 1165 40 is_stmt 0 discriminator 2 view .LVU928
 2956 007a 3668     		ldr	r6, [r6]
 2957              	.LVL308:
 2958              	.L216:
1165:Middlewares/Third_Party/LwIP/src/core/pbuf.c ****     LWIP_ASSERT("pbuf_take: invalid pbuf", p != NULL);
 2959              		.loc 1 1165 17 is_stmt 1 discriminator 1 view .LVU929
1165:Middlewares/Third_Party/LwIP/src/core/pbuf.c ****     LWIP_ASSERT("pbuf_take: invalid pbuf", p != NULL);
 2960              		.loc 1 1165 3 is_stmt 0 discriminator 1 view .LVU930
 2961 007c 34B1     		cbz	r4, .L226
1166:Middlewares/Third_Party/LwIP/src/core/pbuf.c ****     buf_copy_len = total_copy_len;
 2962              		.loc 1 1166 5 is_stmt 1 view .LVU931
1166:Middlewares/Third_Party/LwIP/src/core/pbuf.c ****     buf_copy_len = total_copy_len;
 2963              		.loc 1 1166 5 view .LVU932
 2964 007e 002E     		cmp	r6, #0
 2965 0080 E9D0     		beq	.L227
 2966              	.L217:
1166:Middlewares/Third_Party/LwIP/src/core/pbuf.c ****     buf_copy_len = total_copy_len;
 2967              		.loc 1 1166 5 discriminator 3 view .LVU933
1166:Middlewares/Third_Party/LwIP/src/core/pbuf.c ****     buf_copy_len = total_copy_len;
 2968              		.loc 1 1166 5 discriminator 3 view .LVU934
1167:Middlewares/Third_Party/LwIP/src/core/pbuf.c ****     if (buf_copy_len > p->len) {
ARM GAS  C:\Users\Nina\AppData\Local\Temp\ccfUDP6L.s 			page 91


 2969              		.loc 1 1167 5 discriminator 3 view .LVU935
 2970              	.LVL309:
1168:Middlewares/Third_Party/LwIP/src/core/pbuf.c ****       /* this pbuf cannot hold all remaining data */
 2971              		.loc 1 1168 5 discriminator 3 view .LVU936
1168:Middlewares/Third_Party/LwIP/src/core/pbuf.c ****       /* this pbuf cannot hold all remaining data */
 2972              		.loc 1 1168 25 is_stmt 0 discriminator 3 view .LVU937
 2973 0082 7589     		ldrh	r5, [r6, #10]
1168:Middlewares/Third_Party/LwIP/src/core/pbuf.c ****       /* this pbuf cannot hold all remaining data */
 2974              		.loc 1 1168 8 discriminator 3 view .LVU938
 2975 0084 A542     		cmp	r5, r4
 2976 0086 EED3     		bcc	.L218
1167:Middlewares/Third_Party/LwIP/src/core/pbuf.c ****     if (buf_copy_len > p->len) {
 2977              		.loc 1 1167 18 view .LVU939
 2978 0088 2546     		mov	r5, r4
 2979 008a ECE7     		b	.L218
 2980              	.LVL310:
 2981              	.L226:
1176:Middlewares/Third_Party/LwIP/src/core/pbuf.c ****   }
1177:Middlewares/Third_Party/LwIP/src/core/pbuf.c ****   LWIP_ASSERT("did not copy all data", total_copy_len == 0 && copied_total == len);
 2982              		.loc 1 1177 3 is_stmt 1 view .LVU940
 2983              		.loc 1 1177 3 view .LVU941
 2984 008c 4F45     		cmp	r7, r9
 2985 008e 02D1     		bne	.L228
1178:Middlewares/Third_Party/LwIP/src/core/pbuf.c ****   return ERR_OK;
 2986              		.loc 1 1178 10 is_stmt 0 view .LVU942
 2987 0090 0020     		movs	r0, #0
 2988              	.LVL311:
 2989              	.L214:
1179:Middlewares/Third_Party/LwIP/src/core/pbuf.c **** }
 2990              		.loc 1 1179 1 view .LVU943
 2991 0092 BDE8F883 		pop	{r3, r4, r5, r6, r7, r8, r9, pc}
 2992              	.LVL312:
 2993              	.L228:
1177:Middlewares/Third_Party/LwIP/src/core/pbuf.c ****   return ERR_OK;
 2994              		.loc 1 1177 3 is_stmt 1 discriminator 1 view .LVU944
1177:Middlewares/Third_Party/LwIP/src/core/pbuf.c ****   return ERR_OK;
 2995              		.loc 1 1177 3 discriminator 1 view .LVU945
 2996 0096 044B     		ldr	r3, .L229
 2997 0098 40F29942 		movw	r2, #1177
 2998 009c 0849     		ldr	r1, .L229+24
 2999 009e 0448     		ldr	r0, .L229+8
 3000 00a0 FFF7FEFF 		bl	printf
 3001              	.LVL313:
1178:Middlewares/Third_Party/LwIP/src/core/pbuf.c ****   return ERR_OK;
 3002              		.loc 1 1178 10 is_stmt 0 discriminator 1 view .LVU946
 3003 00a4 0020     		movs	r0, #0
 3004 00a6 F4E7     		b	.L214
 3005              	.L230:
 3006              		.align	2
 3007              	.L229:
 3008 00a8 00000000 		.word	.LC0
 3009 00ac 00000000 		.word	.LC33
 3010 00b0 3C000000 		.word	.LC2
 3011 00b4 18000000 		.word	.LC34
 3012 00b8 34000000 		.word	.LC35
 3013 00bc 54000000 		.word	.LC36
 3014 00c0 6C000000 		.word	.LC37
ARM GAS  C:\Users\Nina\AppData\Local\Temp\ccfUDP6L.s 			page 92


 3015              		.cfi_endproc
 3016              	.LFE184:
 3018              		.section	.text.pbuf_take_at,"ax",%progbits
 3019              		.align	1
 3020              		.global	pbuf_take_at
 3021              		.syntax unified
 3022              		.thumb
 3023              		.thumb_func
 3024              		.fpu fpv5-sp-d16
 3026              	pbuf_take_at:
 3027              	.LVL314:
 3028              	.LFB185:
1180:Middlewares/Third_Party/LwIP/src/core/pbuf.c **** 
1181:Middlewares/Third_Party/LwIP/src/core/pbuf.c **** /**
1182:Middlewares/Third_Party/LwIP/src/core/pbuf.c ****  * @ingroup pbuf
1183:Middlewares/Third_Party/LwIP/src/core/pbuf.c ****  * Same as pbuf_take() but puts data at an offset
1184:Middlewares/Third_Party/LwIP/src/core/pbuf.c ****  *
1185:Middlewares/Third_Party/LwIP/src/core/pbuf.c ****  * @param buf pbuf to fill with data
1186:Middlewares/Third_Party/LwIP/src/core/pbuf.c ****  * @param dataptr application supplied data buffer
1187:Middlewares/Third_Party/LwIP/src/core/pbuf.c ****  * @param len length of the application supplied data buffer
1188:Middlewares/Third_Party/LwIP/src/core/pbuf.c ****  * @param offset offset in pbuf where to copy dataptr to
1189:Middlewares/Third_Party/LwIP/src/core/pbuf.c ****  *
1190:Middlewares/Third_Party/LwIP/src/core/pbuf.c ****  * @return ERR_OK if successful, ERR_MEM if the pbuf is not big enough
1191:Middlewares/Third_Party/LwIP/src/core/pbuf.c ****  */
1192:Middlewares/Third_Party/LwIP/src/core/pbuf.c **** err_t
1193:Middlewares/Third_Party/LwIP/src/core/pbuf.c **** pbuf_take_at(struct pbuf *buf, const void *dataptr, u16_t len, u16_t offset)
1194:Middlewares/Third_Party/LwIP/src/core/pbuf.c **** {
 3029              		.loc 1 1194 1 is_stmt 1 view -0
 3030              		.cfi_startproc
 3031              		@ args = 0, pretend = 0, frame = 8
 3032              		@ frame_needed = 0, uses_anonymous_args = 0
 3033              		.loc 1 1194 1 is_stmt 0 view .LVU948
 3034 0000 F0B5     		push	{r4, r5, r6, r7, lr}
 3035              	.LCFI19:
 3036              		.cfi_def_cfa_offset 20
 3037              		.cfi_offset 4, -20
 3038              		.cfi_offset 5, -16
 3039              		.cfi_offset 6, -12
 3040              		.cfi_offset 7, -8
 3041              		.cfi_offset 14, -4
 3042 0002 83B0     		sub	sp, sp, #12
 3043              	.LCFI20:
 3044              		.cfi_def_cfa_offset 32
 3045 0004 0E46     		mov	r6, r1
 3046 0006 1446     		mov	r4, r2
1195:Middlewares/Third_Party/LwIP/src/core/pbuf.c ****   u16_t target_offset;
 3047              		.loc 1 1195 3 is_stmt 1 view .LVU949
1196:Middlewares/Third_Party/LwIP/src/core/pbuf.c ****   struct pbuf* q = pbuf_skip(buf, offset, &target_offset);
 3048              		.loc 1 1196 3 view .LVU950
 3049              		.loc 1 1196 20 is_stmt 0 view .LVU951
 3050 0008 0DF10602 		add	r2, sp, #6
 3051              	.LVL315:
 3052              		.loc 1 1196 20 view .LVU952
 3053 000c 1946     		mov	r1, r3
 3054              	.LVL316:
 3055              		.loc 1 1196 20 view .LVU953
 3056 000e FFF7FEFF 		bl	pbuf_skip
ARM GAS  C:\Users\Nina\AppData\Local\Temp\ccfUDP6L.s 			page 93


 3057              	.LVL317:
1197:Middlewares/Third_Party/LwIP/src/core/pbuf.c **** 
1198:Middlewares/Third_Party/LwIP/src/core/pbuf.c ****   /* return requested data if pbuf is OK */
1199:Middlewares/Third_Party/LwIP/src/core/pbuf.c ****   if ((q != NULL) && (q->tot_len >= target_offset + len)) {
 3058              		.loc 1 1199 3 is_stmt 1 view .LVU954
 3059              		.loc 1 1199 6 is_stmt 0 view .LVU955
 3060 0012 E8B1     		cbz	r0, .L233
 3061 0014 0746     		mov	r7, r0
 3062              		.loc 1 1199 24 discriminator 1 view .LVU956
 3063 0016 0189     		ldrh	r1, [r0, #8]
 3064              		.loc 1 1199 51 discriminator 1 view .LVU957
 3065 0018 BDF80630 		ldrh	r3, [sp, #6]
 3066 001c 1A19     		adds	r2, r3, r4
 3067              		.loc 1 1199 19 discriminator 1 view .LVU958
 3068 001e 9142     		cmp	r1, r2
 3069 0020 19DB     		blt	.L234
 3070              	.LBB10:
1200:Middlewares/Third_Party/LwIP/src/core/pbuf.c ****     u16_t remaining_len = len;
 3071              		.loc 1 1200 5 is_stmt 1 view .LVU959
 3072              	.LVL318:
1201:Middlewares/Third_Party/LwIP/src/core/pbuf.c ****     const u8_t* src_ptr = (const u8_t*)dataptr;
 3073              		.loc 1 1201 5 view .LVU960
1202:Middlewares/Third_Party/LwIP/src/core/pbuf.c ****     /* copy the part that goes into the first pbuf */
1203:Middlewares/Third_Party/LwIP/src/core/pbuf.c ****     u16_t first_copy_len = LWIP_MIN(q->len - target_offset, len);
 3074              		.loc 1 1203 5 view .LVU961
 3075              		.loc 1 1203 28 is_stmt 0 view .LVU962
 3076 0022 4589     		ldrh	r5, [r0, #10]
 3077 0024 ED1A     		subs	r5, r5, r3
 3078 0026 A542     		cmp	r5, r4
 3079 0028 A8BF     		it	ge
 3080 002a 2546     		movge	r5, r4
 3081              		.loc 1 1203 11 view .LVU963
 3082 002c ADB2     		uxth	r5, r5
 3083              	.LVL319:
1204:Middlewares/Third_Party/LwIP/src/core/pbuf.c ****     MEMCPY(((u8_t*)q->payload) + target_offset, dataptr, first_copy_len);
 3084              		.loc 1 1204 5 is_stmt 1 view .LVU964
 3085 002e 4068     		ldr	r0, [r0, #4]
 3086              	.LVL320:
 3087              		.loc 1 1204 5 is_stmt 0 view .LVU965
 3088 0030 2A46     		mov	r2, r5
 3089 0032 3146     		mov	r1, r6
 3090 0034 1844     		add	r0, r0, r3
 3091 0036 FFF7FEFF 		bl	memcpy
 3092              	.LVL321:
1205:Middlewares/Third_Party/LwIP/src/core/pbuf.c ****     remaining_len -= first_copy_len;
 3093              		.loc 1 1205 5 is_stmt 1 view .LVU966
 3094              		.loc 1 1205 19 is_stmt 0 view .LVU967
 3095 003a 621B     		subs	r2, r4, r5
 3096 003c 92B2     		uxth	r2, r2
 3097              	.LVL322:
1206:Middlewares/Third_Party/LwIP/src/core/pbuf.c ****     src_ptr += first_copy_len;
 3098              		.loc 1 1206 5 is_stmt 1 view .LVU968
 3099              		.loc 1 1206 13 is_stmt 0 view .LVU969
 3100 003e 7119     		adds	r1, r6, r5
 3101              	.LVL323:
1207:Middlewares/Third_Party/LwIP/src/core/pbuf.c ****     if (remaining_len > 0) {
 3102              		.loc 1 1207 5 is_stmt 1 view .LVU970
ARM GAS  C:\Users\Nina\AppData\Local\Temp\ccfUDP6L.s 			page 94


 3103              		.loc 1 1207 8 is_stmt 0 view .LVU971
 3104 0040 12B9     		cbnz	r2, .L237
1208:Middlewares/Third_Party/LwIP/src/core/pbuf.c ****       return pbuf_take(q->next, src_ptr, remaining_len);
1209:Middlewares/Third_Party/LwIP/src/core/pbuf.c ****     }
1210:Middlewares/Third_Party/LwIP/src/core/pbuf.c ****     return ERR_OK;
 3105              		.loc 1 1210 12 view .LVU972
 3106 0042 0020     		movs	r0, #0
 3107              	.LVL324:
 3108              	.L232:
 3109              		.loc 1 1210 12 view .LVU973
 3110              	.LBE10:
1211:Middlewares/Third_Party/LwIP/src/core/pbuf.c ****   }
1212:Middlewares/Third_Party/LwIP/src/core/pbuf.c ****   return ERR_MEM;
1213:Middlewares/Third_Party/LwIP/src/core/pbuf.c **** }
 3111              		.loc 1 1213 1 view .LVU974
 3112 0044 03B0     		add	sp, sp, #12
 3113              	.LCFI21:
 3114              		.cfi_remember_state
 3115              		.cfi_def_cfa_offset 20
 3116              		@ sp needed
 3117 0046 F0BD     		pop	{r4, r5, r6, r7, pc}
 3118              	.LVL325:
 3119              	.L237:
 3120              	.LCFI22:
 3121              		.cfi_restore_state
 3122              	.LBB11:
1208:Middlewares/Third_Party/LwIP/src/core/pbuf.c ****       return pbuf_take(q->next, src_ptr, remaining_len);
 3123              		.loc 1 1208 7 is_stmt 1 view .LVU975
1208:Middlewares/Third_Party/LwIP/src/core/pbuf.c ****       return pbuf_take(q->next, src_ptr, remaining_len);
 3124              		.loc 1 1208 14 is_stmt 0 view .LVU976
 3125 0048 3868     		ldr	r0, [r7]
 3126 004a FFF7FEFF 		bl	pbuf_take
 3127              	.LVL326:
1208:Middlewares/Third_Party/LwIP/src/core/pbuf.c ****       return pbuf_take(q->next, src_ptr, remaining_len);
 3128              		.loc 1 1208 14 view .LVU977
 3129 004e F9E7     		b	.L232
 3130              	.LVL327:
 3131              	.L233:
1208:Middlewares/Third_Party/LwIP/src/core/pbuf.c ****       return pbuf_take(q->next, src_ptr, remaining_len);
 3132              		.loc 1 1208 14 view .LVU978
 3133              	.LBE11:
1212:Middlewares/Third_Party/LwIP/src/core/pbuf.c **** }
 3134              		.loc 1 1212 10 view .LVU979
 3135 0050 4FF0FF30 		mov	r0, #-1
 3136              	.LVL328:
1212:Middlewares/Third_Party/LwIP/src/core/pbuf.c **** }
 3137              		.loc 1 1212 10 view .LVU980
 3138 0054 F6E7     		b	.L232
 3139              	.LVL329:
 3140              	.L234:
1212:Middlewares/Third_Party/LwIP/src/core/pbuf.c **** }
 3141              		.loc 1 1212 10 view .LVU981
 3142 0056 4FF0FF30 		mov	r0, #-1
 3143              	.LVL330:
1212:Middlewares/Third_Party/LwIP/src/core/pbuf.c **** }
 3144              		.loc 1 1212 10 view .LVU982
 3145 005a F3E7     		b	.L232
ARM GAS  C:\Users\Nina\AppData\Local\Temp\ccfUDP6L.s 			page 95


 3146              		.cfi_endproc
 3147              	.LFE185:
 3149              		.section	.rodata.pbuf_coalesce.str1.4,"aMS",%progbits,1
 3150              		.align	2
 3151              	.LC38:
 3152 0000 70627566 		.ascii	"pbuf_copy failed\000"
 3152      5F636F70 
 3152      79206661 
 3152      696C6564 
 3152      00
 3153              		.section	.text.pbuf_coalesce,"ax",%progbits
 3154              		.align	1
 3155              		.global	pbuf_coalesce
 3156              		.syntax unified
 3157              		.thumb
 3158              		.thumb_func
 3159              		.fpu fpv5-sp-d16
 3161              	pbuf_coalesce:
 3162              	.LVL331:
 3163              	.LFB186:
1214:Middlewares/Third_Party/LwIP/src/core/pbuf.c **** 
1215:Middlewares/Third_Party/LwIP/src/core/pbuf.c **** /**
1216:Middlewares/Third_Party/LwIP/src/core/pbuf.c ****  * @ingroup pbuf
1217:Middlewares/Third_Party/LwIP/src/core/pbuf.c ****  * Creates a single pbuf out of a queue of pbufs.
1218:Middlewares/Third_Party/LwIP/src/core/pbuf.c ****  *
1219:Middlewares/Third_Party/LwIP/src/core/pbuf.c ****  * @remark: Either the source pbuf 'p' is freed by this function or the original
1220:Middlewares/Third_Party/LwIP/src/core/pbuf.c ****  *          pbuf 'p' is returned, therefore the caller has to check the result!
1221:Middlewares/Third_Party/LwIP/src/core/pbuf.c ****  *
1222:Middlewares/Third_Party/LwIP/src/core/pbuf.c ****  * @param p the source pbuf
1223:Middlewares/Third_Party/LwIP/src/core/pbuf.c ****  * @param layer pbuf_layer of the new pbuf
1224:Middlewares/Third_Party/LwIP/src/core/pbuf.c ****  *
1225:Middlewares/Third_Party/LwIP/src/core/pbuf.c ****  * @return a new, single pbuf (p->next is NULL)
1226:Middlewares/Third_Party/LwIP/src/core/pbuf.c ****  *         or the old pbuf if allocation fails
1227:Middlewares/Third_Party/LwIP/src/core/pbuf.c ****  */
1228:Middlewares/Third_Party/LwIP/src/core/pbuf.c **** struct pbuf*
1229:Middlewares/Third_Party/LwIP/src/core/pbuf.c **** pbuf_coalesce(struct pbuf *p, pbuf_layer layer)
1230:Middlewares/Third_Party/LwIP/src/core/pbuf.c **** {
 3164              		.loc 1 1230 1 is_stmt 1 view -0
 3165              		.cfi_startproc
 3166              		@ args = 0, pretend = 0, frame = 0
 3167              		@ frame_needed = 0, uses_anonymous_args = 0
 3168              		.loc 1 1230 1 is_stmt 0 view .LVU984
 3169 0000 38B5     		push	{r3, r4, r5, lr}
 3170              	.LCFI23:
 3171              		.cfi_def_cfa_offset 16
 3172              		.cfi_offset 3, -16
 3173              		.cfi_offset 4, -12
 3174              		.cfi_offset 5, -8
 3175              		.cfi_offset 14, -4
 3176 0002 0446     		mov	r4, r0
1231:Middlewares/Third_Party/LwIP/src/core/pbuf.c ****   struct pbuf *q;
 3177              		.loc 1 1231 3 is_stmt 1 view .LVU985
1232:Middlewares/Third_Party/LwIP/src/core/pbuf.c ****   err_t err;
 3178              		.loc 1 1232 3 view .LVU986
1233:Middlewares/Third_Party/LwIP/src/core/pbuf.c ****   if (p->next == NULL) {
 3179              		.loc 1 1233 3 view .LVU987
 3180              		.loc 1 1233 8 is_stmt 0 view .LVU988
ARM GAS  C:\Users\Nina\AppData\Local\Temp\ccfUDP6L.s 			page 96


 3181 0004 0368     		ldr	r3, [r0]
 3182              		.loc 1 1233 6 view .LVU989
 3183 0006 73B1     		cbz	r3, .L239
 3184 0008 0846     		mov	r0, r1
 3185              	.LVL332:
1234:Middlewares/Third_Party/LwIP/src/core/pbuf.c ****     return p;
1235:Middlewares/Third_Party/LwIP/src/core/pbuf.c ****   }
1236:Middlewares/Third_Party/LwIP/src/core/pbuf.c ****   q = pbuf_alloc(layer, p->tot_len, PBUF_RAM);
 3186              		.loc 1 1236 3 is_stmt 1 view .LVU990
 3187              		.loc 1 1236 7 is_stmt 0 view .LVU991
 3188 000a 0022     		movs	r2, #0
 3189 000c 2189     		ldrh	r1, [r4, #8]
 3190              	.LVL333:
 3191              		.loc 1 1236 7 view .LVU992
 3192 000e FFF7FEFF 		bl	pbuf_alloc
 3193              	.LVL334:
1237:Middlewares/Third_Party/LwIP/src/core/pbuf.c ****   if (q == NULL) {
 3194              		.loc 1 1237 3 is_stmt 1 view .LVU993
 3195              		.loc 1 1237 6 is_stmt 0 view .LVU994
 3196 0012 0546     		mov	r5, r0
 3197 0014 38B1     		cbz	r0, .L239
1238:Middlewares/Third_Party/LwIP/src/core/pbuf.c ****     /* @todo: what do we do now? */
1239:Middlewares/Third_Party/LwIP/src/core/pbuf.c ****     return p;
1240:Middlewares/Third_Party/LwIP/src/core/pbuf.c ****   }
1241:Middlewares/Third_Party/LwIP/src/core/pbuf.c ****   err = pbuf_copy(q, p);
 3198              		.loc 1 1241 3 is_stmt 1 view .LVU995
 3199              		.loc 1 1241 9 is_stmt 0 view .LVU996
 3200 0016 2146     		mov	r1, r4
 3201 0018 FFF7FEFF 		bl	pbuf_copy
 3202              	.LVL335:
1242:Middlewares/Third_Party/LwIP/src/core/pbuf.c ****   LWIP_UNUSED_ARG(err); /* in case of LWIP_NOASSERT */
 3203              		.loc 1 1242 3 is_stmt 1 view .LVU997
1243:Middlewares/Third_Party/LwIP/src/core/pbuf.c ****   LWIP_ASSERT("pbuf_copy failed", err == ERR_OK);
 3204              		.loc 1 1243 3 view .LVU998
 3205              		.loc 1 1243 3 view .LVU999
 3206 001c 28B9     		cbnz	r0, .L242
 3207              	.LVL336:
 3208              	.L240:
 3209              		.loc 1 1243 3 discriminator 3 view .LVU1000
 3210              		.loc 1 1243 3 discriminator 3 view .LVU1001
1244:Middlewares/Third_Party/LwIP/src/core/pbuf.c ****   pbuf_free(p);
 3211              		.loc 1 1244 3 discriminator 3 view .LVU1002
 3212 001e 2046     		mov	r0, r4
 3213 0020 FFF7FEFF 		bl	pbuf_free
 3214              	.LVL337:
1245:Middlewares/Third_Party/LwIP/src/core/pbuf.c ****   return q;
 3215              		.loc 1 1245 3 discriminator 3 view .LVU1003
 3216              		.loc 1 1245 10 is_stmt 0 discriminator 3 view .LVU1004
 3217 0024 2C46     		mov	r4, r5
 3218              	.LVL338:
 3219              	.L239:
1246:Middlewares/Third_Party/LwIP/src/core/pbuf.c **** }
 3220              		.loc 1 1246 1 view .LVU1005
 3221 0026 2046     		mov	r0, r4
 3222 0028 38BD     		pop	{r3, r4, r5, pc}
 3223              	.LVL339:
 3224              	.L242:
ARM GAS  C:\Users\Nina\AppData\Local\Temp\ccfUDP6L.s 			page 97


1243:Middlewares/Third_Party/LwIP/src/core/pbuf.c ****   pbuf_free(p);
 3225              		.loc 1 1243 3 is_stmt 1 discriminator 1 view .LVU1006
1243:Middlewares/Third_Party/LwIP/src/core/pbuf.c ****   pbuf_free(p);
 3226              		.loc 1 1243 3 discriminator 1 view .LVU1007
 3227 002a 044B     		ldr	r3, .L243
 3228 002c 40F2DB42 		movw	r2, #1243
 3229 0030 0349     		ldr	r1, .L243+4
 3230 0032 0448     		ldr	r0, .L243+8
 3231              	.LVL340:
1243:Middlewares/Third_Party/LwIP/src/core/pbuf.c ****   pbuf_free(p);
 3232              		.loc 1 1243 3 is_stmt 0 discriminator 1 view .LVU1008
 3233 0034 FFF7FEFF 		bl	printf
 3234              	.LVL341:
 3235 0038 F1E7     		b	.L240
 3236              	.L244:
 3237 003a 00BF     		.align	2
 3238              	.L243:
 3239 003c 00000000 		.word	.LC0
 3240 0040 00000000 		.word	.LC38
 3241 0044 3C000000 		.word	.LC2
 3242              		.cfi_endproc
 3243              	.LFE186:
 3245              		.section	.text.pbuf_try_get_at,"ax",%progbits
 3246              		.align	1
 3247              		.global	pbuf_try_get_at
 3248              		.syntax unified
 3249              		.thumb
 3250              		.thumb_func
 3251              		.fpu fpv5-sp-d16
 3253              	pbuf_try_get_at:
 3254              	.LVL342:
 3255              	.LFB188:
1247:Middlewares/Third_Party/LwIP/src/core/pbuf.c **** 
1248:Middlewares/Third_Party/LwIP/src/core/pbuf.c **** #if LWIP_CHECKSUM_ON_COPY
1249:Middlewares/Third_Party/LwIP/src/core/pbuf.c **** /**
1250:Middlewares/Third_Party/LwIP/src/core/pbuf.c ****  * Copies data into a single pbuf (*not* into a pbuf queue!) and updates
1251:Middlewares/Third_Party/LwIP/src/core/pbuf.c ****  * the checksum while copying
1252:Middlewares/Third_Party/LwIP/src/core/pbuf.c ****  *
1253:Middlewares/Third_Party/LwIP/src/core/pbuf.c ****  * @param p the pbuf to copy data into
1254:Middlewares/Third_Party/LwIP/src/core/pbuf.c ****  * @param start_offset offset of p->payload where to copy the data to
1255:Middlewares/Third_Party/LwIP/src/core/pbuf.c ****  * @param dataptr data to copy into the pbuf
1256:Middlewares/Third_Party/LwIP/src/core/pbuf.c ****  * @param len length of data to copy into the pbuf
1257:Middlewares/Third_Party/LwIP/src/core/pbuf.c ****  * @param chksum pointer to the checksum which is updated
1258:Middlewares/Third_Party/LwIP/src/core/pbuf.c ****  * @return ERR_OK if successful, another error if the data does not fit
1259:Middlewares/Third_Party/LwIP/src/core/pbuf.c ****  *         within the (first) pbuf (no pbuf queues!)
1260:Middlewares/Third_Party/LwIP/src/core/pbuf.c ****  */
1261:Middlewares/Third_Party/LwIP/src/core/pbuf.c **** err_t
1262:Middlewares/Third_Party/LwIP/src/core/pbuf.c **** pbuf_fill_chksum(struct pbuf *p, u16_t start_offset, const void *dataptr,
1263:Middlewares/Third_Party/LwIP/src/core/pbuf.c ****                  u16_t len, u16_t *chksum)
1264:Middlewares/Third_Party/LwIP/src/core/pbuf.c **** {
1265:Middlewares/Third_Party/LwIP/src/core/pbuf.c ****   u32_t acc;
1266:Middlewares/Third_Party/LwIP/src/core/pbuf.c ****   u16_t copy_chksum;
1267:Middlewares/Third_Party/LwIP/src/core/pbuf.c ****   char *dst_ptr;
1268:Middlewares/Third_Party/LwIP/src/core/pbuf.c ****   LWIP_ASSERT("p != NULL", p != NULL);
1269:Middlewares/Third_Party/LwIP/src/core/pbuf.c ****   LWIP_ASSERT("dataptr != NULL", dataptr != NULL);
1270:Middlewares/Third_Party/LwIP/src/core/pbuf.c ****   LWIP_ASSERT("chksum != NULL", chksum != NULL);
1271:Middlewares/Third_Party/LwIP/src/core/pbuf.c ****   LWIP_ASSERT("len != 0", len != 0);
ARM GAS  C:\Users\Nina\AppData\Local\Temp\ccfUDP6L.s 			page 98


1272:Middlewares/Third_Party/LwIP/src/core/pbuf.c **** 
1273:Middlewares/Third_Party/LwIP/src/core/pbuf.c ****   if ((start_offset >= p->len) || (start_offset + len > p->len)) {
1274:Middlewares/Third_Party/LwIP/src/core/pbuf.c ****     return ERR_ARG;
1275:Middlewares/Third_Party/LwIP/src/core/pbuf.c ****   }
1276:Middlewares/Third_Party/LwIP/src/core/pbuf.c **** 
1277:Middlewares/Third_Party/LwIP/src/core/pbuf.c ****   dst_ptr = ((char*)p->payload) + start_offset;
1278:Middlewares/Third_Party/LwIP/src/core/pbuf.c ****   copy_chksum = LWIP_CHKSUM_COPY(dst_ptr, dataptr, len);
1279:Middlewares/Third_Party/LwIP/src/core/pbuf.c ****   if ((start_offset & 1) != 0) {
1280:Middlewares/Third_Party/LwIP/src/core/pbuf.c ****     copy_chksum = SWAP_BYTES_IN_WORD(copy_chksum);
1281:Middlewares/Third_Party/LwIP/src/core/pbuf.c ****   }
1282:Middlewares/Third_Party/LwIP/src/core/pbuf.c ****   acc = *chksum;
1283:Middlewares/Third_Party/LwIP/src/core/pbuf.c ****   acc += copy_chksum;
1284:Middlewares/Third_Party/LwIP/src/core/pbuf.c ****   *chksum = FOLD_U32T(acc);
1285:Middlewares/Third_Party/LwIP/src/core/pbuf.c ****   return ERR_OK;
1286:Middlewares/Third_Party/LwIP/src/core/pbuf.c **** }
1287:Middlewares/Third_Party/LwIP/src/core/pbuf.c **** #endif /* LWIP_CHECKSUM_ON_COPY */
1288:Middlewares/Third_Party/LwIP/src/core/pbuf.c **** 
1289:Middlewares/Third_Party/LwIP/src/core/pbuf.c **** /**
1290:Middlewares/Third_Party/LwIP/src/core/pbuf.c ****  * @ingroup pbuf
1291:Middlewares/Third_Party/LwIP/src/core/pbuf.c ****  * Get one byte from the specified position in a pbuf
1292:Middlewares/Third_Party/LwIP/src/core/pbuf.c ****  * WARNING: returns zero for offset >= p->tot_len
1293:Middlewares/Third_Party/LwIP/src/core/pbuf.c ****  *
1294:Middlewares/Third_Party/LwIP/src/core/pbuf.c ****  * @param p pbuf to parse
1295:Middlewares/Third_Party/LwIP/src/core/pbuf.c ****  * @param offset offset into p of the byte to return
1296:Middlewares/Third_Party/LwIP/src/core/pbuf.c ****  * @return byte at an offset into p OR ZERO IF 'offset' >= p->tot_len
1297:Middlewares/Third_Party/LwIP/src/core/pbuf.c ****  */
1298:Middlewares/Third_Party/LwIP/src/core/pbuf.c **** u8_t
1299:Middlewares/Third_Party/LwIP/src/core/pbuf.c **** pbuf_get_at(const struct pbuf* p, u16_t offset)
1300:Middlewares/Third_Party/LwIP/src/core/pbuf.c **** {
1301:Middlewares/Third_Party/LwIP/src/core/pbuf.c ****   int ret = pbuf_try_get_at(p, offset);
1302:Middlewares/Third_Party/LwIP/src/core/pbuf.c ****   if (ret >= 0) {
1303:Middlewares/Third_Party/LwIP/src/core/pbuf.c ****     return (u8_t)ret;
1304:Middlewares/Third_Party/LwIP/src/core/pbuf.c ****   }
1305:Middlewares/Third_Party/LwIP/src/core/pbuf.c ****   return 0;
1306:Middlewares/Third_Party/LwIP/src/core/pbuf.c **** }
1307:Middlewares/Third_Party/LwIP/src/core/pbuf.c **** 
1308:Middlewares/Third_Party/LwIP/src/core/pbuf.c **** /**
1309:Middlewares/Third_Party/LwIP/src/core/pbuf.c ****  * @ingroup pbuf
1310:Middlewares/Third_Party/LwIP/src/core/pbuf.c ****  * Get one byte from the specified position in a pbuf
1311:Middlewares/Third_Party/LwIP/src/core/pbuf.c ****  *
1312:Middlewares/Third_Party/LwIP/src/core/pbuf.c ****  * @param p pbuf to parse
1313:Middlewares/Third_Party/LwIP/src/core/pbuf.c ****  * @param offset offset into p of the byte to return
1314:Middlewares/Third_Party/LwIP/src/core/pbuf.c ****  * @return byte at an offset into p [0..0xFF] OR negative if 'offset' >= p->tot_len
1315:Middlewares/Third_Party/LwIP/src/core/pbuf.c ****  */
1316:Middlewares/Third_Party/LwIP/src/core/pbuf.c **** int
1317:Middlewares/Third_Party/LwIP/src/core/pbuf.c **** pbuf_try_get_at(const struct pbuf* p, u16_t offset)
1318:Middlewares/Third_Party/LwIP/src/core/pbuf.c **** {
 3256              		.loc 1 1318 1 is_stmt 1 view -0
 3257              		.cfi_startproc
 3258              		@ args = 0, pretend = 0, frame = 8
 3259              		@ frame_needed = 0, uses_anonymous_args = 0
 3260              		.loc 1 1318 1 is_stmt 0 view .LVU1010
 3261 0000 00B5     		push	{lr}
 3262              	.LCFI24:
 3263              		.cfi_def_cfa_offset 4
 3264              		.cfi_offset 14, -4
 3265 0002 83B0     		sub	sp, sp, #12
ARM GAS  C:\Users\Nina\AppData\Local\Temp\ccfUDP6L.s 			page 99


 3266              	.LCFI25:
 3267              		.cfi_def_cfa_offset 16
1319:Middlewares/Third_Party/LwIP/src/core/pbuf.c ****   u16_t q_idx;
 3268              		.loc 1 1319 3 is_stmt 1 view .LVU1011
1320:Middlewares/Third_Party/LwIP/src/core/pbuf.c ****   const struct pbuf* q = pbuf_skip_const(p, offset, &q_idx);
 3269              		.loc 1 1320 3 view .LVU1012
 3270              		.loc 1 1320 26 is_stmt 0 view .LVU1013
 3271 0004 0DF10602 		add	r2, sp, #6
 3272 0008 FFF7FEFF 		bl	pbuf_skip_const
 3273              	.LVL343:
1321:Middlewares/Third_Party/LwIP/src/core/pbuf.c **** 
1322:Middlewares/Third_Party/LwIP/src/core/pbuf.c ****   /* return requested data if pbuf is OK */
1323:Middlewares/Third_Party/LwIP/src/core/pbuf.c ****   if ((q != NULL) && (q->len > q_idx)) {
 3274              		.loc 1 1323 3 is_stmt 1 view .LVU1014
 3275              		.loc 1 1323 6 is_stmt 0 view .LVU1015
 3276 000c 48B1     		cbz	r0, .L247
 3277              		.loc 1 1323 24 discriminator 1 view .LVU1016
 3278 000e 4189     		ldrh	r1, [r0, #10]
 3279              		.loc 1 1323 30 discriminator 1 view .LVU1017
 3280 0010 BDF80620 		ldrh	r2, [sp, #6]
 3281              		.loc 1 1323 19 discriminator 1 view .LVU1018
 3282 0014 9142     		cmp	r1, r2
 3283 0016 07D9     		bls	.L248
1324:Middlewares/Third_Party/LwIP/src/core/pbuf.c ****     return ((u8_t*)q->payload)[q_idx];
 3284              		.loc 1 1324 5 is_stmt 1 view .LVU1019
 3285              		.loc 1 1324 21 is_stmt 0 view .LVU1020
 3286 0018 4368     		ldr	r3, [r0, #4]
 3287              		.loc 1 1324 31 view .LVU1021
 3288 001a 985C     		ldrb	r0, [r3, r2]	@ zero_extendqisi2
 3289              	.LVL344:
 3290              	.L245:
1325:Middlewares/Third_Party/LwIP/src/core/pbuf.c ****   }
1326:Middlewares/Third_Party/LwIP/src/core/pbuf.c ****   return -1;
1327:Middlewares/Third_Party/LwIP/src/core/pbuf.c **** }
 3291              		.loc 1 1327 1 view .LVU1022
 3292 001c 03B0     		add	sp, sp, #12
 3293              	.LCFI26:
 3294              		.cfi_remember_state
 3295              		.cfi_def_cfa_offset 4
 3296              		@ sp needed
 3297 001e 5DF804FB 		ldr	pc, [sp], #4
 3298              	.LVL345:
 3299              	.L247:
 3300              	.LCFI27:
 3301              		.cfi_restore_state
1326:Middlewares/Third_Party/LwIP/src/core/pbuf.c **** }
 3302              		.loc 1 1326 10 view .LVU1023
 3303 0022 4FF0FF30 		mov	r0, #-1
 3304              	.LVL346:
1326:Middlewares/Third_Party/LwIP/src/core/pbuf.c **** }
 3305              		.loc 1 1326 10 view .LVU1024
 3306 0026 F9E7     		b	.L245
 3307              	.LVL347:
 3308              	.L248:
1326:Middlewares/Third_Party/LwIP/src/core/pbuf.c **** }
 3309              		.loc 1 1326 10 view .LVU1025
 3310 0028 4FF0FF30 		mov	r0, #-1
ARM GAS  C:\Users\Nina\AppData\Local\Temp\ccfUDP6L.s 			page 100


 3311              	.LVL348:
1326:Middlewares/Third_Party/LwIP/src/core/pbuf.c **** }
 3312              		.loc 1 1326 10 view .LVU1026
 3313 002c F6E7     		b	.L245
 3314              		.cfi_endproc
 3315              	.LFE188:
 3317              		.section	.text.pbuf_get_at,"ax",%progbits
 3318              		.align	1
 3319              		.global	pbuf_get_at
 3320              		.syntax unified
 3321              		.thumb
 3322              		.thumb_func
 3323              		.fpu fpv5-sp-d16
 3325              	pbuf_get_at:
 3326              	.LVL349:
 3327              	.LFB187:
1300:Middlewares/Third_Party/LwIP/src/core/pbuf.c ****   int ret = pbuf_try_get_at(p, offset);
 3328              		.loc 1 1300 1 is_stmt 1 view -0
 3329              		.cfi_startproc
 3330              		@ args = 0, pretend = 0, frame = 0
 3331              		@ frame_needed = 0, uses_anonymous_args = 0
1300:Middlewares/Third_Party/LwIP/src/core/pbuf.c ****   int ret = pbuf_try_get_at(p, offset);
 3332              		.loc 1 1300 1 is_stmt 0 view .LVU1028
 3333 0000 08B5     		push	{r3, lr}
 3334              	.LCFI28:
 3335              		.cfi_def_cfa_offset 8
 3336              		.cfi_offset 3, -8
 3337              		.cfi_offset 14, -4
1301:Middlewares/Third_Party/LwIP/src/core/pbuf.c ****   if (ret >= 0) {
 3338              		.loc 1 1301 3 is_stmt 1 view .LVU1029
1301:Middlewares/Third_Party/LwIP/src/core/pbuf.c ****   if (ret >= 0) {
 3339              		.loc 1 1301 13 is_stmt 0 view .LVU1030
 3340 0002 FFF7FEFF 		bl	pbuf_try_get_at
 3341              	.LVL350:
1302:Middlewares/Third_Party/LwIP/src/core/pbuf.c ****     return (u8_t)ret;
 3342              		.loc 1 1302 3 is_stmt 1 view .LVU1031
1302:Middlewares/Third_Party/LwIP/src/core/pbuf.c ****     return (u8_t)ret;
 3343              		.loc 1 1302 6 is_stmt 0 view .LVU1032
 3344 0006 0028     		cmp	r0, #0
1302:Middlewares/Third_Party/LwIP/src/core/pbuf.c ****     return (u8_t)ret;
 3345              		.loc 1 1302 6 view .LVU1033
 3346 0008 01DA     		bge	.L254
1305:Middlewares/Third_Party/LwIP/src/core/pbuf.c **** }
 3347              		.loc 1 1305 10 view .LVU1034
 3348 000a 0020     		movs	r0, #0
 3349              	.LVL351:
 3350              	.L251:
1306:Middlewares/Third_Party/LwIP/src/core/pbuf.c **** 
 3351              		.loc 1 1306 1 view .LVU1035
 3352 000c 08BD     		pop	{r3, pc}
 3353              	.LVL352:
 3354              	.L254:
1303:Middlewares/Third_Party/LwIP/src/core/pbuf.c ****   }
 3355              		.loc 1 1303 5 is_stmt 1 view .LVU1036
1303:Middlewares/Third_Party/LwIP/src/core/pbuf.c ****   }
 3356              		.loc 1 1303 12 is_stmt 0 view .LVU1037
 3357 000e C0B2     		uxtb	r0, r0
ARM GAS  C:\Users\Nina\AppData\Local\Temp\ccfUDP6L.s 			page 101


 3358              	.LVL353:
1303:Middlewares/Third_Party/LwIP/src/core/pbuf.c ****   }
 3359              		.loc 1 1303 12 view .LVU1038
 3360 0010 FCE7     		b	.L251
 3361              		.cfi_endproc
 3362              	.LFE187:
 3364              		.section	.text.pbuf_put_at,"ax",%progbits
 3365              		.align	1
 3366              		.global	pbuf_put_at
 3367              		.syntax unified
 3368              		.thumb
 3369              		.thumb_func
 3370              		.fpu fpv5-sp-d16
 3372              	pbuf_put_at:
 3373              	.LVL354:
 3374              	.LFB189:
1328:Middlewares/Third_Party/LwIP/src/core/pbuf.c **** 
1329:Middlewares/Third_Party/LwIP/src/core/pbuf.c **** /**
1330:Middlewares/Third_Party/LwIP/src/core/pbuf.c ****  * @ingroup pbuf
1331:Middlewares/Third_Party/LwIP/src/core/pbuf.c ****  * Put one byte to the specified position in a pbuf
1332:Middlewares/Third_Party/LwIP/src/core/pbuf.c ****  * WARNING: silently ignores offset >= p->tot_len
1333:Middlewares/Third_Party/LwIP/src/core/pbuf.c ****  *
1334:Middlewares/Third_Party/LwIP/src/core/pbuf.c ****  * @param p pbuf to fill
1335:Middlewares/Third_Party/LwIP/src/core/pbuf.c ****  * @param offset offset into p of the byte to write
1336:Middlewares/Third_Party/LwIP/src/core/pbuf.c ****  * @param data byte to write at an offset into p
1337:Middlewares/Third_Party/LwIP/src/core/pbuf.c ****  */
1338:Middlewares/Third_Party/LwIP/src/core/pbuf.c **** void
1339:Middlewares/Third_Party/LwIP/src/core/pbuf.c **** pbuf_put_at(struct pbuf* p, u16_t offset, u8_t data)
1340:Middlewares/Third_Party/LwIP/src/core/pbuf.c **** {
 3375              		.loc 1 1340 1 is_stmt 1 view -0
 3376              		.cfi_startproc
 3377              		@ args = 0, pretend = 0, frame = 8
 3378              		@ frame_needed = 0, uses_anonymous_args = 0
 3379              		.loc 1 1340 1 is_stmt 0 view .LVU1040
 3380 0000 10B5     		push	{r4, lr}
 3381              	.LCFI29:
 3382              		.cfi_def_cfa_offset 8
 3383              		.cfi_offset 4, -8
 3384              		.cfi_offset 14, -4
 3385 0002 82B0     		sub	sp, sp, #8
 3386              	.LCFI30:
 3387              		.cfi_def_cfa_offset 16
 3388 0004 1446     		mov	r4, r2
1341:Middlewares/Third_Party/LwIP/src/core/pbuf.c ****   u16_t q_idx;
 3389              		.loc 1 1341 3 is_stmt 1 view .LVU1041
1342:Middlewares/Third_Party/LwIP/src/core/pbuf.c ****   struct pbuf* q = pbuf_skip(p, offset, &q_idx);
 3390              		.loc 1 1342 3 view .LVU1042
 3391              		.loc 1 1342 20 is_stmt 0 view .LVU1043
 3392 0006 0DF10602 		add	r2, sp, #6
 3393              	.LVL355:
 3394              		.loc 1 1342 20 view .LVU1044
 3395 000a FFF7FEFF 		bl	pbuf_skip
 3396              	.LVL356:
1343:Middlewares/Third_Party/LwIP/src/core/pbuf.c **** 
1344:Middlewares/Third_Party/LwIP/src/core/pbuf.c ****   /* write requested data if pbuf is OK */
1345:Middlewares/Third_Party/LwIP/src/core/pbuf.c ****   if ((q != NULL) && (q->len > q_idx)) {
 3397              		.loc 1 1345 3 is_stmt 1 view .LVU1045
ARM GAS  C:\Users\Nina\AppData\Local\Temp\ccfUDP6L.s 			page 102


 3398              		.loc 1 1345 6 is_stmt 0 view .LVU1046
 3399 000e 30B1     		cbz	r0, .L255
 3400              		.loc 1 1345 24 discriminator 1 view .LVU1047
 3401 0010 4189     		ldrh	r1, [r0, #10]
 3402              		.loc 1 1345 30 discriminator 1 view .LVU1048
 3403 0012 BDF80620 		ldrh	r2, [sp, #6]
 3404              		.loc 1 1345 19 discriminator 1 view .LVU1049
 3405 0016 9142     		cmp	r1, r2
 3406 0018 01D9     		bls	.L255
1346:Middlewares/Third_Party/LwIP/src/core/pbuf.c ****     ((u8_t*)q->payload)[q_idx] = data;
 3407              		.loc 1 1346 5 is_stmt 1 view .LVU1050
 3408              		.loc 1 1346 14 is_stmt 0 view .LVU1051
 3409 001a 4368     		ldr	r3, [r0, #4]
 3410              		.loc 1 1346 32 view .LVU1052
 3411 001c 9C54     		strb	r4, [r3, r2]
 3412              	.L255:
1347:Middlewares/Third_Party/LwIP/src/core/pbuf.c ****   }
1348:Middlewares/Third_Party/LwIP/src/core/pbuf.c **** }
 3413              		.loc 1 1348 1 view .LVU1053
 3414 001e 02B0     		add	sp, sp, #8
 3415              	.LCFI31:
 3416              		.cfi_def_cfa_offset 8
 3417              		@ sp needed
 3418 0020 10BD     		pop	{r4, pc}
 3419              		.cfi_endproc
 3420              	.LFE189:
 3422              		.section	.text.pbuf_memcmp,"ax",%progbits
 3423              		.align	1
 3424              		.global	pbuf_memcmp
 3425              		.syntax unified
 3426              		.thumb
 3427              		.thumb_func
 3428              		.fpu fpv5-sp-d16
 3430              	pbuf_memcmp:
 3431              	.LVL357:
 3432              	.LFB190:
1349:Middlewares/Third_Party/LwIP/src/core/pbuf.c **** 
1350:Middlewares/Third_Party/LwIP/src/core/pbuf.c **** /**
1351:Middlewares/Third_Party/LwIP/src/core/pbuf.c ****  * @ingroup pbuf
1352:Middlewares/Third_Party/LwIP/src/core/pbuf.c ****  * Compare pbuf contents at specified offset with memory s2, both of length n
1353:Middlewares/Third_Party/LwIP/src/core/pbuf.c ****  *
1354:Middlewares/Third_Party/LwIP/src/core/pbuf.c ****  * @param p pbuf to compare
1355:Middlewares/Third_Party/LwIP/src/core/pbuf.c ****  * @param offset offset into p at which to start comparing
1356:Middlewares/Third_Party/LwIP/src/core/pbuf.c ****  * @param s2 buffer to compare
1357:Middlewares/Third_Party/LwIP/src/core/pbuf.c ****  * @param n length of buffer to compare
1358:Middlewares/Third_Party/LwIP/src/core/pbuf.c ****  * @return zero if equal, nonzero otherwise
1359:Middlewares/Third_Party/LwIP/src/core/pbuf.c ****  *         (0xffff if p is too short, diffoffset+1 otherwise)
1360:Middlewares/Third_Party/LwIP/src/core/pbuf.c ****  */
1361:Middlewares/Third_Party/LwIP/src/core/pbuf.c **** u16_t
1362:Middlewares/Third_Party/LwIP/src/core/pbuf.c **** pbuf_memcmp(const struct pbuf* p, u16_t offset, const void* s2, u16_t n)
1363:Middlewares/Third_Party/LwIP/src/core/pbuf.c **** {
 3433              		.loc 1 1363 1 is_stmt 1 view -0
 3434              		.cfi_startproc
 3435              		@ args = 0, pretend = 0, frame = 0
 3436              		@ frame_needed = 0, uses_anonymous_args = 0
 3437              		.loc 1 1363 1 is_stmt 0 view .LVU1055
 3438 0000 2DE9F041 		push	{r4, r5, r6, r7, r8, lr}
ARM GAS  C:\Users\Nina\AppData\Local\Temp\ccfUDP6L.s 			page 103


 3439              	.LCFI32:
 3440              		.cfi_def_cfa_offset 24
 3441              		.cfi_offset 4, -24
 3442              		.cfi_offset 5, -20
 3443              		.cfi_offset 6, -16
 3444              		.cfi_offset 7, -12
 3445              		.cfi_offset 8, -8
 3446              		.cfi_offset 14, -4
 3447 0004 0546     		mov	r5, r0
 3448 0006 0E46     		mov	r6, r1
 3449 0008 9046     		mov	r8, r2
 3450 000a 1F46     		mov	r7, r3
1364:Middlewares/Third_Party/LwIP/src/core/pbuf.c ****   u16_t start = offset;
 3451              		.loc 1 1364 3 is_stmt 1 view .LVU1056
 3452              	.LVL358:
1365:Middlewares/Third_Party/LwIP/src/core/pbuf.c ****   const struct pbuf* q = p;
 3453              		.loc 1 1365 3 view .LVU1057
1366:Middlewares/Third_Party/LwIP/src/core/pbuf.c ****   u16_t i;
 3454              		.loc 1 1366 3 view .LVU1058
1367:Middlewares/Third_Party/LwIP/src/core/pbuf.c ****  
1368:Middlewares/Third_Party/LwIP/src/core/pbuf.c ****   /* pbuf long enough to perform check? */
1369:Middlewares/Third_Party/LwIP/src/core/pbuf.c ****   if(p->tot_len < (offset + n)) {
 3455              		.loc 1 1369 3 view .LVU1059
 3456              		.loc 1 1369 7 is_stmt 0 view .LVU1060
 3457 000c 0289     		ldrh	r2, [r0, #8]
 3458              	.LVL359:
 3459              		.loc 1 1369 27 view .LVU1061
 3460 000e CB18     		adds	r3, r1, r3
 3461              	.LVL360:
 3462              		.loc 1 1369 5 view .LVU1062
 3463 0010 9A42     		cmp	r2, r3
 3464 0012 1EDB     		blt	.L269
 3465              	.LVL361:
 3466              	.L260:
1370:Middlewares/Third_Party/LwIP/src/core/pbuf.c ****     return 0xffff;
1371:Middlewares/Third_Party/LwIP/src/core/pbuf.c ****   }
1372:Middlewares/Third_Party/LwIP/src/core/pbuf.c ****  
1373:Middlewares/Third_Party/LwIP/src/core/pbuf.c ****   /* get the correct pbuf from chain. We know it succeeds because of p->tot_len check above. */
1374:Middlewares/Third_Party/LwIP/src/core/pbuf.c ****   while ((q != NULL) && (q->len <= start)) {
 3467              		.loc 1 1374 9 is_stmt 1 view .LVU1063
 3468 0014 5DB1     		cbz	r5, .L267
 3469              		.loc 1 1374 27 is_stmt 0 discriminator 1 view .LVU1064
 3470 0016 6889     		ldrh	r0, [r5, #10]
 3471              		.loc 1 1374 22 discriminator 1 view .LVU1065
 3472 0018 B042     		cmp	r0, r6
 3473 001a 03D8     		bhi	.L270
1375:Middlewares/Third_Party/LwIP/src/core/pbuf.c ****     start -= q->len;
 3474              		.loc 1 1375 5 is_stmt 1 view .LVU1066
 3475              		.loc 1 1375 11 is_stmt 0 view .LVU1067
 3476 001c 301A     		subs	r0, r6, r0
 3477 001e 86B2     		uxth	r6, r0
 3478              	.LVL362:
1376:Middlewares/Third_Party/LwIP/src/core/pbuf.c ****     q = q->next;
 3479              		.loc 1 1376 5 is_stmt 1 view .LVU1068
 3480              		.loc 1 1376 7 is_stmt 0 view .LVU1069
 3481 0020 2D68     		ldr	r5, [r5]
 3482              	.LVL363:
ARM GAS  C:\Users\Nina\AppData\Local\Temp\ccfUDP6L.s 			page 104


 3483              		.loc 1 1376 7 view .LVU1070
 3484 0022 F7E7     		b	.L260
 3485              	.L270:
 3486              		.loc 1 1376 7 view .LVU1071
 3487 0024 0024     		movs	r4, #0
 3488 0026 03E0     		b	.L264
 3489              	.LVL364:
 3490              	.L272:
 3491              	.LBB12:
1377:Middlewares/Third_Party/LwIP/src/core/pbuf.c ****   }
1378:Middlewares/Third_Party/LwIP/src/core/pbuf.c ****  
1379:Middlewares/Third_Party/LwIP/src/core/pbuf.c ****   /* return requested data if pbuf is OK */
1380:Middlewares/Third_Party/LwIP/src/core/pbuf.c ****   for (i = 0; i < n; i++) {
1381:Middlewares/Third_Party/LwIP/src/core/pbuf.c ****     /* We know pbuf_get_at() succeeds because of p->tot_len check above. */
1382:Middlewares/Third_Party/LwIP/src/core/pbuf.c ****     u8_t a = pbuf_get_at(q, start + i);
1383:Middlewares/Third_Party/LwIP/src/core/pbuf.c ****     u8_t b = ((const u8_t*)s2)[i];
1384:Middlewares/Third_Party/LwIP/src/core/pbuf.c ****     if (a != b) {
1385:Middlewares/Third_Party/LwIP/src/core/pbuf.c ****       return i+1;
 3492              		.loc 1 1385 7 is_stmt 1 view .LVU1072
 3493              		.loc 1 1385 15 is_stmt 0 view .LVU1073
 3494 0028 601C     		adds	r0, r4, #1
 3495              	.LVL365:
 3496              		.loc 1 1385 15 view .LVU1074
 3497 002a 80B2     		uxth	r0, r0
 3498 002c 0FE0     		b	.L259
 3499              	.LVL366:
 3500              	.L267:
 3501              		.loc 1 1385 15 view .LVU1075
 3502              	.LBE12:
 3503 002e 0024     		movs	r4, #0
 3504              	.LVL367:
 3505              	.L264:
1380:Middlewares/Third_Party/LwIP/src/core/pbuf.c ****     /* We know pbuf_get_at() succeeds because of p->tot_len check above. */
 3506              		.loc 1 1380 15 is_stmt 1 discriminator 1 view .LVU1076
1380:Middlewares/Third_Party/LwIP/src/core/pbuf.c ****     /* We know pbuf_get_at() succeeds because of p->tot_len check above. */
 3507              		.loc 1 1380 3 is_stmt 0 discriminator 1 view .LVU1077
 3508 0030 BC42     		cmp	r4, r7
 3509 0032 0BD2     		bcs	.L271
 3510              	.LBB13:
1382:Middlewares/Third_Party/LwIP/src/core/pbuf.c ****     u8_t b = ((const u8_t*)s2)[i];
 3511              		.loc 1 1382 5 is_stmt 1 view .LVU1078
1382:Middlewares/Third_Party/LwIP/src/core/pbuf.c ****     u8_t b = ((const u8_t*)s2)[i];
 3512              		.loc 1 1382 14 is_stmt 0 view .LVU1079
 3513 0034 3119     		adds	r1, r6, r4
 3514 0036 89B2     		uxth	r1, r1
 3515 0038 2846     		mov	r0, r5
 3516 003a FFF7FEFF 		bl	pbuf_get_at
 3517              	.LVL368:
1383:Middlewares/Third_Party/LwIP/src/core/pbuf.c ****     if (a != b) {
 3518              		.loc 1 1383 5 is_stmt 1 view .LVU1080
1383:Middlewares/Third_Party/LwIP/src/core/pbuf.c ****     if (a != b) {
 3519              		.loc 1 1383 10 is_stmt 0 view .LVU1081
 3520 003e 18F80430 		ldrb	r3, [r8, r4]	@ zero_extendqisi2
 3521              	.LVL369:
1384:Middlewares/Third_Party/LwIP/src/core/pbuf.c ****       return i+1;
 3522              		.loc 1 1384 5 is_stmt 1 view .LVU1082
1384:Middlewares/Third_Party/LwIP/src/core/pbuf.c ****       return i+1;
ARM GAS  C:\Users\Nina\AppData\Local\Temp\ccfUDP6L.s 			page 105


 3523              		.loc 1 1384 8 is_stmt 0 view .LVU1083
 3524 0042 9842     		cmp	r0, r3
 3525 0044 F0D1     		bne	.L272
 3526              	.LBE13:
1380:Middlewares/Third_Party/LwIP/src/core/pbuf.c ****     /* We know pbuf_get_at() succeeds because of p->tot_len check above. */
 3527              		.loc 1 1380 22 is_stmt 1 discriminator 2 view .LVU1084
1380:Middlewares/Third_Party/LwIP/src/core/pbuf.c ****     /* We know pbuf_get_at() succeeds because of p->tot_len check above. */
 3528              		.loc 1 1380 23 is_stmt 0 discriminator 2 view .LVU1085
 3529 0046 0134     		adds	r4, r4, #1
 3530              	.LVL370:
1380:Middlewares/Third_Party/LwIP/src/core/pbuf.c ****     /* We know pbuf_get_at() succeeds because of p->tot_len check above. */
 3531              		.loc 1 1380 23 discriminator 2 view .LVU1086
 3532 0048 A4B2     		uxth	r4, r4
 3533              	.LVL371:
1380:Middlewares/Third_Party/LwIP/src/core/pbuf.c ****     /* We know pbuf_get_at() succeeds because of p->tot_len check above. */
 3534              		.loc 1 1380 23 discriminator 2 view .LVU1087
 3535 004a F1E7     		b	.L264
 3536              	.LVL372:
 3537              	.L271:
1386:Middlewares/Third_Party/LwIP/src/core/pbuf.c ****     }
1387:Middlewares/Third_Party/LwIP/src/core/pbuf.c ****   }
1388:Middlewares/Third_Party/LwIP/src/core/pbuf.c ****   return 0;
 3538              		.loc 1 1388 10 view .LVU1088
 3539 004c 0020     		movs	r0, #0
 3540              	.LVL373:
 3541              	.L259:
1389:Middlewares/Third_Party/LwIP/src/core/pbuf.c **** }
 3542              		.loc 1 1389 1 view .LVU1089
 3543 004e BDE8F081 		pop	{r4, r5, r6, r7, r8, pc}
 3544              	.LVL374:
 3545              	.L269:
1370:Middlewares/Third_Party/LwIP/src/core/pbuf.c ****   }
 3546              		.loc 1 1370 12 view .LVU1090
 3547 0052 4FF6FF70 		movw	r0, #65535
 3548              	.LVL375:
1370:Middlewares/Third_Party/LwIP/src/core/pbuf.c ****   }
 3549              		.loc 1 1370 12 view .LVU1091
 3550 0056 FAE7     		b	.L259
 3551              		.cfi_endproc
 3552              	.LFE190:
 3554              		.section	.text.pbuf_memfind,"ax",%progbits
 3555              		.align	1
 3556              		.global	pbuf_memfind
 3557              		.syntax unified
 3558              		.thumb
 3559              		.thumb_func
 3560              		.fpu fpv5-sp-d16
 3562              	pbuf_memfind:
 3563              	.LVL376:
 3564              	.LFB191:
1390:Middlewares/Third_Party/LwIP/src/core/pbuf.c **** 
1391:Middlewares/Third_Party/LwIP/src/core/pbuf.c **** /**
1392:Middlewares/Third_Party/LwIP/src/core/pbuf.c ****  * @ingroup pbuf
1393:Middlewares/Third_Party/LwIP/src/core/pbuf.c ****  * Find occurrence of mem (with length mem_len) in pbuf p, starting at offset
1394:Middlewares/Third_Party/LwIP/src/core/pbuf.c ****  * start_offset.
1395:Middlewares/Third_Party/LwIP/src/core/pbuf.c ****  *
1396:Middlewares/Third_Party/LwIP/src/core/pbuf.c ****  * @param p pbuf to search, maximum length is 0xFFFE since 0xFFFF is used as
ARM GAS  C:\Users\Nina\AppData\Local\Temp\ccfUDP6L.s 			page 106


1397:Middlewares/Third_Party/LwIP/src/core/pbuf.c ****  *        return value 'not found'
1398:Middlewares/Third_Party/LwIP/src/core/pbuf.c ****  * @param mem search for the contents of this buffer
1399:Middlewares/Third_Party/LwIP/src/core/pbuf.c ****  * @param mem_len length of 'mem'
1400:Middlewares/Third_Party/LwIP/src/core/pbuf.c ****  * @param start_offset offset into p at which to start searching
1401:Middlewares/Third_Party/LwIP/src/core/pbuf.c ****  * @return 0xFFFF if substr was not found in p or the index where it was found
1402:Middlewares/Third_Party/LwIP/src/core/pbuf.c ****  */
1403:Middlewares/Third_Party/LwIP/src/core/pbuf.c **** u16_t
1404:Middlewares/Third_Party/LwIP/src/core/pbuf.c **** pbuf_memfind(const struct pbuf* p, const void* mem, u16_t mem_len, u16_t start_offset)
1405:Middlewares/Third_Party/LwIP/src/core/pbuf.c **** {
 3565              		.loc 1 1405 1 is_stmt 1 view -0
 3566              		.cfi_startproc
 3567              		@ args = 0, pretend = 0, frame = 0
 3568              		@ frame_needed = 0, uses_anonymous_args = 0
 3569              		.loc 1 1405 1 is_stmt 0 view .LVU1093
 3570 0000 2DE9F041 		push	{r4, r5, r6, r7, r8, lr}
 3571              	.LCFI33:
 3572              		.cfi_def_cfa_offset 24
 3573              		.cfi_offset 4, -24
 3574              		.cfi_offset 5, -20
 3575              		.cfi_offset 6, -16
 3576              		.cfi_offset 7, -12
 3577              		.cfi_offset 8, -8
 3578              		.cfi_offset 14, -4
 3579 0004 0646     		mov	r6, r0
 3580 0006 8846     		mov	r8, r1
 3581 0008 1546     		mov	r5, r2
 3582 000a 1C46     		mov	r4, r3
1406:Middlewares/Third_Party/LwIP/src/core/pbuf.c ****   u16_t i;
 3583              		.loc 1 1406 3 is_stmt 1 view .LVU1094
1407:Middlewares/Third_Party/LwIP/src/core/pbuf.c ****   u16_t max = p->tot_len - mem_len;
 3584              		.loc 1 1407 3 view .LVU1095
 3585              		.loc 1 1407 16 is_stmt 0 view .LVU1096
 3586 000c 0389     		ldrh	r3, [r0, #8]
 3587              	.LVL377:
 3588              		.loc 1 1407 9 view .LVU1097
 3589 000e 9F1A     		subs	r7, r3, r2
 3590 0010 BFB2     		uxth	r7, r7
 3591              	.LVL378:
1408:Middlewares/Third_Party/LwIP/src/core/pbuf.c ****   if (p->tot_len >= mem_len + start_offset) {
 3592              		.loc 1 1408 3 is_stmt 1 view .LVU1098
 3593              		.loc 1 1408 29 is_stmt 0 view .LVU1099
 3594 0012 2244     		add	r2, r2, r4
 3595              	.LVL379:
 3596              		.loc 1 1408 6 view .LVU1100
 3597 0014 9342     		cmp	r3, r2
 3598 0016 0BDB     		blt	.L279
 3599              	.LVL380:
 3600              	.L274:
1409:Middlewares/Third_Party/LwIP/src/core/pbuf.c ****     for (i = start_offset; i <= max; i++) {
 3601              		.loc 1 1409 28 is_stmt 1 discriminator 1 view .LVU1101
 3602              		.loc 1 1409 5 is_stmt 0 discriminator 1 view .LVU1102
 3603 0018 BC42     		cmp	r4, r7
 3604 001a 0DD8     		bhi	.L280
 3605              	.LBB14:
1410:Middlewares/Third_Party/LwIP/src/core/pbuf.c ****       u16_t plus = pbuf_memcmp(p, i, mem, mem_len);
 3606              		.loc 1 1410 7 is_stmt 1 view .LVU1103
 3607              		.loc 1 1410 20 is_stmt 0 view .LVU1104
ARM GAS  C:\Users\Nina\AppData\Local\Temp\ccfUDP6L.s 			page 107


 3608 001c 2B46     		mov	r3, r5
 3609 001e 4246     		mov	r2, r8
 3610 0020 2146     		mov	r1, r4
 3611 0022 3046     		mov	r0, r6
 3612 0024 FFF7FEFF 		bl	pbuf_memcmp
 3613              	.LVL381:
1411:Middlewares/Third_Party/LwIP/src/core/pbuf.c ****       if (plus == 0) {
 3614              		.loc 1 1411 7 is_stmt 1 view .LVU1105
 3615              		.loc 1 1411 10 is_stmt 0 view .LVU1106
 3616 0028 48B1     		cbz	r0, .L277
 3617              	.LBE14:
1409:Middlewares/Third_Party/LwIP/src/core/pbuf.c ****     for (i = start_offset; i <= max; i++) {
 3618              		.loc 1 1409 38 is_stmt 1 discriminator 2 view .LVU1107
1409:Middlewares/Third_Party/LwIP/src/core/pbuf.c ****     for (i = start_offset; i <= max; i++) {
 3619              		.loc 1 1409 39 is_stmt 0 discriminator 2 view .LVU1108
 3620 002a 0134     		adds	r4, r4, #1
 3621              	.LVL382:
1409:Middlewares/Third_Party/LwIP/src/core/pbuf.c ****     for (i = start_offset; i <= max; i++) {
 3622              		.loc 1 1409 39 discriminator 2 view .LVU1109
 3623 002c A4B2     		uxth	r4, r4
 3624              	.LVL383:
1409:Middlewares/Third_Party/LwIP/src/core/pbuf.c ****     for (i = start_offset; i <= max; i++) {
 3625              		.loc 1 1409 39 discriminator 2 view .LVU1110
 3626 002e F3E7     		b	.L274
 3627              	.LVL384:
 3628              	.L279:
1412:Middlewares/Third_Party/LwIP/src/core/pbuf.c ****         return i;
1413:Middlewares/Third_Party/LwIP/src/core/pbuf.c ****       }
1414:Middlewares/Third_Party/LwIP/src/core/pbuf.c ****     }
1415:Middlewares/Third_Party/LwIP/src/core/pbuf.c ****   }
1416:Middlewares/Third_Party/LwIP/src/core/pbuf.c ****   return 0xFFFF;
 3629              		.loc 1 1416 10 view .LVU1111
 3630 0030 4FF6FF70 		movw	r0, #65535
 3631              	.LVL385:
 3632              	.L275:
1417:Middlewares/Third_Party/LwIP/src/core/pbuf.c **** }
 3633              		.loc 1 1417 1 view .LVU1112
 3634 0034 BDE8F081 		pop	{r4, r5, r6, r7, r8, pc}
 3635              	.LVL386:
 3636              	.L280:
1416:Middlewares/Third_Party/LwIP/src/core/pbuf.c **** }
 3637              		.loc 1 1416 10 view .LVU1113
 3638 0038 4FF6FF70 		movw	r0, #65535
 3639 003c FAE7     		b	.L275
 3640              	.LVL387:
 3641              	.L277:
 3642              	.LBB15:
1412:Middlewares/Third_Party/LwIP/src/core/pbuf.c ****         return i;
 3643              		.loc 1 1412 16 view .LVU1114
 3644 003e 2046     		mov	r0, r4
 3645              	.LVL388:
1412:Middlewares/Third_Party/LwIP/src/core/pbuf.c ****         return i;
 3646              		.loc 1 1412 16 view .LVU1115
 3647 0040 F8E7     		b	.L275
 3648              	.LBE15:
 3649              		.cfi_endproc
 3650              	.LFE191:
ARM GAS  C:\Users\Nina\AppData\Local\Temp\ccfUDP6L.s 			page 108


 3652              		.section	.text.pbuf_strstr,"ax",%progbits
 3653              		.align	1
 3654              		.global	pbuf_strstr
 3655              		.syntax unified
 3656              		.thumb
 3657              		.thumb_func
 3658              		.fpu fpv5-sp-d16
 3660              	pbuf_strstr:
 3661              	.LVL389:
 3662              	.LFB192:
1418:Middlewares/Third_Party/LwIP/src/core/pbuf.c **** 
1419:Middlewares/Third_Party/LwIP/src/core/pbuf.c **** /**
1420:Middlewares/Third_Party/LwIP/src/core/pbuf.c ****  * Find occurrence of substr with length substr_len in pbuf p, start at offset
1421:Middlewares/Third_Party/LwIP/src/core/pbuf.c ****  * start_offset
1422:Middlewares/Third_Party/LwIP/src/core/pbuf.c ****  * WARNING: in contrast to strstr(), this one does not stop at the first \0 in
1423:Middlewares/Third_Party/LwIP/src/core/pbuf.c ****  * the pbuf/source string!
1424:Middlewares/Third_Party/LwIP/src/core/pbuf.c ****  *
1425:Middlewares/Third_Party/LwIP/src/core/pbuf.c ****  * @param p pbuf to search, maximum length is 0xFFFE since 0xFFFF is used as
1426:Middlewares/Third_Party/LwIP/src/core/pbuf.c ****  *        return value 'not found'
1427:Middlewares/Third_Party/LwIP/src/core/pbuf.c ****  * @param substr string to search for in p, maximum length is 0xFFFE
1428:Middlewares/Third_Party/LwIP/src/core/pbuf.c ****  * @return 0xFFFF if substr was not found in p or the index where it was found
1429:Middlewares/Third_Party/LwIP/src/core/pbuf.c ****  */
1430:Middlewares/Third_Party/LwIP/src/core/pbuf.c **** u16_t
1431:Middlewares/Third_Party/LwIP/src/core/pbuf.c **** pbuf_strstr(const struct pbuf* p, const char* substr)
1432:Middlewares/Third_Party/LwIP/src/core/pbuf.c **** {
 3663              		.loc 1 1432 1 is_stmt 1 view -0
 3664              		.cfi_startproc
 3665              		@ args = 0, pretend = 0, frame = 0
 3666              		@ frame_needed = 0, uses_anonymous_args = 0
1433:Middlewares/Third_Party/LwIP/src/core/pbuf.c ****   size_t substr_len;
 3667              		.loc 1 1433 3 view .LVU1117
1434:Middlewares/Third_Party/LwIP/src/core/pbuf.c ****   if ((substr == NULL) || (substr[0] == 0) || (p->tot_len == 0xFFFF)) {
 3668              		.loc 1 1434 3 view .LVU1118
 3669              		.loc 1 1434 6 is_stmt 0 view .LVU1119
 3670 0000 B9B1     		cbz	r1, .L283
1432:Middlewares/Third_Party/LwIP/src/core/pbuf.c ****   size_t substr_len;
 3671              		.loc 1 1432 1 discriminator 1 view .LVU1120
 3672 0002 38B5     		push	{r3, r4, r5, lr}
 3673              	.LCFI34:
 3674              		.cfi_def_cfa_offset 16
 3675              		.cfi_offset 3, -16
 3676              		.cfi_offset 4, -12
 3677              		.cfi_offset 5, -8
 3678              		.cfi_offset 14, -4
 3679 0004 0446     		mov	r4, r0
 3680 0006 0D46     		mov	r5, r1
 3681              		.loc 1 1434 34 discriminator 1 view .LVU1121
 3682 0008 0B78     		ldrb	r3, [r1]	@ zero_extendqisi2
 3683              		.loc 1 1434 24 discriminator 1 view .LVU1122
 3684 000a ABB1     		cbz	r3, .L284
 3685              		.loc 1 1434 49 discriminator 2 view .LVU1123
 3686 000c 0089     		ldrh	r0, [r0, #8]
 3687              	.LVL390:
 3688              		.loc 1 1434 44 discriminator 2 view .LVU1124
 3689 000e 4FF6FF73 		movw	r3, #65535
 3690 0012 9842     		cmp	r0, r3
 3691 0014 0CD0     		beq	.L282
ARM GAS  C:\Users\Nina\AppData\Local\Temp\ccfUDP6L.s 			page 109


1435:Middlewares/Third_Party/LwIP/src/core/pbuf.c ****     return 0xFFFF;
1436:Middlewares/Third_Party/LwIP/src/core/pbuf.c ****   }
1437:Middlewares/Third_Party/LwIP/src/core/pbuf.c ****   substr_len = strlen(substr);
 3692              		.loc 1 1437 3 is_stmt 1 view .LVU1125
 3693              		.loc 1 1437 16 is_stmt 0 view .LVU1126
 3694 0016 0846     		mov	r0, r1
 3695 0018 FFF7FEFF 		bl	strlen
 3696              	.LVL391:
1438:Middlewares/Third_Party/LwIP/src/core/pbuf.c ****   if (substr_len >= 0xFFFF) {
 3697              		.loc 1 1438 3 is_stmt 1 view .LVU1127
 3698              		.loc 1 1438 6 is_stmt 0 view .LVU1128
 3699 001c 4FF6FE73 		movw	r3, #65534
 3700 0020 9842     		cmp	r0, r3
 3701 0022 0CD8     		bhi	.L285
1439:Middlewares/Third_Party/LwIP/src/core/pbuf.c ****     return 0xFFFF;
1440:Middlewares/Third_Party/LwIP/src/core/pbuf.c ****   }
1441:Middlewares/Third_Party/LwIP/src/core/pbuf.c ****   return pbuf_memfind(p, substr, (u16_t)substr_len, 0);
 3702              		.loc 1 1441 3 is_stmt 1 view .LVU1129
 3703              		.loc 1 1441 10 is_stmt 0 view .LVU1130
 3704 0024 0023     		movs	r3, #0
 3705 0026 82B2     		uxth	r2, r0
 3706 0028 2946     		mov	r1, r5
 3707 002a 2046     		mov	r0, r4
 3708              	.LVL392:
 3709              		.loc 1 1441 10 view .LVU1131
 3710 002c FFF7FEFF 		bl	pbuf_memfind
 3711              	.LVL393:
 3712              	.L282:
1442:Middlewares/Third_Party/LwIP/src/core/pbuf.c **** }
 3713              		.loc 1 1442 1 view .LVU1132
 3714 0030 38BD     		pop	{r3, r4, r5, pc}
 3715              	.LVL394:
 3716              	.L283:
 3717              	.LCFI35:
 3718              		.cfi_def_cfa_offset 0
 3719              		.cfi_restore 3
 3720              		.cfi_restore 4
 3721              		.cfi_restore 5
 3722              		.cfi_restore 14
1435:Middlewares/Third_Party/LwIP/src/core/pbuf.c ****   }
 3723              		.loc 1 1435 12 view .LVU1133
 3724 0032 4FF6FF70 		movw	r0, #65535
 3725              	.LVL395:
 3726              		.loc 1 1442 1 view .LVU1134
 3727 0036 7047     		bx	lr
 3728              	.LVL396:
 3729              	.L284:
 3730              	.LCFI36:
 3731              		.cfi_def_cfa_offset 16
 3732              		.cfi_offset 3, -16
 3733              		.cfi_offset 4, -12
 3734              		.cfi_offset 5, -8
 3735              		.cfi_offset 14, -4
1435:Middlewares/Third_Party/LwIP/src/core/pbuf.c ****   }
 3736              		.loc 1 1435 12 view .LVU1135
 3737 0038 4FF6FF70 		movw	r0, #65535
 3738              	.LVL397:
ARM GAS  C:\Users\Nina\AppData\Local\Temp\ccfUDP6L.s 			page 110


1435:Middlewares/Third_Party/LwIP/src/core/pbuf.c ****   }
 3739              		.loc 1 1435 12 view .LVU1136
 3740 003c F8E7     		b	.L282
 3741              	.LVL398:
 3742              	.L285:
1439:Middlewares/Third_Party/LwIP/src/core/pbuf.c ****     return 0xFFFF;
 3743              		.loc 1 1439 12 view .LVU1137
 3744 003e 4FF6FF70 		movw	r0, #65535
 3745              	.LVL399:
1439:Middlewares/Third_Party/LwIP/src/core/pbuf.c ****     return 0xFFFF;
 3746              		.loc 1 1439 12 view .LVU1138
 3747 0042 F5E7     		b	.L282
 3748              		.cfi_endproc
 3749              	.LFE192:
 3751              		.comm	pbuf_free_ooseq_pending,1,1
 3752              		.text
 3753              	.Letext0:
 3754              		.file 2 "c:\\program files (x86)\\gnu tools arm embedded\\9 2019-q4-major\\arm-none-eabi\\include\
 3755              		.file 3 "c:\\program files (x86)\\gnu tools arm embedded\\9 2019-q4-major\\arm-none-eabi\\include\
 3756              		.file 4 "Drivers/CMSIS/Include/core_cm7.h"
 3757              		.file 5 "Drivers/CMSIS/Device/ST/STM32F7xx/Include/system_stm32f7xx.h"
 3758              		.file 6 "c:\\program files (x86)\\gnu tools arm embedded\\9 2019-q4-major\\lib\\gcc\\arm-none-eabi
 3759              		.file 7 "c:\\program files (x86)\\gnu tools arm embedded\\9 2019-q4-major\\arm-none-eabi\\include\
 3760              		.file 8 "c:\\program files (x86)\\gnu tools arm embedded\\9 2019-q4-major\\arm-none-eabi\\include\
 3761              		.file 9 "c:\\program files (x86)\\gnu tools arm embedded\\9 2019-q4-major\\arm-none-eabi\\include\
 3762              		.file 10 "c:\\program files (x86)\\gnu tools arm embedded\\9 2019-q4-major\\arm-none-eabi\\include
 3763              		.file 11 "Middlewares/Third_Party/LwIP/system/arch/cc.h"
 3764              		.file 12 "c:\\program files (x86)\\gnu tools arm embedded\\9 2019-q4-major\\arm-none-eabi\\include
 3765              		.file 13 "Middlewares/Third_Party/LwIP/src/include/lwip/arch.h"
 3766              		.file 14 "Middlewares/Third_Party/LwIP/src/include/lwip/mem.h"
 3767              		.file 15 "Middlewares/Third_Party/LwIP/src/include/lwip/priv/memp_priv.h"
 3768              		.file 16 "Middlewares/Third_Party/LwIP/src/include/lwip/memp.h"
 3769              		.file 17 "Middlewares/Third_Party/LwIP/src/include/lwip/err.h"
 3770              		.file 18 "Middlewares/Third_Party/LwIP/src/include/lwip/pbuf.h"
 3771              		.file 19 "Middlewares/Third_Party/FreeRTOS/Source/include/queue.h"
 3772              		.file 20 "Middlewares/Third_Party/FreeRTOS/Source/include/semphr.h"
 3773              		.file 21 "Middlewares/Third_Party/FreeRTOS/Source/CMSIS_RTOS/cmsis_os.h"
 3774              		.file 22 "Middlewares/Third_Party/LwIP/system/arch/sys_arch.h"
 3775              		.file 23 "Middlewares/Third_Party/LwIP/src/include/lwip/ip4_addr.h"
 3776              		.file 24 "Middlewares/Third_Party/LwIP/src/include/lwip/ip_addr.h"
 3777              		.file 25 "Middlewares/Third_Party/LwIP/src/include/lwip/netif.h"
 3778              		.file 26 "Middlewares/Third_Party/LwIP/src/include/lwip/prot/ip4.h"
 3779              		.file 27 "Middlewares/Third_Party/LwIP/src/include/lwip/ip.h"
 3780              		.file 28 "Middlewares/Third_Party/LwIP/src/include/lwip/tcp.h"
 3781              		.file 29 "Middlewares/Third_Party/LwIP/src/include/lwip/priv/tcp_priv.h"
 3782              		.file 30 "Middlewares/Third_Party/LwIP/src/include/lwip/prot/tcp.h"
 3783              		.file 31 "Middlewares/Third_Party/LwIP/src/include/lwip/timeouts.h"
 3784              		.file 32 "Middlewares/Third_Party/LwIP/src/include/lwip/tcpip.h"
 3785              		.file 33 "c:\\program files (x86)\\gnu tools arm embedded\\9 2019-q4-major\\arm-none-eabi\\include
 3786              		.file 34 "c:\\program files (x86)\\gnu tools arm embedded\\9 2019-q4-major\\arm-none-eabi\\include
 3787              		.file 35 "Middlewares/Third_Party/LwIP/src/include/lwip/sys.h"
 3788              		.file 36 "<built-in>"
ARM GAS  C:\Users\Nina\AppData\Local\Temp\ccfUDP6L.s 			page 111


DEFINED SYMBOLS
                            *ABS*:00000000 pbuf.c
C:\Users\Nina\AppData\Local\Temp\ccfUDP6L.s:18     .text.pbuf_skip_const:00000000 $t
C:\Users\Nina\AppData\Local\Temp\ccfUDP6L.s:25     .text.pbuf_skip_const:00000000 pbuf_skip_const
C:\Users\Nina\AppData\Local\Temp\ccfUDP6L.s:73     .rodata.pbuf_header_impl.str1.4:00000000 $d
C:\Users\Nina\AppData\Local\Temp\ccfUDP6L.s:89     .text.pbuf_header_impl:00000000 $t
C:\Users\Nina\AppData\Local\Temp\ccfUDP6L.s:95     .text.pbuf_header_impl:00000000 pbuf_header_impl
C:\Users\Nina\AppData\Local\Temp\ccfUDP6L.s:338    .text.pbuf_header_impl:000000c8 $d
C:\Users\Nina\AppData\Local\Temp\ccfUDP6L.s:347    .text.pbuf_pool_is_empty:00000000 $t
C:\Users\Nina\AppData\Local\Temp\ccfUDP6L.s:353    .text.pbuf_pool_is_empty:00000000 pbuf_pool_is_empty
C:\Users\Nina\AppData\Local\Temp\ccfUDP6L.s:415    .text.pbuf_pool_is_empty:00000038 $d
                            *COM*:00000001 pbuf_free_ooseq_pending
C:\Users\Nina\AppData\Local\Temp\ccfUDP6L.s:505    .text.pbuf_free_ooseq_callback:00000000 pbuf_free_ooseq_callback
C:\Users\Nina\AppData\Local\Temp\ccfUDP6L.s:421    .text.pbuf_free_ooseq:00000000 $t
C:\Users\Nina\AppData\Local\Temp\ccfUDP6L.s:427    .text.pbuf_free_ooseq:00000000 pbuf_free_ooseq
C:\Users\Nina\AppData\Local\Temp\ccfUDP6L.s:493    .text.pbuf_free_ooseq:00000028 $d
C:\Users\Nina\AppData\Local\Temp\ccfUDP6L.s:499    .text.pbuf_free_ooseq_callback:00000000 $t
C:\Users\Nina\AppData\Local\Temp\ccfUDP6L.s:528    .rodata.pbuf_alloced_custom.str1.4:00000000 $d
C:\Users\Nina\AppData\Local\Temp\ccfUDP6L.s:532    .text.pbuf_alloced_custom:00000000 $t
C:\Users\Nina\AppData\Local\Temp\ccfUDP6L.s:539    .text.pbuf_alloced_custom:00000000 pbuf_alloced_custom
C:\Users\Nina\AppData\Local\Temp\ccfUDP6L.s:562    .text.pbuf_alloced_custom:0000000c $d
C:\Users\Nina\AppData\Local\Temp\ccfUDP6L.s:697    .text.pbuf_alloced_custom:0000006c $d
C:\Users\Nina\AppData\Local\Temp\ccfUDP6L.s:704    .text.pbuf_header:00000000 $t
C:\Users\Nina\AppData\Local\Temp\ccfUDP6L.s:711    .text.pbuf_header:00000000 pbuf_header
C:\Users\Nina\AppData\Local\Temp\ccfUDP6L.s:735    .text.pbuf_header_force:00000000 $t
C:\Users\Nina\AppData\Local\Temp\ccfUDP6L.s:742    .text.pbuf_header_force:00000000 pbuf_header_force
C:\Users\Nina\AppData\Local\Temp\ccfUDP6L.s:766    .rodata.pbuf_free.str1.4:00000000 $d
C:\Users\Nina\AppData\Local\Temp\ccfUDP6L.s:776    .text.pbuf_free:00000000 $t
C:\Users\Nina\AppData\Local\Temp\ccfUDP6L.s:783    .text.pbuf_free:00000000 pbuf_free
C:\Users\Nina\AppData\Local\Temp\ccfUDP6L.s:1017   .text.pbuf_free:000000bc $d
C:\Users\Nina\AppData\Local\Temp\ccfUDP6L.s:1028   .rodata.pbuf_alloc.str1.4:00000000 $d
C:\Users\Nina\AppData\Local\Temp\ccfUDP6L.s:1048   .text.pbuf_alloc:00000000 $t
C:\Users\Nina\AppData\Local\Temp\ccfUDP6L.s:1055   .text.pbuf_alloc:00000000 pbuf_alloc
C:\Users\Nina\AppData\Local\Temp\ccfUDP6L.s:1085   .text.pbuf_alloc:00000010 $d
C:\Users\Nina\AppData\Local\Temp\ccfUDP6L.s:1529   .text.pbuf_alloc:000001c4 $d
C:\Users\Nina\AppData\Local\Temp\ccfUDP6L.s:1541   .rodata.pbuf_realloc.str1.4:00000000 $d
C:\Users\Nina\AppData\Local\Temp\ccfUDP6L.s:1557   .text.pbuf_realloc:00000000 $t
C:\Users\Nina\AppData\Local\Temp\ccfUDP6L.s:1564   .text.pbuf_realloc:00000000 pbuf_realloc
C:\Users\Nina\AppData\Local\Temp\ccfUDP6L.s:1782   .text.pbuf_realloc:000000d4 $d
C:\Users\Nina\AppData\Local\Temp\ccfUDP6L.s:1793   .text.pbuf_clen:00000000 $t
C:\Users\Nina\AppData\Local\Temp\ccfUDP6L.s:1800   .text.pbuf_clen:00000000 pbuf_clen
C:\Users\Nina\AppData\Local\Temp\ccfUDP6L.s:1839   .rodata.pbuf_ref.str1.4:00000000 $d
C:\Users\Nina\AppData\Local\Temp\ccfUDP6L.s:1843   .text.pbuf_ref:00000000 $t
C:\Users\Nina\AppData\Local\Temp\ccfUDP6L.s:1850   .text.pbuf_ref:00000000 pbuf_ref
C:\Users\Nina\AppData\Local\Temp\ccfUDP6L.s:1915   .text.pbuf_ref:0000002c $d
C:\Users\Nina\AppData\Local\Temp\ccfUDP6L.s:1922   .rodata.pbuf_cat.str1.4:00000000 $d
C:\Users\Nina\AppData\Local\Temp\ccfUDP6L.s:1933   .text.pbuf_cat:00000000 $t
C:\Users\Nina\AppData\Local\Temp\ccfUDP6L.s:1940   .text.pbuf_cat:00000000 pbuf_cat
C:\Users\Nina\AppData\Local\Temp\ccfUDP6L.s:2057   .text.pbuf_cat:0000006c $d
C:\Users\Nina\AppData\Local\Temp\ccfUDP6L.s:2066   .text.pbuf_chain:00000000 $t
C:\Users\Nina\AppData\Local\Temp\ccfUDP6L.s:2073   .text.pbuf_chain:00000000 pbuf_chain
C:\Users\Nina\AppData\Local\Temp\ccfUDP6L.s:2102   .rodata.pbuf_dechain.str1.4:00000000 $d
C:\Users\Nina\AppData\Local\Temp\ccfUDP6L.s:2109   .text.pbuf_dechain:00000000 $t
C:\Users\Nina\AppData\Local\Temp\ccfUDP6L.s:2116   .text.pbuf_dechain:00000000 pbuf_dechain
C:\Users\Nina\AppData\Local\Temp\ccfUDP6L.s:2238   .text.pbuf_dechain:00000064 $d
C:\Users\Nina\AppData\Local\Temp\ccfUDP6L.s:2246   .rodata.pbuf_copy.str1.4:00000000 $d
C:\Users\Nina\AppData\Local\Temp\ccfUDP6L.s:2262   .text.pbuf_copy:00000000 $t
ARM GAS  C:\Users\Nina\AppData\Local\Temp\ccfUDP6L.s 			page 112


C:\Users\Nina\AppData\Local\Temp\ccfUDP6L.s:2269   .text.pbuf_copy:00000000 pbuf_copy
C:\Users\Nina\AppData\Local\Temp\ccfUDP6L.s:2553   .text.pbuf_copy:00000124 $d
C:\Users\Nina\AppData\Local\Temp\ccfUDP6L.s:2564   .rodata.pbuf_copy_partial.str1.4:00000000 $d
C:\Users\Nina\AppData\Local\Temp\ccfUDP6L.s:2571   .text.pbuf_copy_partial:00000000 $t
C:\Users\Nina\AppData\Local\Temp\ccfUDP6L.s:2578   .text.pbuf_copy_partial:00000000 pbuf_copy_partial
C:\Users\Nina\AppData\Local\Temp\ccfUDP6L.s:2753   .text.pbuf_copy_partial:0000008c $d
C:\Users\Nina\AppData\Local\Temp\ccfUDP6L.s:2761   .text.pbuf_skip:00000000 $t
C:\Users\Nina\AppData\Local\Temp\ccfUDP6L.s:2768   .text.pbuf_skip:00000000 pbuf_skip
C:\Users\Nina\AppData\Local\Temp\ccfUDP6L.s:2792   .rodata.pbuf_take.str1.4:00000000 $d
C:\Users\Nina\AppData\Local\Temp\ccfUDP6L.s:2808   .text.pbuf_take:00000000 $t
C:\Users\Nina\AppData\Local\Temp\ccfUDP6L.s:2815   .text.pbuf_take:00000000 pbuf_take
C:\Users\Nina\AppData\Local\Temp\ccfUDP6L.s:3008   .text.pbuf_take:000000a8 $d
C:\Users\Nina\AppData\Local\Temp\ccfUDP6L.s:3019   .text.pbuf_take_at:00000000 $t
C:\Users\Nina\AppData\Local\Temp\ccfUDP6L.s:3026   .text.pbuf_take_at:00000000 pbuf_take_at
C:\Users\Nina\AppData\Local\Temp\ccfUDP6L.s:3150   .rodata.pbuf_coalesce.str1.4:00000000 $d
C:\Users\Nina\AppData\Local\Temp\ccfUDP6L.s:3154   .text.pbuf_coalesce:00000000 $t
C:\Users\Nina\AppData\Local\Temp\ccfUDP6L.s:3161   .text.pbuf_coalesce:00000000 pbuf_coalesce
C:\Users\Nina\AppData\Local\Temp\ccfUDP6L.s:3239   .text.pbuf_coalesce:0000003c $d
C:\Users\Nina\AppData\Local\Temp\ccfUDP6L.s:3246   .text.pbuf_try_get_at:00000000 $t
C:\Users\Nina\AppData\Local\Temp\ccfUDP6L.s:3253   .text.pbuf_try_get_at:00000000 pbuf_try_get_at
C:\Users\Nina\AppData\Local\Temp\ccfUDP6L.s:3318   .text.pbuf_get_at:00000000 $t
C:\Users\Nina\AppData\Local\Temp\ccfUDP6L.s:3325   .text.pbuf_get_at:00000000 pbuf_get_at
C:\Users\Nina\AppData\Local\Temp\ccfUDP6L.s:3365   .text.pbuf_put_at:00000000 $t
C:\Users\Nina\AppData\Local\Temp\ccfUDP6L.s:3372   .text.pbuf_put_at:00000000 pbuf_put_at
C:\Users\Nina\AppData\Local\Temp\ccfUDP6L.s:3423   .text.pbuf_memcmp:00000000 $t
C:\Users\Nina\AppData\Local\Temp\ccfUDP6L.s:3430   .text.pbuf_memcmp:00000000 pbuf_memcmp
C:\Users\Nina\AppData\Local\Temp\ccfUDP6L.s:3555   .text.pbuf_memfind:00000000 $t
C:\Users\Nina\AppData\Local\Temp\ccfUDP6L.s:3562   .text.pbuf_memfind:00000000 pbuf_memfind
C:\Users\Nina\AppData\Local\Temp\ccfUDP6L.s:3653   .text.pbuf_strstr:00000000 $t
C:\Users\Nina\AppData\Local\Temp\ccfUDP6L.s:3660   .text.pbuf_strstr:00000000 pbuf_strstr
C:\Users\Nina\AppData\Local\Temp\ccfUDP6L.s:567    .text.pbuf_alloced_custom:00000011 $d
C:\Users\Nina\AppData\Local\Temp\ccfUDP6L.s:567    .text.pbuf_alloced_custom:00000012 $t
C:\Users\Nina\AppData\Local\Temp\ccfUDP6L.s:1090   .text.pbuf_alloc:00000015 $d
C:\Users\Nina\AppData\Local\Temp\ccfUDP6L.s:1090   .text.pbuf_alloc:00000016 $t

UNDEFINED SYMBOLS
printf
sys_arch_protect
sys_arch_unprotect
tcpip_callback_with_block
tcp_segs_free
tcp_active_pcbs
mem_free
memp_free
mem_malloc
memp_malloc
mem_trim
memcpy
strlen
