ARM GAS  C:\Users\Nina\AppData\Local\Temp\ccxRUdKh.s 			page 1


   1              		.cpu cortex-m7
   2              		.eabi_attribute 27, 1
   3              		.eabi_attribute 28, 1
   4              		.eabi_attribute 20, 1
   5              		.eabi_attribute 21, 1
   6              		.eabi_attribute 23, 3
   7              		.eabi_attribute 24, 1
   8              		.eabi_attribute 25, 1
   9              		.eabi_attribute 26, 1
  10              		.eabi_attribute 30, 1
  11              		.eabi_attribute 34, 1
  12              		.eabi_attribute 18, 4
  13              		.file	"stm32f7xx_hal_hcd.c"
  14              		.text
  15              	.Ltext0:
  16              		.cfi_sections	.debug_frame
  17              		.section	.text.HCD_RXQLVL_IRQHandler,"ax",%progbits
  18              		.align	1
  19              		.arch armv7e-m
  20              		.syntax unified
  21              		.thumb
  22              		.thumb_func
  23              		.fpu fpv5-sp-d16
  25              	HCD_RXQLVL_IRQHandler:
  26              	.LVL0:
  27              	.LFB163:
  28              		.file 1 "Drivers/STM32F7xx_HAL_Driver/Src/stm32f7xx_hal_hcd.c"
   1:Drivers/STM32F7xx_HAL_Driver/Src/stm32f7xx_hal_hcd.c **** /**
   2:Drivers/STM32F7xx_HAL_Driver/Src/stm32f7xx_hal_hcd.c ****   ******************************************************************************
   3:Drivers/STM32F7xx_HAL_Driver/Src/stm32f7xx_hal_hcd.c ****   * @file    stm32f7xx_hal_hcd.c
   4:Drivers/STM32F7xx_HAL_Driver/Src/stm32f7xx_hal_hcd.c ****   * @author  MCD Application Team
   5:Drivers/STM32F7xx_HAL_Driver/Src/stm32f7xx_hal_hcd.c ****   * @brief   HCD HAL module driver.
   6:Drivers/STM32F7xx_HAL_Driver/Src/stm32f7xx_hal_hcd.c ****   *          This file provides firmware functions to manage the following
   7:Drivers/STM32F7xx_HAL_Driver/Src/stm32f7xx_hal_hcd.c ****   *          functionalities of the USB Peripheral Controller:
   8:Drivers/STM32F7xx_HAL_Driver/Src/stm32f7xx_hal_hcd.c ****   *           + Initialization and de-initialization functions
   9:Drivers/STM32F7xx_HAL_Driver/Src/stm32f7xx_hal_hcd.c ****   *           + IO operation functions
  10:Drivers/STM32F7xx_HAL_Driver/Src/stm32f7xx_hal_hcd.c ****   *           + Peripheral Control functions
  11:Drivers/STM32F7xx_HAL_Driver/Src/stm32f7xx_hal_hcd.c ****   *           + Peripheral State functions
  12:Drivers/STM32F7xx_HAL_Driver/Src/stm32f7xx_hal_hcd.c ****   *
  13:Drivers/STM32F7xx_HAL_Driver/Src/stm32f7xx_hal_hcd.c ****   @verbatim
  14:Drivers/STM32F7xx_HAL_Driver/Src/stm32f7xx_hal_hcd.c ****   ==============================================================================
  15:Drivers/STM32F7xx_HAL_Driver/Src/stm32f7xx_hal_hcd.c ****                     ##### How to use this driver #####
  16:Drivers/STM32F7xx_HAL_Driver/Src/stm32f7xx_hal_hcd.c ****   ==============================================================================
  17:Drivers/STM32F7xx_HAL_Driver/Src/stm32f7xx_hal_hcd.c ****   [..]
  18:Drivers/STM32F7xx_HAL_Driver/Src/stm32f7xx_hal_hcd.c ****     (#)Declare a HCD_HandleTypeDef handle structure, for example:
  19:Drivers/STM32F7xx_HAL_Driver/Src/stm32f7xx_hal_hcd.c ****        HCD_HandleTypeDef  hhcd;
  20:Drivers/STM32F7xx_HAL_Driver/Src/stm32f7xx_hal_hcd.c **** 
  21:Drivers/STM32F7xx_HAL_Driver/Src/stm32f7xx_hal_hcd.c ****     (#)Fill parameters of Init structure in HCD handle
  22:Drivers/STM32F7xx_HAL_Driver/Src/stm32f7xx_hal_hcd.c **** 
  23:Drivers/STM32F7xx_HAL_Driver/Src/stm32f7xx_hal_hcd.c ****     (#)Call HAL_HCD_Init() API to initialize the HCD peripheral (Core, Host core, ...)
  24:Drivers/STM32F7xx_HAL_Driver/Src/stm32f7xx_hal_hcd.c **** 
  25:Drivers/STM32F7xx_HAL_Driver/Src/stm32f7xx_hal_hcd.c ****     (#)Initialize the HCD low level resources through the HAL_HCD_MspInit() API:
  26:Drivers/STM32F7xx_HAL_Driver/Src/stm32f7xx_hal_hcd.c ****         (##) Enable the HCD/USB Low Level interface clock using the following macros
  27:Drivers/STM32F7xx_HAL_Driver/Src/stm32f7xx_hal_hcd.c ****              (+++) __HAL_RCC_USB_OTG_FS_CLK_ENABLE();
  28:Drivers/STM32F7xx_HAL_Driver/Src/stm32f7xx_hal_hcd.c ****              (+++) __HAL_RCC_USB_OTG_HS_CLK_ENABLE(); (For High Speed Mode)
  29:Drivers/STM32F7xx_HAL_Driver/Src/stm32f7xx_hal_hcd.c ****              (+++) __HAL_RCC_USB_OTG_HS_ULPI_CLK_ENABLE(); (For High Speed Mode)
  30:Drivers/STM32F7xx_HAL_Driver/Src/stm32f7xx_hal_hcd.c **** 
ARM GAS  C:\Users\Nina\AppData\Local\Temp\ccxRUdKh.s 			page 2


  31:Drivers/STM32F7xx_HAL_Driver/Src/stm32f7xx_hal_hcd.c ****         (##) Initialize the related GPIO clocks
  32:Drivers/STM32F7xx_HAL_Driver/Src/stm32f7xx_hal_hcd.c ****         (##) Configure HCD pin-out
  33:Drivers/STM32F7xx_HAL_Driver/Src/stm32f7xx_hal_hcd.c ****         (##) Configure HCD NVIC interrupt
  34:Drivers/STM32F7xx_HAL_Driver/Src/stm32f7xx_hal_hcd.c **** 
  35:Drivers/STM32F7xx_HAL_Driver/Src/stm32f7xx_hal_hcd.c ****     (#)Associate the Upper USB Host stack to the HAL HCD Driver:
  36:Drivers/STM32F7xx_HAL_Driver/Src/stm32f7xx_hal_hcd.c ****         (##) hhcd.pData = phost;
  37:Drivers/STM32F7xx_HAL_Driver/Src/stm32f7xx_hal_hcd.c **** 
  38:Drivers/STM32F7xx_HAL_Driver/Src/stm32f7xx_hal_hcd.c ****     (#)Enable HCD transmission and reception:
  39:Drivers/STM32F7xx_HAL_Driver/Src/stm32f7xx_hal_hcd.c ****         (##) HAL_HCD_Start();
  40:Drivers/STM32F7xx_HAL_Driver/Src/stm32f7xx_hal_hcd.c **** 
  41:Drivers/STM32F7xx_HAL_Driver/Src/stm32f7xx_hal_hcd.c ****   @endverbatim
  42:Drivers/STM32F7xx_HAL_Driver/Src/stm32f7xx_hal_hcd.c ****   ******************************************************************************
  43:Drivers/STM32F7xx_HAL_Driver/Src/stm32f7xx_hal_hcd.c ****   * @attention
  44:Drivers/STM32F7xx_HAL_Driver/Src/stm32f7xx_hal_hcd.c ****   *
  45:Drivers/STM32F7xx_HAL_Driver/Src/stm32f7xx_hal_hcd.c ****   * <h2><center>&copy; COPYRIGHT(c) 2017 STMicroelectronics</center></h2>
  46:Drivers/STM32F7xx_HAL_Driver/Src/stm32f7xx_hal_hcd.c ****   *
  47:Drivers/STM32F7xx_HAL_Driver/Src/stm32f7xx_hal_hcd.c ****   * Redistribution and use in source and binary forms, with or without modification,
  48:Drivers/STM32F7xx_HAL_Driver/Src/stm32f7xx_hal_hcd.c ****   * are permitted provided that the following conditions are met:
  49:Drivers/STM32F7xx_HAL_Driver/Src/stm32f7xx_hal_hcd.c ****   *   1. Redistributions of source code must retain the above copyright notice,
  50:Drivers/STM32F7xx_HAL_Driver/Src/stm32f7xx_hal_hcd.c ****   *      this list of conditions and the following disclaimer.
  51:Drivers/STM32F7xx_HAL_Driver/Src/stm32f7xx_hal_hcd.c ****   *   2. Redistributions in binary form must reproduce the above copyright notice,
  52:Drivers/STM32F7xx_HAL_Driver/Src/stm32f7xx_hal_hcd.c ****   *      this list of conditions and the following disclaimer in the documentation
  53:Drivers/STM32F7xx_HAL_Driver/Src/stm32f7xx_hal_hcd.c ****   *      and/or other materials provided with the distribution.
  54:Drivers/STM32F7xx_HAL_Driver/Src/stm32f7xx_hal_hcd.c ****   *   3. Neither the name of STMicroelectronics nor the names of its contributors
  55:Drivers/STM32F7xx_HAL_Driver/Src/stm32f7xx_hal_hcd.c ****   *      may be used to endorse or promote products derived from this software
  56:Drivers/STM32F7xx_HAL_Driver/Src/stm32f7xx_hal_hcd.c ****   *      without specific prior written permission.
  57:Drivers/STM32F7xx_HAL_Driver/Src/stm32f7xx_hal_hcd.c ****   *
  58:Drivers/STM32F7xx_HAL_Driver/Src/stm32f7xx_hal_hcd.c ****   * THIS SOFTWARE IS PROVIDED BY THE COPYRIGHT HOLDERS AND CONTRIBUTORS "AS IS"
  59:Drivers/STM32F7xx_HAL_Driver/Src/stm32f7xx_hal_hcd.c ****   * AND ANY EXPRESS OR IMPLIED WARRANTIES, INCLUDING, BUT NOT LIMITED TO, THE
  60:Drivers/STM32F7xx_HAL_Driver/Src/stm32f7xx_hal_hcd.c ****   * IMPLIED WARRANTIES OF MERCHANTABILITY AND FITNESS FOR A PARTICULAR PURPOSE ARE
  61:Drivers/STM32F7xx_HAL_Driver/Src/stm32f7xx_hal_hcd.c ****   * DISCLAIMED. IN NO EVENT SHALL THE COPYRIGHT HOLDER OR CONTRIBUTORS BE LIABLE
  62:Drivers/STM32F7xx_HAL_Driver/Src/stm32f7xx_hal_hcd.c ****   * FOR ANY DIRECT, INDIRECT, INCIDENTAL, SPECIAL, EXEMPLARY, OR CONSEQUENTIAL
  63:Drivers/STM32F7xx_HAL_Driver/Src/stm32f7xx_hal_hcd.c ****   * DAMAGES (INCLUDING, BUT NOT LIMITED TO, PROCUREMENT OF SUBSTITUTE GOODS OR
  64:Drivers/STM32F7xx_HAL_Driver/Src/stm32f7xx_hal_hcd.c ****   * SERVICES; LOSS OF USE, DATA, OR PROFITS; OR BUSINESS INTERRUPTION) HOWEVER
  65:Drivers/STM32F7xx_HAL_Driver/Src/stm32f7xx_hal_hcd.c ****   * CAUSED AND ON ANY THEORY OF LIABILITY, WHETHER IN CONTRACT, STRICT LIABILITY,
  66:Drivers/STM32F7xx_HAL_Driver/Src/stm32f7xx_hal_hcd.c ****   * OR TORT (INCLUDING NEGLIGENCE OR OTHERWISE) ARISING IN ANY WAY OUT OF THE USE
  67:Drivers/STM32F7xx_HAL_Driver/Src/stm32f7xx_hal_hcd.c ****   * OF THIS SOFTWARE, EVEN IF ADVISED OF THE POSSIBILITY OF SUCH DAMAGE.
  68:Drivers/STM32F7xx_HAL_Driver/Src/stm32f7xx_hal_hcd.c ****   *
  69:Drivers/STM32F7xx_HAL_Driver/Src/stm32f7xx_hal_hcd.c ****   ******************************************************************************
  70:Drivers/STM32F7xx_HAL_Driver/Src/stm32f7xx_hal_hcd.c ****   */
  71:Drivers/STM32F7xx_HAL_Driver/Src/stm32f7xx_hal_hcd.c **** 
  72:Drivers/STM32F7xx_HAL_Driver/Src/stm32f7xx_hal_hcd.c **** /* Includes ------------------------------------------------------------------*/
  73:Drivers/STM32F7xx_HAL_Driver/Src/stm32f7xx_hal_hcd.c **** #include "stm32f7xx_hal.h"
  74:Drivers/STM32F7xx_HAL_Driver/Src/stm32f7xx_hal_hcd.c **** 
  75:Drivers/STM32F7xx_HAL_Driver/Src/stm32f7xx_hal_hcd.c **** /** @addtogroup STM32F7xx_HAL_Driver
  76:Drivers/STM32F7xx_HAL_Driver/Src/stm32f7xx_hal_hcd.c ****   * @{
  77:Drivers/STM32F7xx_HAL_Driver/Src/stm32f7xx_hal_hcd.c ****   */
  78:Drivers/STM32F7xx_HAL_Driver/Src/stm32f7xx_hal_hcd.c **** 
  79:Drivers/STM32F7xx_HAL_Driver/Src/stm32f7xx_hal_hcd.c **** /** @defgroup HCD HCD
  80:Drivers/STM32F7xx_HAL_Driver/Src/stm32f7xx_hal_hcd.c ****   * @brief HCD HAL module driver
  81:Drivers/STM32F7xx_HAL_Driver/Src/stm32f7xx_hal_hcd.c ****   * @{
  82:Drivers/STM32F7xx_HAL_Driver/Src/stm32f7xx_hal_hcd.c ****   */
  83:Drivers/STM32F7xx_HAL_Driver/Src/stm32f7xx_hal_hcd.c **** 
  84:Drivers/STM32F7xx_HAL_Driver/Src/stm32f7xx_hal_hcd.c **** #ifdef HAL_HCD_MODULE_ENABLED
  85:Drivers/STM32F7xx_HAL_Driver/Src/stm32f7xx_hal_hcd.c **** 
  86:Drivers/STM32F7xx_HAL_Driver/Src/stm32f7xx_hal_hcd.c **** /* Private typedef -----------------------------------------------------------*/
  87:Drivers/STM32F7xx_HAL_Driver/Src/stm32f7xx_hal_hcd.c **** /* Private define ------------------------------------------------------------*/
ARM GAS  C:\Users\Nina\AppData\Local\Temp\ccxRUdKh.s 			page 3


  88:Drivers/STM32F7xx_HAL_Driver/Src/stm32f7xx_hal_hcd.c **** /* Private macro -------------------------------------------------------------*/
  89:Drivers/STM32F7xx_HAL_Driver/Src/stm32f7xx_hal_hcd.c **** /* Private variables ---------------------------------------------------------*/
  90:Drivers/STM32F7xx_HAL_Driver/Src/stm32f7xx_hal_hcd.c **** /* Private function prototypes -----------------------------------------------*/
  91:Drivers/STM32F7xx_HAL_Driver/Src/stm32f7xx_hal_hcd.c **** /** @defgroup HCD_Private_Functions HCD Private Functions
  92:Drivers/STM32F7xx_HAL_Driver/Src/stm32f7xx_hal_hcd.c ****   * @{
  93:Drivers/STM32F7xx_HAL_Driver/Src/stm32f7xx_hal_hcd.c ****   */
  94:Drivers/STM32F7xx_HAL_Driver/Src/stm32f7xx_hal_hcd.c **** static void HCD_HC_IN_IRQHandler(HCD_HandleTypeDef *hhcd, uint8_t chnum);
  95:Drivers/STM32F7xx_HAL_Driver/Src/stm32f7xx_hal_hcd.c **** static void HCD_HC_OUT_IRQHandler(HCD_HandleTypeDef *hhcd, uint8_t chnum);
  96:Drivers/STM32F7xx_HAL_Driver/Src/stm32f7xx_hal_hcd.c **** static void HCD_RXQLVL_IRQHandler(HCD_HandleTypeDef *hhcd);
  97:Drivers/STM32F7xx_HAL_Driver/Src/stm32f7xx_hal_hcd.c **** static void HCD_Port_IRQHandler(HCD_HandleTypeDef *hhcd);
  98:Drivers/STM32F7xx_HAL_Driver/Src/stm32f7xx_hal_hcd.c **** /**
  99:Drivers/STM32F7xx_HAL_Driver/Src/stm32f7xx_hal_hcd.c ****   * @}
 100:Drivers/STM32F7xx_HAL_Driver/Src/stm32f7xx_hal_hcd.c ****   */
 101:Drivers/STM32F7xx_HAL_Driver/Src/stm32f7xx_hal_hcd.c **** 
 102:Drivers/STM32F7xx_HAL_Driver/Src/stm32f7xx_hal_hcd.c **** /* Exported functions --------------------------------------------------------*/
 103:Drivers/STM32F7xx_HAL_Driver/Src/stm32f7xx_hal_hcd.c **** /** @defgroup HCD_Exported_Functions HCD Exported Functions
 104:Drivers/STM32F7xx_HAL_Driver/Src/stm32f7xx_hal_hcd.c ****   * @{
 105:Drivers/STM32F7xx_HAL_Driver/Src/stm32f7xx_hal_hcd.c ****   */
 106:Drivers/STM32F7xx_HAL_Driver/Src/stm32f7xx_hal_hcd.c **** 
 107:Drivers/STM32F7xx_HAL_Driver/Src/stm32f7xx_hal_hcd.c **** /** @defgroup HCD_Exported_Functions_Group1 Initialization and de-initialization functions
 108:Drivers/STM32F7xx_HAL_Driver/Src/stm32f7xx_hal_hcd.c ****  *  @brief    Initialization and Configuration functions
 109:Drivers/STM32F7xx_HAL_Driver/Src/stm32f7xx_hal_hcd.c ****  *
 110:Drivers/STM32F7xx_HAL_Driver/Src/stm32f7xx_hal_hcd.c **** @verbatim
 111:Drivers/STM32F7xx_HAL_Driver/Src/stm32f7xx_hal_hcd.c ****  ===============================================================================
 112:Drivers/STM32F7xx_HAL_Driver/Src/stm32f7xx_hal_hcd.c ****           ##### Initialization and de-initialization functions #####
 113:Drivers/STM32F7xx_HAL_Driver/Src/stm32f7xx_hal_hcd.c ****  ===============================================================================
 114:Drivers/STM32F7xx_HAL_Driver/Src/stm32f7xx_hal_hcd.c ****     [..]  This section provides functions allowing to:
 115:Drivers/STM32F7xx_HAL_Driver/Src/stm32f7xx_hal_hcd.c **** 
 116:Drivers/STM32F7xx_HAL_Driver/Src/stm32f7xx_hal_hcd.c **** @endverbatim
 117:Drivers/STM32F7xx_HAL_Driver/Src/stm32f7xx_hal_hcd.c ****   * @{
 118:Drivers/STM32F7xx_HAL_Driver/Src/stm32f7xx_hal_hcd.c ****   */
 119:Drivers/STM32F7xx_HAL_Driver/Src/stm32f7xx_hal_hcd.c **** 
 120:Drivers/STM32F7xx_HAL_Driver/Src/stm32f7xx_hal_hcd.c **** /**
 121:Drivers/STM32F7xx_HAL_Driver/Src/stm32f7xx_hal_hcd.c ****   * @brief  Initialize the host driver.
 122:Drivers/STM32F7xx_HAL_Driver/Src/stm32f7xx_hal_hcd.c ****   * @param  hhcd HCD handle
 123:Drivers/STM32F7xx_HAL_Driver/Src/stm32f7xx_hal_hcd.c ****   * @retval HAL status
 124:Drivers/STM32F7xx_HAL_Driver/Src/stm32f7xx_hal_hcd.c ****   */
 125:Drivers/STM32F7xx_HAL_Driver/Src/stm32f7xx_hal_hcd.c **** HAL_StatusTypeDef HAL_HCD_Init(HCD_HandleTypeDef *hhcd)
 126:Drivers/STM32F7xx_HAL_Driver/Src/stm32f7xx_hal_hcd.c **** {
 127:Drivers/STM32F7xx_HAL_Driver/Src/stm32f7xx_hal_hcd.c ****   /* Check the HCD handle allocation */
 128:Drivers/STM32F7xx_HAL_Driver/Src/stm32f7xx_hal_hcd.c ****   if(hhcd == NULL)
 129:Drivers/STM32F7xx_HAL_Driver/Src/stm32f7xx_hal_hcd.c ****   {
 130:Drivers/STM32F7xx_HAL_Driver/Src/stm32f7xx_hal_hcd.c ****     return HAL_ERROR;
 131:Drivers/STM32F7xx_HAL_Driver/Src/stm32f7xx_hal_hcd.c ****   }
 132:Drivers/STM32F7xx_HAL_Driver/Src/stm32f7xx_hal_hcd.c **** 
 133:Drivers/STM32F7xx_HAL_Driver/Src/stm32f7xx_hal_hcd.c ****   /* Check the parameters */
 134:Drivers/STM32F7xx_HAL_Driver/Src/stm32f7xx_hal_hcd.c ****   assert_param(IS_HCD_ALL_INSTANCE(hhcd->Instance));
 135:Drivers/STM32F7xx_HAL_Driver/Src/stm32f7xx_hal_hcd.c **** 
 136:Drivers/STM32F7xx_HAL_Driver/Src/stm32f7xx_hal_hcd.c ****   if(hhcd->State == HAL_HCD_STATE_RESET)
 137:Drivers/STM32F7xx_HAL_Driver/Src/stm32f7xx_hal_hcd.c ****   {
 138:Drivers/STM32F7xx_HAL_Driver/Src/stm32f7xx_hal_hcd.c ****     /* Allocate lock resource and initialize it */
 139:Drivers/STM32F7xx_HAL_Driver/Src/stm32f7xx_hal_hcd.c ****     hhcd->Lock = HAL_UNLOCKED;
 140:Drivers/STM32F7xx_HAL_Driver/Src/stm32f7xx_hal_hcd.c **** 
 141:Drivers/STM32F7xx_HAL_Driver/Src/stm32f7xx_hal_hcd.c ****     /* Init the low level hardware : GPIO, CLOCK, NVIC... */
 142:Drivers/STM32F7xx_HAL_Driver/Src/stm32f7xx_hal_hcd.c ****     HAL_HCD_MspInit(hhcd);
 143:Drivers/STM32F7xx_HAL_Driver/Src/stm32f7xx_hal_hcd.c ****   }
 144:Drivers/STM32F7xx_HAL_Driver/Src/stm32f7xx_hal_hcd.c **** 
ARM GAS  C:\Users\Nina\AppData\Local\Temp\ccxRUdKh.s 			page 4


 145:Drivers/STM32F7xx_HAL_Driver/Src/stm32f7xx_hal_hcd.c ****   hhcd->State = HAL_HCD_STATE_BUSY;
 146:Drivers/STM32F7xx_HAL_Driver/Src/stm32f7xx_hal_hcd.c **** 
 147:Drivers/STM32F7xx_HAL_Driver/Src/stm32f7xx_hal_hcd.c ****   /* Disable the Interrupts */
 148:Drivers/STM32F7xx_HAL_Driver/Src/stm32f7xx_hal_hcd.c ****   __HAL_HCD_DISABLE(hhcd);
 149:Drivers/STM32F7xx_HAL_Driver/Src/stm32f7xx_hal_hcd.c **** 
 150:Drivers/STM32F7xx_HAL_Driver/Src/stm32f7xx_hal_hcd.c ****   /* Init the Core (common init.) */
 151:Drivers/STM32F7xx_HAL_Driver/Src/stm32f7xx_hal_hcd.c ****   (void)USB_CoreInit(hhcd->Instance, hhcd->Init);
 152:Drivers/STM32F7xx_HAL_Driver/Src/stm32f7xx_hal_hcd.c **** 
 153:Drivers/STM32F7xx_HAL_Driver/Src/stm32f7xx_hal_hcd.c ****   /* Force Host Mode*/
 154:Drivers/STM32F7xx_HAL_Driver/Src/stm32f7xx_hal_hcd.c ****   (void)USB_SetCurrentMode(hhcd->Instance, USB_HOST_MODE);
 155:Drivers/STM32F7xx_HAL_Driver/Src/stm32f7xx_hal_hcd.c **** 
 156:Drivers/STM32F7xx_HAL_Driver/Src/stm32f7xx_hal_hcd.c ****   /* Init Host */
 157:Drivers/STM32F7xx_HAL_Driver/Src/stm32f7xx_hal_hcd.c ****   (void)USB_HostInit(hhcd->Instance, hhcd->Init);
 158:Drivers/STM32F7xx_HAL_Driver/Src/stm32f7xx_hal_hcd.c **** 
 159:Drivers/STM32F7xx_HAL_Driver/Src/stm32f7xx_hal_hcd.c ****   hhcd->State= HAL_HCD_STATE_READY;
 160:Drivers/STM32F7xx_HAL_Driver/Src/stm32f7xx_hal_hcd.c **** 
 161:Drivers/STM32F7xx_HAL_Driver/Src/stm32f7xx_hal_hcd.c ****   return HAL_OK;
 162:Drivers/STM32F7xx_HAL_Driver/Src/stm32f7xx_hal_hcd.c **** }
 163:Drivers/STM32F7xx_HAL_Driver/Src/stm32f7xx_hal_hcd.c **** 
 164:Drivers/STM32F7xx_HAL_Driver/Src/stm32f7xx_hal_hcd.c **** /**
 165:Drivers/STM32F7xx_HAL_Driver/Src/stm32f7xx_hal_hcd.c ****   * @brief  Initialize a host channel.
 166:Drivers/STM32F7xx_HAL_Driver/Src/stm32f7xx_hal_hcd.c ****   * @param  hhcd HCD handle
 167:Drivers/STM32F7xx_HAL_Driver/Src/stm32f7xx_hal_hcd.c ****   * @param  ch_num Channel number.
 168:Drivers/STM32F7xx_HAL_Driver/Src/stm32f7xx_hal_hcd.c ****   *         This parameter can be a value from 1 to 15
 169:Drivers/STM32F7xx_HAL_Driver/Src/stm32f7xx_hal_hcd.c ****   * @param  epnum Endpoint number.
 170:Drivers/STM32F7xx_HAL_Driver/Src/stm32f7xx_hal_hcd.c ****   *          This parameter can be a value from 1 to 15
 171:Drivers/STM32F7xx_HAL_Driver/Src/stm32f7xx_hal_hcd.c ****   * @param  dev_address Current device address
 172:Drivers/STM32F7xx_HAL_Driver/Src/stm32f7xx_hal_hcd.c ****   *          This parameter can be a value from 0 to 255
 173:Drivers/STM32F7xx_HAL_Driver/Src/stm32f7xx_hal_hcd.c ****   * @param  speed Current device speed.
 174:Drivers/STM32F7xx_HAL_Driver/Src/stm32f7xx_hal_hcd.c ****   *          This parameter can be one of these values:
 175:Drivers/STM32F7xx_HAL_Driver/Src/stm32f7xx_hal_hcd.c ****   *            HCD_SPEED_HIGH: High speed mode,
 176:Drivers/STM32F7xx_HAL_Driver/Src/stm32f7xx_hal_hcd.c ****   *            HCD_SPEED_FULL: Full speed mode,
 177:Drivers/STM32F7xx_HAL_Driver/Src/stm32f7xx_hal_hcd.c ****   *            HCD_SPEED_LOW: Low speed mode
 178:Drivers/STM32F7xx_HAL_Driver/Src/stm32f7xx_hal_hcd.c ****   * @param  ep_type Endpoint Type.
 179:Drivers/STM32F7xx_HAL_Driver/Src/stm32f7xx_hal_hcd.c ****   *          This parameter can be one of these values:
 180:Drivers/STM32F7xx_HAL_Driver/Src/stm32f7xx_hal_hcd.c ****   *            EP_TYPE_CTRL: Control type,
 181:Drivers/STM32F7xx_HAL_Driver/Src/stm32f7xx_hal_hcd.c ****   *            EP_TYPE_ISOC: Isochronous type,
 182:Drivers/STM32F7xx_HAL_Driver/Src/stm32f7xx_hal_hcd.c ****   *            EP_TYPE_BULK: Bulk type,
 183:Drivers/STM32F7xx_HAL_Driver/Src/stm32f7xx_hal_hcd.c ****   *            EP_TYPE_INTR: Interrupt type
 184:Drivers/STM32F7xx_HAL_Driver/Src/stm32f7xx_hal_hcd.c ****   * @param  mps Max Packet Size.
 185:Drivers/STM32F7xx_HAL_Driver/Src/stm32f7xx_hal_hcd.c ****   *          This parameter can be a value from 0 to32K
 186:Drivers/STM32F7xx_HAL_Driver/Src/stm32f7xx_hal_hcd.c ****   * @retval HAL status
 187:Drivers/STM32F7xx_HAL_Driver/Src/stm32f7xx_hal_hcd.c ****   */
 188:Drivers/STM32F7xx_HAL_Driver/Src/stm32f7xx_hal_hcd.c **** HAL_StatusTypeDef HAL_HCD_HC_Init(HCD_HandleTypeDef *hhcd,
 189:Drivers/STM32F7xx_HAL_Driver/Src/stm32f7xx_hal_hcd.c ****                                   uint8_t ch_num,
 190:Drivers/STM32F7xx_HAL_Driver/Src/stm32f7xx_hal_hcd.c ****                                   uint8_t epnum,
 191:Drivers/STM32F7xx_HAL_Driver/Src/stm32f7xx_hal_hcd.c ****                                   uint8_t dev_address,
 192:Drivers/STM32F7xx_HAL_Driver/Src/stm32f7xx_hal_hcd.c ****                                   uint8_t speed,
 193:Drivers/STM32F7xx_HAL_Driver/Src/stm32f7xx_hal_hcd.c ****                                   uint8_t ep_type,
 194:Drivers/STM32F7xx_HAL_Driver/Src/stm32f7xx_hal_hcd.c ****                                   uint16_t mps)
 195:Drivers/STM32F7xx_HAL_Driver/Src/stm32f7xx_hal_hcd.c **** {
 196:Drivers/STM32F7xx_HAL_Driver/Src/stm32f7xx_hal_hcd.c ****   HAL_StatusTypeDef status;
 197:Drivers/STM32F7xx_HAL_Driver/Src/stm32f7xx_hal_hcd.c **** 
 198:Drivers/STM32F7xx_HAL_Driver/Src/stm32f7xx_hal_hcd.c ****   __HAL_LOCK(hhcd);
 199:Drivers/STM32F7xx_HAL_Driver/Src/stm32f7xx_hal_hcd.c ****   hhcd->hc[ch_num].do_ping = 0U;
 200:Drivers/STM32F7xx_HAL_Driver/Src/stm32f7xx_hal_hcd.c ****   hhcd->hc[ch_num].dev_addr = dev_address;
 201:Drivers/STM32F7xx_HAL_Driver/Src/stm32f7xx_hal_hcd.c ****   hhcd->hc[ch_num].max_packet = mps;
ARM GAS  C:\Users\Nina\AppData\Local\Temp\ccxRUdKh.s 			page 5


 202:Drivers/STM32F7xx_HAL_Driver/Src/stm32f7xx_hal_hcd.c ****   hhcd->hc[ch_num].ch_num = ch_num;
 203:Drivers/STM32F7xx_HAL_Driver/Src/stm32f7xx_hal_hcd.c ****   hhcd->hc[ch_num].ep_type = ep_type;
 204:Drivers/STM32F7xx_HAL_Driver/Src/stm32f7xx_hal_hcd.c ****   hhcd->hc[ch_num].ep_num = epnum & 0x7FU;
 205:Drivers/STM32F7xx_HAL_Driver/Src/stm32f7xx_hal_hcd.c **** 
 206:Drivers/STM32F7xx_HAL_Driver/Src/stm32f7xx_hal_hcd.c ****   if ((epnum & 0x80U) == 0x80U)
 207:Drivers/STM32F7xx_HAL_Driver/Src/stm32f7xx_hal_hcd.c ****   {
 208:Drivers/STM32F7xx_HAL_Driver/Src/stm32f7xx_hal_hcd.c ****     hhcd->hc[ch_num].ep_is_in = 1U;
 209:Drivers/STM32F7xx_HAL_Driver/Src/stm32f7xx_hal_hcd.c ****   }
 210:Drivers/STM32F7xx_HAL_Driver/Src/stm32f7xx_hal_hcd.c ****   else
 211:Drivers/STM32F7xx_HAL_Driver/Src/stm32f7xx_hal_hcd.c ****   {
 212:Drivers/STM32F7xx_HAL_Driver/Src/stm32f7xx_hal_hcd.c ****     hhcd->hc[ch_num].ep_is_in = 0U;
 213:Drivers/STM32F7xx_HAL_Driver/Src/stm32f7xx_hal_hcd.c ****   }
 214:Drivers/STM32F7xx_HAL_Driver/Src/stm32f7xx_hal_hcd.c **** 
 215:Drivers/STM32F7xx_HAL_Driver/Src/stm32f7xx_hal_hcd.c ****   hhcd->hc[ch_num].speed = speed;
 216:Drivers/STM32F7xx_HAL_Driver/Src/stm32f7xx_hal_hcd.c **** 
 217:Drivers/STM32F7xx_HAL_Driver/Src/stm32f7xx_hal_hcd.c ****   status =  USB_HC_Init(hhcd->Instance,
 218:Drivers/STM32F7xx_HAL_Driver/Src/stm32f7xx_hal_hcd.c ****                         ch_num,
 219:Drivers/STM32F7xx_HAL_Driver/Src/stm32f7xx_hal_hcd.c ****                         epnum,
 220:Drivers/STM32F7xx_HAL_Driver/Src/stm32f7xx_hal_hcd.c ****                         dev_address,
 221:Drivers/STM32F7xx_HAL_Driver/Src/stm32f7xx_hal_hcd.c ****                         speed,
 222:Drivers/STM32F7xx_HAL_Driver/Src/stm32f7xx_hal_hcd.c ****                         ep_type,
 223:Drivers/STM32F7xx_HAL_Driver/Src/stm32f7xx_hal_hcd.c ****                         mps);
 224:Drivers/STM32F7xx_HAL_Driver/Src/stm32f7xx_hal_hcd.c ****   __HAL_UNLOCK(hhcd);
 225:Drivers/STM32F7xx_HAL_Driver/Src/stm32f7xx_hal_hcd.c **** 
 226:Drivers/STM32F7xx_HAL_Driver/Src/stm32f7xx_hal_hcd.c ****   return status;
 227:Drivers/STM32F7xx_HAL_Driver/Src/stm32f7xx_hal_hcd.c **** }
 228:Drivers/STM32F7xx_HAL_Driver/Src/stm32f7xx_hal_hcd.c **** 
 229:Drivers/STM32F7xx_HAL_Driver/Src/stm32f7xx_hal_hcd.c **** /**
 230:Drivers/STM32F7xx_HAL_Driver/Src/stm32f7xx_hal_hcd.c ****   * @brief  Halt a host channel.
 231:Drivers/STM32F7xx_HAL_Driver/Src/stm32f7xx_hal_hcd.c ****   * @param  hhcd HCD handle
 232:Drivers/STM32F7xx_HAL_Driver/Src/stm32f7xx_hal_hcd.c ****   * @param  ch_num Channel number.
 233:Drivers/STM32F7xx_HAL_Driver/Src/stm32f7xx_hal_hcd.c ****   *         This parameter can be a value from 1 to 15
 234:Drivers/STM32F7xx_HAL_Driver/Src/stm32f7xx_hal_hcd.c ****   * @retval HAL status
 235:Drivers/STM32F7xx_HAL_Driver/Src/stm32f7xx_hal_hcd.c ****   */
 236:Drivers/STM32F7xx_HAL_Driver/Src/stm32f7xx_hal_hcd.c **** HAL_StatusTypeDef HAL_HCD_HC_Halt(HCD_HandleTypeDef *hhcd, uint8_t ch_num)
 237:Drivers/STM32F7xx_HAL_Driver/Src/stm32f7xx_hal_hcd.c **** {
 238:Drivers/STM32F7xx_HAL_Driver/Src/stm32f7xx_hal_hcd.c ****   HAL_StatusTypeDef status = HAL_OK;
 239:Drivers/STM32F7xx_HAL_Driver/Src/stm32f7xx_hal_hcd.c **** 
 240:Drivers/STM32F7xx_HAL_Driver/Src/stm32f7xx_hal_hcd.c ****   __HAL_LOCK(hhcd);
 241:Drivers/STM32F7xx_HAL_Driver/Src/stm32f7xx_hal_hcd.c ****   (void)USB_HC_Halt(hhcd->Instance, (uint8_t)ch_num);
 242:Drivers/STM32F7xx_HAL_Driver/Src/stm32f7xx_hal_hcd.c ****   __HAL_UNLOCK(hhcd);
 243:Drivers/STM32F7xx_HAL_Driver/Src/stm32f7xx_hal_hcd.c **** 
 244:Drivers/STM32F7xx_HAL_Driver/Src/stm32f7xx_hal_hcd.c ****   return status;
 245:Drivers/STM32F7xx_HAL_Driver/Src/stm32f7xx_hal_hcd.c **** }
 246:Drivers/STM32F7xx_HAL_Driver/Src/stm32f7xx_hal_hcd.c **** 
 247:Drivers/STM32F7xx_HAL_Driver/Src/stm32f7xx_hal_hcd.c **** /**
 248:Drivers/STM32F7xx_HAL_Driver/Src/stm32f7xx_hal_hcd.c ****   * @brief  DeInitialize the host driver.
 249:Drivers/STM32F7xx_HAL_Driver/Src/stm32f7xx_hal_hcd.c ****   * @param  hhcd HCD handle
 250:Drivers/STM32F7xx_HAL_Driver/Src/stm32f7xx_hal_hcd.c ****   * @retval HAL status
 251:Drivers/STM32F7xx_HAL_Driver/Src/stm32f7xx_hal_hcd.c ****   */
 252:Drivers/STM32F7xx_HAL_Driver/Src/stm32f7xx_hal_hcd.c **** HAL_StatusTypeDef HAL_HCD_DeInit(HCD_HandleTypeDef *hhcd)
 253:Drivers/STM32F7xx_HAL_Driver/Src/stm32f7xx_hal_hcd.c **** {
 254:Drivers/STM32F7xx_HAL_Driver/Src/stm32f7xx_hal_hcd.c ****   /* Check the HCD handle allocation */
 255:Drivers/STM32F7xx_HAL_Driver/Src/stm32f7xx_hal_hcd.c ****   if(hhcd == NULL)
 256:Drivers/STM32F7xx_HAL_Driver/Src/stm32f7xx_hal_hcd.c ****   {
 257:Drivers/STM32F7xx_HAL_Driver/Src/stm32f7xx_hal_hcd.c ****     return HAL_ERROR;
 258:Drivers/STM32F7xx_HAL_Driver/Src/stm32f7xx_hal_hcd.c ****   }
ARM GAS  C:\Users\Nina\AppData\Local\Temp\ccxRUdKh.s 			page 6


 259:Drivers/STM32F7xx_HAL_Driver/Src/stm32f7xx_hal_hcd.c **** 
 260:Drivers/STM32F7xx_HAL_Driver/Src/stm32f7xx_hal_hcd.c ****   hhcd->State = HAL_HCD_STATE_BUSY;
 261:Drivers/STM32F7xx_HAL_Driver/Src/stm32f7xx_hal_hcd.c **** 
 262:Drivers/STM32F7xx_HAL_Driver/Src/stm32f7xx_hal_hcd.c ****   /* DeInit the low level hardware */
 263:Drivers/STM32F7xx_HAL_Driver/Src/stm32f7xx_hal_hcd.c ****   HAL_HCD_MspDeInit(hhcd);
 264:Drivers/STM32F7xx_HAL_Driver/Src/stm32f7xx_hal_hcd.c **** 
 265:Drivers/STM32F7xx_HAL_Driver/Src/stm32f7xx_hal_hcd.c ****   __HAL_HCD_DISABLE(hhcd);
 266:Drivers/STM32F7xx_HAL_Driver/Src/stm32f7xx_hal_hcd.c **** 
 267:Drivers/STM32F7xx_HAL_Driver/Src/stm32f7xx_hal_hcd.c ****   hhcd->State = HAL_HCD_STATE_RESET;
 268:Drivers/STM32F7xx_HAL_Driver/Src/stm32f7xx_hal_hcd.c **** 
 269:Drivers/STM32F7xx_HAL_Driver/Src/stm32f7xx_hal_hcd.c ****   return HAL_OK;
 270:Drivers/STM32F7xx_HAL_Driver/Src/stm32f7xx_hal_hcd.c **** }
 271:Drivers/STM32F7xx_HAL_Driver/Src/stm32f7xx_hal_hcd.c **** 
 272:Drivers/STM32F7xx_HAL_Driver/Src/stm32f7xx_hal_hcd.c **** /**
 273:Drivers/STM32F7xx_HAL_Driver/Src/stm32f7xx_hal_hcd.c ****   * @brief  Initialize the HCD MSP.
 274:Drivers/STM32F7xx_HAL_Driver/Src/stm32f7xx_hal_hcd.c ****   * @param  hhcd HCD handle
 275:Drivers/STM32F7xx_HAL_Driver/Src/stm32f7xx_hal_hcd.c ****   * @retval None
 276:Drivers/STM32F7xx_HAL_Driver/Src/stm32f7xx_hal_hcd.c ****   */
 277:Drivers/STM32F7xx_HAL_Driver/Src/stm32f7xx_hal_hcd.c **** __weak void  HAL_HCD_MspInit(HCD_HandleTypeDef *hhcd)
 278:Drivers/STM32F7xx_HAL_Driver/Src/stm32f7xx_hal_hcd.c **** {
 279:Drivers/STM32F7xx_HAL_Driver/Src/stm32f7xx_hal_hcd.c ****   /* Prevent unused argument(s) compilation warning */
 280:Drivers/STM32F7xx_HAL_Driver/Src/stm32f7xx_hal_hcd.c ****   UNUSED(hhcd);
 281:Drivers/STM32F7xx_HAL_Driver/Src/stm32f7xx_hal_hcd.c **** 
 282:Drivers/STM32F7xx_HAL_Driver/Src/stm32f7xx_hal_hcd.c ****   /* NOTE : This function should not be modified, when the callback is needed,
 283:Drivers/STM32F7xx_HAL_Driver/Src/stm32f7xx_hal_hcd.c ****             the HAL_HCD_MspInit could be implemented in the user file
 284:Drivers/STM32F7xx_HAL_Driver/Src/stm32f7xx_hal_hcd.c ****    */
 285:Drivers/STM32F7xx_HAL_Driver/Src/stm32f7xx_hal_hcd.c **** }
 286:Drivers/STM32F7xx_HAL_Driver/Src/stm32f7xx_hal_hcd.c **** 
 287:Drivers/STM32F7xx_HAL_Driver/Src/stm32f7xx_hal_hcd.c **** /**
 288:Drivers/STM32F7xx_HAL_Driver/Src/stm32f7xx_hal_hcd.c ****   * @brief  DeInitialize the HCD MSP.
 289:Drivers/STM32F7xx_HAL_Driver/Src/stm32f7xx_hal_hcd.c ****   * @param  hhcd HCD handle
 290:Drivers/STM32F7xx_HAL_Driver/Src/stm32f7xx_hal_hcd.c ****   * @retval None
 291:Drivers/STM32F7xx_HAL_Driver/Src/stm32f7xx_hal_hcd.c ****   */
 292:Drivers/STM32F7xx_HAL_Driver/Src/stm32f7xx_hal_hcd.c **** __weak void  HAL_HCD_MspDeInit(HCD_HandleTypeDef *hhcd)
 293:Drivers/STM32F7xx_HAL_Driver/Src/stm32f7xx_hal_hcd.c **** {
 294:Drivers/STM32F7xx_HAL_Driver/Src/stm32f7xx_hal_hcd.c ****   /* Prevent unused argument(s) compilation warning */
 295:Drivers/STM32F7xx_HAL_Driver/Src/stm32f7xx_hal_hcd.c ****   UNUSED(hhcd);
 296:Drivers/STM32F7xx_HAL_Driver/Src/stm32f7xx_hal_hcd.c **** 
 297:Drivers/STM32F7xx_HAL_Driver/Src/stm32f7xx_hal_hcd.c ****   /* NOTE : This function should not be modified, when the callback is needed,
 298:Drivers/STM32F7xx_HAL_Driver/Src/stm32f7xx_hal_hcd.c ****             the HAL_HCD_MspDeInit could be implemented in the user file
 299:Drivers/STM32F7xx_HAL_Driver/Src/stm32f7xx_hal_hcd.c ****    */
 300:Drivers/STM32F7xx_HAL_Driver/Src/stm32f7xx_hal_hcd.c **** }
 301:Drivers/STM32F7xx_HAL_Driver/Src/stm32f7xx_hal_hcd.c **** 
 302:Drivers/STM32F7xx_HAL_Driver/Src/stm32f7xx_hal_hcd.c **** /**
 303:Drivers/STM32F7xx_HAL_Driver/Src/stm32f7xx_hal_hcd.c ****   * @}
 304:Drivers/STM32F7xx_HAL_Driver/Src/stm32f7xx_hal_hcd.c ****   */
 305:Drivers/STM32F7xx_HAL_Driver/Src/stm32f7xx_hal_hcd.c **** 
 306:Drivers/STM32F7xx_HAL_Driver/Src/stm32f7xx_hal_hcd.c **** /** @defgroup HCD_Exported_Functions_Group2 Input and Output operation functions
 307:Drivers/STM32F7xx_HAL_Driver/Src/stm32f7xx_hal_hcd.c ****   *  @brief   HCD IO operation functions
 308:Drivers/STM32F7xx_HAL_Driver/Src/stm32f7xx_hal_hcd.c ****   *
 309:Drivers/STM32F7xx_HAL_Driver/Src/stm32f7xx_hal_hcd.c **** @verbatim
 310:Drivers/STM32F7xx_HAL_Driver/Src/stm32f7xx_hal_hcd.c ****  ===============================================================================
 311:Drivers/STM32F7xx_HAL_Driver/Src/stm32f7xx_hal_hcd.c ****                       ##### IO operation functions #####
 312:Drivers/STM32F7xx_HAL_Driver/Src/stm32f7xx_hal_hcd.c ****  ===============================================================================
 313:Drivers/STM32F7xx_HAL_Driver/Src/stm32f7xx_hal_hcd.c ****  [..] This subsection provides a set of functions allowing to manage the USB Host Data
 314:Drivers/STM32F7xx_HAL_Driver/Src/stm32f7xx_hal_hcd.c ****     Transfer
 315:Drivers/STM32F7xx_HAL_Driver/Src/stm32f7xx_hal_hcd.c **** 
ARM GAS  C:\Users\Nina\AppData\Local\Temp\ccxRUdKh.s 			page 7


 316:Drivers/STM32F7xx_HAL_Driver/Src/stm32f7xx_hal_hcd.c **** @endverbatim
 317:Drivers/STM32F7xx_HAL_Driver/Src/stm32f7xx_hal_hcd.c ****   * @{
 318:Drivers/STM32F7xx_HAL_Driver/Src/stm32f7xx_hal_hcd.c ****   */
 319:Drivers/STM32F7xx_HAL_Driver/Src/stm32f7xx_hal_hcd.c **** 
 320:Drivers/STM32F7xx_HAL_Driver/Src/stm32f7xx_hal_hcd.c **** /**
 321:Drivers/STM32F7xx_HAL_Driver/Src/stm32f7xx_hal_hcd.c ****   * @brief  Submit a new URB for processing.
 322:Drivers/STM32F7xx_HAL_Driver/Src/stm32f7xx_hal_hcd.c ****   * @param  hhcd HCD handle
 323:Drivers/STM32F7xx_HAL_Driver/Src/stm32f7xx_hal_hcd.c ****   * @param  ch_num Channel number.
 324:Drivers/STM32F7xx_HAL_Driver/Src/stm32f7xx_hal_hcd.c ****   *         This parameter can be a value from 1 to 15
 325:Drivers/STM32F7xx_HAL_Driver/Src/stm32f7xx_hal_hcd.c ****   * @param  direction Channel number.
 326:Drivers/STM32F7xx_HAL_Driver/Src/stm32f7xx_hal_hcd.c ****   *          This parameter can be one of these values:
 327:Drivers/STM32F7xx_HAL_Driver/Src/stm32f7xx_hal_hcd.c ****   *           0 : Output / 1 : Input
 328:Drivers/STM32F7xx_HAL_Driver/Src/stm32f7xx_hal_hcd.c ****   * @param  ep_type Endpoint Type.
 329:Drivers/STM32F7xx_HAL_Driver/Src/stm32f7xx_hal_hcd.c ****   *          This parameter can be one of these values:
 330:Drivers/STM32F7xx_HAL_Driver/Src/stm32f7xx_hal_hcd.c ****   *            EP_TYPE_CTRL: Control type/
 331:Drivers/STM32F7xx_HAL_Driver/Src/stm32f7xx_hal_hcd.c ****   *            EP_TYPE_ISOC: Isochronous type/
 332:Drivers/STM32F7xx_HAL_Driver/Src/stm32f7xx_hal_hcd.c ****   *            EP_TYPE_BULK: Bulk type/
 333:Drivers/STM32F7xx_HAL_Driver/Src/stm32f7xx_hal_hcd.c ****   *            EP_TYPE_INTR: Interrupt type/
 334:Drivers/STM32F7xx_HAL_Driver/Src/stm32f7xx_hal_hcd.c ****   * @param  token Endpoint Type.
 335:Drivers/STM32F7xx_HAL_Driver/Src/stm32f7xx_hal_hcd.c ****   *          This parameter can be one of these values:
 336:Drivers/STM32F7xx_HAL_Driver/Src/stm32f7xx_hal_hcd.c ****   *            0: HC_PID_SETUP / 1: HC_PID_DATA1
 337:Drivers/STM32F7xx_HAL_Driver/Src/stm32f7xx_hal_hcd.c ****   * @param  pbuff pointer to URB data
 338:Drivers/STM32F7xx_HAL_Driver/Src/stm32f7xx_hal_hcd.c ****   * @param  length Length of URB data
 339:Drivers/STM32F7xx_HAL_Driver/Src/stm32f7xx_hal_hcd.c ****   * @param  do_ping activate do ping protocol (for high speed only).
 340:Drivers/STM32F7xx_HAL_Driver/Src/stm32f7xx_hal_hcd.c ****   *          This parameter can be one of these values:
 341:Drivers/STM32F7xx_HAL_Driver/Src/stm32f7xx_hal_hcd.c ****   *           0 : do ping inactive / 1 : do ping active
 342:Drivers/STM32F7xx_HAL_Driver/Src/stm32f7xx_hal_hcd.c ****   * @retval HAL status
 343:Drivers/STM32F7xx_HAL_Driver/Src/stm32f7xx_hal_hcd.c ****   */
 344:Drivers/STM32F7xx_HAL_Driver/Src/stm32f7xx_hal_hcd.c **** HAL_StatusTypeDef HAL_HCD_HC_SubmitRequest(HCD_HandleTypeDef *hhcd,
 345:Drivers/STM32F7xx_HAL_Driver/Src/stm32f7xx_hal_hcd.c ****                                            uint8_t ch_num,
 346:Drivers/STM32F7xx_HAL_Driver/Src/stm32f7xx_hal_hcd.c ****                                            uint8_t direction,
 347:Drivers/STM32F7xx_HAL_Driver/Src/stm32f7xx_hal_hcd.c ****                                            uint8_t ep_type,
 348:Drivers/STM32F7xx_HAL_Driver/Src/stm32f7xx_hal_hcd.c ****                                            uint8_t token,
 349:Drivers/STM32F7xx_HAL_Driver/Src/stm32f7xx_hal_hcd.c ****                                            uint8_t* pbuff,
 350:Drivers/STM32F7xx_HAL_Driver/Src/stm32f7xx_hal_hcd.c ****                                            uint16_t length,
 351:Drivers/STM32F7xx_HAL_Driver/Src/stm32f7xx_hal_hcd.c ****                                            uint8_t do_ping)
 352:Drivers/STM32F7xx_HAL_Driver/Src/stm32f7xx_hal_hcd.c **** {
 353:Drivers/STM32F7xx_HAL_Driver/Src/stm32f7xx_hal_hcd.c ****   UNUSED(do_ping);
 354:Drivers/STM32F7xx_HAL_Driver/Src/stm32f7xx_hal_hcd.c **** 
 355:Drivers/STM32F7xx_HAL_Driver/Src/stm32f7xx_hal_hcd.c ****   hhcd->hc[ch_num].ep_is_in = direction;
 356:Drivers/STM32F7xx_HAL_Driver/Src/stm32f7xx_hal_hcd.c ****   hhcd->hc[ch_num].ep_type  = ep_type;
 357:Drivers/STM32F7xx_HAL_Driver/Src/stm32f7xx_hal_hcd.c **** 
 358:Drivers/STM32F7xx_HAL_Driver/Src/stm32f7xx_hal_hcd.c ****   if(token == 0U)
 359:Drivers/STM32F7xx_HAL_Driver/Src/stm32f7xx_hal_hcd.c ****   {
 360:Drivers/STM32F7xx_HAL_Driver/Src/stm32f7xx_hal_hcd.c ****     hhcd->hc[ch_num].data_pid = HC_PID_SETUP;
 361:Drivers/STM32F7xx_HAL_Driver/Src/stm32f7xx_hal_hcd.c ****   }
 362:Drivers/STM32F7xx_HAL_Driver/Src/stm32f7xx_hal_hcd.c ****   else
 363:Drivers/STM32F7xx_HAL_Driver/Src/stm32f7xx_hal_hcd.c ****   {
 364:Drivers/STM32F7xx_HAL_Driver/Src/stm32f7xx_hal_hcd.c ****     hhcd->hc[ch_num].data_pid = HC_PID_DATA1;
 365:Drivers/STM32F7xx_HAL_Driver/Src/stm32f7xx_hal_hcd.c ****   }
 366:Drivers/STM32F7xx_HAL_Driver/Src/stm32f7xx_hal_hcd.c **** 
 367:Drivers/STM32F7xx_HAL_Driver/Src/stm32f7xx_hal_hcd.c ****   /* Manage Data Toggle */
 368:Drivers/STM32F7xx_HAL_Driver/Src/stm32f7xx_hal_hcd.c ****   switch(ep_type)
 369:Drivers/STM32F7xx_HAL_Driver/Src/stm32f7xx_hal_hcd.c ****   {
 370:Drivers/STM32F7xx_HAL_Driver/Src/stm32f7xx_hal_hcd.c ****   case EP_TYPE_CTRL:
 371:Drivers/STM32F7xx_HAL_Driver/Src/stm32f7xx_hal_hcd.c ****     if((token == 1U) && (direction == 0U)) /*send data */
 372:Drivers/STM32F7xx_HAL_Driver/Src/stm32f7xx_hal_hcd.c ****     {
ARM GAS  C:\Users\Nina\AppData\Local\Temp\ccxRUdKh.s 			page 8


 373:Drivers/STM32F7xx_HAL_Driver/Src/stm32f7xx_hal_hcd.c ****       if (length == 0U)
 374:Drivers/STM32F7xx_HAL_Driver/Src/stm32f7xx_hal_hcd.c ****       { /* For Status OUT stage, Length==0, Status Out PID = 1 */
 375:Drivers/STM32F7xx_HAL_Driver/Src/stm32f7xx_hal_hcd.c ****         hhcd->hc[ch_num].toggle_out = 1U;
 376:Drivers/STM32F7xx_HAL_Driver/Src/stm32f7xx_hal_hcd.c ****       }
 377:Drivers/STM32F7xx_HAL_Driver/Src/stm32f7xx_hal_hcd.c **** 
 378:Drivers/STM32F7xx_HAL_Driver/Src/stm32f7xx_hal_hcd.c ****       /* Set the Data Toggle bit as per the Flag */
 379:Drivers/STM32F7xx_HAL_Driver/Src/stm32f7xx_hal_hcd.c ****       if (hhcd->hc[ch_num].toggle_out == 0U)
 380:Drivers/STM32F7xx_HAL_Driver/Src/stm32f7xx_hal_hcd.c ****       { /* Put the PID 0 */
 381:Drivers/STM32F7xx_HAL_Driver/Src/stm32f7xx_hal_hcd.c ****         hhcd->hc[ch_num].data_pid = HC_PID_DATA0;
 382:Drivers/STM32F7xx_HAL_Driver/Src/stm32f7xx_hal_hcd.c ****       }
 383:Drivers/STM32F7xx_HAL_Driver/Src/stm32f7xx_hal_hcd.c ****       else
 384:Drivers/STM32F7xx_HAL_Driver/Src/stm32f7xx_hal_hcd.c ****       { /* Put the PID 1 */
 385:Drivers/STM32F7xx_HAL_Driver/Src/stm32f7xx_hal_hcd.c ****         hhcd->hc[ch_num].data_pid = HC_PID_DATA1;
 386:Drivers/STM32F7xx_HAL_Driver/Src/stm32f7xx_hal_hcd.c ****       }
 387:Drivers/STM32F7xx_HAL_Driver/Src/stm32f7xx_hal_hcd.c ****     }
 388:Drivers/STM32F7xx_HAL_Driver/Src/stm32f7xx_hal_hcd.c ****     break;
 389:Drivers/STM32F7xx_HAL_Driver/Src/stm32f7xx_hal_hcd.c **** 
 390:Drivers/STM32F7xx_HAL_Driver/Src/stm32f7xx_hal_hcd.c ****   case EP_TYPE_BULK:
 391:Drivers/STM32F7xx_HAL_Driver/Src/stm32f7xx_hal_hcd.c ****     if(direction == 0U)
 392:Drivers/STM32F7xx_HAL_Driver/Src/stm32f7xx_hal_hcd.c ****     {
 393:Drivers/STM32F7xx_HAL_Driver/Src/stm32f7xx_hal_hcd.c ****       /* Set the Data Toggle bit as per the Flag */
 394:Drivers/STM32F7xx_HAL_Driver/Src/stm32f7xx_hal_hcd.c ****       if ( hhcd->hc[ch_num].toggle_out == 0U)
 395:Drivers/STM32F7xx_HAL_Driver/Src/stm32f7xx_hal_hcd.c ****       { /* Put the PID 0 */
 396:Drivers/STM32F7xx_HAL_Driver/Src/stm32f7xx_hal_hcd.c ****         hhcd->hc[ch_num].data_pid = HC_PID_DATA0;
 397:Drivers/STM32F7xx_HAL_Driver/Src/stm32f7xx_hal_hcd.c ****       }
 398:Drivers/STM32F7xx_HAL_Driver/Src/stm32f7xx_hal_hcd.c ****       else
 399:Drivers/STM32F7xx_HAL_Driver/Src/stm32f7xx_hal_hcd.c ****       { /* Put the PID 1 */
 400:Drivers/STM32F7xx_HAL_Driver/Src/stm32f7xx_hal_hcd.c ****         hhcd->hc[ch_num].data_pid = HC_PID_DATA1;
 401:Drivers/STM32F7xx_HAL_Driver/Src/stm32f7xx_hal_hcd.c ****       }
 402:Drivers/STM32F7xx_HAL_Driver/Src/stm32f7xx_hal_hcd.c ****     }
 403:Drivers/STM32F7xx_HAL_Driver/Src/stm32f7xx_hal_hcd.c ****     else
 404:Drivers/STM32F7xx_HAL_Driver/Src/stm32f7xx_hal_hcd.c ****     {
 405:Drivers/STM32F7xx_HAL_Driver/Src/stm32f7xx_hal_hcd.c ****       if( hhcd->hc[ch_num].toggle_in == 0U)
 406:Drivers/STM32F7xx_HAL_Driver/Src/stm32f7xx_hal_hcd.c ****       {
 407:Drivers/STM32F7xx_HAL_Driver/Src/stm32f7xx_hal_hcd.c ****         hhcd->hc[ch_num].data_pid = HC_PID_DATA0;
 408:Drivers/STM32F7xx_HAL_Driver/Src/stm32f7xx_hal_hcd.c ****       }
 409:Drivers/STM32F7xx_HAL_Driver/Src/stm32f7xx_hal_hcd.c ****       else
 410:Drivers/STM32F7xx_HAL_Driver/Src/stm32f7xx_hal_hcd.c ****       {
 411:Drivers/STM32F7xx_HAL_Driver/Src/stm32f7xx_hal_hcd.c ****         hhcd->hc[ch_num].data_pid = HC_PID_DATA1;
 412:Drivers/STM32F7xx_HAL_Driver/Src/stm32f7xx_hal_hcd.c ****       }
 413:Drivers/STM32F7xx_HAL_Driver/Src/stm32f7xx_hal_hcd.c ****     }
 414:Drivers/STM32F7xx_HAL_Driver/Src/stm32f7xx_hal_hcd.c **** 
 415:Drivers/STM32F7xx_HAL_Driver/Src/stm32f7xx_hal_hcd.c ****     break;
 416:Drivers/STM32F7xx_HAL_Driver/Src/stm32f7xx_hal_hcd.c ****   case EP_TYPE_INTR:
 417:Drivers/STM32F7xx_HAL_Driver/Src/stm32f7xx_hal_hcd.c ****     if(direction == 0U)
 418:Drivers/STM32F7xx_HAL_Driver/Src/stm32f7xx_hal_hcd.c ****     {
 419:Drivers/STM32F7xx_HAL_Driver/Src/stm32f7xx_hal_hcd.c ****       /* Set the Data Toggle bit as per the Flag */
 420:Drivers/STM32F7xx_HAL_Driver/Src/stm32f7xx_hal_hcd.c ****       if ( hhcd->hc[ch_num].toggle_out == 0U)
 421:Drivers/STM32F7xx_HAL_Driver/Src/stm32f7xx_hal_hcd.c ****       { /* Put the PID 0 */
 422:Drivers/STM32F7xx_HAL_Driver/Src/stm32f7xx_hal_hcd.c ****         hhcd->hc[ch_num].data_pid = HC_PID_DATA0;
 423:Drivers/STM32F7xx_HAL_Driver/Src/stm32f7xx_hal_hcd.c ****       }
 424:Drivers/STM32F7xx_HAL_Driver/Src/stm32f7xx_hal_hcd.c ****       else
 425:Drivers/STM32F7xx_HAL_Driver/Src/stm32f7xx_hal_hcd.c ****       { /* Put the PID 1 */
 426:Drivers/STM32F7xx_HAL_Driver/Src/stm32f7xx_hal_hcd.c ****         hhcd->hc[ch_num].data_pid = HC_PID_DATA1;
 427:Drivers/STM32F7xx_HAL_Driver/Src/stm32f7xx_hal_hcd.c ****       }
 428:Drivers/STM32F7xx_HAL_Driver/Src/stm32f7xx_hal_hcd.c ****     }
 429:Drivers/STM32F7xx_HAL_Driver/Src/stm32f7xx_hal_hcd.c ****     else
ARM GAS  C:\Users\Nina\AppData\Local\Temp\ccxRUdKh.s 			page 9


 430:Drivers/STM32F7xx_HAL_Driver/Src/stm32f7xx_hal_hcd.c ****     {
 431:Drivers/STM32F7xx_HAL_Driver/Src/stm32f7xx_hal_hcd.c ****       if( hhcd->hc[ch_num].toggle_in == 0U)
 432:Drivers/STM32F7xx_HAL_Driver/Src/stm32f7xx_hal_hcd.c ****       {
 433:Drivers/STM32F7xx_HAL_Driver/Src/stm32f7xx_hal_hcd.c ****         hhcd->hc[ch_num].data_pid = HC_PID_DATA0;
 434:Drivers/STM32F7xx_HAL_Driver/Src/stm32f7xx_hal_hcd.c ****       }
 435:Drivers/STM32F7xx_HAL_Driver/Src/stm32f7xx_hal_hcd.c ****       else
 436:Drivers/STM32F7xx_HAL_Driver/Src/stm32f7xx_hal_hcd.c ****       {
 437:Drivers/STM32F7xx_HAL_Driver/Src/stm32f7xx_hal_hcd.c ****         hhcd->hc[ch_num].data_pid = HC_PID_DATA1;
 438:Drivers/STM32F7xx_HAL_Driver/Src/stm32f7xx_hal_hcd.c ****       }
 439:Drivers/STM32F7xx_HAL_Driver/Src/stm32f7xx_hal_hcd.c ****     }
 440:Drivers/STM32F7xx_HAL_Driver/Src/stm32f7xx_hal_hcd.c ****     break;
 441:Drivers/STM32F7xx_HAL_Driver/Src/stm32f7xx_hal_hcd.c **** 
 442:Drivers/STM32F7xx_HAL_Driver/Src/stm32f7xx_hal_hcd.c ****   case EP_TYPE_ISOC:
 443:Drivers/STM32F7xx_HAL_Driver/Src/stm32f7xx_hal_hcd.c ****     hhcd->hc[ch_num].data_pid = HC_PID_DATA0;
 444:Drivers/STM32F7xx_HAL_Driver/Src/stm32f7xx_hal_hcd.c ****     break;
 445:Drivers/STM32F7xx_HAL_Driver/Src/stm32f7xx_hal_hcd.c **** 
 446:Drivers/STM32F7xx_HAL_Driver/Src/stm32f7xx_hal_hcd.c ****   default:
 447:Drivers/STM32F7xx_HAL_Driver/Src/stm32f7xx_hal_hcd.c ****     break;
 448:Drivers/STM32F7xx_HAL_Driver/Src/stm32f7xx_hal_hcd.c ****   }
 449:Drivers/STM32F7xx_HAL_Driver/Src/stm32f7xx_hal_hcd.c **** 
 450:Drivers/STM32F7xx_HAL_Driver/Src/stm32f7xx_hal_hcd.c ****   hhcd->hc[ch_num].xfer_buff = pbuff;
 451:Drivers/STM32F7xx_HAL_Driver/Src/stm32f7xx_hal_hcd.c ****   hhcd->hc[ch_num].xfer_len  = length;
 452:Drivers/STM32F7xx_HAL_Driver/Src/stm32f7xx_hal_hcd.c ****   hhcd->hc[ch_num].urb_state = URB_IDLE;
 453:Drivers/STM32F7xx_HAL_Driver/Src/stm32f7xx_hal_hcd.c ****   hhcd->hc[ch_num].xfer_count = 0U;
 454:Drivers/STM32F7xx_HAL_Driver/Src/stm32f7xx_hal_hcd.c ****   hhcd->hc[ch_num].ch_num = ch_num;
 455:Drivers/STM32F7xx_HAL_Driver/Src/stm32f7xx_hal_hcd.c ****   hhcd->hc[ch_num].state = HC_IDLE;
 456:Drivers/STM32F7xx_HAL_Driver/Src/stm32f7xx_hal_hcd.c **** 
 457:Drivers/STM32F7xx_HAL_Driver/Src/stm32f7xx_hal_hcd.c ****   return USB_HC_StartXfer(hhcd->Instance, &hhcd->hc[ch_num], (uint8_t)hhcd->Init.dma_enable);
 458:Drivers/STM32F7xx_HAL_Driver/Src/stm32f7xx_hal_hcd.c **** }
 459:Drivers/STM32F7xx_HAL_Driver/Src/stm32f7xx_hal_hcd.c **** 
 460:Drivers/STM32F7xx_HAL_Driver/Src/stm32f7xx_hal_hcd.c **** /**
 461:Drivers/STM32F7xx_HAL_Driver/Src/stm32f7xx_hal_hcd.c ****   * @brief  Handle HCD interrupt request.
 462:Drivers/STM32F7xx_HAL_Driver/Src/stm32f7xx_hal_hcd.c ****   * @param  hhcd HCD handle
 463:Drivers/STM32F7xx_HAL_Driver/Src/stm32f7xx_hal_hcd.c ****   * @retval None
 464:Drivers/STM32F7xx_HAL_Driver/Src/stm32f7xx_hal_hcd.c ****   */
 465:Drivers/STM32F7xx_HAL_Driver/Src/stm32f7xx_hal_hcd.c **** void HAL_HCD_IRQHandler(HCD_HandleTypeDef *hhcd)
 466:Drivers/STM32F7xx_HAL_Driver/Src/stm32f7xx_hal_hcd.c **** {
 467:Drivers/STM32F7xx_HAL_Driver/Src/stm32f7xx_hal_hcd.c ****   USB_OTG_GlobalTypeDef *USBx = hhcd->Instance;
 468:Drivers/STM32F7xx_HAL_Driver/Src/stm32f7xx_hal_hcd.c ****   uint32_t USBx_BASE = (uint32_t)USBx;
 469:Drivers/STM32F7xx_HAL_Driver/Src/stm32f7xx_hal_hcd.c ****   uint32_t i, interrupt;
 470:Drivers/STM32F7xx_HAL_Driver/Src/stm32f7xx_hal_hcd.c **** 
 471:Drivers/STM32F7xx_HAL_Driver/Src/stm32f7xx_hal_hcd.c ****   /* Ensure that we are in device mode */
 472:Drivers/STM32F7xx_HAL_Driver/Src/stm32f7xx_hal_hcd.c ****   if (USB_GetMode(hhcd->Instance) == USB_OTG_MODE_HOST)
 473:Drivers/STM32F7xx_HAL_Driver/Src/stm32f7xx_hal_hcd.c ****   {
 474:Drivers/STM32F7xx_HAL_Driver/Src/stm32f7xx_hal_hcd.c ****     /* Avoid spurious interrupt */
 475:Drivers/STM32F7xx_HAL_Driver/Src/stm32f7xx_hal_hcd.c ****     if(__HAL_HCD_IS_INVALID_INTERRUPT(hhcd))
 476:Drivers/STM32F7xx_HAL_Driver/Src/stm32f7xx_hal_hcd.c ****     {
 477:Drivers/STM32F7xx_HAL_Driver/Src/stm32f7xx_hal_hcd.c ****       return;
 478:Drivers/STM32F7xx_HAL_Driver/Src/stm32f7xx_hal_hcd.c ****     }
 479:Drivers/STM32F7xx_HAL_Driver/Src/stm32f7xx_hal_hcd.c **** 
 480:Drivers/STM32F7xx_HAL_Driver/Src/stm32f7xx_hal_hcd.c ****     if(__HAL_HCD_GET_FLAG(hhcd, USB_OTG_GINTSTS_PXFR_INCOMPISOOUT))
 481:Drivers/STM32F7xx_HAL_Driver/Src/stm32f7xx_hal_hcd.c ****     {
 482:Drivers/STM32F7xx_HAL_Driver/Src/stm32f7xx_hal_hcd.c ****       /* Incorrect mode, acknowledge the interrupt */
 483:Drivers/STM32F7xx_HAL_Driver/Src/stm32f7xx_hal_hcd.c ****       __HAL_HCD_CLEAR_FLAG(hhcd, USB_OTG_GINTSTS_PXFR_INCOMPISOOUT);
 484:Drivers/STM32F7xx_HAL_Driver/Src/stm32f7xx_hal_hcd.c ****     }
 485:Drivers/STM32F7xx_HAL_Driver/Src/stm32f7xx_hal_hcd.c **** 
 486:Drivers/STM32F7xx_HAL_Driver/Src/stm32f7xx_hal_hcd.c ****     if(__HAL_HCD_GET_FLAG(hhcd, USB_OTG_GINTSTS_IISOIXFR))
ARM GAS  C:\Users\Nina\AppData\Local\Temp\ccxRUdKh.s 			page 10


 487:Drivers/STM32F7xx_HAL_Driver/Src/stm32f7xx_hal_hcd.c ****     {
 488:Drivers/STM32F7xx_HAL_Driver/Src/stm32f7xx_hal_hcd.c ****       /* Incorrect mode, acknowledge the interrupt */
 489:Drivers/STM32F7xx_HAL_Driver/Src/stm32f7xx_hal_hcd.c ****       __HAL_HCD_CLEAR_FLAG(hhcd, USB_OTG_GINTSTS_IISOIXFR);
 490:Drivers/STM32F7xx_HAL_Driver/Src/stm32f7xx_hal_hcd.c ****     }
 491:Drivers/STM32F7xx_HAL_Driver/Src/stm32f7xx_hal_hcd.c **** 
 492:Drivers/STM32F7xx_HAL_Driver/Src/stm32f7xx_hal_hcd.c ****     if(__HAL_HCD_GET_FLAG(hhcd, USB_OTG_GINTSTS_PTXFE))
 493:Drivers/STM32F7xx_HAL_Driver/Src/stm32f7xx_hal_hcd.c ****     {
 494:Drivers/STM32F7xx_HAL_Driver/Src/stm32f7xx_hal_hcd.c ****       /* Incorrect mode, acknowledge the interrupt */
 495:Drivers/STM32F7xx_HAL_Driver/Src/stm32f7xx_hal_hcd.c ****       __HAL_HCD_CLEAR_FLAG(hhcd, USB_OTG_GINTSTS_PTXFE);
 496:Drivers/STM32F7xx_HAL_Driver/Src/stm32f7xx_hal_hcd.c ****     }
 497:Drivers/STM32F7xx_HAL_Driver/Src/stm32f7xx_hal_hcd.c **** 
 498:Drivers/STM32F7xx_HAL_Driver/Src/stm32f7xx_hal_hcd.c ****     if(__HAL_HCD_GET_FLAG(hhcd, USB_OTG_GINTSTS_MMIS))
 499:Drivers/STM32F7xx_HAL_Driver/Src/stm32f7xx_hal_hcd.c ****     {
 500:Drivers/STM32F7xx_HAL_Driver/Src/stm32f7xx_hal_hcd.c ****       /* Incorrect mode, acknowledge the interrupt */
 501:Drivers/STM32F7xx_HAL_Driver/Src/stm32f7xx_hal_hcd.c ****       __HAL_HCD_CLEAR_FLAG(hhcd, USB_OTG_GINTSTS_MMIS);
 502:Drivers/STM32F7xx_HAL_Driver/Src/stm32f7xx_hal_hcd.c ****     }
 503:Drivers/STM32F7xx_HAL_Driver/Src/stm32f7xx_hal_hcd.c **** 
 504:Drivers/STM32F7xx_HAL_Driver/Src/stm32f7xx_hal_hcd.c ****     /* Handle Host Disconnect Interrupts */
 505:Drivers/STM32F7xx_HAL_Driver/Src/stm32f7xx_hal_hcd.c ****     if(__HAL_HCD_GET_FLAG(hhcd, USB_OTG_GINTSTS_DISCINT))
 506:Drivers/STM32F7xx_HAL_Driver/Src/stm32f7xx_hal_hcd.c ****     {
 507:Drivers/STM32F7xx_HAL_Driver/Src/stm32f7xx_hal_hcd.c **** 
 508:Drivers/STM32F7xx_HAL_Driver/Src/stm32f7xx_hal_hcd.c ****       /* Cleanup HPRT */
 509:Drivers/STM32F7xx_HAL_Driver/Src/stm32f7xx_hal_hcd.c ****       USBx_HPRT0 &= ~(USB_OTG_HPRT_PENA | USB_OTG_HPRT_PCDET |\
 510:Drivers/STM32F7xx_HAL_Driver/Src/stm32f7xx_hal_hcd.c ****         USB_OTG_HPRT_PENCHNG | USB_OTG_HPRT_POCCHNG );
 511:Drivers/STM32F7xx_HAL_Driver/Src/stm32f7xx_hal_hcd.c **** 
 512:Drivers/STM32F7xx_HAL_Driver/Src/stm32f7xx_hal_hcd.c ****       /* Handle Host Port Interrupts */
 513:Drivers/STM32F7xx_HAL_Driver/Src/stm32f7xx_hal_hcd.c ****       HAL_HCD_Disconnect_Callback(hhcd);
 514:Drivers/STM32F7xx_HAL_Driver/Src/stm32f7xx_hal_hcd.c ****       (void)USB_InitFSLSPClkSel(hhcd->Instance, HCFG_48_MHZ);
 515:Drivers/STM32F7xx_HAL_Driver/Src/stm32f7xx_hal_hcd.c ****       __HAL_HCD_CLEAR_FLAG(hhcd, USB_OTG_GINTSTS_DISCINT);
 516:Drivers/STM32F7xx_HAL_Driver/Src/stm32f7xx_hal_hcd.c ****     }
 517:Drivers/STM32F7xx_HAL_Driver/Src/stm32f7xx_hal_hcd.c **** 
 518:Drivers/STM32F7xx_HAL_Driver/Src/stm32f7xx_hal_hcd.c ****     /* Handle Host Port Interrupts */
 519:Drivers/STM32F7xx_HAL_Driver/Src/stm32f7xx_hal_hcd.c ****     if(__HAL_HCD_GET_FLAG(hhcd, USB_OTG_GINTSTS_HPRTINT))
 520:Drivers/STM32F7xx_HAL_Driver/Src/stm32f7xx_hal_hcd.c ****     {
 521:Drivers/STM32F7xx_HAL_Driver/Src/stm32f7xx_hal_hcd.c ****       HCD_Port_IRQHandler (hhcd);
 522:Drivers/STM32F7xx_HAL_Driver/Src/stm32f7xx_hal_hcd.c ****     }
 523:Drivers/STM32F7xx_HAL_Driver/Src/stm32f7xx_hal_hcd.c **** 
 524:Drivers/STM32F7xx_HAL_Driver/Src/stm32f7xx_hal_hcd.c ****     /* Handle Host SOF Interrupts */
 525:Drivers/STM32F7xx_HAL_Driver/Src/stm32f7xx_hal_hcd.c ****     if(__HAL_HCD_GET_FLAG(hhcd, USB_OTG_GINTSTS_SOF))
 526:Drivers/STM32F7xx_HAL_Driver/Src/stm32f7xx_hal_hcd.c ****     {
 527:Drivers/STM32F7xx_HAL_Driver/Src/stm32f7xx_hal_hcd.c ****       HAL_HCD_SOF_Callback(hhcd);
 528:Drivers/STM32F7xx_HAL_Driver/Src/stm32f7xx_hal_hcd.c ****       __HAL_HCD_CLEAR_FLAG(hhcd, USB_OTG_GINTSTS_SOF);
 529:Drivers/STM32F7xx_HAL_Driver/Src/stm32f7xx_hal_hcd.c ****     }
 530:Drivers/STM32F7xx_HAL_Driver/Src/stm32f7xx_hal_hcd.c **** 
 531:Drivers/STM32F7xx_HAL_Driver/Src/stm32f7xx_hal_hcd.c ****     /* Handle Host channel Interrupts */
 532:Drivers/STM32F7xx_HAL_Driver/Src/stm32f7xx_hal_hcd.c ****     if(__HAL_HCD_GET_FLAG(hhcd, USB_OTG_GINTSTS_HCINT))
 533:Drivers/STM32F7xx_HAL_Driver/Src/stm32f7xx_hal_hcd.c ****     {
 534:Drivers/STM32F7xx_HAL_Driver/Src/stm32f7xx_hal_hcd.c ****       interrupt = USB_HC_ReadInterrupt(hhcd->Instance);
 535:Drivers/STM32F7xx_HAL_Driver/Src/stm32f7xx_hal_hcd.c ****       for (i = 0U; i < hhcd->Init.Host_channels; i++)
 536:Drivers/STM32F7xx_HAL_Driver/Src/stm32f7xx_hal_hcd.c ****       {
 537:Drivers/STM32F7xx_HAL_Driver/Src/stm32f7xx_hal_hcd.c ****         if ((interrupt & (1UL << (i & 0xFU))) != 0U)
 538:Drivers/STM32F7xx_HAL_Driver/Src/stm32f7xx_hal_hcd.c ****         {
 539:Drivers/STM32F7xx_HAL_Driver/Src/stm32f7xx_hal_hcd.c ****           if ((USBx_HC(i)->HCCHAR & USB_OTG_HCCHAR_EPDIR) == USB_OTG_HCCHAR_EPDIR)
 540:Drivers/STM32F7xx_HAL_Driver/Src/stm32f7xx_hal_hcd.c ****           {
 541:Drivers/STM32F7xx_HAL_Driver/Src/stm32f7xx_hal_hcd.c ****             HCD_HC_IN_IRQHandler(hhcd, (uint8_t)i);
 542:Drivers/STM32F7xx_HAL_Driver/Src/stm32f7xx_hal_hcd.c ****           }
 543:Drivers/STM32F7xx_HAL_Driver/Src/stm32f7xx_hal_hcd.c ****           else
ARM GAS  C:\Users\Nina\AppData\Local\Temp\ccxRUdKh.s 			page 11


 544:Drivers/STM32F7xx_HAL_Driver/Src/stm32f7xx_hal_hcd.c ****           {
 545:Drivers/STM32F7xx_HAL_Driver/Src/stm32f7xx_hal_hcd.c ****             HCD_HC_OUT_IRQHandler (hhcd, (uint8_t)i);
 546:Drivers/STM32F7xx_HAL_Driver/Src/stm32f7xx_hal_hcd.c ****           }
 547:Drivers/STM32F7xx_HAL_Driver/Src/stm32f7xx_hal_hcd.c ****         }
 548:Drivers/STM32F7xx_HAL_Driver/Src/stm32f7xx_hal_hcd.c ****       }
 549:Drivers/STM32F7xx_HAL_Driver/Src/stm32f7xx_hal_hcd.c ****       __HAL_HCD_CLEAR_FLAG(hhcd, USB_OTG_GINTSTS_HCINT);
 550:Drivers/STM32F7xx_HAL_Driver/Src/stm32f7xx_hal_hcd.c ****     }
 551:Drivers/STM32F7xx_HAL_Driver/Src/stm32f7xx_hal_hcd.c **** 
 552:Drivers/STM32F7xx_HAL_Driver/Src/stm32f7xx_hal_hcd.c ****     /* Handle Rx Queue Level Interrupts */
 553:Drivers/STM32F7xx_HAL_Driver/Src/stm32f7xx_hal_hcd.c ****     if((__HAL_HCD_GET_FLAG(hhcd, USB_OTG_GINTSTS_RXFLVL)) != 0U)
 554:Drivers/STM32F7xx_HAL_Driver/Src/stm32f7xx_hal_hcd.c ****     {
 555:Drivers/STM32F7xx_HAL_Driver/Src/stm32f7xx_hal_hcd.c ****       USB_MASK_INTERRUPT(hhcd->Instance, USB_OTG_GINTSTS_RXFLVL);
 556:Drivers/STM32F7xx_HAL_Driver/Src/stm32f7xx_hal_hcd.c **** 
 557:Drivers/STM32F7xx_HAL_Driver/Src/stm32f7xx_hal_hcd.c ****       HCD_RXQLVL_IRQHandler (hhcd);
 558:Drivers/STM32F7xx_HAL_Driver/Src/stm32f7xx_hal_hcd.c **** 
 559:Drivers/STM32F7xx_HAL_Driver/Src/stm32f7xx_hal_hcd.c ****       USB_UNMASK_INTERRUPT(hhcd->Instance, USB_OTG_GINTSTS_RXFLVL);
 560:Drivers/STM32F7xx_HAL_Driver/Src/stm32f7xx_hal_hcd.c ****     }
 561:Drivers/STM32F7xx_HAL_Driver/Src/stm32f7xx_hal_hcd.c ****   }
 562:Drivers/STM32F7xx_HAL_Driver/Src/stm32f7xx_hal_hcd.c **** }
 563:Drivers/STM32F7xx_HAL_Driver/Src/stm32f7xx_hal_hcd.c **** 
 564:Drivers/STM32F7xx_HAL_Driver/Src/stm32f7xx_hal_hcd.c **** /**
 565:Drivers/STM32F7xx_HAL_Driver/Src/stm32f7xx_hal_hcd.c ****   * @brief  SOF callback.
 566:Drivers/STM32F7xx_HAL_Driver/Src/stm32f7xx_hal_hcd.c ****   * @param  hhcd HCD handle
 567:Drivers/STM32F7xx_HAL_Driver/Src/stm32f7xx_hal_hcd.c ****   * @retval None
 568:Drivers/STM32F7xx_HAL_Driver/Src/stm32f7xx_hal_hcd.c ****   */
 569:Drivers/STM32F7xx_HAL_Driver/Src/stm32f7xx_hal_hcd.c **** __weak void HAL_HCD_SOF_Callback(HCD_HandleTypeDef *hhcd)
 570:Drivers/STM32F7xx_HAL_Driver/Src/stm32f7xx_hal_hcd.c **** {
 571:Drivers/STM32F7xx_HAL_Driver/Src/stm32f7xx_hal_hcd.c ****   /* Prevent unused argument(s) compilation warning */
 572:Drivers/STM32F7xx_HAL_Driver/Src/stm32f7xx_hal_hcd.c ****   UNUSED(hhcd);
 573:Drivers/STM32F7xx_HAL_Driver/Src/stm32f7xx_hal_hcd.c **** 
 574:Drivers/STM32F7xx_HAL_Driver/Src/stm32f7xx_hal_hcd.c ****   /* NOTE : This function should not be modified, when the callback is needed,
 575:Drivers/STM32F7xx_HAL_Driver/Src/stm32f7xx_hal_hcd.c ****             the HAL_HCD_SOF_Callback could be implemented in the user file
 576:Drivers/STM32F7xx_HAL_Driver/Src/stm32f7xx_hal_hcd.c ****    */
 577:Drivers/STM32F7xx_HAL_Driver/Src/stm32f7xx_hal_hcd.c **** }
 578:Drivers/STM32F7xx_HAL_Driver/Src/stm32f7xx_hal_hcd.c **** 
 579:Drivers/STM32F7xx_HAL_Driver/Src/stm32f7xx_hal_hcd.c **** /**
 580:Drivers/STM32F7xx_HAL_Driver/Src/stm32f7xx_hal_hcd.c ****   * @brief Connection Event callback.
 581:Drivers/STM32F7xx_HAL_Driver/Src/stm32f7xx_hal_hcd.c ****   * @param  hhcd HCD handle
 582:Drivers/STM32F7xx_HAL_Driver/Src/stm32f7xx_hal_hcd.c ****   * @retval None
 583:Drivers/STM32F7xx_HAL_Driver/Src/stm32f7xx_hal_hcd.c ****   */
 584:Drivers/STM32F7xx_HAL_Driver/Src/stm32f7xx_hal_hcd.c **** __weak void HAL_HCD_Connect_Callback(HCD_HandleTypeDef *hhcd)
 585:Drivers/STM32F7xx_HAL_Driver/Src/stm32f7xx_hal_hcd.c **** {
 586:Drivers/STM32F7xx_HAL_Driver/Src/stm32f7xx_hal_hcd.c ****   /* Prevent unused argument(s) compilation warning */
 587:Drivers/STM32F7xx_HAL_Driver/Src/stm32f7xx_hal_hcd.c ****   UNUSED(hhcd);
 588:Drivers/STM32F7xx_HAL_Driver/Src/stm32f7xx_hal_hcd.c **** 
 589:Drivers/STM32F7xx_HAL_Driver/Src/stm32f7xx_hal_hcd.c ****   /* NOTE : This function should not be modified, when the callback is needed,
 590:Drivers/STM32F7xx_HAL_Driver/Src/stm32f7xx_hal_hcd.c ****             the HAL_HCD_Connect_Callback could be implemented in the user file
 591:Drivers/STM32F7xx_HAL_Driver/Src/stm32f7xx_hal_hcd.c ****    */
 592:Drivers/STM32F7xx_HAL_Driver/Src/stm32f7xx_hal_hcd.c **** }
 593:Drivers/STM32F7xx_HAL_Driver/Src/stm32f7xx_hal_hcd.c **** 
 594:Drivers/STM32F7xx_HAL_Driver/Src/stm32f7xx_hal_hcd.c **** /**
 595:Drivers/STM32F7xx_HAL_Driver/Src/stm32f7xx_hal_hcd.c ****   * @brief  Disconnection Event callback.
 596:Drivers/STM32F7xx_HAL_Driver/Src/stm32f7xx_hal_hcd.c ****   * @param  hhcd HCD handle
 597:Drivers/STM32F7xx_HAL_Driver/Src/stm32f7xx_hal_hcd.c ****   * @retval None
 598:Drivers/STM32F7xx_HAL_Driver/Src/stm32f7xx_hal_hcd.c ****   */
 599:Drivers/STM32F7xx_HAL_Driver/Src/stm32f7xx_hal_hcd.c **** __weak void HAL_HCD_Disconnect_Callback(HCD_HandleTypeDef *hhcd)
 600:Drivers/STM32F7xx_HAL_Driver/Src/stm32f7xx_hal_hcd.c **** {
ARM GAS  C:\Users\Nina\AppData\Local\Temp\ccxRUdKh.s 			page 12


 601:Drivers/STM32F7xx_HAL_Driver/Src/stm32f7xx_hal_hcd.c ****   /* Prevent unused argument(s) compilation warning */
 602:Drivers/STM32F7xx_HAL_Driver/Src/stm32f7xx_hal_hcd.c ****   UNUSED(hhcd);
 603:Drivers/STM32F7xx_HAL_Driver/Src/stm32f7xx_hal_hcd.c **** 
 604:Drivers/STM32F7xx_HAL_Driver/Src/stm32f7xx_hal_hcd.c ****   /* NOTE : This function should not be modified, when the callback is needed,
 605:Drivers/STM32F7xx_HAL_Driver/Src/stm32f7xx_hal_hcd.c ****             the HAL_HCD_Disconnect_Callback could be implemented in the user file
 606:Drivers/STM32F7xx_HAL_Driver/Src/stm32f7xx_hal_hcd.c ****    */
 607:Drivers/STM32F7xx_HAL_Driver/Src/stm32f7xx_hal_hcd.c **** }
 608:Drivers/STM32F7xx_HAL_Driver/Src/stm32f7xx_hal_hcd.c **** 
 609:Drivers/STM32F7xx_HAL_Driver/Src/stm32f7xx_hal_hcd.c **** /**
 610:Drivers/STM32F7xx_HAL_Driver/Src/stm32f7xx_hal_hcd.c ****   * @brief  Port Enabled  Event callback.
 611:Drivers/STM32F7xx_HAL_Driver/Src/stm32f7xx_hal_hcd.c ****   * @param  hhcd HCD handle
 612:Drivers/STM32F7xx_HAL_Driver/Src/stm32f7xx_hal_hcd.c ****   * @retval None
 613:Drivers/STM32F7xx_HAL_Driver/Src/stm32f7xx_hal_hcd.c ****   */
 614:Drivers/STM32F7xx_HAL_Driver/Src/stm32f7xx_hal_hcd.c **** __weak void HAL_HCD_PortEnabled_Callback(HCD_HandleTypeDef *hhcd)
 615:Drivers/STM32F7xx_HAL_Driver/Src/stm32f7xx_hal_hcd.c **** {
 616:Drivers/STM32F7xx_HAL_Driver/Src/stm32f7xx_hal_hcd.c ****   /* Prevent unused argument(s) compilation warning */
 617:Drivers/STM32F7xx_HAL_Driver/Src/stm32f7xx_hal_hcd.c ****   UNUSED(hhcd);
 618:Drivers/STM32F7xx_HAL_Driver/Src/stm32f7xx_hal_hcd.c **** 
 619:Drivers/STM32F7xx_HAL_Driver/Src/stm32f7xx_hal_hcd.c ****   /* NOTE : This function should not be modified, when the callback is needed,
 620:Drivers/STM32F7xx_HAL_Driver/Src/stm32f7xx_hal_hcd.c ****             the HAL_HCD_Disconnect_Callback could be implemented in the user file
 621:Drivers/STM32F7xx_HAL_Driver/Src/stm32f7xx_hal_hcd.c ****    */
 622:Drivers/STM32F7xx_HAL_Driver/Src/stm32f7xx_hal_hcd.c **** }
 623:Drivers/STM32F7xx_HAL_Driver/Src/stm32f7xx_hal_hcd.c **** 
 624:Drivers/STM32F7xx_HAL_Driver/Src/stm32f7xx_hal_hcd.c **** /**
 625:Drivers/STM32F7xx_HAL_Driver/Src/stm32f7xx_hal_hcd.c ****   * @brief  Port Disabled  Event callback.
 626:Drivers/STM32F7xx_HAL_Driver/Src/stm32f7xx_hal_hcd.c ****   * @param  hhcd HCD handle
 627:Drivers/STM32F7xx_HAL_Driver/Src/stm32f7xx_hal_hcd.c ****   * @retval None
 628:Drivers/STM32F7xx_HAL_Driver/Src/stm32f7xx_hal_hcd.c ****   */
 629:Drivers/STM32F7xx_HAL_Driver/Src/stm32f7xx_hal_hcd.c **** __weak void HAL_HCD_PortDisabled_Callback(HCD_HandleTypeDef *hhcd)
 630:Drivers/STM32F7xx_HAL_Driver/Src/stm32f7xx_hal_hcd.c **** {
 631:Drivers/STM32F7xx_HAL_Driver/Src/stm32f7xx_hal_hcd.c ****   /* Prevent unused argument(s) compilation warning */
 632:Drivers/STM32F7xx_HAL_Driver/Src/stm32f7xx_hal_hcd.c ****   UNUSED(hhcd);
 633:Drivers/STM32F7xx_HAL_Driver/Src/stm32f7xx_hal_hcd.c **** 
 634:Drivers/STM32F7xx_HAL_Driver/Src/stm32f7xx_hal_hcd.c ****   /* NOTE : This function should not be modified, when the callback is needed,
 635:Drivers/STM32F7xx_HAL_Driver/Src/stm32f7xx_hal_hcd.c ****             the HAL_HCD_Disconnect_Callback could be implemented in the user file
 636:Drivers/STM32F7xx_HAL_Driver/Src/stm32f7xx_hal_hcd.c ****    */
 637:Drivers/STM32F7xx_HAL_Driver/Src/stm32f7xx_hal_hcd.c **** }
 638:Drivers/STM32F7xx_HAL_Driver/Src/stm32f7xx_hal_hcd.c **** 
 639:Drivers/STM32F7xx_HAL_Driver/Src/stm32f7xx_hal_hcd.c **** /**
 640:Drivers/STM32F7xx_HAL_Driver/Src/stm32f7xx_hal_hcd.c ****   * @brief  Notify URB state change callback.
 641:Drivers/STM32F7xx_HAL_Driver/Src/stm32f7xx_hal_hcd.c ****   * @param  hhcd HCD handle
 642:Drivers/STM32F7xx_HAL_Driver/Src/stm32f7xx_hal_hcd.c ****   * @param  chnum Channel number.
 643:Drivers/STM32F7xx_HAL_Driver/Src/stm32f7xx_hal_hcd.c ****   *         This parameter can be a value from 1 to 15
 644:Drivers/STM32F7xx_HAL_Driver/Src/stm32f7xx_hal_hcd.c ****   * @param  urb_state:
 645:Drivers/STM32F7xx_HAL_Driver/Src/stm32f7xx_hal_hcd.c ****   *          This parameter can be one of these values:
 646:Drivers/STM32F7xx_HAL_Driver/Src/stm32f7xx_hal_hcd.c ****   *            URB_IDLE/
 647:Drivers/STM32F7xx_HAL_Driver/Src/stm32f7xx_hal_hcd.c ****   *            URB_DONE/
 648:Drivers/STM32F7xx_HAL_Driver/Src/stm32f7xx_hal_hcd.c ****   *            URB_NOTREADY/
 649:Drivers/STM32F7xx_HAL_Driver/Src/stm32f7xx_hal_hcd.c ****   *            URB_NYET/
 650:Drivers/STM32F7xx_HAL_Driver/Src/stm32f7xx_hal_hcd.c ****   *            URB_ERROR/
 651:Drivers/STM32F7xx_HAL_Driver/Src/stm32f7xx_hal_hcd.c ****   *            URB_STALL/
 652:Drivers/STM32F7xx_HAL_Driver/Src/stm32f7xx_hal_hcd.c ****   * @retval None
 653:Drivers/STM32F7xx_HAL_Driver/Src/stm32f7xx_hal_hcd.c ****   */
 654:Drivers/STM32F7xx_HAL_Driver/Src/stm32f7xx_hal_hcd.c **** __weak void HAL_HCD_HC_NotifyURBChange_Callback(HCD_HandleTypeDef *hhcd, uint8_t chnum, HCD_URBStat
 655:Drivers/STM32F7xx_HAL_Driver/Src/stm32f7xx_hal_hcd.c **** {
 656:Drivers/STM32F7xx_HAL_Driver/Src/stm32f7xx_hal_hcd.c ****   /* Prevent unused argument(s) compilation warning */
 657:Drivers/STM32F7xx_HAL_Driver/Src/stm32f7xx_hal_hcd.c ****   UNUSED(hhcd);
ARM GAS  C:\Users\Nina\AppData\Local\Temp\ccxRUdKh.s 			page 13


 658:Drivers/STM32F7xx_HAL_Driver/Src/stm32f7xx_hal_hcd.c ****   UNUSED(chnum);
 659:Drivers/STM32F7xx_HAL_Driver/Src/stm32f7xx_hal_hcd.c ****   UNUSED(urb_state);
 660:Drivers/STM32F7xx_HAL_Driver/Src/stm32f7xx_hal_hcd.c **** 
 661:Drivers/STM32F7xx_HAL_Driver/Src/stm32f7xx_hal_hcd.c ****   /* NOTE : This function should not be modified, when the callback is needed,
 662:Drivers/STM32F7xx_HAL_Driver/Src/stm32f7xx_hal_hcd.c ****             the HAL_HCD_HC_NotifyURBChange_Callback could be implemented in the user file
 663:Drivers/STM32F7xx_HAL_Driver/Src/stm32f7xx_hal_hcd.c ****    */
 664:Drivers/STM32F7xx_HAL_Driver/Src/stm32f7xx_hal_hcd.c **** }
 665:Drivers/STM32F7xx_HAL_Driver/Src/stm32f7xx_hal_hcd.c **** 
 666:Drivers/STM32F7xx_HAL_Driver/Src/stm32f7xx_hal_hcd.c **** /**
 667:Drivers/STM32F7xx_HAL_Driver/Src/stm32f7xx_hal_hcd.c ****   * @}
 668:Drivers/STM32F7xx_HAL_Driver/Src/stm32f7xx_hal_hcd.c ****   */
 669:Drivers/STM32F7xx_HAL_Driver/Src/stm32f7xx_hal_hcd.c **** 
 670:Drivers/STM32F7xx_HAL_Driver/Src/stm32f7xx_hal_hcd.c **** /** @defgroup HCD_Exported_Functions_Group3 Peripheral Control functions
 671:Drivers/STM32F7xx_HAL_Driver/Src/stm32f7xx_hal_hcd.c ****  *  @brief   Management functions
 672:Drivers/STM32F7xx_HAL_Driver/Src/stm32f7xx_hal_hcd.c ****  *
 673:Drivers/STM32F7xx_HAL_Driver/Src/stm32f7xx_hal_hcd.c **** @verbatim
 674:Drivers/STM32F7xx_HAL_Driver/Src/stm32f7xx_hal_hcd.c ****  ===============================================================================
 675:Drivers/STM32F7xx_HAL_Driver/Src/stm32f7xx_hal_hcd.c ****                       ##### Peripheral Control functions #####
 676:Drivers/STM32F7xx_HAL_Driver/Src/stm32f7xx_hal_hcd.c ****  ===============================================================================
 677:Drivers/STM32F7xx_HAL_Driver/Src/stm32f7xx_hal_hcd.c ****     [..]
 678:Drivers/STM32F7xx_HAL_Driver/Src/stm32f7xx_hal_hcd.c ****     This subsection provides a set of functions allowing to control the HCD data
 679:Drivers/STM32F7xx_HAL_Driver/Src/stm32f7xx_hal_hcd.c ****     transfers.
 680:Drivers/STM32F7xx_HAL_Driver/Src/stm32f7xx_hal_hcd.c **** 
 681:Drivers/STM32F7xx_HAL_Driver/Src/stm32f7xx_hal_hcd.c **** @endverbatim
 682:Drivers/STM32F7xx_HAL_Driver/Src/stm32f7xx_hal_hcd.c ****   * @{
 683:Drivers/STM32F7xx_HAL_Driver/Src/stm32f7xx_hal_hcd.c ****   */
 684:Drivers/STM32F7xx_HAL_Driver/Src/stm32f7xx_hal_hcd.c **** 
 685:Drivers/STM32F7xx_HAL_Driver/Src/stm32f7xx_hal_hcd.c **** /**
 686:Drivers/STM32F7xx_HAL_Driver/Src/stm32f7xx_hal_hcd.c ****   * @brief  Start the host driver.
 687:Drivers/STM32F7xx_HAL_Driver/Src/stm32f7xx_hal_hcd.c ****   * @param  hhcd HCD handle
 688:Drivers/STM32F7xx_HAL_Driver/Src/stm32f7xx_hal_hcd.c ****   * @retval HAL status
 689:Drivers/STM32F7xx_HAL_Driver/Src/stm32f7xx_hal_hcd.c ****   */
 690:Drivers/STM32F7xx_HAL_Driver/Src/stm32f7xx_hal_hcd.c **** HAL_StatusTypeDef HAL_HCD_Start(HCD_HandleTypeDef *hhcd)
 691:Drivers/STM32F7xx_HAL_Driver/Src/stm32f7xx_hal_hcd.c **** {
 692:Drivers/STM32F7xx_HAL_Driver/Src/stm32f7xx_hal_hcd.c ****   __HAL_LOCK(hhcd);
 693:Drivers/STM32F7xx_HAL_Driver/Src/stm32f7xx_hal_hcd.c ****   __HAL_HCD_ENABLE(hhcd);
 694:Drivers/STM32F7xx_HAL_Driver/Src/stm32f7xx_hal_hcd.c ****   (void)USB_DriveVbus(hhcd->Instance, 1U);
 695:Drivers/STM32F7xx_HAL_Driver/Src/stm32f7xx_hal_hcd.c ****   __HAL_UNLOCK(hhcd);
 696:Drivers/STM32F7xx_HAL_Driver/Src/stm32f7xx_hal_hcd.c ****   return HAL_OK;
 697:Drivers/STM32F7xx_HAL_Driver/Src/stm32f7xx_hal_hcd.c **** }
 698:Drivers/STM32F7xx_HAL_Driver/Src/stm32f7xx_hal_hcd.c **** 
 699:Drivers/STM32F7xx_HAL_Driver/Src/stm32f7xx_hal_hcd.c **** /**
 700:Drivers/STM32F7xx_HAL_Driver/Src/stm32f7xx_hal_hcd.c ****   * @brief  Stop the host driver.
 701:Drivers/STM32F7xx_HAL_Driver/Src/stm32f7xx_hal_hcd.c ****   * @param  hhcd HCD handle
 702:Drivers/STM32F7xx_HAL_Driver/Src/stm32f7xx_hal_hcd.c ****   * @retval HAL status
 703:Drivers/STM32F7xx_HAL_Driver/Src/stm32f7xx_hal_hcd.c ****   */
 704:Drivers/STM32F7xx_HAL_Driver/Src/stm32f7xx_hal_hcd.c **** 
 705:Drivers/STM32F7xx_HAL_Driver/Src/stm32f7xx_hal_hcd.c **** HAL_StatusTypeDef HAL_HCD_Stop(HCD_HandleTypeDef *hhcd)
 706:Drivers/STM32F7xx_HAL_Driver/Src/stm32f7xx_hal_hcd.c **** {
 707:Drivers/STM32F7xx_HAL_Driver/Src/stm32f7xx_hal_hcd.c ****   __HAL_LOCK(hhcd);
 708:Drivers/STM32F7xx_HAL_Driver/Src/stm32f7xx_hal_hcd.c ****   (void)USB_StopHost(hhcd->Instance);
 709:Drivers/STM32F7xx_HAL_Driver/Src/stm32f7xx_hal_hcd.c ****   __HAL_UNLOCK(hhcd);
 710:Drivers/STM32F7xx_HAL_Driver/Src/stm32f7xx_hal_hcd.c ****   return HAL_OK;
 711:Drivers/STM32F7xx_HAL_Driver/Src/stm32f7xx_hal_hcd.c **** }
 712:Drivers/STM32F7xx_HAL_Driver/Src/stm32f7xx_hal_hcd.c **** 
 713:Drivers/STM32F7xx_HAL_Driver/Src/stm32f7xx_hal_hcd.c **** /**
 714:Drivers/STM32F7xx_HAL_Driver/Src/stm32f7xx_hal_hcd.c ****   * @brief  Reset the host port.
ARM GAS  C:\Users\Nina\AppData\Local\Temp\ccxRUdKh.s 			page 14


 715:Drivers/STM32F7xx_HAL_Driver/Src/stm32f7xx_hal_hcd.c ****   * @param  hhcd HCD handle
 716:Drivers/STM32F7xx_HAL_Driver/Src/stm32f7xx_hal_hcd.c ****   * @retval HAL status
 717:Drivers/STM32F7xx_HAL_Driver/Src/stm32f7xx_hal_hcd.c ****   */
 718:Drivers/STM32F7xx_HAL_Driver/Src/stm32f7xx_hal_hcd.c **** HAL_StatusTypeDef HAL_HCD_ResetPort(HCD_HandleTypeDef *hhcd)
 719:Drivers/STM32F7xx_HAL_Driver/Src/stm32f7xx_hal_hcd.c **** {
 720:Drivers/STM32F7xx_HAL_Driver/Src/stm32f7xx_hal_hcd.c ****   return (USB_ResetPort(hhcd->Instance));
 721:Drivers/STM32F7xx_HAL_Driver/Src/stm32f7xx_hal_hcd.c **** }
 722:Drivers/STM32F7xx_HAL_Driver/Src/stm32f7xx_hal_hcd.c **** 
 723:Drivers/STM32F7xx_HAL_Driver/Src/stm32f7xx_hal_hcd.c **** /**
 724:Drivers/STM32F7xx_HAL_Driver/Src/stm32f7xx_hal_hcd.c ****   * @}
 725:Drivers/STM32F7xx_HAL_Driver/Src/stm32f7xx_hal_hcd.c ****   */
 726:Drivers/STM32F7xx_HAL_Driver/Src/stm32f7xx_hal_hcd.c **** 
 727:Drivers/STM32F7xx_HAL_Driver/Src/stm32f7xx_hal_hcd.c **** /** @defgroup HCD_Exported_Functions_Group4 Peripheral State functions
 728:Drivers/STM32F7xx_HAL_Driver/Src/stm32f7xx_hal_hcd.c ****  *  @brief   Peripheral State functions
 729:Drivers/STM32F7xx_HAL_Driver/Src/stm32f7xx_hal_hcd.c ****  *
 730:Drivers/STM32F7xx_HAL_Driver/Src/stm32f7xx_hal_hcd.c **** @verbatim
 731:Drivers/STM32F7xx_HAL_Driver/Src/stm32f7xx_hal_hcd.c ****  ===============================================================================
 732:Drivers/STM32F7xx_HAL_Driver/Src/stm32f7xx_hal_hcd.c ****                       ##### Peripheral State functions #####
 733:Drivers/STM32F7xx_HAL_Driver/Src/stm32f7xx_hal_hcd.c ****  ===============================================================================
 734:Drivers/STM32F7xx_HAL_Driver/Src/stm32f7xx_hal_hcd.c ****     [..]
 735:Drivers/STM32F7xx_HAL_Driver/Src/stm32f7xx_hal_hcd.c ****     This subsection permits to get in run-time the status of the peripheral
 736:Drivers/STM32F7xx_HAL_Driver/Src/stm32f7xx_hal_hcd.c ****     and the data flow.
 737:Drivers/STM32F7xx_HAL_Driver/Src/stm32f7xx_hal_hcd.c **** 
 738:Drivers/STM32F7xx_HAL_Driver/Src/stm32f7xx_hal_hcd.c **** @endverbatim
 739:Drivers/STM32F7xx_HAL_Driver/Src/stm32f7xx_hal_hcd.c ****   * @{
 740:Drivers/STM32F7xx_HAL_Driver/Src/stm32f7xx_hal_hcd.c ****   */
 741:Drivers/STM32F7xx_HAL_Driver/Src/stm32f7xx_hal_hcd.c **** 
 742:Drivers/STM32F7xx_HAL_Driver/Src/stm32f7xx_hal_hcd.c **** /**
 743:Drivers/STM32F7xx_HAL_Driver/Src/stm32f7xx_hal_hcd.c ****   * @brief  Return the HCD handle state.
 744:Drivers/STM32F7xx_HAL_Driver/Src/stm32f7xx_hal_hcd.c ****   * @param  hhcd HCD handle
 745:Drivers/STM32F7xx_HAL_Driver/Src/stm32f7xx_hal_hcd.c ****   * @retval HAL state
 746:Drivers/STM32F7xx_HAL_Driver/Src/stm32f7xx_hal_hcd.c ****   */
 747:Drivers/STM32F7xx_HAL_Driver/Src/stm32f7xx_hal_hcd.c **** HCD_StateTypeDef HAL_HCD_GetState(HCD_HandleTypeDef *hhcd)
 748:Drivers/STM32F7xx_HAL_Driver/Src/stm32f7xx_hal_hcd.c **** {
 749:Drivers/STM32F7xx_HAL_Driver/Src/stm32f7xx_hal_hcd.c ****   return hhcd->State;
 750:Drivers/STM32F7xx_HAL_Driver/Src/stm32f7xx_hal_hcd.c **** }
 751:Drivers/STM32F7xx_HAL_Driver/Src/stm32f7xx_hal_hcd.c **** 
 752:Drivers/STM32F7xx_HAL_Driver/Src/stm32f7xx_hal_hcd.c **** /**
 753:Drivers/STM32F7xx_HAL_Driver/Src/stm32f7xx_hal_hcd.c ****   * @brief  Return  URB state for a channel.
 754:Drivers/STM32F7xx_HAL_Driver/Src/stm32f7xx_hal_hcd.c ****   * @param  hhcd HCD handle
 755:Drivers/STM32F7xx_HAL_Driver/Src/stm32f7xx_hal_hcd.c ****   * @param  chnum Channel number.
 756:Drivers/STM32F7xx_HAL_Driver/Src/stm32f7xx_hal_hcd.c ****   *         This parameter can be a value from 1 to 15
 757:Drivers/STM32F7xx_HAL_Driver/Src/stm32f7xx_hal_hcd.c ****   * @retval URB state.
 758:Drivers/STM32F7xx_HAL_Driver/Src/stm32f7xx_hal_hcd.c ****   *          This parameter can be one of these values:
 759:Drivers/STM32F7xx_HAL_Driver/Src/stm32f7xx_hal_hcd.c ****   *            URB_IDLE/
 760:Drivers/STM32F7xx_HAL_Driver/Src/stm32f7xx_hal_hcd.c ****   *            URB_DONE/
 761:Drivers/STM32F7xx_HAL_Driver/Src/stm32f7xx_hal_hcd.c ****   *            URB_NOTREADY/
 762:Drivers/STM32F7xx_HAL_Driver/Src/stm32f7xx_hal_hcd.c ****   *            URB_NYET/
 763:Drivers/STM32F7xx_HAL_Driver/Src/stm32f7xx_hal_hcd.c ****   *            URB_ERROR/
 764:Drivers/STM32F7xx_HAL_Driver/Src/stm32f7xx_hal_hcd.c ****   *            URB_STALL
 765:Drivers/STM32F7xx_HAL_Driver/Src/stm32f7xx_hal_hcd.c ****   */
 766:Drivers/STM32F7xx_HAL_Driver/Src/stm32f7xx_hal_hcd.c **** HCD_URBStateTypeDef HAL_HCD_HC_GetURBState(HCD_HandleTypeDef *hhcd, uint8_t chnum)
 767:Drivers/STM32F7xx_HAL_Driver/Src/stm32f7xx_hal_hcd.c **** {
 768:Drivers/STM32F7xx_HAL_Driver/Src/stm32f7xx_hal_hcd.c ****   return hhcd->hc[chnum].urb_state;
 769:Drivers/STM32F7xx_HAL_Driver/Src/stm32f7xx_hal_hcd.c **** }
 770:Drivers/STM32F7xx_HAL_Driver/Src/stm32f7xx_hal_hcd.c **** 
 771:Drivers/STM32F7xx_HAL_Driver/Src/stm32f7xx_hal_hcd.c **** 
ARM GAS  C:\Users\Nina\AppData\Local\Temp\ccxRUdKh.s 			page 15


 772:Drivers/STM32F7xx_HAL_Driver/Src/stm32f7xx_hal_hcd.c **** /**
 773:Drivers/STM32F7xx_HAL_Driver/Src/stm32f7xx_hal_hcd.c ****   * @brief  Return the last host transfer size.
 774:Drivers/STM32F7xx_HAL_Driver/Src/stm32f7xx_hal_hcd.c ****   * @param  hhcd HCD handle
 775:Drivers/STM32F7xx_HAL_Driver/Src/stm32f7xx_hal_hcd.c ****   * @param  chnum Channel number.
 776:Drivers/STM32F7xx_HAL_Driver/Src/stm32f7xx_hal_hcd.c ****   *         This parameter can be a value from 1 to 15
 777:Drivers/STM32F7xx_HAL_Driver/Src/stm32f7xx_hal_hcd.c ****   * @retval last transfer size in byte
 778:Drivers/STM32F7xx_HAL_Driver/Src/stm32f7xx_hal_hcd.c ****   */
 779:Drivers/STM32F7xx_HAL_Driver/Src/stm32f7xx_hal_hcd.c **** uint32_t HAL_HCD_HC_GetXferCount(HCD_HandleTypeDef *hhcd, uint8_t chnum)
 780:Drivers/STM32F7xx_HAL_Driver/Src/stm32f7xx_hal_hcd.c **** {
 781:Drivers/STM32F7xx_HAL_Driver/Src/stm32f7xx_hal_hcd.c ****   return hhcd->hc[chnum].xfer_count;
 782:Drivers/STM32F7xx_HAL_Driver/Src/stm32f7xx_hal_hcd.c **** }
 783:Drivers/STM32F7xx_HAL_Driver/Src/stm32f7xx_hal_hcd.c **** 
 784:Drivers/STM32F7xx_HAL_Driver/Src/stm32f7xx_hal_hcd.c **** /**
 785:Drivers/STM32F7xx_HAL_Driver/Src/stm32f7xx_hal_hcd.c ****   * @brief  Return the Host Channel state.
 786:Drivers/STM32F7xx_HAL_Driver/Src/stm32f7xx_hal_hcd.c ****   * @param  hhcd HCD handle
 787:Drivers/STM32F7xx_HAL_Driver/Src/stm32f7xx_hal_hcd.c ****   * @param  chnum Channel number.
 788:Drivers/STM32F7xx_HAL_Driver/Src/stm32f7xx_hal_hcd.c ****   *         This parameter can be a value from 1 to 15
 789:Drivers/STM32F7xx_HAL_Driver/Src/stm32f7xx_hal_hcd.c ****   * @retval Host channel state
 790:Drivers/STM32F7xx_HAL_Driver/Src/stm32f7xx_hal_hcd.c ****   *          This parameter can be one of these values:
 791:Drivers/STM32F7xx_HAL_Driver/Src/stm32f7xx_hal_hcd.c ****   *            HC_IDLE/
 792:Drivers/STM32F7xx_HAL_Driver/Src/stm32f7xx_hal_hcd.c ****   *            HC_XFRC/
 793:Drivers/STM32F7xx_HAL_Driver/Src/stm32f7xx_hal_hcd.c ****   *            HC_HALTED/
 794:Drivers/STM32F7xx_HAL_Driver/Src/stm32f7xx_hal_hcd.c ****   *            HC_NYET/
 795:Drivers/STM32F7xx_HAL_Driver/Src/stm32f7xx_hal_hcd.c ****   *            HC_NAK/
 796:Drivers/STM32F7xx_HAL_Driver/Src/stm32f7xx_hal_hcd.c ****   *            HC_STALL/
 797:Drivers/STM32F7xx_HAL_Driver/Src/stm32f7xx_hal_hcd.c ****   *            HC_XACTERR/
 798:Drivers/STM32F7xx_HAL_Driver/Src/stm32f7xx_hal_hcd.c ****   *            HC_BBLERR/
 799:Drivers/STM32F7xx_HAL_Driver/Src/stm32f7xx_hal_hcd.c ****   *            HC_DATATGLERR
 800:Drivers/STM32F7xx_HAL_Driver/Src/stm32f7xx_hal_hcd.c ****   */
 801:Drivers/STM32F7xx_HAL_Driver/Src/stm32f7xx_hal_hcd.c **** HCD_HCStateTypeDef  HAL_HCD_HC_GetState(HCD_HandleTypeDef *hhcd, uint8_t chnum)
 802:Drivers/STM32F7xx_HAL_Driver/Src/stm32f7xx_hal_hcd.c **** {
 803:Drivers/STM32F7xx_HAL_Driver/Src/stm32f7xx_hal_hcd.c ****   return hhcd->hc[chnum].state;
 804:Drivers/STM32F7xx_HAL_Driver/Src/stm32f7xx_hal_hcd.c **** }
 805:Drivers/STM32F7xx_HAL_Driver/Src/stm32f7xx_hal_hcd.c **** 
 806:Drivers/STM32F7xx_HAL_Driver/Src/stm32f7xx_hal_hcd.c **** /**
 807:Drivers/STM32F7xx_HAL_Driver/Src/stm32f7xx_hal_hcd.c ****   * @brief  Return the current Host frame number.
 808:Drivers/STM32F7xx_HAL_Driver/Src/stm32f7xx_hal_hcd.c ****   * @param  hhcd HCD handle
 809:Drivers/STM32F7xx_HAL_Driver/Src/stm32f7xx_hal_hcd.c ****   * @retval Current Host frame number
 810:Drivers/STM32F7xx_HAL_Driver/Src/stm32f7xx_hal_hcd.c ****   */
 811:Drivers/STM32F7xx_HAL_Driver/Src/stm32f7xx_hal_hcd.c **** uint32_t HAL_HCD_GetCurrentFrame(HCD_HandleTypeDef *hhcd)
 812:Drivers/STM32F7xx_HAL_Driver/Src/stm32f7xx_hal_hcd.c **** {
 813:Drivers/STM32F7xx_HAL_Driver/Src/stm32f7xx_hal_hcd.c ****   return (USB_GetCurrentFrame(hhcd->Instance));
 814:Drivers/STM32F7xx_HAL_Driver/Src/stm32f7xx_hal_hcd.c **** }
 815:Drivers/STM32F7xx_HAL_Driver/Src/stm32f7xx_hal_hcd.c **** 
 816:Drivers/STM32F7xx_HAL_Driver/Src/stm32f7xx_hal_hcd.c **** /**
 817:Drivers/STM32F7xx_HAL_Driver/Src/stm32f7xx_hal_hcd.c ****   * @brief  Return the Host enumeration speed.
 818:Drivers/STM32F7xx_HAL_Driver/Src/stm32f7xx_hal_hcd.c ****   * @param  hhcd HCD handle
 819:Drivers/STM32F7xx_HAL_Driver/Src/stm32f7xx_hal_hcd.c ****   * @retval Enumeration speed
 820:Drivers/STM32F7xx_HAL_Driver/Src/stm32f7xx_hal_hcd.c ****   */
 821:Drivers/STM32F7xx_HAL_Driver/Src/stm32f7xx_hal_hcd.c **** uint32_t HAL_HCD_GetCurrentSpeed(HCD_HandleTypeDef *hhcd)
 822:Drivers/STM32F7xx_HAL_Driver/Src/stm32f7xx_hal_hcd.c **** {
 823:Drivers/STM32F7xx_HAL_Driver/Src/stm32f7xx_hal_hcd.c ****   return (USB_GetHostSpeed(hhcd->Instance));
 824:Drivers/STM32F7xx_HAL_Driver/Src/stm32f7xx_hal_hcd.c **** }
 825:Drivers/STM32F7xx_HAL_Driver/Src/stm32f7xx_hal_hcd.c **** 
 826:Drivers/STM32F7xx_HAL_Driver/Src/stm32f7xx_hal_hcd.c **** /**
 827:Drivers/STM32F7xx_HAL_Driver/Src/stm32f7xx_hal_hcd.c ****   * @}
 828:Drivers/STM32F7xx_HAL_Driver/Src/stm32f7xx_hal_hcd.c ****   */
ARM GAS  C:\Users\Nina\AppData\Local\Temp\ccxRUdKh.s 			page 16


 829:Drivers/STM32F7xx_HAL_Driver/Src/stm32f7xx_hal_hcd.c **** 
 830:Drivers/STM32F7xx_HAL_Driver/Src/stm32f7xx_hal_hcd.c **** /**
 831:Drivers/STM32F7xx_HAL_Driver/Src/stm32f7xx_hal_hcd.c ****   * @}
 832:Drivers/STM32F7xx_HAL_Driver/Src/stm32f7xx_hal_hcd.c ****   */
 833:Drivers/STM32F7xx_HAL_Driver/Src/stm32f7xx_hal_hcd.c **** 
 834:Drivers/STM32F7xx_HAL_Driver/Src/stm32f7xx_hal_hcd.c **** /** @addtogroup HCD_Private_Functions
 835:Drivers/STM32F7xx_HAL_Driver/Src/stm32f7xx_hal_hcd.c ****   * @{
 836:Drivers/STM32F7xx_HAL_Driver/Src/stm32f7xx_hal_hcd.c ****   */
 837:Drivers/STM32F7xx_HAL_Driver/Src/stm32f7xx_hal_hcd.c **** /**
 838:Drivers/STM32F7xx_HAL_Driver/Src/stm32f7xx_hal_hcd.c ****   * @brief  Handle Host Channel IN interrupt requests.
 839:Drivers/STM32F7xx_HAL_Driver/Src/stm32f7xx_hal_hcd.c ****   * @param  hhcd HCD handle
 840:Drivers/STM32F7xx_HAL_Driver/Src/stm32f7xx_hal_hcd.c ****   * @param  chnum Channel number.
 841:Drivers/STM32F7xx_HAL_Driver/Src/stm32f7xx_hal_hcd.c ****   *         This parameter can be a value from 1 to 15
 842:Drivers/STM32F7xx_HAL_Driver/Src/stm32f7xx_hal_hcd.c ****   * @retval none
 843:Drivers/STM32F7xx_HAL_Driver/Src/stm32f7xx_hal_hcd.c ****   */
 844:Drivers/STM32F7xx_HAL_Driver/Src/stm32f7xx_hal_hcd.c **** static void HCD_HC_IN_IRQHandler (HCD_HandleTypeDef *hhcd, uint8_t chnum)
 845:Drivers/STM32F7xx_HAL_Driver/Src/stm32f7xx_hal_hcd.c **** {
 846:Drivers/STM32F7xx_HAL_Driver/Src/stm32f7xx_hal_hcd.c ****   USB_OTG_GlobalTypeDef *USBx = hhcd->Instance;
 847:Drivers/STM32F7xx_HAL_Driver/Src/stm32f7xx_hal_hcd.c ****   uint32_t USBx_BASE = (uint32_t)USBx;
 848:Drivers/STM32F7xx_HAL_Driver/Src/stm32f7xx_hal_hcd.c ****   uint32_t ch_num = (uint32_t)chnum;
 849:Drivers/STM32F7xx_HAL_Driver/Src/stm32f7xx_hal_hcd.c **** 
 850:Drivers/STM32F7xx_HAL_Driver/Src/stm32f7xx_hal_hcd.c ****   uint32_t tmpreg;
 851:Drivers/STM32F7xx_HAL_Driver/Src/stm32f7xx_hal_hcd.c **** 
 852:Drivers/STM32F7xx_HAL_Driver/Src/stm32f7xx_hal_hcd.c ****   if ((USBx_HC(ch_num)->HCINT & USB_OTG_HCINT_AHBERR) == USB_OTG_HCINT_AHBERR)
 853:Drivers/STM32F7xx_HAL_Driver/Src/stm32f7xx_hal_hcd.c ****   {
 854:Drivers/STM32F7xx_HAL_Driver/Src/stm32f7xx_hal_hcd.c ****     __HAL_HCD_CLEAR_HC_INT(ch_num, USB_OTG_HCINT_AHBERR);
 855:Drivers/STM32F7xx_HAL_Driver/Src/stm32f7xx_hal_hcd.c ****     __HAL_HCD_UNMASK_HALT_HC_INT(ch_num);
 856:Drivers/STM32F7xx_HAL_Driver/Src/stm32f7xx_hal_hcd.c ****   }
 857:Drivers/STM32F7xx_HAL_Driver/Src/stm32f7xx_hal_hcd.c ****   else if ((USBx_HC(ch_num)->HCINT & USB_OTG_HCINT_ACK) == USB_OTG_HCINT_ACK)
 858:Drivers/STM32F7xx_HAL_Driver/Src/stm32f7xx_hal_hcd.c ****   {
 859:Drivers/STM32F7xx_HAL_Driver/Src/stm32f7xx_hal_hcd.c ****     __HAL_HCD_CLEAR_HC_INT(ch_num, USB_OTG_HCINT_ACK);
 860:Drivers/STM32F7xx_HAL_Driver/Src/stm32f7xx_hal_hcd.c ****   }
 861:Drivers/STM32F7xx_HAL_Driver/Src/stm32f7xx_hal_hcd.c ****   else if ((USBx_HC(ch_num)->HCINT & USB_OTG_HCINT_STALL) == USB_OTG_HCINT_STALL)
 862:Drivers/STM32F7xx_HAL_Driver/Src/stm32f7xx_hal_hcd.c ****   {
 863:Drivers/STM32F7xx_HAL_Driver/Src/stm32f7xx_hal_hcd.c ****     __HAL_HCD_UNMASK_HALT_HC_INT(ch_num);
 864:Drivers/STM32F7xx_HAL_Driver/Src/stm32f7xx_hal_hcd.c ****     hhcd->hc[ch_num].state = HC_STALL;
 865:Drivers/STM32F7xx_HAL_Driver/Src/stm32f7xx_hal_hcd.c ****     __HAL_HCD_CLEAR_HC_INT(ch_num, USB_OTG_HCINT_NAK);
 866:Drivers/STM32F7xx_HAL_Driver/Src/stm32f7xx_hal_hcd.c ****     __HAL_HCD_CLEAR_HC_INT(ch_num, USB_OTG_HCINT_STALL);
 867:Drivers/STM32F7xx_HAL_Driver/Src/stm32f7xx_hal_hcd.c ****     (void)USB_HC_Halt(hhcd->Instance, (uint8_t)ch_num);
 868:Drivers/STM32F7xx_HAL_Driver/Src/stm32f7xx_hal_hcd.c ****   }
 869:Drivers/STM32F7xx_HAL_Driver/Src/stm32f7xx_hal_hcd.c ****   else if ((USBx_HC(ch_num)->HCINT & USB_OTG_HCINT_DTERR) == USB_OTG_HCINT_DTERR)
 870:Drivers/STM32F7xx_HAL_Driver/Src/stm32f7xx_hal_hcd.c ****   {
 871:Drivers/STM32F7xx_HAL_Driver/Src/stm32f7xx_hal_hcd.c ****     __HAL_HCD_UNMASK_HALT_HC_INT(ch_num);
 872:Drivers/STM32F7xx_HAL_Driver/Src/stm32f7xx_hal_hcd.c ****     (void)USB_HC_Halt(hhcd->Instance, (uint8_t)ch_num);
 873:Drivers/STM32F7xx_HAL_Driver/Src/stm32f7xx_hal_hcd.c ****     __HAL_HCD_CLEAR_HC_INT(ch_num, USB_OTG_HCINT_NAK);
 874:Drivers/STM32F7xx_HAL_Driver/Src/stm32f7xx_hal_hcd.c ****     hhcd->hc[ch_num].state = HC_DATATGLERR;
 875:Drivers/STM32F7xx_HAL_Driver/Src/stm32f7xx_hal_hcd.c ****     __HAL_HCD_CLEAR_HC_INT(ch_num, USB_OTG_HCINT_DTERR);
 876:Drivers/STM32F7xx_HAL_Driver/Src/stm32f7xx_hal_hcd.c ****   }
 877:Drivers/STM32F7xx_HAL_Driver/Src/stm32f7xx_hal_hcd.c ****   else
 878:Drivers/STM32F7xx_HAL_Driver/Src/stm32f7xx_hal_hcd.c ****   {
 879:Drivers/STM32F7xx_HAL_Driver/Src/stm32f7xx_hal_hcd.c ****     /* ... */
 880:Drivers/STM32F7xx_HAL_Driver/Src/stm32f7xx_hal_hcd.c ****   }
 881:Drivers/STM32F7xx_HAL_Driver/Src/stm32f7xx_hal_hcd.c **** 
 882:Drivers/STM32F7xx_HAL_Driver/Src/stm32f7xx_hal_hcd.c ****   if ((USBx_HC(ch_num)->HCINT & USB_OTG_HCINT_FRMOR) == USB_OTG_HCINT_FRMOR)
 883:Drivers/STM32F7xx_HAL_Driver/Src/stm32f7xx_hal_hcd.c ****   {
 884:Drivers/STM32F7xx_HAL_Driver/Src/stm32f7xx_hal_hcd.c ****     __HAL_HCD_UNMASK_HALT_HC_INT(ch_num);
 885:Drivers/STM32F7xx_HAL_Driver/Src/stm32f7xx_hal_hcd.c ****     (void)USB_HC_Halt(hhcd->Instance, (uint8_t)ch_num);
ARM GAS  C:\Users\Nina\AppData\Local\Temp\ccxRUdKh.s 			page 17


 886:Drivers/STM32F7xx_HAL_Driver/Src/stm32f7xx_hal_hcd.c ****     __HAL_HCD_CLEAR_HC_INT(ch_num, USB_OTG_HCINT_FRMOR);
 887:Drivers/STM32F7xx_HAL_Driver/Src/stm32f7xx_hal_hcd.c ****   }
 888:Drivers/STM32F7xx_HAL_Driver/Src/stm32f7xx_hal_hcd.c ****   else if ((USBx_HC(ch_num)->HCINT & USB_OTG_HCINT_XFRC) == USB_OTG_HCINT_XFRC)
 889:Drivers/STM32F7xx_HAL_Driver/Src/stm32f7xx_hal_hcd.c ****   {
 890:Drivers/STM32F7xx_HAL_Driver/Src/stm32f7xx_hal_hcd.c ****     if (hhcd->Init.dma_enable != 0U)
 891:Drivers/STM32F7xx_HAL_Driver/Src/stm32f7xx_hal_hcd.c ****     {
 892:Drivers/STM32F7xx_HAL_Driver/Src/stm32f7xx_hal_hcd.c ****       hhcd->hc[ch_num].xfer_count = hhcd->hc[ch_num].xfer_len - \
 893:Drivers/STM32F7xx_HAL_Driver/Src/stm32f7xx_hal_hcd.c ****                                (USBx_HC(ch_num)->HCTSIZ & USB_OTG_HCTSIZ_XFRSIZ);
 894:Drivers/STM32F7xx_HAL_Driver/Src/stm32f7xx_hal_hcd.c ****     }
 895:Drivers/STM32F7xx_HAL_Driver/Src/stm32f7xx_hal_hcd.c **** 
 896:Drivers/STM32F7xx_HAL_Driver/Src/stm32f7xx_hal_hcd.c ****     hhcd->hc[ch_num].state = HC_XFRC;
 897:Drivers/STM32F7xx_HAL_Driver/Src/stm32f7xx_hal_hcd.c ****     hhcd->hc[ch_num].ErrCnt = 0U;
 898:Drivers/STM32F7xx_HAL_Driver/Src/stm32f7xx_hal_hcd.c ****     __HAL_HCD_CLEAR_HC_INT(ch_num, USB_OTG_HCINT_XFRC);
 899:Drivers/STM32F7xx_HAL_Driver/Src/stm32f7xx_hal_hcd.c **** 
 900:Drivers/STM32F7xx_HAL_Driver/Src/stm32f7xx_hal_hcd.c ****     if ((hhcd->hc[ch_num].ep_type == EP_TYPE_CTRL)||
 901:Drivers/STM32F7xx_HAL_Driver/Src/stm32f7xx_hal_hcd.c ****         (hhcd->hc[ch_num].ep_type == EP_TYPE_BULK))
 902:Drivers/STM32F7xx_HAL_Driver/Src/stm32f7xx_hal_hcd.c ****     {
 903:Drivers/STM32F7xx_HAL_Driver/Src/stm32f7xx_hal_hcd.c ****       __HAL_HCD_UNMASK_HALT_HC_INT(ch_num);
 904:Drivers/STM32F7xx_HAL_Driver/Src/stm32f7xx_hal_hcd.c ****       (void)USB_HC_Halt(hhcd->Instance, (uint8_t)ch_num);
 905:Drivers/STM32F7xx_HAL_Driver/Src/stm32f7xx_hal_hcd.c ****       __HAL_HCD_CLEAR_HC_INT(ch_num, USB_OTG_HCINT_NAK);
 906:Drivers/STM32F7xx_HAL_Driver/Src/stm32f7xx_hal_hcd.c ****     }
 907:Drivers/STM32F7xx_HAL_Driver/Src/stm32f7xx_hal_hcd.c ****     else if(hhcd->hc[ch_num].ep_type == EP_TYPE_INTR)
 908:Drivers/STM32F7xx_HAL_Driver/Src/stm32f7xx_hal_hcd.c ****     {
 909:Drivers/STM32F7xx_HAL_Driver/Src/stm32f7xx_hal_hcd.c ****       USBx_HC(ch_num)->HCCHAR |= USB_OTG_HCCHAR_ODDFRM;
 910:Drivers/STM32F7xx_HAL_Driver/Src/stm32f7xx_hal_hcd.c ****       hhcd->hc[ch_num].urb_state = URB_DONE;
 911:Drivers/STM32F7xx_HAL_Driver/Src/stm32f7xx_hal_hcd.c ****       HAL_HCD_HC_NotifyURBChange_Callback(hhcd, (uint8_t)ch_num, hhcd->hc[ch_num].urb_state);
 912:Drivers/STM32F7xx_HAL_Driver/Src/stm32f7xx_hal_hcd.c ****     }
 913:Drivers/STM32F7xx_HAL_Driver/Src/stm32f7xx_hal_hcd.c ****     else
 914:Drivers/STM32F7xx_HAL_Driver/Src/stm32f7xx_hal_hcd.c ****     {
 915:Drivers/STM32F7xx_HAL_Driver/Src/stm32f7xx_hal_hcd.c ****       /* ... */
 916:Drivers/STM32F7xx_HAL_Driver/Src/stm32f7xx_hal_hcd.c ****     }
 917:Drivers/STM32F7xx_HAL_Driver/Src/stm32f7xx_hal_hcd.c ****     hhcd->hc[ch_num].toggle_in ^= 1U;
 918:Drivers/STM32F7xx_HAL_Driver/Src/stm32f7xx_hal_hcd.c **** 
 919:Drivers/STM32F7xx_HAL_Driver/Src/stm32f7xx_hal_hcd.c ****   }
 920:Drivers/STM32F7xx_HAL_Driver/Src/stm32f7xx_hal_hcd.c ****   else if ((USBx_HC(ch_num)->HCINT & USB_OTG_HCINT_CHH) == USB_OTG_HCINT_CHH)
 921:Drivers/STM32F7xx_HAL_Driver/Src/stm32f7xx_hal_hcd.c ****   {
 922:Drivers/STM32F7xx_HAL_Driver/Src/stm32f7xx_hal_hcd.c ****     __HAL_HCD_MASK_HALT_HC_INT(ch_num);
 923:Drivers/STM32F7xx_HAL_Driver/Src/stm32f7xx_hal_hcd.c **** 
 924:Drivers/STM32F7xx_HAL_Driver/Src/stm32f7xx_hal_hcd.c ****     if(hhcd->hc[ch_num].state == HC_XFRC)
 925:Drivers/STM32F7xx_HAL_Driver/Src/stm32f7xx_hal_hcd.c ****     {
 926:Drivers/STM32F7xx_HAL_Driver/Src/stm32f7xx_hal_hcd.c ****       hhcd->hc[ch_num].urb_state  = URB_DONE;
 927:Drivers/STM32F7xx_HAL_Driver/Src/stm32f7xx_hal_hcd.c ****     }
 928:Drivers/STM32F7xx_HAL_Driver/Src/stm32f7xx_hal_hcd.c ****     else if (hhcd->hc[ch_num].state == HC_STALL)
 929:Drivers/STM32F7xx_HAL_Driver/Src/stm32f7xx_hal_hcd.c ****     {
 930:Drivers/STM32F7xx_HAL_Driver/Src/stm32f7xx_hal_hcd.c ****       hhcd->hc[ch_num].urb_state  = URB_STALL;
 931:Drivers/STM32F7xx_HAL_Driver/Src/stm32f7xx_hal_hcd.c ****     }
 932:Drivers/STM32F7xx_HAL_Driver/Src/stm32f7xx_hal_hcd.c ****     else if((hhcd->hc[ch_num].state == HC_XACTERR) ||
 933:Drivers/STM32F7xx_HAL_Driver/Src/stm32f7xx_hal_hcd.c ****             (hhcd->hc[ch_num].state == HC_DATATGLERR))
 934:Drivers/STM32F7xx_HAL_Driver/Src/stm32f7xx_hal_hcd.c ****     {
 935:Drivers/STM32F7xx_HAL_Driver/Src/stm32f7xx_hal_hcd.c ****       hhcd->hc[ch_num].ErrCnt++;
 936:Drivers/STM32F7xx_HAL_Driver/Src/stm32f7xx_hal_hcd.c ****       if(hhcd->hc[ch_num].ErrCnt > 3U)
 937:Drivers/STM32F7xx_HAL_Driver/Src/stm32f7xx_hal_hcd.c ****       {
 938:Drivers/STM32F7xx_HAL_Driver/Src/stm32f7xx_hal_hcd.c ****         hhcd->hc[ch_num].ErrCnt = 0U;
 939:Drivers/STM32F7xx_HAL_Driver/Src/stm32f7xx_hal_hcd.c ****         hhcd->hc[ch_num].urb_state = URB_ERROR;
 940:Drivers/STM32F7xx_HAL_Driver/Src/stm32f7xx_hal_hcd.c ****       }
 941:Drivers/STM32F7xx_HAL_Driver/Src/stm32f7xx_hal_hcd.c ****       else
 942:Drivers/STM32F7xx_HAL_Driver/Src/stm32f7xx_hal_hcd.c ****       {
ARM GAS  C:\Users\Nina\AppData\Local\Temp\ccxRUdKh.s 			page 18


 943:Drivers/STM32F7xx_HAL_Driver/Src/stm32f7xx_hal_hcd.c ****         hhcd->hc[ch_num].urb_state = URB_NOTREADY;
 944:Drivers/STM32F7xx_HAL_Driver/Src/stm32f7xx_hal_hcd.c ****       }
 945:Drivers/STM32F7xx_HAL_Driver/Src/stm32f7xx_hal_hcd.c **** 
 946:Drivers/STM32F7xx_HAL_Driver/Src/stm32f7xx_hal_hcd.c ****       /* re-activate the channel  */
 947:Drivers/STM32F7xx_HAL_Driver/Src/stm32f7xx_hal_hcd.c ****       tmpreg = USBx_HC(ch_num)->HCCHAR;
 948:Drivers/STM32F7xx_HAL_Driver/Src/stm32f7xx_hal_hcd.c ****       tmpreg &= ~USB_OTG_HCCHAR_CHDIS;
 949:Drivers/STM32F7xx_HAL_Driver/Src/stm32f7xx_hal_hcd.c ****       tmpreg |= USB_OTG_HCCHAR_CHENA;
 950:Drivers/STM32F7xx_HAL_Driver/Src/stm32f7xx_hal_hcd.c ****       USBx_HC(ch_num)->HCCHAR = tmpreg;
 951:Drivers/STM32F7xx_HAL_Driver/Src/stm32f7xx_hal_hcd.c ****     }
 952:Drivers/STM32F7xx_HAL_Driver/Src/stm32f7xx_hal_hcd.c ****     else if (hhcd->hc[ch_num].state == HC_NAK)
 953:Drivers/STM32F7xx_HAL_Driver/Src/stm32f7xx_hal_hcd.c ****     {
 954:Drivers/STM32F7xx_HAL_Driver/Src/stm32f7xx_hal_hcd.c ****       hhcd->hc[ch_num].urb_state  = URB_NOTREADY;
 955:Drivers/STM32F7xx_HAL_Driver/Src/stm32f7xx_hal_hcd.c ****       /* re-activate the channel  */
 956:Drivers/STM32F7xx_HAL_Driver/Src/stm32f7xx_hal_hcd.c ****       tmpreg = USBx_HC(ch_num)->HCCHAR;
 957:Drivers/STM32F7xx_HAL_Driver/Src/stm32f7xx_hal_hcd.c ****       tmpreg &= ~USB_OTG_HCCHAR_CHDIS;
 958:Drivers/STM32F7xx_HAL_Driver/Src/stm32f7xx_hal_hcd.c ****       tmpreg |= USB_OTG_HCCHAR_CHENA;
 959:Drivers/STM32F7xx_HAL_Driver/Src/stm32f7xx_hal_hcd.c ****       USBx_HC(ch_num)->HCCHAR = tmpreg;
 960:Drivers/STM32F7xx_HAL_Driver/Src/stm32f7xx_hal_hcd.c ****     }
 961:Drivers/STM32F7xx_HAL_Driver/Src/stm32f7xx_hal_hcd.c ****     else
 962:Drivers/STM32F7xx_HAL_Driver/Src/stm32f7xx_hal_hcd.c ****     {
 963:Drivers/STM32F7xx_HAL_Driver/Src/stm32f7xx_hal_hcd.c ****       /* ... */
 964:Drivers/STM32F7xx_HAL_Driver/Src/stm32f7xx_hal_hcd.c ****     }
 965:Drivers/STM32F7xx_HAL_Driver/Src/stm32f7xx_hal_hcd.c ****     __HAL_HCD_CLEAR_HC_INT(ch_num, USB_OTG_HCINT_CHH);
 966:Drivers/STM32F7xx_HAL_Driver/Src/stm32f7xx_hal_hcd.c ****     HAL_HCD_HC_NotifyURBChange_Callback(hhcd, (uint8_t)ch_num, hhcd->hc[ch_num].urb_state);
 967:Drivers/STM32F7xx_HAL_Driver/Src/stm32f7xx_hal_hcd.c ****   }
 968:Drivers/STM32F7xx_HAL_Driver/Src/stm32f7xx_hal_hcd.c ****   else if ((USBx_HC(ch_num)->HCINT & USB_OTG_HCINT_TXERR) == USB_OTG_HCINT_TXERR)
 969:Drivers/STM32F7xx_HAL_Driver/Src/stm32f7xx_hal_hcd.c ****   {
 970:Drivers/STM32F7xx_HAL_Driver/Src/stm32f7xx_hal_hcd.c ****     __HAL_HCD_UNMASK_HALT_HC_INT(ch_num);
 971:Drivers/STM32F7xx_HAL_Driver/Src/stm32f7xx_hal_hcd.c ****     hhcd->hc[ch_num].ErrCnt++;
 972:Drivers/STM32F7xx_HAL_Driver/Src/stm32f7xx_hal_hcd.c ****     hhcd->hc[ch_num].state = HC_XACTERR;
 973:Drivers/STM32F7xx_HAL_Driver/Src/stm32f7xx_hal_hcd.c ****     (void)USB_HC_Halt(hhcd->Instance, (uint8_t)ch_num);
 974:Drivers/STM32F7xx_HAL_Driver/Src/stm32f7xx_hal_hcd.c ****     __HAL_HCD_CLEAR_HC_INT(ch_num, USB_OTG_HCINT_TXERR);
 975:Drivers/STM32F7xx_HAL_Driver/Src/stm32f7xx_hal_hcd.c ****   }
 976:Drivers/STM32F7xx_HAL_Driver/Src/stm32f7xx_hal_hcd.c ****   else if ((USBx_HC(ch_num)->HCINT & USB_OTG_HCINT_NAK) == USB_OTG_HCINT_NAK)
 977:Drivers/STM32F7xx_HAL_Driver/Src/stm32f7xx_hal_hcd.c ****   {
 978:Drivers/STM32F7xx_HAL_Driver/Src/stm32f7xx_hal_hcd.c ****     if(hhcd->hc[ch_num].ep_type == EP_TYPE_INTR)
 979:Drivers/STM32F7xx_HAL_Driver/Src/stm32f7xx_hal_hcd.c ****     {
 980:Drivers/STM32F7xx_HAL_Driver/Src/stm32f7xx_hal_hcd.c ****       hhcd->hc[ch_num].ErrCnt = 0U;
 981:Drivers/STM32F7xx_HAL_Driver/Src/stm32f7xx_hal_hcd.c ****       __HAL_HCD_UNMASK_HALT_HC_INT(ch_num);
 982:Drivers/STM32F7xx_HAL_Driver/Src/stm32f7xx_hal_hcd.c ****       (void)USB_HC_Halt(hhcd->Instance, (uint8_t)ch_num);
 983:Drivers/STM32F7xx_HAL_Driver/Src/stm32f7xx_hal_hcd.c ****     }
 984:Drivers/STM32F7xx_HAL_Driver/Src/stm32f7xx_hal_hcd.c ****     else if ((hhcd->hc[ch_num].ep_type == EP_TYPE_CTRL)||
 985:Drivers/STM32F7xx_HAL_Driver/Src/stm32f7xx_hal_hcd.c ****              (hhcd->hc[ch_num].ep_type == EP_TYPE_BULK))
 986:Drivers/STM32F7xx_HAL_Driver/Src/stm32f7xx_hal_hcd.c ****     {
 987:Drivers/STM32F7xx_HAL_Driver/Src/stm32f7xx_hal_hcd.c ****        hhcd->hc[ch_num].ErrCnt = 0U;
 988:Drivers/STM32F7xx_HAL_Driver/Src/stm32f7xx_hal_hcd.c ****        if (hhcd->Init.dma_enable == 0U)
 989:Drivers/STM32F7xx_HAL_Driver/Src/stm32f7xx_hal_hcd.c ****        {
 990:Drivers/STM32F7xx_HAL_Driver/Src/stm32f7xx_hal_hcd.c ****          hhcd->hc[ch_num].state = HC_NAK;
 991:Drivers/STM32F7xx_HAL_Driver/Src/stm32f7xx_hal_hcd.c ****          __HAL_HCD_UNMASK_HALT_HC_INT(ch_num);
 992:Drivers/STM32F7xx_HAL_Driver/Src/stm32f7xx_hal_hcd.c ****          (void)USB_HC_Halt(hhcd->Instance, (uint8_t)ch_num);
 993:Drivers/STM32F7xx_HAL_Driver/Src/stm32f7xx_hal_hcd.c ****        }
 994:Drivers/STM32F7xx_HAL_Driver/Src/stm32f7xx_hal_hcd.c ****     }
 995:Drivers/STM32F7xx_HAL_Driver/Src/stm32f7xx_hal_hcd.c ****     else
 996:Drivers/STM32F7xx_HAL_Driver/Src/stm32f7xx_hal_hcd.c ****     {
 997:Drivers/STM32F7xx_HAL_Driver/Src/stm32f7xx_hal_hcd.c ****       /* ... */
 998:Drivers/STM32F7xx_HAL_Driver/Src/stm32f7xx_hal_hcd.c ****     }
 999:Drivers/STM32F7xx_HAL_Driver/Src/stm32f7xx_hal_hcd.c ****     __HAL_HCD_CLEAR_HC_INT(ch_num, USB_OTG_HCINT_NAK);
ARM GAS  C:\Users\Nina\AppData\Local\Temp\ccxRUdKh.s 			page 19


1000:Drivers/STM32F7xx_HAL_Driver/Src/stm32f7xx_hal_hcd.c ****   }
1001:Drivers/STM32F7xx_HAL_Driver/Src/stm32f7xx_hal_hcd.c ****   else
1002:Drivers/STM32F7xx_HAL_Driver/Src/stm32f7xx_hal_hcd.c ****   {
1003:Drivers/STM32F7xx_HAL_Driver/Src/stm32f7xx_hal_hcd.c ****     /* ... */
1004:Drivers/STM32F7xx_HAL_Driver/Src/stm32f7xx_hal_hcd.c ****   }
1005:Drivers/STM32F7xx_HAL_Driver/Src/stm32f7xx_hal_hcd.c **** }
1006:Drivers/STM32F7xx_HAL_Driver/Src/stm32f7xx_hal_hcd.c **** 
1007:Drivers/STM32F7xx_HAL_Driver/Src/stm32f7xx_hal_hcd.c **** /**
1008:Drivers/STM32F7xx_HAL_Driver/Src/stm32f7xx_hal_hcd.c ****   * @brief  Handle Host Channel OUT interrupt requests.
1009:Drivers/STM32F7xx_HAL_Driver/Src/stm32f7xx_hal_hcd.c ****   * @param  hhcd HCD handle
1010:Drivers/STM32F7xx_HAL_Driver/Src/stm32f7xx_hal_hcd.c ****   * @param  chnum Channel number.
1011:Drivers/STM32F7xx_HAL_Driver/Src/stm32f7xx_hal_hcd.c ****   *         This parameter can be a value from 1 to 15
1012:Drivers/STM32F7xx_HAL_Driver/Src/stm32f7xx_hal_hcd.c ****   * @retval none
1013:Drivers/STM32F7xx_HAL_Driver/Src/stm32f7xx_hal_hcd.c ****   */
1014:Drivers/STM32F7xx_HAL_Driver/Src/stm32f7xx_hal_hcd.c **** static void HCD_HC_OUT_IRQHandler (HCD_HandleTypeDef *hhcd, uint8_t chnum)
1015:Drivers/STM32F7xx_HAL_Driver/Src/stm32f7xx_hal_hcd.c **** {
1016:Drivers/STM32F7xx_HAL_Driver/Src/stm32f7xx_hal_hcd.c ****   USB_OTG_GlobalTypeDef *USBx = hhcd->Instance;
1017:Drivers/STM32F7xx_HAL_Driver/Src/stm32f7xx_hal_hcd.c ****   uint32_t USBx_BASE = (uint32_t)USBx;
1018:Drivers/STM32F7xx_HAL_Driver/Src/stm32f7xx_hal_hcd.c ****   uint32_t ch_num = (uint32_t)chnum;
1019:Drivers/STM32F7xx_HAL_Driver/Src/stm32f7xx_hal_hcd.c ****   uint32_t tmpreg;
1020:Drivers/STM32F7xx_HAL_Driver/Src/stm32f7xx_hal_hcd.c **** 
1021:Drivers/STM32F7xx_HAL_Driver/Src/stm32f7xx_hal_hcd.c ****   if ((USBx_HC(ch_num)->HCINT & USB_OTG_HCINT_AHBERR) == USB_OTG_HCINT_AHBERR)
1022:Drivers/STM32F7xx_HAL_Driver/Src/stm32f7xx_hal_hcd.c ****   {
1023:Drivers/STM32F7xx_HAL_Driver/Src/stm32f7xx_hal_hcd.c ****     __HAL_HCD_CLEAR_HC_INT(ch_num, USB_OTG_HCINT_AHBERR);
1024:Drivers/STM32F7xx_HAL_Driver/Src/stm32f7xx_hal_hcd.c ****     __HAL_HCD_UNMASK_HALT_HC_INT(ch_num);
1025:Drivers/STM32F7xx_HAL_Driver/Src/stm32f7xx_hal_hcd.c ****   }
1026:Drivers/STM32F7xx_HAL_Driver/Src/stm32f7xx_hal_hcd.c ****   else if ((USBx_HC(ch_num)->HCINT & USB_OTG_HCINT_ACK) == USB_OTG_HCINT_ACK)
1027:Drivers/STM32F7xx_HAL_Driver/Src/stm32f7xx_hal_hcd.c ****   {
1028:Drivers/STM32F7xx_HAL_Driver/Src/stm32f7xx_hal_hcd.c ****     __HAL_HCD_CLEAR_HC_INT(ch_num, USB_OTG_HCINT_ACK);
1029:Drivers/STM32F7xx_HAL_Driver/Src/stm32f7xx_hal_hcd.c **** 
1030:Drivers/STM32F7xx_HAL_Driver/Src/stm32f7xx_hal_hcd.c ****     if( hhcd->hc[ch_num].do_ping == 1U)
1031:Drivers/STM32F7xx_HAL_Driver/Src/stm32f7xx_hal_hcd.c ****     {
1032:Drivers/STM32F7xx_HAL_Driver/Src/stm32f7xx_hal_hcd.c ****       hhcd->hc[ch_num].do_ping = 0U;
1033:Drivers/STM32F7xx_HAL_Driver/Src/stm32f7xx_hal_hcd.c ****       hhcd->hc[ch_num].urb_state  = URB_NOTREADY;
1034:Drivers/STM32F7xx_HAL_Driver/Src/stm32f7xx_hal_hcd.c ****       __HAL_HCD_UNMASK_HALT_HC_INT(ch_num);
1035:Drivers/STM32F7xx_HAL_Driver/Src/stm32f7xx_hal_hcd.c ****       (void)USB_HC_Halt(hhcd->Instance, (uint8_t)ch_num);
1036:Drivers/STM32F7xx_HAL_Driver/Src/stm32f7xx_hal_hcd.c ****     }
1037:Drivers/STM32F7xx_HAL_Driver/Src/stm32f7xx_hal_hcd.c ****   }
1038:Drivers/STM32F7xx_HAL_Driver/Src/stm32f7xx_hal_hcd.c ****   else if ((USBx_HC(ch_num)->HCINT & USB_OTG_HCINT_NYET) == USB_OTG_HCINT_NYET)
1039:Drivers/STM32F7xx_HAL_Driver/Src/stm32f7xx_hal_hcd.c ****   {
1040:Drivers/STM32F7xx_HAL_Driver/Src/stm32f7xx_hal_hcd.c ****     hhcd->hc[ch_num].state = HC_NYET;
1041:Drivers/STM32F7xx_HAL_Driver/Src/stm32f7xx_hal_hcd.c ****     hhcd->hc[ch_num].do_ping = 1U;
1042:Drivers/STM32F7xx_HAL_Driver/Src/stm32f7xx_hal_hcd.c ****     hhcd->hc[ch_num].ErrCnt= 0U;
1043:Drivers/STM32F7xx_HAL_Driver/Src/stm32f7xx_hal_hcd.c ****     __HAL_HCD_UNMASK_HALT_HC_INT(ch_num);
1044:Drivers/STM32F7xx_HAL_Driver/Src/stm32f7xx_hal_hcd.c ****     (void)USB_HC_Halt(hhcd->Instance, (uint8_t)ch_num);
1045:Drivers/STM32F7xx_HAL_Driver/Src/stm32f7xx_hal_hcd.c ****     __HAL_HCD_CLEAR_HC_INT(ch_num, USB_OTG_HCINT_NYET);
1046:Drivers/STM32F7xx_HAL_Driver/Src/stm32f7xx_hal_hcd.c ****   }
1047:Drivers/STM32F7xx_HAL_Driver/Src/stm32f7xx_hal_hcd.c ****   else if ((USBx_HC(ch_num)->HCINT & USB_OTG_HCINT_FRMOR) == USB_OTG_HCINT_FRMOR)
1048:Drivers/STM32F7xx_HAL_Driver/Src/stm32f7xx_hal_hcd.c ****   {
1049:Drivers/STM32F7xx_HAL_Driver/Src/stm32f7xx_hal_hcd.c ****     __HAL_HCD_UNMASK_HALT_HC_INT(ch_num);
1050:Drivers/STM32F7xx_HAL_Driver/Src/stm32f7xx_hal_hcd.c ****     (void)USB_HC_Halt(hhcd->Instance, (uint8_t)ch_num);
1051:Drivers/STM32F7xx_HAL_Driver/Src/stm32f7xx_hal_hcd.c ****     __HAL_HCD_CLEAR_HC_INT(ch_num, USB_OTG_HCINT_FRMOR);
1052:Drivers/STM32F7xx_HAL_Driver/Src/stm32f7xx_hal_hcd.c ****   }
1053:Drivers/STM32F7xx_HAL_Driver/Src/stm32f7xx_hal_hcd.c ****   else if ((USBx_HC(ch_num)->HCINT & USB_OTG_HCINT_XFRC) == USB_OTG_HCINT_XFRC)
1054:Drivers/STM32F7xx_HAL_Driver/Src/stm32f7xx_hal_hcd.c ****   {
1055:Drivers/STM32F7xx_HAL_Driver/Src/stm32f7xx_hal_hcd.c ****     hhcd->hc[ch_num].ErrCnt = 0U;
1056:Drivers/STM32F7xx_HAL_Driver/Src/stm32f7xx_hal_hcd.c ****     __HAL_HCD_UNMASK_HALT_HC_INT(ch_num);
ARM GAS  C:\Users\Nina\AppData\Local\Temp\ccxRUdKh.s 			page 20


1057:Drivers/STM32F7xx_HAL_Driver/Src/stm32f7xx_hal_hcd.c ****     (void)USB_HC_Halt(hhcd->Instance, (uint8_t)ch_num);
1058:Drivers/STM32F7xx_HAL_Driver/Src/stm32f7xx_hal_hcd.c ****     __HAL_HCD_CLEAR_HC_INT(ch_num, USB_OTG_HCINT_XFRC);
1059:Drivers/STM32F7xx_HAL_Driver/Src/stm32f7xx_hal_hcd.c ****     hhcd->hc[ch_num].state = HC_XFRC;
1060:Drivers/STM32F7xx_HAL_Driver/Src/stm32f7xx_hal_hcd.c ****   }
1061:Drivers/STM32F7xx_HAL_Driver/Src/stm32f7xx_hal_hcd.c ****   else if ((USBx_HC(ch_num)->HCINT & USB_OTG_HCINT_STALL) == USB_OTG_HCINT_STALL)
1062:Drivers/STM32F7xx_HAL_Driver/Src/stm32f7xx_hal_hcd.c ****   {
1063:Drivers/STM32F7xx_HAL_Driver/Src/stm32f7xx_hal_hcd.c ****     __HAL_HCD_CLEAR_HC_INT(ch_num, USB_OTG_HCINT_STALL);
1064:Drivers/STM32F7xx_HAL_Driver/Src/stm32f7xx_hal_hcd.c ****     __HAL_HCD_UNMASK_HALT_HC_INT(ch_num);
1065:Drivers/STM32F7xx_HAL_Driver/Src/stm32f7xx_hal_hcd.c ****     (void)USB_HC_Halt(hhcd->Instance, (uint8_t)ch_num);
1066:Drivers/STM32F7xx_HAL_Driver/Src/stm32f7xx_hal_hcd.c ****     hhcd->hc[ch_num].state = HC_STALL;
1067:Drivers/STM32F7xx_HAL_Driver/Src/stm32f7xx_hal_hcd.c ****   }
1068:Drivers/STM32F7xx_HAL_Driver/Src/stm32f7xx_hal_hcd.c ****   else if ((USBx_HC(ch_num)->HCINT & USB_OTG_HCINT_NAK) == USB_OTG_HCINT_NAK)
1069:Drivers/STM32F7xx_HAL_Driver/Src/stm32f7xx_hal_hcd.c ****   {
1070:Drivers/STM32F7xx_HAL_Driver/Src/stm32f7xx_hal_hcd.c ****     hhcd->hc[ch_num].ErrCnt = 0U;
1071:Drivers/STM32F7xx_HAL_Driver/Src/stm32f7xx_hal_hcd.c ****     hhcd->hc[ch_num].state = HC_NAK;
1072:Drivers/STM32F7xx_HAL_Driver/Src/stm32f7xx_hal_hcd.c **** 
1073:Drivers/STM32F7xx_HAL_Driver/Src/stm32f7xx_hal_hcd.c ****     if (hhcd->hc[ch_num].do_ping == 0U)
1074:Drivers/STM32F7xx_HAL_Driver/Src/stm32f7xx_hal_hcd.c ****     {
1075:Drivers/STM32F7xx_HAL_Driver/Src/stm32f7xx_hal_hcd.c ****       if (hhcd->hc[ch_num].speed == HCD_SPEED_HIGH)
1076:Drivers/STM32F7xx_HAL_Driver/Src/stm32f7xx_hal_hcd.c ****       {
1077:Drivers/STM32F7xx_HAL_Driver/Src/stm32f7xx_hal_hcd.c ****         hhcd->hc[ch_num].do_ping = 1U;
1078:Drivers/STM32F7xx_HAL_Driver/Src/stm32f7xx_hal_hcd.c ****       }
1079:Drivers/STM32F7xx_HAL_Driver/Src/stm32f7xx_hal_hcd.c ****     }
1080:Drivers/STM32F7xx_HAL_Driver/Src/stm32f7xx_hal_hcd.c **** 
1081:Drivers/STM32F7xx_HAL_Driver/Src/stm32f7xx_hal_hcd.c ****     __HAL_HCD_UNMASK_HALT_HC_INT(ch_num);
1082:Drivers/STM32F7xx_HAL_Driver/Src/stm32f7xx_hal_hcd.c ****     (void)USB_HC_Halt(hhcd->Instance, (uint8_t)ch_num);
1083:Drivers/STM32F7xx_HAL_Driver/Src/stm32f7xx_hal_hcd.c ****     __HAL_HCD_CLEAR_HC_INT(ch_num, USB_OTG_HCINT_NAK);
1084:Drivers/STM32F7xx_HAL_Driver/Src/stm32f7xx_hal_hcd.c ****   }
1085:Drivers/STM32F7xx_HAL_Driver/Src/stm32f7xx_hal_hcd.c ****   else if ((USBx_HC(ch_num)->HCINT & USB_OTG_HCINT_TXERR) == USB_OTG_HCINT_TXERR)
1086:Drivers/STM32F7xx_HAL_Driver/Src/stm32f7xx_hal_hcd.c ****   {
1087:Drivers/STM32F7xx_HAL_Driver/Src/stm32f7xx_hal_hcd.c ****     __HAL_HCD_UNMASK_HALT_HC_INT(ch_num);
1088:Drivers/STM32F7xx_HAL_Driver/Src/stm32f7xx_hal_hcd.c ****     (void)USB_HC_Halt(hhcd->Instance, (uint8_t)ch_num);
1089:Drivers/STM32F7xx_HAL_Driver/Src/stm32f7xx_hal_hcd.c ****     hhcd->hc[ch_num].state = HC_XACTERR;
1090:Drivers/STM32F7xx_HAL_Driver/Src/stm32f7xx_hal_hcd.c ****      __HAL_HCD_CLEAR_HC_INT(ch_num, USB_OTG_HCINT_TXERR);
1091:Drivers/STM32F7xx_HAL_Driver/Src/stm32f7xx_hal_hcd.c ****   }
1092:Drivers/STM32F7xx_HAL_Driver/Src/stm32f7xx_hal_hcd.c ****   else if ((USBx_HC(ch_num)->HCINT & USB_OTG_HCINT_DTERR) == USB_OTG_HCINT_DTERR)
1093:Drivers/STM32F7xx_HAL_Driver/Src/stm32f7xx_hal_hcd.c ****   {
1094:Drivers/STM32F7xx_HAL_Driver/Src/stm32f7xx_hal_hcd.c ****     __HAL_HCD_UNMASK_HALT_HC_INT(ch_num);
1095:Drivers/STM32F7xx_HAL_Driver/Src/stm32f7xx_hal_hcd.c ****     (void)USB_HC_Halt(hhcd->Instance, (uint8_t)ch_num);
1096:Drivers/STM32F7xx_HAL_Driver/Src/stm32f7xx_hal_hcd.c ****     __HAL_HCD_CLEAR_HC_INT(ch_num, USB_OTG_HCINT_NAK);
1097:Drivers/STM32F7xx_HAL_Driver/Src/stm32f7xx_hal_hcd.c ****     __HAL_HCD_CLEAR_HC_INT(ch_num, USB_OTG_HCINT_DTERR);
1098:Drivers/STM32F7xx_HAL_Driver/Src/stm32f7xx_hal_hcd.c ****     hhcd->hc[ch_num].state = HC_DATATGLERR;
1099:Drivers/STM32F7xx_HAL_Driver/Src/stm32f7xx_hal_hcd.c ****   }
1100:Drivers/STM32F7xx_HAL_Driver/Src/stm32f7xx_hal_hcd.c ****   else if ((USBx_HC(ch_num)->HCINT & USB_OTG_HCINT_CHH) == USB_OTG_HCINT_CHH)
1101:Drivers/STM32F7xx_HAL_Driver/Src/stm32f7xx_hal_hcd.c ****   {
1102:Drivers/STM32F7xx_HAL_Driver/Src/stm32f7xx_hal_hcd.c ****     __HAL_HCD_MASK_HALT_HC_INT(ch_num);
1103:Drivers/STM32F7xx_HAL_Driver/Src/stm32f7xx_hal_hcd.c **** 
1104:Drivers/STM32F7xx_HAL_Driver/Src/stm32f7xx_hal_hcd.c ****     if (hhcd->hc[ch_num].state == HC_XFRC)
1105:Drivers/STM32F7xx_HAL_Driver/Src/stm32f7xx_hal_hcd.c ****     {
1106:Drivers/STM32F7xx_HAL_Driver/Src/stm32f7xx_hal_hcd.c ****       hhcd->hc[ch_num].urb_state  = URB_DONE;
1107:Drivers/STM32F7xx_HAL_Driver/Src/stm32f7xx_hal_hcd.c ****       if (hhcd->hc[ch_num].ep_type == EP_TYPE_BULK)
1108:Drivers/STM32F7xx_HAL_Driver/Src/stm32f7xx_hal_hcd.c ****       {
1109:Drivers/STM32F7xx_HAL_Driver/Src/stm32f7xx_hal_hcd.c ****         hhcd->hc[ch_num].toggle_out ^= 1U;
1110:Drivers/STM32F7xx_HAL_Driver/Src/stm32f7xx_hal_hcd.c ****       }
1111:Drivers/STM32F7xx_HAL_Driver/Src/stm32f7xx_hal_hcd.c ****     }
1112:Drivers/STM32F7xx_HAL_Driver/Src/stm32f7xx_hal_hcd.c ****     else if (hhcd->hc[ch_num].state == HC_NAK)
1113:Drivers/STM32F7xx_HAL_Driver/Src/stm32f7xx_hal_hcd.c ****     {
ARM GAS  C:\Users\Nina\AppData\Local\Temp\ccxRUdKh.s 			page 21


1114:Drivers/STM32F7xx_HAL_Driver/Src/stm32f7xx_hal_hcd.c ****       hhcd->hc[ch_num].urb_state = URB_NOTREADY;
1115:Drivers/STM32F7xx_HAL_Driver/Src/stm32f7xx_hal_hcd.c ****     }
1116:Drivers/STM32F7xx_HAL_Driver/Src/stm32f7xx_hal_hcd.c ****     else if (hhcd->hc[ch_num].state == HC_NYET)
1117:Drivers/STM32F7xx_HAL_Driver/Src/stm32f7xx_hal_hcd.c ****     {
1118:Drivers/STM32F7xx_HAL_Driver/Src/stm32f7xx_hal_hcd.c ****       hhcd->hc[ch_num].urb_state  = URB_NOTREADY;
1119:Drivers/STM32F7xx_HAL_Driver/Src/stm32f7xx_hal_hcd.c ****     }
1120:Drivers/STM32F7xx_HAL_Driver/Src/stm32f7xx_hal_hcd.c ****     else if (hhcd->hc[ch_num].state == HC_STALL)
1121:Drivers/STM32F7xx_HAL_Driver/Src/stm32f7xx_hal_hcd.c ****     {
1122:Drivers/STM32F7xx_HAL_Driver/Src/stm32f7xx_hal_hcd.c ****       hhcd->hc[ch_num].urb_state  = URB_STALL;
1123:Drivers/STM32F7xx_HAL_Driver/Src/stm32f7xx_hal_hcd.c ****     }
1124:Drivers/STM32F7xx_HAL_Driver/Src/stm32f7xx_hal_hcd.c ****     else if ((hhcd->hc[ch_num].state == HC_XACTERR) ||
1125:Drivers/STM32F7xx_HAL_Driver/Src/stm32f7xx_hal_hcd.c ****             (hhcd->hc[ch_num].state == HC_DATATGLERR))
1126:Drivers/STM32F7xx_HAL_Driver/Src/stm32f7xx_hal_hcd.c ****     {
1127:Drivers/STM32F7xx_HAL_Driver/Src/stm32f7xx_hal_hcd.c ****       hhcd->hc[ch_num].ErrCnt++;
1128:Drivers/STM32F7xx_HAL_Driver/Src/stm32f7xx_hal_hcd.c ****       if (hhcd->hc[ch_num].ErrCnt > 3U)
1129:Drivers/STM32F7xx_HAL_Driver/Src/stm32f7xx_hal_hcd.c ****       {
1130:Drivers/STM32F7xx_HAL_Driver/Src/stm32f7xx_hal_hcd.c ****         hhcd->hc[ch_num].ErrCnt = 0U;
1131:Drivers/STM32F7xx_HAL_Driver/Src/stm32f7xx_hal_hcd.c ****         hhcd->hc[ch_num].urb_state = URB_ERROR;
1132:Drivers/STM32F7xx_HAL_Driver/Src/stm32f7xx_hal_hcd.c ****       }
1133:Drivers/STM32F7xx_HAL_Driver/Src/stm32f7xx_hal_hcd.c ****       else
1134:Drivers/STM32F7xx_HAL_Driver/Src/stm32f7xx_hal_hcd.c ****       {
1135:Drivers/STM32F7xx_HAL_Driver/Src/stm32f7xx_hal_hcd.c ****         hhcd->hc[ch_num].urb_state = URB_NOTREADY;
1136:Drivers/STM32F7xx_HAL_Driver/Src/stm32f7xx_hal_hcd.c ****       }
1137:Drivers/STM32F7xx_HAL_Driver/Src/stm32f7xx_hal_hcd.c **** 
1138:Drivers/STM32F7xx_HAL_Driver/Src/stm32f7xx_hal_hcd.c ****       /* re-activate the channel  */
1139:Drivers/STM32F7xx_HAL_Driver/Src/stm32f7xx_hal_hcd.c ****       tmpreg = USBx_HC(ch_num)->HCCHAR;
1140:Drivers/STM32F7xx_HAL_Driver/Src/stm32f7xx_hal_hcd.c ****       tmpreg &= ~USB_OTG_HCCHAR_CHDIS;
1141:Drivers/STM32F7xx_HAL_Driver/Src/stm32f7xx_hal_hcd.c ****       tmpreg |= USB_OTG_HCCHAR_CHENA;
1142:Drivers/STM32F7xx_HAL_Driver/Src/stm32f7xx_hal_hcd.c ****       USBx_HC(ch_num)->HCCHAR = tmpreg;
1143:Drivers/STM32F7xx_HAL_Driver/Src/stm32f7xx_hal_hcd.c ****     }
1144:Drivers/STM32F7xx_HAL_Driver/Src/stm32f7xx_hal_hcd.c ****     else
1145:Drivers/STM32F7xx_HAL_Driver/Src/stm32f7xx_hal_hcd.c ****     {
1146:Drivers/STM32F7xx_HAL_Driver/Src/stm32f7xx_hal_hcd.c ****       /* ... */
1147:Drivers/STM32F7xx_HAL_Driver/Src/stm32f7xx_hal_hcd.c ****     }
1148:Drivers/STM32F7xx_HAL_Driver/Src/stm32f7xx_hal_hcd.c **** 
1149:Drivers/STM32F7xx_HAL_Driver/Src/stm32f7xx_hal_hcd.c ****     __HAL_HCD_CLEAR_HC_INT(ch_num, USB_OTG_HCINT_CHH);
1150:Drivers/STM32F7xx_HAL_Driver/Src/stm32f7xx_hal_hcd.c ****     HAL_HCD_HC_NotifyURBChange_Callback(hhcd, (uint8_t)ch_num, hhcd->hc[ch_num].urb_state);
1151:Drivers/STM32F7xx_HAL_Driver/Src/stm32f7xx_hal_hcd.c ****   }
1152:Drivers/STM32F7xx_HAL_Driver/Src/stm32f7xx_hal_hcd.c ****   else
1153:Drivers/STM32F7xx_HAL_Driver/Src/stm32f7xx_hal_hcd.c ****   {
1154:Drivers/STM32F7xx_HAL_Driver/Src/stm32f7xx_hal_hcd.c ****      /* ... */
1155:Drivers/STM32F7xx_HAL_Driver/Src/stm32f7xx_hal_hcd.c ****   }
1156:Drivers/STM32F7xx_HAL_Driver/Src/stm32f7xx_hal_hcd.c **** }
1157:Drivers/STM32F7xx_HAL_Driver/Src/stm32f7xx_hal_hcd.c **** 
1158:Drivers/STM32F7xx_HAL_Driver/Src/stm32f7xx_hal_hcd.c **** /**
1159:Drivers/STM32F7xx_HAL_Driver/Src/stm32f7xx_hal_hcd.c ****   * @brief  Handle Rx Queue Level interrupt requests.
1160:Drivers/STM32F7xx_HAL_Driver/Src/stm32f7xx_hal_hcd.c ****   * @param  hhcd HCD handle
1161:Drivers/STM32F7xx_HAL_Driver/Src/stm32f7xx_hal_hcd.c ****   * @retval none
1162:Drivers/STM32F7xx_HAL_Driver/Src/stm32f7xx_hal_hcd.c ****   */
1163:Drivers/STM32F7xx_HAL_Driver/Src/stm32f7xx_hal_hcd.c **** static void HCD_RXQLVL_IRQHandler (HCD_HandleTypeDef *hhcd)
1164:Drivers/STM32F7xx_HAL_Driver/Src/stm32f7xx_hal_hcd.c **** {
  29              		.loc 1 1164 1 view -0
  30              		.cfi_startproc
  31              		@ args = 0, pretend = 0, frame = 0
  32              		@ frame_needed = 0, uses_anonymous_args = 0
  33              		.loc 1 1164 1 is_stmt 0 view .LVU1
  34 0000 F8B5     		push	{r3, r4, r5, r6, r7, lr}
ARM GAS  C:\Users\Nina\AppData\Local\Temp\ccxRUdKh.s 			page 22


  35              	.LCFI0:
  36              		.cfi_def_cfa_offset 24
  37              		.cfi_offset 3, -24
  38              		.cfi_offset 4, -20
  39              		.cfi_offset 5, -16
  40              		.cfi_offset 6, -12
  41              		.cfi_offset 7, -8
  42              		.cfi_offset 14, -4
1165:Drivers/STM32F7xx_HAL_Driver/Src/stm32f7xx_hal_hcd.c ****   USB_OTG_GlobalTypeDef *USBx = hhcd->Instance;
  43              		.loc 1 1165 3 is_stmt 1 view .LVU2
  44              		.loc 1 1165 26 is_stmt 0 view .LVU3
  45 0002 0668     		ldr	r6, [r0]
  46              	.LVL1:
1166:Drivers/STM32F7xx_HAL_Driver/Src/stm32f7xx_hal_hcd.c ****   uint32_t USBx_BASE = (uint32_t)USBx;
  47              		.loc 1 1166 3 is_stmt 1 view .LVU4
1167:Drivers/STM32F7xx_HAL_Driver/Src/stm32f7xx_hal_hcd.c ****   uint32_t pktsts;
  48              		.loc 1 1167 3 view .LVU5
1168:Drivers/STM32F7xx_HAL_Driver/Src/stm32f7xx_hal_hcd.c ****   uint32_t pktcnt;
  49              		.loc 1 1168 3 view .LVU6
1169:Drivers/STM32F7xx_HAL_Driver/Src/stm32f7xx_hal_hcd.c ****   uint32_t temp;
  50              		.loc 1 1169 3 view .LVU7
1170:Drivers/STM32F7xx_HAL_Driver/Src/stm32f7xx_hal_hcd.c ****   uint32_t tmpreg;
  51              		.loc 1 1170 3 view .LVU8
1171:Drivers/STM32F7xx_HAL_Driver/Src/stm32f7xx_hal_hcd.c ****   uint32_t ch_num;
  52              		.loc 1 1171 3 view .LVU9
1172:Drivers/STM32F7xx_HAL_Driver/Src/stm32f7xx_hal_hcd.c **** 
1173:Drivers/STM32F7xx_HAL_Driver/Src/stm32f7xx_hal_hcd.c ****   temp = hhcd->Instance->GRXSTSP;
  53              		.loc 1 1173 3 view .LVU10
  54              		.loc 1 1173 8 is_stmt 0 view .LVU11
  55 0004 346A     		ldr	r4, [r6, #32]
  56              	.LVL2:
1174:Drivers/STM32F7xx_HAL_Driver/Src/stm32f7xx_hal_hcd.c ****   ch_num = temp & USB_OTG_GRXSTSP_EPNUM;
  57              		.loc 1 1174 3 is_stmt 1 view .LVU12
  58              		.loc 1 1174 10 is_stmt 0 view .LVU13
  59 0006 04F00F07 		and	r7, r4, #15
  60              	.LVL3:
1175:Drivers/STM32F7xx_HAL_Driver/Src/stm32f7xx_hal_hcd.c ****   pktsts = (temp & USB_OTG_GRXSTSP_PKTSTS) >> 17;
  61              		.loc 1 1175 3 is_stmt 1 view .LVU14
  62              		.loc 1 1175 10 is_stmt 0 view .LVU15
  63 000a C4F34343 		ubfx	r3, r4, #17, #4
  64              	.LVL4:
1176:Drivers/STM32F7xx_HAL_Driver/Src/stm32f7xx_hal_hcd.c ****   pktcnt = (temp & USB_OTG_GRXSTSP_BCNT) >> 4;
  65              		.loc 1 1176 3 is_stmt 1 view .LVU16
  66              		.loc 1 1176 10 is_stmt 0 view .LVU17
  67 000e C4F30A14 		ubfx	r4, r4, #4, #11
  68              	.LVL5:
1177:Drivers/STM32F7xx_HAL_Driver/Src/stm32f7xx_hal_hcd.c **** 
1178:Drivers/STM32F7xx_HAL_Driver/Src/stm32f7xx_hal_hcd.c ****   switch (pktsts)
  69              		.loc 1 1178 3 is_stmt 1 view .LVU18
  70 0012 022B     		cmp	r3, #2
  71 0014 00D0     		beq	.L4
  72              	.LVL6:
  73              	.L1:
1179:Drivers/STM32F7xx_HAL_Driver/Src/stm32f7xx_hal_hcd.c ****   {
1180:Drivers/STM32F7xx_HAL_Driver/Src/stm32f7xx_hal_hcd.c ****   case GRXSTS_PKTSTS_IN:
1181:Drivers/STM32F7xx_HAL_Driver/Src/stm32f7xx_hal_hcd.c ****     /* Read the data into the host buffer. */
1182:Drivers/STM32F7xx_HAL_Driver/Src/stm32f7xx_hal_hcd.c ****     if ((pktcnt > 0U) && (hhcd->hc[ch_num].xfer_buff != (void  *)0))
ARM GAS  C:\Users\Nina\AppData\Local\Temp\ccxRUdKh.s 			page 23


1183:Drivers/STM32F7xx_HAL_Driver/Src/stm32f7xx_hal_hcd.c ****     {
1184:Drivers/STM32F7xx_HAL_Driver/Src/stm32f7xx_hal_hcd.c ****       (void)USB_ReadPacket(hhcd->Instance, hhcd->hc[ch_num].xfer_buff, (uint16_t)pktcnt);
1185:Drivers/STM32F7xx_HAL_Driver/Src/stm32f7xx_hal_hcd.c **** 
1186:Drivers/STM32F7xx_HAL_Driver/Src/stm32f7xx_hal_hcd.c ****       /*manage multiple Xfer */
1187:Drivers/STM32F7xx_HAL_Driver/Src/stm32f7xx_hal_hcd.c ****       hhcd->hc[ch_num].xfer_buff += pktcnt;
1188:Drivers/STM32F7xx_HAL_Driver/Src/stm32f7xx_hal_hcd.c ****       hhcd->hc[ch_num].xfer_count  += pktcnt;
1189:Drivers/STM32F7xx_HAL_Driver/Src/stm32f7xx_hal_hcd.c **** 
1190:Drivers/STM32F7xx_HAL_Driver/Src/stm32f7xx_hal_hcd.c ****       if((USBx_HC(ch_num)->HCTSIZ & USB_OTG_HCTSIZ_PKTCNT) > 0U)
1191:Drivers/STM32F7xx_HAL_Driver/Src/stm32f7xx_hal_hcd.c ****       {
1192:Drivers/STM32F7xx_HAL_Driver/Src/stm32f7xx_hal_hcd.c ****         /* re-activate the channel when more packets are expected */
1193:Drivers/STM32F7xx_HAL_Driver/Src/stm32f7xx_hal_hcd.c ****         tmpreg = USBx_HC(ch_num)->HCCHAR;
1194:Drivers/STM32F7xx_HAL_Driver/Src/stm32f7xx_hal_hcd.c ****         tmpreg &= ~USB_OTG_HCCHAR_CHDIS;
1195:Drivers/STM32F7xx_HAL_Driver/Src/stm32f7xx_hal_hcd.c ****         tmpreg |= USB_OTG_HCCHAR_CHENA;
1196:Drivers/STM32F7xx_HAL_Driver/Src/stm32f7xx_hal_hcd.c ****         USBx_HC(ch_num)->HCCHAR = tmpreg;
1197:Drivers/STM32F7xx_HAL_Driver/Src/stm32f7xx_hal_hcd.c ****         hhcd->hc[ch_num].toggle_in ^= 1U;
1198:Drivers/STM32F7xx_HAL_Driver/Src/stm32f7xx_hal_hcd.c ****       }
1199:Drivers/STM32F7xx_HAL_Driver/Src/stm32f7xx_hal_hcd.c ****     }
1200:Drivers/STM32F7xx_HAL_Driver/Src/stm32f7xx_hal_hcd.c ****     break;
1201:Drivers/STM32F7xx_HAL_Driver/Src/stm32f7xx_hal_hcd.c **** 
1202:Drivers/STM32F7xx_HAL_Driver/Src/stm32f7xx_hal_hcd.c ****   case GRXSTS_PKTSTS_DATA_TOGGLE_ERR:
1203:Drivers/STM32F7xx_HAL_Driver/Src/stm32f7xx_hal_hcd.c ****     break;
1204:Drivers/STM32F7xx_HAL_Driver/Src/stm32f7xx_hal_hcd.c **** 
1205:Drivers/STM32F7xx_HAL_Driver/Src/stm32f7xx_hal_hcd.c ****   case GRXSTS_PKTSTS_IN_XFER_COMP:
1206:Drivers/STM32F7xx_HAL_Driver/Src/stm32f7xx_hal_hcd.c ****   case GRXSTS_PKTSTS_CH_HALTED:
1207:Drivers/STM32F7xx_HAL_Driver/Src/stm32f7xx_hal_hcd.c ****   default:
1208:Drivers/STM32F7xx_HAL_Driver/Src/stm32f7xx_hal_hcd.c ****     break;
1209:Drivers/STM32F7xx_HAL_Driver/Src/stm32f7xx_hal_hcd.c ****   }
1210:Drivers/STM32F7xx_HAL_Driver/Src/stm32f7xx_hal_hcd.c **** }
  74              		.loc 1 1210 1 is_stmt 0 view .LVU19
  75 0016 F8BD     		pop	{r3, r4, r5, r6, r7, pc}
  76              	.LVL7:
  77              	.L4:
  78              		.loc 1 1210 1 view .LVU20
  79 0018 0546     		mov	r5, r0
1182:Drivers/STM32F7xx_HAL_Driver/Src/stm32f7xx_hal_hcd.c ****     {
  80              		.loc 1 1182 5 is_stmt 1 view .LVU21
1182:Drivers/STM32F7xx_HAL_Driver/Src/stm32f7xx_hal_hcd.c ****     {
  81              		.loc 1 1182 8 is_stmt 0 view .LVU22
  82 001a 002C     		cmp	r4, #0
  83 001c FBD0     		beq	.L1
1182:Drivers/STM32F7xx_HAL_Driver/Src/stm32f7xx_hal_hcd.c ****     {
  84              		.loc 1 1182 43 discriminator 1 view .LVU23
  85 001e 07EB8703 		add	r3, r7, r7, lsl #2
  86              	.LVL8:
1182:Drivers/STM32F7xx_HAL_Driver/Src/stm32f7xx_hal_hcd.c ****     {
  87              		.loc 1 1182 43 discriminator 1 view .LVU24
  88 0022 00EBC303 		add	r3, r0, r3, lsl #3
  89 0026 596C     		ldr	r1, [r3, #68]
1182:Drivers/STM32F7xx_HAL_Driver/Src/stm32f7xx_hal_hcd.c ****     {
  90              		.loc 1 1182 23 discriminator 1 view .LVU25
  91 0028 0029     		cmp	r1, #0
  92 002a F4D0     		beq	.L1
1184:Drivers/STM32F7xx_HAL_Driver/Src/stm32f7xx_hal_hcd.c **** 
  93              		.loc 1 1184 7 is_stmt 1 view .LVU26
1184:Drivers/STM32F7xx_HAL_Driver/Src/stm32f7xx_hal_hcd.c **** 
  94              		.loc 1 1184 13 is_stmt 0 view .LVU27
  95 002c 2246     		mov	r2, r4
ARM GAS  C:\Users\Nina\AppData\Local\Temp\ccxRUdKh.s 			page 24


  96 002e 3046     		mov	r0, r6
  97              	.LVL9:
1184:Drivers/STM32F7xx_HAL_Driver/Src/stm32f7xx_hal_hcd.c **** 
  98              		.loc 1 1184 13 view .LVU28
  99 0030 FFF7FEFF 		bl	USB_ReadPacket
 100              	.LVL10:
1187:Drivers/STM32F7xx_HAL_Driver/Src/stm32f7xx_hal_hcd.c ****       hhcd->hc[ch_num].xfer_count  += pktcnt;
 101              		.loc 1 1187 7 is_stmt 1 view .LVU29
1187:Drivers/STM32F7xx_HAL_Driver/Src/stm32f7xx_hal_hcd.c ****       hhcd->hc[ch_num].xfer_count  += pktcnt;
 102              		.loc 1 1187 34 is_stmt 0 view .LVU30
 103 0034 07EB8703 		add	r3, r7, r7, lsl #2
 104 0038 05EBC303 		add	r3, r5, r3, lsl #3
 105 003c 5A6C     		ldr	r2, [r3, #68]
 106 003e 2244     		add	r2, r2, r4
 107 0040 5A64     		str	r2, [r3, #68]
1188:Drivers/STM32F7xx_HAL_Driver/Src/stm32f7xx_hal_hcd.c **** 
 108              		.loc 1 1188 7 is_stmt 1 view .LVU31
1188:Drivers/STM32F7xx_HAL_Driver/Src/stm32f7xx_hal_hcd.c **** 
 109              		.loc 1 1188 36 is_stmt 0 view .LVU32
 110 0042 DA6C     		ldr	r2, [r3, #76]
 111 0044 2244     		add	r2, r2, r4
 112 0046 DA64     		str	r2, [r3, #76]
1190:Drivers/STM32F7xx_HAL_Driver/Src/stm32f7xx_hal_hcd.c ****       {
 113              		.loc 1 1190 7 is_stmt 1 view .LVU33
1190:Drivers/STM32F7xx_HAL_Driver/Src/stm32f7xx_hal_hcd.c ****       {
 114              		.loc 1 1190 11 is_stmt 0 view .LVU34
 115 0048 06EB4716 		add	r6, r6, r7, lsl #5
 116              	.LVL11:
1190:Drivers/STM32F7xx_HAL_Driver/Src/stm32f7xx_hal_hcd.c ****       {
 117              		.loc 1 1190 26 view .LVU35
 118 004c D6F81025 		ldr	r2, [r6, #1296]
1190:Drivers/STM32F7xx_HAL_Driver/Src/stm32f7xx_hal_hcd.c ****       {
 119              		.loc 1 1190 35 view .LVU36
 120 0050 0B4B     		ldr	r3, .L5
 121 0052 1340     		ands	r3, r3, r2
1190:Drivers/STM32F7xx_HAL_Driver/Src/stm32f7xx_hal_hcd.c ****       {
 122              		.loc 1 1190 9 view .LVU37
 123 0054 002B     		cmp	r3, #0
 124 0056 DED0     		beq	.L1
1193:Drivers/STM32F7xx_HAL_Driver/Src/stm32f7xx_hal_hcd.c ****         tmpreg &= ~USB_OTG_HCCHAR_CHDIS;
 125              		.loc 1 1193 9 is_stmt 1 view .LVU38
1193:Drivers/STM32F7xx_HAL_Driver/Src/stm32f7xx_hal_hcd.c ****         tmpreg &= ~USB_OTG_HCCHAR_CHDIS;
 126              		.loc 1 1193 16 is_stmt 0 view .LVU39
 127 0058 D6F80035 		ldr	r3, [r6, #1280]
 128              	.LVL12:
1194:Drivers/STM32F7xx_HAL_Driver/Src/stm32f7xx_hal_hcd.c ****         tmpreg |= USB_OTG_HCCHAR_CHENA;
 129              		.loc 1 1194 9 is_stmt 1 view .LVU40
1194:Drivers/STM32F7xx_HAL_Driver/Src/stm32f7xx_hal_hcd.c ****         tmpreg |= USB_OTG_HCCHAR_CHENA;
 130              		.loc 1 1194 16 is_stmt 0 view .LVU41
 131 005c 23F08043 		bic	r3, r3, #1073741824
 132              	.LVL13:
1195:Drivers/STM32F7xx_HAL_Driver/Src/stm32f7xx_hal_hcd.c ****         USBx_HC(ch_num)->HCCHAR = tmpreg;
 133              		.loc 1 1195 9 is_stmt 1 view .LVU42
1195:Drivers/STM32F7xx_HAL_Driver/Src/stm32f7xx_hal_hcd.c ****         USBx_HC(ch_num)->HCCHAR = tmpreg;
 134              		.loc 1 1195 16 is_stmt 0 view .LVU43
 135 0060 43F00043 		orr	r3, r3, #-2147483648
 136              	.LVL14:
ARM GAS  C:\Users\Nina\AppData\Local\Temp\ccxRUdKh.s 			page 25


1196:Drivers/STM32F7xx_HAL_Driver/Src/stm32f7xx_hal_hcd.c ****         hhcd->hc[ch_num].toggle_in ^= 1U;
 137              		.loc 1 1196 9 is_stmt 1 view .LVU44
1196:Drivers/STM32F7xx_HAL_Driver/Src/stm32f7xx_hal_hcd.c ****         hhcd->hc[ch_num].toggle_in ^= 1U;
 138              		.loc 1 1196 33 is_stmt 0 view .LVU45
 139 0064 C6F80035 		str	r3, [r6, #1280]
1197:Drivers/STM32F7xx_HAL_Driver/Src/stm32f7xx_hal_hcd.c ****       }
 140              		.loc 1 1197 9 is_stmt 1 view .LVU46
1197:Drivers/STM32F7xx_HAL_Driver/Src/stm32f7xx_hal_hcd.c ****       }
 141              		.loc 1 1197 36 is_stmt 0 view .LVU47
 142 0068 07EB8703 		add	r3, r7, r7, lsl #2
 143              	.LVL15:
1197:Drivers/STM32F7xx_HAL_Driver/Src/stm32f7xx_hal_hcd.c ****       }
 144              		.loc 1 1197 36 view .LVU48
 145 006c 05EBC303 		add	r3, r5, r3, lsl #3
 146 0070 93F85020 		ldrb	r2, [r3, #80]	@ zero_extendqisi2
 147 0074 82F00102 		eor	r2, r2, #1
 148 0078 83F85020 		strb	r2, [r3, #80]
 149              	.LVL16:
 150              		.loc 1 1210 1 view .LVU49
 151 007c CBE7     		b	.L1
 152              	.L6:
 153 007e 00BF     		.align	2
 154              	.L5:
 155 0080 0000F81F 		.word	536346624
 156              		.cfi_endproc
 157              	.LFE163:
 159              		.section	.text.HAL_HCD_HC_Init,"ax",%progbits
 160              		.align	1
 161              		.global	HAL_HCD_HC_Init
 162              		.syntax unified
 163              		.thumb
 164              		.thumb_func
 165              		.fpu fpv5-sp-d16
 167              	HAL_HCD_HC_Init:
 168              	.LVL17:
 169              	.LFB139:
 195:Drivers/STM32F7xx_HAL_Driver/Src/stm32f7xx_hal_hcd.c ****   HAL_StatusTypeDef status;
 170              		.loc 1 195 1 is_stmt 1 view -0
 171              		.cfi_startproc
 172              		@ args = 12, pretend = 0, frame = 0
 173              		@ frame_needed = 0, uses_anonymous_args = 0
 195:Drivers/STM32F7xx_HAL_Driver/Src/stm32f7xx_hal_hcd.c ****   HAL_StatusTypeDef status;
 174              		.loc 1 195 1 is_stmt 0 view .LVU51
 175 0000 F0B5     		push	{r4, r5, r6, r7, lr}
 176              	.LCFI1:
 177              		.cfi_def_cfa_offset 20
 178              		.cfi_offset 4, -20
 179              		.cfi_offset 5, -16
 180              		.cfi_offset 6, -12
 181              		.cfi_offset 7, -8
 182              		.cfi_offset 14, -4
 183 0002 85B0     		sub	sp, sp, #20
 184              	.LCFI2:
 185              		.cfi_def_cfa_offset 40
 186 0004 0446     		mov	r4, r0
 187 0006 9DF82850 		ldrb	r5, [sp, #40]	@ zero_extendqisi2
 188 000a 9DF82C60 		ldrb	r6, [sp, #44]	@ zero_extendqisi2
ARM GAS  C:\Users\Nina\AppData\Local\Temp\ccxRUdKh.s 			page 26


 189 000e BDF83070 		ldrh	r7, [sp, #48]
 196:Drivers/STM32F7xx_HAL_Driver/Src/stm32f7xx_hal_hcd.c **** 
 190              		.loc 1 196 3 is_stmt 1 view .LVU52
 198:Drivers/STM32F7xx_HAL_Driver/Src/stm32f7xx_hal_hcd.c ****   hhcd->hc[ch_num].do_ping = 0U;
 191              		.loc 1 198 3 view .LVU53
 198:Drivers/STM32F7xx_HAL_Driver/Src/stm32f7xx_hal_hcd.c ****   hhcd->hc[ch_num].do_ping = 0U;
 192              		.loc 1 198 3 view .LVU54
 193 0012 90F8B802 		ldrb	r0, [r0, #696]	@ zero_extendqisi2
 194              	.LVL18:
 198:Drivers/STM32F7xx_HAL_Driver/Src/stm32f7xx_hal_hcd.c ****   hhcd->hc[ch_num].do_ping = 0U;
 195              		.loc 1 198 3 is_stmt 0 view .LVU55
 196 0016 0128     		cmp	r0, #1
 197 0018 3BD0     		beq	.L11
 198:Drivers/STM32F7xx_HAL_Driver/Src/stm32f7xx_hal_hcd.c ****   hhcd->hc[ch_num].do_ping = 0U;
 198              		.loc 1 198 3 is_stmt 1 discriminator 2 view .LVU56
 199 001a 0120     		movs	r0, #1
 200 001c 84F8B802 		strb	r0, [r4, #696]
 198:Drivers/STM32F7xx_HAL_Driver/Src/stm32f7xx_hal_hcd.c ****   hhcd->hc[ch_num].do_ping = 0U;
 201              		.loc 1 198 3 discriminator 2 view .LVU57
 199:Drivers/STM32F7xx_HAL_Driver/Src/stm32f7xx_hal_hcd.c ****   hhcd->hc[ch_num].dev_addr = dev_address;
 202              		.loc 1 199 3 discriminator 2 view .LVU58
 199:Drivers/STM32F7xx_HAL_Driver/Src/stm32f7xx_hal_hcd.c ****   hhcd->hc[ch_num].dev_addr = dev_address;
 203              		.loc 1 199 28 is_stmt 0 discriminator 2 view .LVU59
 204 0020 01EB8100 		add	r0, r1, r1, lsl #2
 205 0024 04EBC000 		add	r0, r4, r0, lsl #3
 206 0028 4FF0000C 		mov	ip, #0
 207 002c 80F83DC0 		strb	ip, [r0, #61]
 200:Drivers/STM32F7xx_HAL_Driver/Src/stm32f7xx_hal_hcd.c ****   hhcd->hc[ch_num].max_packet = mps;
 208              		.loc 1 200 3 is_stmt 1 discriminator 2 view .LVU60
 200:Drivers/STM32F7xx_HAL_Driver/Src/stm32f7xx_hal_hcd.c ****   hhcd->hc[ch_num].max_packet = mps;
 209              		.loc 1 200 29 is_stmt 0 discriminator 2 view .LVU61
 210 0030 80F83830 		strb	r3, [r0, #56]
 201:Drivers/STM32F7xx_HAL_Driver/Src/stm32f7xx_hal_hcd.c ****   hhcd->hc[ch_num].ch_num = ch_num;
 211              		.loc 1 201 3 is_stmt 1 discriminator 2 view .LVU62
 201:Drivers/STM32F7xx_HAL_Driver/Src/stm32f7xx_hal_hcd.c ****   hhcd->hc[ch_num].ch_num = ch_num;
 212              		.loc 1 201 31 is_stmt 0 discriminator 2 view .LVU63
 213 0034 A0F84070 		strh	r7, [r0, #64]	@ movhi
 202:Drivers/STM32F7xx_HAL_Driver/Src/stm32f7xx_hal_hcd.c ****   hhcd->hc[ch_num].ep_type = ep_type;
 214              		.loc 1 202 3 is_stmt 1 discriminator 2 view .LVU64
 202:Drivers/STM32F7xx_HAL_Driver/Src/stm32f7xx_hal_hcd.c ****   hhcd->hc[ch_num].ep_type = ep_type;
 215              		.loc 1 202 27 is_stmt 0 discriminator 2 view .LVU65
 216 0038 80F83910 		strb	r1, [r0, #57]
 203:Drivers/STM32F7xx_HAL_Driver/Src/stm32f7xx_hal_hcd.c ****   hhcd->hc[ch_num].ep_num = epnum & 0x7FU;
 217              		.loc 1 203 3 is_stmt 1 discriminator 2 view .LVU66
 203:Drivers/STM32F7xx_HAL_Driver/Src/stm32f7xx_hal_hcd.c ****   hhcd->hc[ch_num].ep_num = epnum & 0x7FU;
 218              		.loc 1 203 28 is_stmt 0 discriminator 2 view .LVU67
 219 003c 80F83F60 		strb	r6, [r0, #63]
 204:Drivers/STM32F7xx_HAL_Driver/Src/stm32f7xx_hal_hcd.c **** 
 220              		.loc 1 204 3 is_stmt 1 discriminator 2 view .LVU68
 204:Drivers/STM32F7xx_HAL_Driver/Src/stm32f7xx_hal_hcd.c **** 
 221              		.loc 1 204 35 is_stmt 0 discriminator 2 view .LVU69
 222 0040 02F07F0C 		and	ip, r2, #127
 204:Drivers/STM32F7xx_HAL_Driver/Src/stm32f7xx_hal_hcd.c **** 
 223              		.loc 1 204 27 discriminator 2 view .LVU70
 224 0044 80F83AC0 		strb	ip, [r0, #58]
 206:Drivers/STM32F7xx_HAL_Driver/Src/stm32f7xx_hal_hcd.c ****   {
 225              		.loc 1 206 3 is_stmt 1 discriminator 2 view .LVU71
ARM GAS  C:\Users\Nina\AppData\Local\Temp\ccxRUdKh.s 			page 27


 206:Drivers/STM32F7xx_HAL_Driver/Src/stm32f7xx_hal_hcd.c ****   {
 226              		.loc 1 206 6 is_stmt 0 discriminator 2 view .LVU72
 227 0048 12F0800F 		tst	r2, #128
 228 004c 18D1     		bne	.L13
 212:Drivers/STM32F7xx_HAL_Driver/Src/stm32f7xx_hal_hcd.c ****   }
 229              		.loc 1 212 5 is_stmt 1 view .LVU73
 212:Drivers/STM32F7xx_HAL_Driver/Src/stm32f7xx_hal_hcd.c ****   }
 230              		.loc 1 212 31 is_stmt 0 view .LVU74
 231 004e 01EB8100 		add	r0, r1, r1, lsl #2
 232 0052 04EBC000 		add	r0, r4, r0, lsl #3
 233 0056 4FF0000C 		mov	ip, #0
 234 005a 80F83BC0 		strb	ip, [r0, #59]
 235              	.L10:
 215:Drivers/STM32F7xx_HAL_Driver/Src/stm32f7xx_hal_hcd.c **** 
 236              		.loc 1 215 3 is_stmt 1 view .LVU75
 215:Drivers/STM32F7xx_HAL_Driver/Src/stm32f7xx_hal_hcd.c **** 
 237              		.loc 1 215 26 is_stmt 0 view .LVU76
 238 005e 01EB8100 		add	r0, r1, r1, lsl #2
 239 0062 04EBC000 		add	r0, r4, r0, lsl #3
 240 0066 80F83C50 		strb	r5, [r0, #60]
 217:Drivers/STM32F7xx_HAL_Driver/Src/stm32f7xx_hal_hcd.c ****                         ch_num,
 241              		.loc 1 217 3 is_stmt 1 view .LVU77
 217:Drivers/STM32F7xx_HAL_Driver/Src/stm32f7xx_hal_hcd.c ****                         ch_num,
 242              		.loc 1 217 13 is_stmt 0 view .LVU78
 243 006a 0297     		str	r7, [sp, #8]
 244 006c 0196     		str	r6, [sp, #4]
 245 006e 0095     		str	r5, [sp]
 246 0070 2068     		ldr	r0, [r4]
 247 0072 FFF7FEFF 		bl	USB_HC_Init
 248              	.LVL19:
 224:Drivers/STM32F7xx_HAL_Driver/Src/stm32f7xx_hal_hcd.c **** 
 249              		.loc 1 224 3 is_stmt 1 view .LVU79
 224:Drivers/STM32F7xx_HAL_Driver/Src/stm32f7xx_hal_hcd.c **** 
 250              		.loc 1 224 3 view .LVU80
 251 0076 0023     		movs	r3, #0
 252 0078 84F8B832 		strb	r3, [r4, #696]
 224:Drivers/STM32F7xx_HAL_Driver/Src/stm32f7xx_hal_hcd.c **** 
 253              		.loc 1 224 3 view .LVU81
 226:Drivers/STM32F7xx_HAL_Driver/Src/stm32f7xx_hal_hcd.c **** }
 254              		.loc 1 226 3 view .LVU82
 255              	.LVL20:
 256              	.L8:
 227:Drivers/STM32F7xx_HAL_Driver/Src/stm32f7xx_hal_hcd.c **** 
 257              		.loc 1 227 1 is_stmt 0 view .LVU83
 258 007c 05B0     		add	sp, sp, #20
 259              	.LCFI3:
 260              		.cfi_remember_state
 261              		.cfi_def_cfa_offset 20
 262              		@ sp needed
 263 007e F0BD     		pop	{r4, r5, r6, r7, pc}
 264              	.LVL21:
 265              	.L13:
 266              	.LCFI4:
 267              		.cfi_restore_state
 208:Drivers/STM32F7xx_HAL_Driver/Src/stm32f7xx_hal_hcd.c ****   }
 268              		.loc 1 208 5 is_stmt 1 view .LVU84
 208:Drivers/STM32F7xx_HAL_Driver/Src/stm32f7xx_hal_hcd.c ****   }
ARM GAS  C:\Users\Nina\AppData\Local\Temp\ccxRUdKh.s 			page 28


 269              		.loc 1 208 31 is_stmt 0 view .LVU85
 270 0080 01EB8100 		add	r0, r1, r1, lsl #2
 271 0084 04EBC000 		add	r0, r4, r0, lsl #3
 272 0088 4FF0010C 		mov	ip, #1
 273 008c 80F83BC0 		strb	ip, [r0, #59]
 274 0090 E5E7     		b	.L10
 275              	.L11:
 198:Drivers/STM32F7xx_HAL_Driver/Src/stm32f7xx_hal_hcd.c ****   hhcd->hc[ch_num].do_ping = 0U;
 276              		.loc 1 198 3 view .LVU86
 277 0092 0220     		movs	r0, #2
 278 0094 F2E7     		b	.L8
 279              		.cfi_endproc
 280              	.LFE139:
 282              		.section	.text.HAL_HCD_HC_Halt,"ax",%progbits
 283              		.align	1
 284              		.global	HAL_HCD_HC_Halt
 285              		.syntax unified
 286              		.thumb
 287              		.thumb_func
 288              		.fpu fpv5-sp-d16
 290              	HAL_HCD_HC_Halt:
 291              	.LVL22:
 292              	.LFB140:
 237:Drivers/STM32F7xx_HAL_Driver/Src/stm32f7xx_hal_hcd.c ****   HAL_StatusTypeDef status = HAL_OK;
 293              		.loc 1 237 1 is_stmt 1 view -0
 294              		.cfi_startproc
 295              		@ args = 0, pretend = 0, frame = 0
 296              		@ frame_needed = 0, uses_anonymous_args = 0
 238:Drivers/STM32F7xx_HAL_Driver/Src/stm32f7xx_hal_hcd.c **** 
 297              		.loc 1 238 3 view .LVU88
 240:Drivers/STM32F7xx_HAL_Driver/Src/stm32f7xx_hal_hcd.c ****   (void)USB_HC_Halt(hhcd->Instance, (uint8_t)ch_num);
 298              		.loc 1 240 3 view .LVU89
 240:Drivers/STM32F7xx_HAL_Driver/Src/stm32f7xx_hal_hcd.c ****   (void)USB_HC_Halt(hhcd->Instance, (uint8_t)ch_num);
 299              		.loc 1 240 3 view .LVU90
 300 0000 90F8B832 		ldrb	r3, [r0, #696]	@ zero_extendqisi2
 301 0004 012B     		cmp	r3, #1
 302 0006 0BD0     		beq	.L16
 237:Drivers/STM32F7xx_HAL_Driver/Src/stm32f7xx_hal_hcd.c ****   HAL_StatusTypeDef status = HAL_OK;
 303              		.loc 1 237 1 is_stmt 0 discriminator 2 view .LVU91
 304 0008 10B5     		push	{r4, lr}
 305              	.LCFI5:
 306              		.cfi_def_cfa_offset 8
 307              		.cfi_offset 4, -8
 308              		.cfi_offset 14, -4
 309 000a 0446     		mov	r4, r0
 240:Drivers/STM32F7xx_HAL_Driver/Src/stm32f7xx_hal_hcd.c ****   (void)USB_HC_Halt(hhcd->Instance, (uint8_t)ch_num);
 310              		.loc 1 240 3 is_stmt 1 discriminator 2 view .LVU92
 311 000c 0123     		movs	r3, #1
 312 000e 80F8B832 		strb	r3, [r0, #696]
 240:Drivers/STM32F7xx_HAL_Driver/Src/stm32f7xx_hal_hcd.c ****   (void)USB_HC_Halt(hhcd->Instance, (uint8_t)ch_num);
 313              		.loc 1 240 3 discriminator 2 view .LVU93
 241:Drivers/STM32F7xx_HAL_Driver/Src/stm32f7xx_hal_hcd.c ****   __HAL_UNLOCK(hhcd);
 314              		.loc 1 241 3 discriminator 2 view .LVU94
 241:Drivers/STM32F7xx_HAL_Driver/Src/stm32f7xx_hal_hcd.c ****   __HAL_UNLOCK(hhcd);
 315              		.loc 1 241 9 is_stmt 0 discriminator 2 view .LVU95
 316 0012 0068     		ldr	r0, [r0]
 317              	.LVL23:
ARM GAS  C:\Users\Nina\AppData\Local\Temp\ccxRUdKh.s 			page 29


 241:Drivers/STM32F7xx_HAL_Driver/Src/stm32f7xx_hal_hcd.c ****   __HAL_UNLOCK(hhcd);
 318              		.loc 1 241 9 discriminator 2 view .LVU96
 319 0014 FFF7FEFF 		bl	USB_HC_Halt
 320              	.LVL24:
 242:Drivers/STM32F7xx_HAL_Driver/Src/stm32f7xx_hal_hcd.c **** 
 321              		.loc 1 242 3 is_stmt 1 discriminator 2 view .LVU97
 242:Drivers/STM32F7xx_HAL_Driver/Src/stm32f7xx_hal_hcd.c **** 
 322              		.loc 1 242 3 discriminator 2 view .LVU98
 323 0018 0020     		movs	r0, #0
 324 001a 84F8B802 		strb	r0, [r4, #696]
 242:Drivers/STM32F7xx_HAL_Driver/Src/stm32f7xx_hal_hcd.c **** 
 325              		.loc 1 242 3 discriminator 2 view .LVU99
 244:Drivers/STM32F7xx_HAL_Driver/Src/stm32f7xx_hal_hcd.c **** }
 326              		.loc 1 244 3 discriminator 2 view .LVU100
 245:Drivers/STM32F7xx_HAL_Driver/Src/stm32f7xx_hal_hcd.c **** 
 327              		.loc 1 245 1 is_stmt 0 discriminator 2 view .LVU101
 328 001e 10BD     		pop	{r4, pc}
 329              	.LVL25:
 330              	.L16:
 331              	.LCFI6:
 332              		.cfi_def_cfa_offset 0
 333              		.cfi_restore 4
 334              		.cfi_restore 14
 240:Drivers/STM32F7xx_HAL_Driver/Src/stm32f7xx_hal_hcd.c ****   (void)USB_HC_Halt(hhcd->Instance, (uint8_t)ch_num);
 335              		.loc 1 240 3 view .LVU102
 336 0020 0220     		movs	r0, #2
 337              	.LVL26:
 245:Drivers/STM32F7xx_HAL_Driver/Src/stm32f7xx_hal_hcd.c **** 
 338              		.loc 1 245 1 view .LVU103
 339 0022 7047     		bx	lr
 340              		.cfi_endproc
 341              	.LFE140:
 343              		.section	.text.HAL_HCD_MspInit,"ax",%progbits
 344              		.align	1
 345              		.weak	HAL_HCD_MspInit
 346              		.syntax unified
 347              		.thumb
 348              		.thumb_func
 349              		.fpu fpv5-sp-d16
 351              	HAL_HCD_MspInit:
 352              	.LVL27:
 353              	.LFB142:
 278:Drivers/STM32F7xx_HAL_Driver/Src/stm32f7xx_hal_hcd.c ****   /* Prevent unused argument(s) compilation warning */
 354              		.loc 1 278 1 is_stmt 1 view -0
 355              		.cfi_startproc
 356              		@ args = 0, pretend = 0, frame = 0
 357              		@ frame_needed = 0, uses_anonymous_args = 0
 358              		@ link register save eliminated.
 280:Drivers/STM32F7xx_HAL_Driver/Src/stm32f7xx_hal_hcd.c **** 
 359              		.loc 1 280 3 view .LVU105
 285:Drivers/STM32F7xx_HAL_Driver/Src/stm32f7xx_hal_hcd.c **** 
 360              		.loc 1 285 1 is_stmt 0 view .LVU106
 361 0000 7047     		bx	lr
 362              		.cfi_endproc
 363              	.LFE142:
 365              		.section	.text.HAL_HCD_Init,"ax",%progbits
 366              		.align	1
ARM GAS  C:\Users\Nina\AppData\Local\Temp\ccxRUdKh.s 			page 30


 367              		.global	HAL_HCD_Init
 368              		.syntax unified
 369              		.thumb
 370              		.thumb_func
 371              		.fpu fpv5-sp-d16
 373              	HAL_HCD_Init:
 374              	.LVL28:
 375              	.LFB138:
 126:Drivers/STM32F7xx_HAL_Driver/Src/stm32f7xx_hal_hcd.c ****   /* Check the HCD handle allocation */
 376              		.loc 1 126 1 is_stmt 1 view -0
 377              		.cfi_startproc
 378              		@ args = 0, pretend = 0, frame = 0
 379              		@ frame_needed = 0, uses_anonymous_args = 0
 128:Drivers/STM32F7xx_HAL_Driver/Src/stm32f7xx_hal_hcd.c ****   {
 380              		.loc 1 128 3 view .LVU108
 128:Drivers/STM32F7xx_HAL_Driver/Src/stm32f7xx_hal_hcd.c ****   {
 381              		.loc 1 128 5 is_stmt 0 view .LVU109
 382 0000 0028     		cmp	r0, #0
 383 0002 3DD0     		beq	.L25
 126:Drivers/STM32F7xx_HAL_Driver/Src/stm32f7xx_hal_hcd.c ****   /* Check the HCD handle allocation */
 384              		.loc 1 126 1 view .LVU110
 385 0004 F0B5     		push	{r4, r5, r6, r7, lr}
 386              	.LCFI7:
 387              		.cfi_def_cfa_offset 20
 388              		.cfi_offset 4, -20
 389              		.cfi_offset 5, -16
 390              		.cfi_offset 6, -12
 391              		.cfi_offset 7, -8
 392              		.cfi_offset 14, -4
 393 0006 8BB0     		sub	sp, sp, #44
 394              	.LCFI8:
 395              		.cfi_def_cfa_offset 64
 396 0008 0646     		mov	r6, r0
 134:Drivers/STM32F7xx_HAL_Driver/Src/stm32f7xx_hal_hcd.c **** 
 397              		.loc 1 134 3 is_stmt 1 view .LVU111
 136:Drivers/STM32F7xx_HAL_Driver/Src/stm32f7xx_hal_hcd.c ****   {
 398              		.loc 1 136 3 view .LVU112
 136:Drivers/STM32F7xx_HAL_Driver/Src/stm32f7xx_hal_hcd.c ****   {
 399              		.loc 1 136 10 is_stmt 0 view .LVU113
 400 000a 90F8B932 		ldrb	r3, [r0, #697]	@ zero_extendqisi2
 136:Drivers/STM32F7xx_HAL_Driver/Src/stm32f7xx_hal_hcd.c ****   {
 401              		.loc 1 136 5 view .LVU114
 402 000e 93B3     		cbz	r3, .L30
 403              	.LVL29:
 404              	.L24:
 145:Drivers/STM32F7xx_HAL_Driver/Src/stm32f7xx_hal_hcd.c **** 
 405              		.loc 1 145 3 is_stmt 1 view .LVU115
 145:Drivers/STM32F7xx_HAL_Driver/Src/stm32f7xx_hal_hcd.c **** 
 406              		.loc 1 145 15 is_stmt 0 view .LVU116
 407 0010 0323     		movs	r3, #3
 408 0012 86F8B932 		strb	r3, [r6, #697]
 148:Drivers/STM32F7xx_HAL_Driver/Src/stm32f7xx_hal_hcd.c **** 
 409              		.loc 1 148 3 is_stmt 1 view .LVU117
 410 0016 3068     		ldr	r0, [r6]
 411 0018 FFF7FEFF 		bl	USB_DisableGlobalInt
 412              	.LVL30:
 151:Drivers/STM32F7xx_HAL_Driver/Src/stm32f7xx_hal_hcd.c **** 
ARM GAS  C:\Users\Nina\AppData\Local\Temp\ccxRUdKh.s 			page 31


 413              		.loc 1 151 3 view .LVU118
 151:Drivers/STM32F7xx_HAL_Driver/Src/stm32f7xx_hal_hcd.c **** 
 414              		.loc 1 151 26 is_stmt 0 view .LVU119
 415 001c 3446     		mov	r4, r6
 416 001e 54F810CB 		ldr	ip, [r4], #16
 151:Drivers/STM32F7xx_HAL_Driver/Src/stm32f7xx_hal_hcd.c **** 
 417              		.loc 1 151 9 view .LVU120
 418 0022 6D46     		mov	r5, sp
 419 0024 0FCC     		ldmia	r4!, {r0, r1, r2, r3}
 420 0026 0FC5     		stmia	r5!, {r0, r1, r2, r3}
 421 0028 0FCC     		ldmia	r4!, {r0, r1, r2, r3}
 422 002a 0FC5     		stmia	r5!, {r0, r1, r2, r3}
 423 002c 94E80300 		ldm	r4, {r0, r1}
 424 0030 85E80300 		stm	r5, {r0, r1}
 425 0034 371D     		adds	r7, r6, #4
 426 0036 97E80E00 		ldm	r7, {r1, r2, r3}
 427 003a 6046     		mov	r0, ip
 428 003c FFF7FEFF 		bl	USB_CoreInit
 429              	.LVL31:
 154:Drivers/STM32F7xx_HAL_Driver/Src/stm32f7xx_hal_hcd.c **** 
 430              		.loc 1 154 3 is_stmt 1 view .LVU121
 154:Drivers/STM32F7xx_HAL_Driver/Src/stm32f7xx_hal_hcd.c **** 
 431              		.loc 1 154 9 is_stmt 0 view .LVU122
 432 0040 0121     		movs	r1, #1
 433 0042 3068     		ldr	r0, [r6]
 434 0044 FFF7FEFF 		bl	USB_SetCurrentMode
 435              	.LVL32:
 157:Drivers/STM32F7xx_HAL_Driver/Src/stm32f7xx_hal_hcd.c **** 
 436              		.loc 1 157 3 is_stmt 1 view .LVU123
 157:Drivers/STM32F7xx_HAL_Driver/Src/stm32f7xx_hal_hcd.c **** 
 437              		.loc 1 157 26 is_stmt 0 view .LVU124
 438 0048 3446     		mov	r4, r6
 439 004a 54F810CB 		ldr	ip, [r4], #16
 157:Drivers/STM32F7xx_HAL_Driver/Src/stm32f7xx_hal_hcd.c **** 
 440              		.loc 1 157 9 view .LVU125
 441 004e 6D46     		mov	r5, sp
 442 0050 0FCC     		ldmia	r4!, {r0, r1, r2, r3}
 443 0052 0FC5     		stmia	r5!, {r0, r1, r2, r3}
 444 0054 0FCC     		ldmia	r4!, {r0, r1, r2, r3}
 445 0056 0FC5     		stmia	r5!, {r0, r1, r2, r3}
 446 0058 94E80300 		ldm	r4, {r0, r1}
 447 005c 85E80300 		stm	r5, {r0, r1}
 448 0060 97E80E00 		ldm	r7, {r1, r2, r3}
 449 0064 6046     		mov	r0, ip
 450 0066 FFF7FEFF 		bl	USB_HostInit
 451              	.LVL33:
 159:Drivers/STM32F7xx_HAL_Driver/Src/stm32f7xx_hal_hcd.c **** 
 452              		.loc 1 159 3 is_stmt 1 view .LVU126
 159:Drivers/STM32F7xx_HAL_Driver/Src/stm32f7xx_hal_hcd.c **** 
 453              		.loc 1 159 14 is_stmt 0 view .LVU127
 454 006a 0123     		movs	r3, #1
 455 006c 86F8B932 		strb	r3, [r6, #697]
 161:Drivers/STM32F7xx_HAL_Driver/Src/stm32f7xx_hal_hcd.c **** }
 456              		.loc 1 161 3 is_stmt 1 view .LVU128
 161:Drivers/STM32F7xx_HAL_Driver/Src/stm32f7xx_hal_hcd.c **** }
 457              		.loc 1 161 10 is_stmt 0 view .LVU129
 458 0070 0020     		movs	r0, #0
ARM GAS  C:\Users\Nina\AppData\Local\Temp\ccxRUdKh.s 			page 32


 162:Drivers/STM32F7xx_HAL_Driver/Src/stm32f7xx_hal_hcd.c **** 
 459              		.loc 1 162 1 view .LVU130
 460 0072 0BB0     		add	sp, sp, #44
 461              	.LCFI9:
 462              		.cfi_remember_state
 463              		.cfi_def_cfa_offset 20
 464              		@ sp needed
 465 0074 F0BD     		pop	{r4, r5, r6, r7, pc}
 466              	.LVL34:
 467              	.L30:
 468              	.LCFI10:
 469              		.cfi_restore_state
 139:Drivers/STM32F7xx_HAL_Driver/Src/stm32f7xx_hal_hcd.c **** 
 470              		.loc 1 139 5 is_stmt 1 view .LVU131
 139:Drivers/STM32F7xx_HAL_Driver/Src/stm32f7xx_hal_hcd.c **** 
 471              		.loc 1 139 16 is_stmt 0 view .LVU132
 472 0076 80F8B832 		strb	r3, [r0, #696]
 142:Drivers/STM32F7xx_HAL_Driver/Src/stm32f7xx_hal_hcd.c ****   }
 473              		.loc 1 142 5 is_stmt 1 view .LVU133
 474 007a FFF7FEFF 		bl	HAL_HCD_MspInit
 475              	.LVL35:
 142:Drivers/STM32F7xx_HAL_Driver/Src/stm32f7xx_hal_hcd.c ****   }
 476              		.loc 1 142 5 is_stmt 0 view .LVU134
 477 007e C7E7     		b	.L24
 478              	.LVL36:
 479              	.L25:
 480              	.LCFI11:
 481              		.cfi_def_cfa_offset 0
 482              		.cfi_restore 4
 483              		.cfi_restore 5
 484              		.cfi_restore 6
 485              		.cfi_restore 7
 486              		.cfi_restore 14
 130:Drivers/STM32F7xx_HAL_Driver/Src/stm32f7xx_hal_hcd.c ****   }
 487              		.loc 1 130 12 view .LVU135
 488 0080 0120     		movs	r0, #1
 489              	.LVL37:
 162:Drivers/STM32F7xx_HAL_Driver/Src/stm32f7xx_hal_hcd.c **** 
 490              		.loc 1 162 1 view .LVU136
 491 0082 7047     		bx	lr
 492              		.cfi_endproc
 493              	.LFE138:
 495              		.section	.text.HAL_HCD_MspDeInit,"ax",%progbits
 496              		.align	1
 497              		.weak	HAL_HCD_MspDeInit
 498              		.syntax unified
 499              		.thumb
 500              		.thumb_func
 501              		.fpu fpv5-sp-d16
 503              	HAL_HCD_MspDeInit:
 504              	.LVL38:
 505              	.LFB143:
 293:Drivers/STM32F7xx_HAL_Driver/Src/stm32f7xx_hal_hcd.c ****   /* Prevent unused argument(s) compilation warning */
 506              		.loc 1 293 1 is_stmt 1 view -0
 507              		.cfi_startproc
 508              		@ args = 0, pretend = 0, frame = 0
 509              		@ frame_needed = 0, uses_anonymous_args = 0
ARM GAS  C:\Users\Nina\AppData\Local\Temp\ccxRUdKh.s 			page 33


 510              		@ link register save eliminated.
 295:Drivers/STM32F7xx_HAL_Driver/Src/stm32f7xx_hal_hcd.c **** 
 511              		.loc 1 295 3 view .LVU138
 300:Drivers/STM32F7xx_HAL_Driver/Src/stm32f7xx_hal_hcd.c **** 
 512              		.loc 1 300 1 is_stmt 0 view .LVU139
 513 0000 7047     		bx	lr
 514              		.cfi_endproc
 515              	.LFE143:
 517              		.section	.text.HAL_HCD_DeInit,"ax",%progbits
 518              		.align	1
 519              		.global	HAL_HCD_DeInit
 520              		.syntax unified
 521              		.thumb
 522              		.thumb_func
 523              		.fpu fpv5-sp-d16
 525              	HAL_HCD_DeInit:
 526              	.LVL39:
 527              	.LFB141:
 253:Drivers/STM32F7xx_HAL_Driver/Src/stm32f7xx_hal_hcd.c ****   /* Check the HCD handle allocation */
 528              		.loc 1 253 1 is_stmt 1 view -0
 529              		.cfi_startproc
 530              		@ args = 0, pretend = 0, frame = 0
 531              		@ frame_needed = 0, uses_anonymous_args = 0
 255:Drivers/STM32F7xx_HAL_Driver/Src/stm32f7xx_hal_hcd.c ****   {
 532              		.loc 1 255 3 view .LVU141
 255:Drivers/STM32F7xx_HAL_Driver/Src/stm32f7xx_hal_hcd.c ****   {
 533              		.loc 1 255 5 is_stmt 0 view .LVU142
 534 0000 68B1     		cbz	r0, .L34
 253:Drivers/STM32F7xx_HAL_Driver/Src/stm32f7xx_hal_hcd.c ****   /* Check the HCD handle allocation */
 535              		.loc 1 253 1 view .LVU143
 536 0002 10B5     		push	{r4, lr}
 537              	.LCFI12:
 538              		.cfi_def_cfa_offset 8
 539              		.cfi_offset 4, -8
 540              		.cfi_offset 14, -4
 541 0004 0446     		mov	r4, r0
 260:Drivers/STM32F7xx_HAL_Driver/Src/stm32f7xx_hal_hcd.c **** 
 542              		.loc 1 260 3 is_stmt 1 view .LVU144
 260:Drivers/STM32F7xx_HAL_Driver/Src/stm32f7xx_hal_hcd.c **** 
 543              		.loc 1 260 15 is_stmt 0 view .LVU145
 544 0006 0323     		movs	r3, #3
 545 0008 80F8B932 		strb	r3, [r0, #697]
 263:Drivers/STM32F7xx_HAL_Driver/Src/stm32f7xx_hal_hcd.c **** 
 546              		.loc 1 263 3 is_stmt 1 view .LVU146
 547 000c FFF7FEFF 		bl	HAL_HCD_MspDeInit
 548              	.LVL40:
 265:Drivers/STM32F7xx_HAL_Driver/Src/stm32f7xx_hal_hcd.c **** 
 549              		.loc 1 265 3 view .LVU147
 550 0010 2068     		ldr	r0, [r4]
 551 0012 FFF7FEFF 		bl	USB_DisableGlobalInt
 552              	.LVL41:
 267:Drivers/STM32F7xx_HAL_Driver/Src/stm32f7xx_hal_hcd.c **** 
 553              		.loc 1 267 3 view .LVU148
 267:Drivers/STM32F7xx_HAL_Driver/Src/stm32f7xx_hal_hcd.c **** 
 554              		.loc 1 267 15 is_stmt 0 view .LVU149
 555 0016 0020     		movs	r0, #0
 556 0018 84F8B902 		strb	r0, [r4, #697]
ARM GAS  C:\Users\Nina\AppData\Local\Temp\ccxRUdKh.s 			page 34


 269:Drivers/STM32F7xx_HAL_Driver/Src/stm32f7xx_hal_hcd.c **** }
 557              		.loc 1 269 3 is_stmt 1 view .LVU150
 270:Drivers/STM32F7xx_HAL_Driver/Src/stm32f7xx_hal_hcd.c **** 
 558              		.loc 1 270 1 is_stmt 0 view .LVU151
 559 001c 10BD     		pop	{r4, pc}
 560              	.LVL42:
 561              	.L34:
 562              	.LCFI13:
 563              		.cfi_def_cfa_offset 0
 564              		.cfi_restore 4
 565              		.cfi_restore 14
 257:Drivers/STM32F7xx_HAL_Driver/Src/stm32f7xx_hal_hcd.c ****   }
 566              		.loc 1 257 12 view .LVU152
 567 001e 0120     		movs	r0, #1
 568              	.LVL43:
 270:Drivers/STM32F7xx_HAL_Driver/Src/stm32f7xx_hal_hcd.c **** 
 569              		.loc 1 270 1 view .LVU153
 570 0020 7047     		bx	lr
 571              		.cfi_endproc
 572              	.LFE141:
 574              		.section	.text.HAL_HCD_HC_SubmitRequest,"ax",%progbits
 575              		.align	1
 576              		.global	HAL_HCD_HC_SubmitRequest
 577              		.syntax unified
 578              		.thumb
 579              		.thumb_func
 580              		.fpu fpv5-sp-d16
 582              	HAL_HCD_HC_SubmitRequest:
 583              	.LVL44:
 584              	.LFB144:
 352:Drivers/STM32F7xx_HAL_Driver/Src/stm32f7xx_hal_hcd.c ****   UNUSED(do_ping);
 585              		.loc 1 352 1 is_stmt 1 view -0
 586              		.cfi_startproc
 587              		@ args = 16, pretend = 0, frame = 0
 588              		@ frame_needed = 0, uses_anonymous_args = 0
 352:Drivers/STM32F7xx_HAL_Driver/Src/stm32f7xx_hal_hcd.c ****   UNUSED(do_ping);
 589              		.loc 1 352 1 is_stmt 0 view .LVU155
 590 0000 F8B5     		push	{r3, r4, r5, r6, r7, lr}
 591              	.LCFI14:
 592              		.cfi_def_cfa_offset 24
 593              		.cfi_offset 3, -24
 594              		.cfi_offset 4, -20
 595              		.cfi_offset 5, -16
 596              		.cfi_offset 6, -12
 597              		.cfi_offset 7, -8
 598              		.cfi_offset 14, -4
 599 0002 9DF81850 		ldrb	r5, [sp, #24]	@ zero_extendqisi2
 600 0006 BDF82060 		ldrh	r6, [sp, #32]
 353:Drivers/STM32F7xx_HAL_Driver/Src/stm32f7xx_hal_hcd.c **** 
 601              		.loc 1 353 3 is_stmt 1 view .LVU156
 355:Drivers/STM32F7xx_HAL_Driver/Src/stm32f7xx_hal_hcd.c ****   hhcd->hc[ch_num].ep_type  = ep_type;
 602              		.loc 1 355 3 view .LVU157
 355:Drivers/STM32F7xx_HAL_Driver/Src/stm32f7xx_hal_hcd.c ****   hhcd->hc[ch_num].ep_type  = ep_type;
 603              		.loc 1 355 29 is_stmt 0 view .LVU158
 604 000a 01EB8104 		add	r4, r1, r1, lsl #2
 605 000e 00EBC404 		add	r4, r0, r4, lsl #3
 606 0012 84F83B20 		strb	r2, [r4, #59]
ARM GAS  C:\Users\Nina\AppData\Local\Temp\ccxRUdKh.s 			page 35


 356:Drivers/STM32F7xx_HAL_Driver/Src/stm32f7xx_hal_hcd.c **** 
 607              		.loc 1 356 3 is_stmt 1 view .LVU159
 356:Drivers/STM32F7xx_HAL_Driver/Src/stm32f7xx_hal_hcd.c **** 
 608              		.loc 1 356 29 is_stmt 0 view .LVU160
 609 0016 84F83F30 		strb	r3, [r4, #63]
 358:Drivers/STM32F7xx_HAL_Driver/Src/stm32f7xx_hal_hcd.c ****   {
 610              		.loc 1 358 3 is_stmt 1 view .LVU161
 358:Drivers/STM32F7xx_HAL_Driver/Src/stm32f7xx_hal_hcd.c ****   {
 611              		.loc 1 358 5 is_stmt 0 view .LVU162
 612 001a 6DB9     		cbnz	r5, .L40
 360:Drivers/STM32F7xx_HAL_Driver/Src/stm32f7xx_hal_hcd.c ****   }
 613              		.loc 1 360 5 is_stmt 1 view .LVU163
 360:Drivers/STM32F7xx_HAL_Driver/Src/stm32f7xx_hal_hcd.c ****   }
 614              		.loc 1 360 31 is_stmt 0 view .LVU164
 615 001c 01EB8104 		add	r4, r1, r1, lsl #2
 616 0020 00EBC404 		add	r4, r0, r4, lsl #3
 617 0024 0327     		movs	r7, #3
 618 0026 84F84270 		strb	r7, [r4, #66]
 619              	.L41:
 368:Drivers/STM32F7xx_HAL_Driver/Src/stm32f7xx_hal_hcd.c ****   {
 620              		.loc 1 368 3 is_stmt 1 view .LVU165
 621 002a 032B     		cmp	r3, #3
 622 002c 00F29380 		bhi	.L42
 623 0030 DFE803F0 		tbb	[pc, r3]
 624              	.L44:
 625 0034 0A       		.byte	(.L47-.L44)/2
 626 0035 8A       		.byte	(.L46-.L44)/2
 627 0036 2E       		.byte	(.L45-.L44)/2
 628 0037 5C       		.byte	(.L43-.L44)/2
 629              		.p2align 1
 630              	.L40:
 364:Drivers/STM32F7xx_HAL_Driver/Src/stm32f7xx_hal_hcd.c ****   }
 631              		.loc 1 364 5 view .LVU166
 364:Drivers/STM32F7xx_HAL_Driver/Src/stm32f7xx_hal_hcd.c ****   }
 632              		.loc 1 364 31 is_stmt 0 view .LVU167
 633 0038 01EB8104 		add	r4, r1, r1, lsl #2
 634 003c 00EBC404 		add	r4, r0, r4, lsl #3
 635 0040 0227     		movs	r7, #2
 636 0042 84F84270 		strb	r7, [r4, #66]
 637 0046 F0E7     		b	.L41
 638              	.L47:
 371:Drivers/STM32F7xx_HAL_Driver/Src/stm32f7xx_hal_hcd.c ****     {
 639              		.loc 1 371 5 is_stmt 1 view .LVU168
 371:Drivers/STM32F7xx_HAL_Driver/Src/stm32f7xx_hal_hcd.c ****     {
 640              		.loc 1 371 7 is_stmt 0 view .LVU169
 641 0048 012D     		cmp	r5, #1
 642 004a 08BF     		it	eq
 643 004c 002A     		cmpeq	r2, #0
 644 004e 40F08280 		bne	.L42
 373:Drivers/STM32F7xx_HAL_Driver/Src/stm32f7xx_hal_hcd.c ****       { /* For Status OUT stage, Length==0, Status Out PID = 1 */
 645              		.loc 1 373 7 is_stmt 1 view .LVU170
 373:Drivers/STM32F7xx_HAL_Driver/Src/stm32f7xx_hal_hcd.c ****       { /* For Status OUT stage, Length==0, Status Out PID = 1 */
 646              		.loc 1 373 10 is_stmt 0 view .LVU171
 647 0052 36B9     		cbnz	r6, .L48
 375:Drivers/STM32F7xx_HAL_Driver/Src/stm32f7xx_hal_hcd.c ****       }
 648              		.loc 1 375 9 is_stmt 1 view .LVU172
 375:Drivers/STM32F7xx_HAL_Driver/Src/stm32f7xx_hal_hcd.c ****       }
ARM GAS  C:\Users\Nina\AppData\Local\Temp\ccxRUdKh.s 			page 36


 649              		.loc 1 375 37 is_stmt 0 view .LVU173
 650 0054 01EB8103 		add	r3, r1, r1, lsl #2
 651              	.LVL45:
 375:Drivers/STM32F7xx_HAL_Driver/Src/stm32f7xx_hal_hcd.c ****       }
 652              		.loc 1 375 37 view .LVU174
 653 0058 00EBC303 		add	r3, r0, r3, lsl #3
 654 005c 0122     		movs	r2, #1
 655              	.LVL46:
 375:Drivers/STM32F7xx_HAL_Driver/Src/stm32f7xx_hal_hcd.c ****       }
 656              		.loc 1 375 37 view .LVU175
 657 005e 83F85120 		strb	r2, [r3, #81]
 658              	.L48:
 379:Drivers/STM32F7xx_HAL_Driver/Src/stm32f7xx_hal_hcd.c ****       { /* Put the PID 0 */
 659              		.loc 1 379 7 is_stmt 1 view .LVU176
 379:Drivers/STM32F7xx_HAL_Driver/Src/stm32f7xx_hal_hcd.c ****       { /* Put the PID 0 */
 660              		.loc 1 379 27 is_stmt 0 view .LVU177
 661 0062 01EB8103 		add	r3, r1, r1, lsl #2
 662 0066 00EBC303 		add	r3, r0, r3, lsl #3
 663 006a 93F85130 		ldrb	r3, [r3, #81]	@ zero_extendqisi2
 379:Drivers/STM32F7xx_HAL_Driver/Src/stm32f7xx_hal_hcd.c ****       { /* Put the PID 0 */
 664              		.loc 1 379 10 view .LVU178
 665 006e 3BB9     		cbnz	r3, .L49
 381:Drivers/STM32F7xx_HAL_Driver/Src/stm32f7xx_hal_hcd.c ****       }
 666              		.loc 1 381 9 is_stmt 1 view .LVU179
 381:Drivers/STM32F7xx_HAL_Driver/Src/stm32f7xx_hal_hcd.c ****       }
 667              		.loc 1 381 35 is_stmt 0 view .LVU180
 668 0070 01EB8103 		add	r3, r1, r1, lsl #2
 669 0074 00EBC303 		add	r3, r0, r3, lsl #3
 670 0078 0022     		movs	r2, #0
 671 007a 83F84220 		strb	r2, [r3, #66]
 672 007e 6AE0     		b	.L42
 673              	.L49:
 385:Drivers/STM32F7xx_HAL_Driver/Src/stm32f7xx_hal_hcd.c ****       }
 674              		.loc 1 385 9 is_stmt 1 view .LVU181
 385:Drivers/STM32F7xx_HAL_Driver/Src/stm32f7xx_hal_hcd.c ****       }
 675              		.loc 1 385 35 is_stmt 0 view .LVU182
 676 0080 01EB8103 		add	r3, r1, r1, lsl #2
 677 0084 00EBC303 		add	r3, r0, r3, lsl #3
 678 0088 0222     		movs	r2, #2
 679 008a 83F84220 		strb	r2, [r3, #66]
 680 008e 62E0     		b	.L42
 681              	.LVL47:
 682              	.L45:
 391:Drivers/STM32F7xx_HAL_Driver/Src/stm32f7xx_hal_hcd.c ****     {
 683              		.loc 1 391 5 is_stmt 1 view .LVU183
 391:Drivers/STM32F7xx_HAL_Driver/Src/stm32f7xx_hal_hcd.c ****     {
 684              		.loc 1 391 7 is_stmt 0 view .LVU184
 685 0090 AAB9     		cbnz	r2, .L50
 394:Drivers/STM32F7xx_HAL_Driver/Src/stm32f7xx_hal_hcd.c ****       { /* Put the PID 0 */
 686              		.loc 1 394 7 is_stmt 1 view .LVU185
 394:Drivers/STM32F7xx_HAL_Driver/Src/stm32f7xx_hal_hcd.c ****       { /* Put the PID 0 */
 687              		.loc 1 394 28 is_stmt 0 view .LVU186
 688 0092 01EB8103 		add	r3, r1, r1, lsl #2
 689              	.LVL48:
 394:Drivers/STM32F7xx_HAL_Driver/Src/stm32f7xx_hal_hcd.c ****       { /* Put the PID 0 */
 690              		.loc 1 394 28 view .LVU187
 691 0096 00EBC303 		add	r3, r0, r3, lsl #3
ARM GAS  C:\Users\Nina\AppData\Local\Temp\ccxRUdKh.s 			page 37


 692 009a 93F85130 		ldrb	r3, [r3, #81]	@ zero_extendqisi2
 394:Drivers/STM32F7xx_HAL_Driver/Src/stm32f7xx_hal_hcd.c ****       { /* Put the PID 0 */
 693              		.loc 1 394 10 view .LVU188
 694 009e 33B9     		cbnz	r3, .L51
 396:Drivers/STM32F7xx_HAL_Driver/Src/stm32f7xx_hal_hcd.c ****       }
 695              		.loc 1 396 9 is_stmt 1 view .LVU189
 396:Drivers/STM32F7xx_HAL_Driver/Src/stm32f7xx_hal_hcd.c ****       }
 696              		.loc 1 396 35 is_stmt 0 view .LVU190
 697 00a0 01EB8103 		add	r3, r1, r1, lsl #2
 698 00a4 00EBC303 		add	r3, r0, r3, lsl #3
 699 00a8 83F84220 		strb	r2, [r3, #66]
 700 00ac 53E0     		b	.L42
 701              	.L51:
 400:Drivers/STM32F7xx_HAL_Driver/Src/stm32f7xx_hal_hcd.c ****       }
 702              		.loc 1 400 9 is_stmt 1 view .LVU191
 400:Drivers/STM32F7xx_HAL_Driver/Src/stm32f7xx_hal_hcd.c ****       }
 703              		.loc 1 400 35 is_stmt 0 view .LVU192
 704 00ae 01EB8103 		add	r3, r1, r1, lsl #2
 705 00b2 00EBC303 		add	r3, r0, r3, lsl #3
 706 00b6 0222     		movs	r2, #2
 707              	.LVL49:
 400:Drivers/STM32F7xx_HAL_Driver/Src/stm32f7xx_hal_hcd.c ****       }
 708              		.loc 1 400 35 view .LVU193
 709 00b8 83F84220 		strb	r2, [r3, #66]
 710 00bc 4BE0     		b	.L42
 711              	.LVL50:
 712              	.L50:
 405:Drivers/STM32F7xx_HAL_Driver/Src/stm32f7xx_hal_hcd.c ****       {
 713              		.loc 1 405 7 is_stmt 1 view .LVU194
 405:Drivers/STM32F7xx_HAL_Driver/Src/stm32f7xx_hal_hcd.c ****       {
 714              		.loc 1 405 27 is_stmt 0 view .LVU195
 715 00be 01EB8103 		add	r3, r1, r1, lsl #2
 716              	.LVL51:
 405:Drivers/STM32F7xx_HAL_Driver/Src/stm32f7xx_hal_hcd.c ****       {
 717              		.loc 1 405 27 view .LVU196
 718 00c2 00EBC303 		add	r3, r0, r3, lsl #3
 719 00c6 93F85030 		ldrb	r3, [r3, #80]	@ zero_extendqisi2
 405:Drivers/STM32F7xx_HAL_Driver/Src/stm32f7xx_hal_hcd.c ****       {
 720              		.loc 1 405 9 view .LVU197
 721 00ca 3BB9     		cbnz	r3, .L52
 407:Drivers/STM32F7xx_HAL_Driver/Src/stm32f7xx_hal_hcd.c ****       }
 722              		.loc 1 407 9 is_stmt 1 view .LVU198
 407:Drivers/STM32F7xx_HAL_Driver/Src/stm32f7xx_hal_hcd.c ****       }
 723              		.loc 1 407 35 is_stmt 0 view .LVU199
 724 00cc 01EB8103 		add	r3, r1, r1, lsl #2
 725 00d0 00EBC303 		add	r3, r0, r3, lsl #3
 726 00d4 0022     		movs	r2, #0
 727              	.LVL52:
 407:Drivers/STM32F7xx_HAL_Driver/Src/stm32f7xx_hal_hcd.c ****       }
 728              		.loc 1 407 35 view .LVU200
 729 00d6 83F84220 		strb	r2, [r3, #66]
 730 00da 3CE0     		b	.L42
 731              	.LVL53:
 732              	.L52:
 411:Drivers/STM32F7xx_HAL_Driver/Src/stm32f7xx_hal_hcd.c ****       }
 733              		.loc 1 411 9 is_stmt 1 view .LVU201
 411:Drivers/STM32F7xx_HAL_Driver/Src/stm32f7xx_hal_hcd.c ****       }
ARM GAS  C:\Users\Nina\AppData\Local\Temp\ccxRUdKh.s 			page 38


 734              		.loc 1 411 35 is_stmt 0 view .LVU202
 735 00dc 01EB8103 		add	r3, r1, r1, lsl #2
 736 00e0 00EBC303 		add	r3, r0, r3, lsl #3
 737 00e4 0222     		movs	r2, #2
 738              	.LVL54:
 411:Drivers/STM32F7xx_HAL_Driver/Src/stm32f7xx_hal_hcd.c ****       }
 739              		.loc 1 411 35 view .LVU203
 740 00e6 83F84220 		strb	r2, [r3, #66]
 741 00ea 34E0     		b	.L42
 742              	.LVL55:
 743              	.L43:
 417:Drivers/STM32F7xx_HAL_Driver/Src/stm32f7xx_hal_hcd.c ****     {
 744              		.loc 1 417 5 is_stmt 1 view .LVU204
 417:Drivers/STM32F7xx_HAL_Driver/Src/stm32f7xx_hal_hcd.c ****     {
 745              		.loc 1 417 7 is_stmt 0 view .LVU205
 746 00ec AAB9     		cbnz	r2, .L53
 420:Drivers/STM32F7xx_HAL_Driver/Src/stm32f7xx_hal_hcd.c ****       { /* Put the PID 0 */
 747              		.loc 1 420 7 is_stmt 1 view .LVU206
 420:Drivers/STM32F7xx_HAL_Driver/Src/stm32f7xx_hal_hcd.c ****       { /* Put the PID 0 */
 748              		.loc 1 420 28 is_stmt 0 view .LVU207
 749 00ee 01EB8103 		add	r3, r1, r1, lsl #2
 750              	.LVL56:
 420:Drivers/STM32F7xx_HAL_Driver/Src/stm32f7xx_hal_hcd.c ****       { /* Put the PID 0 */
 751              		.loc 1 420 28 view .LVU208
 752 00f2 00EBC303 		add	r3, r0, r3, lsl #3
 753 00f6 93F85130 		ldrb	r3, [r3, #81]	@ zero_extendqisi2
 420:Drivers/STM32F7xx_HAL_Driver/Src/stm32f7xx_hal_hcd.c ****       { /* Put the PID 0 */
 754              		.loc 1 420 10 view .LVU209
 755 00fa 33B9     		cbnz	r3, .L54
 422:Drivers/STM32F7xx_HAL_Driver/Src/stm32f7xx_hal_hcd.c ****       }
 756              		.loc 1 422 9 is_stmt 1 view .LVU210
 422:Drivers/STM32F7xx_HAL_Driver/Src/stm32f7xx_hal_hcd.c ****       }
 757              		.loc 1 422 35 is_stmt 0 view .LVU211
 758 00fc 01EB8103 		add	r3, r1, r1, lsl #2
 759 0100 00EBC303 		add	r3, r0, r3, lsl #3
 760 0104 83F84220 		strb	r2, [r3, #66]
 761 0108 25E0     		b	.L42
 762              	.L54:
 426:Drivers/STM32F7xx_HAL_Driver/Src/stm32f7xx_hal_hcd.c ****       }
 763              		.loc 1 426 9 is_stmt 1 view .LVU212
 426:Drivers/STM32F7xx_HAL_Driver/Src/stm32f7xx_hal_hcd.c ****       }
 764              		.loc 1 426 35 is_stmt 0 view .LVU213
 765 010a 01EB8103 		add	r3, r1, r1, lsl #2
 766 010e 00EBC303 		add	r3, r0, r3, lsl #3
 767 0112 0222     		movs	r2, #2
 768              	.LVL57:
 426:Drivers/STM32F7xx_HAL_Driver/Src/stm32f7xx_hal_hcd.c ****       }
 769              		.loc 1 426 35 view .LVU214
 770 0114 83F84220 		strb	r2, [r3, #66]
 771 0118 1DE0     		b	.L42
 772              	.LVL58:
 773              	.L53:
 431:Drivers/STM32F7xx_HAL_Driver/Src/stm32f7xx_hal_hcd.c ****       {
 774              		.loc 1 431 7 is_stmt 1 view .LVU215
 431:Drivers/STM32F7xx_HAL_Driver/Src/stm32f7xx_hal_hcd.c ****       {
 775              		.loc 1 431 27 is_stmt 0 view .LVU216
 776 011a 01EB8103 		add	r3, r1, r1, lsl #2
ARM GAS  C:\Users\Nina\AppData\Local\Temp\ccxRUdKh.s 			page 39


 777              	.LVL59:
 431:Drivers/STM32F7xx_HAL_Driver/Src/stm32f7xx_hal_hcd.c ****       {
 778              		.loc 1 431 27 view .LVU217
 779 011e 00EBC303 		add	r3, r0, r3, lsl #3
 780 0122 93F85030 		ldrb	r3, [r3, #80]	@ zero_extendqisi2
 431:Drivers/STM32F7xx_HAL_Driver/Src/stm32f7xx_hal_hcd.c ****       {
 781              		.loc 1 431 9 view .LVU218
 782 0126 3BB9     		cbnz	r3, .L55
 433:Drivers/STM32F7xx_HAL_Driver/Src/stm32f7xx_hal_hcd.c ****       }
 783              		.loc 1 433 9 is_stmt 1 view .LVU219
 433:Drivers/STM32F7xx_HAL_Driver/Src/stm32f7xx_hal_hcd.c ****       }
 784              		.loc 1 433 35 is_stmt 0 view .LVU220
 785 0128 01EB8103 		add	r3, r1, r1, lsl #2
 786 012c 00EBC303 		add	r3, r0, r3, lsl #3
 787 0130 0022     		movs	r2, #0
 788              	.LVL60:
 433:Drivers/STM32F7xx_HAL_Driver/Src/stm32f7xx_hal_hcd.c ****       }
 789              		.loc 1 433 35 view .LVU221
 790 0132 83F84220 		strb	r2, [r3, #66]
 791 0136 0EE0     		b	.L42
 792              	.LVL61:
 793              	.L55:
 437:Drivers/STM32F7xx_HAL_Driver/Src/stm32f7xx_hal_hcd.c ****       }
 794              		.loc 1 437 9 is_stmt 1 view .LVU222
 437:Drivers/STM32F7xx_HAL_Driver/Src/stm32f7xx_hal_hcd.c ****       }
 795              		.loc 1 437 35 is_stmt 0 view .LVU223
 796 0138 01EB8103 		add	r3, r1, r1, lsl #2
 797 013c 00EBC303 		add	r3, r0, r3, lsl #3
 798 0140 0222     		movs	r2, #2
 799              	.LVL62:
 437:Drivers/STM32F7xx_HAL_Driver/Src/stm32f7xx_hal_hcd.c ****       }
 800              		.loc 1 437 35 view .LVU224
 801 0142 83F84220 		strb	r2, [r3, #66]
 802 0146 06E0     		b	.L42
 803              	.LVL63:
 804              	.L46:
 443:Drivers/STM32F7xx_HAL_Driver/Src/stm32f7xx_hal_hcd.c ****     break;
 805              		.loc 1 443 5 is_stmt 1 view .LVU225
 443:Drivers/STM32F7xx_HAL_Driver/Src/stm32f7xx_hal_hcd.c ****     break;
 806              		.loc 1 443 31 is_stmt 0 view .LVU226
 807 0148 01EB8103 		add	r3, r1, r1, lsl #2
 808              	.LVL64:
 443:Drivers/STM32F7xx_HAL_Driver/Src/stm32f7xx_hal_hcd.c ****     break;
 809              		.loc 1 443 31 view .LVU227
 810 014c 00EBC303 		add	r3, r0, r3, lsl #3
 811 0150 0022     		movs	r2, #0
 812              	.LVL65:
 443:Drivers/STM32F7xx_HAL_Driver/Src/stm32f7xx_hal_hcd.c ****     break;
 813              		.loc 1 443 31 view .LVU228
 814 0152 83F84220 		strb	r2, [r3, #66]
 444:Drivers/STM32F7xx_HAL_Driver/Src/stm32f7xx_hal_hcd.c **** 
 815              		.loc 1 444 5 is_stmt 1 view .LVU229
 816              	.L42:
 450:Drivers/STM32F7xx_HAL_Driver/Src/stm32f7xx_hal_hcd.c ****   hhcd->hc[ch_num].xfer_len  = length;
 817              		.loc 1 450 3 view .LVU230
 450:Drivers/STM32F7xx_HAL_Driver/Src/stm32f7xx_hal_hcd.c ****   hhcd->hc[ch_num].xfer_len  = length;
 818              		.loc 1 450 30 is_stmt 0 view .LVU231
ARM GAS  C:\Users\Nina\AppData\Local\Temp\ccxRUdKh.s 			page 40


 819 0156 01EB8103 		add	r3, r1, r1, lsl #2
 820 015a 00EBC303 		add	r3, r0, r3, lsl #3
 821 015e 079A     		ldr	r2, [sp, #28]
 822 0160 5A64     		str	r2, [r3, #68]
 451:Drivers/STM32F7xx_HAL_Driver/Src/stm32f7xx_hal_hcd.c ****   hhcd->hc[ch_num].urb_state = URB_IDLE;
 823              		.loc 1 451 3 is_stmt 1 view .LVU232
 451:Drivers/STM32F7xx_HAL_Driver/Src/stm32f7xx_hal_hcd.c ****   hhcd->hc[ch_num].urb_state = URB_IDLE;
 824              		.loc 1 451 30 is_stmt 0 view .LVU233
 825 0162 9E64     		str	r6, [r3, #72]
 452:Drivers/STM32F7xx_HAL_Driver/Src/stm32f7xx_hal_hcd.c ****   hhcd->hc[ch_num].xfer_count = 0U;
 826              		.loc 1 452 3 is_stmt 1 view .LVU234
 452:Drivers/STM32F7xx_HAL_Driver/Src/stm32f7xx_hal_hcd.c ****   hhcd->hc[ch_num].xfer_count = 0U;
 827              		.loc 1 452 30 is_stmt 0 view .LVU235
 828 0164 0022     		movs	r2, #0
 829 0166 83F85C20 		strb	r2, [r3, #92]
 453:Drivers/STM32F7xx_HAL_Driver/Src/stm32f7xx_hal_hcd.c ****   hhcd->hc[ch_num].ch_num = ch_num;
 830              		.loc 1 453 3 is_stmt 1 view .LVU236
 453:Drivers/STM32F7xx_HAL_Driver/Src/stm32f7xx_hal_hcd.c ****   hhcd->hc[ch_num].ch_num = ch_num;
 831              		.loc 1 453 31 is_stmt 0 view .LVU237
 832 016a DA64     		str	r2, [r3, #76]
 454:Drivers/STM32F7xx_HAL_Driver/Src/stm32f7xx_hal_hcd.c ****   hhcd->hc[ch_num].state = HC_IDLE;
 833              		.loc 1 454 3 is_stmt 1 view .LVU238
 454:Drivers/STM32F7xx_HAL_Driver/Src/stm32f7xx_hal_hcd.c ****   hhcd->hc[ch_num].state = HC_IDLE;
 834              		.loc 1 454 27 is_stmt 0 view .LVU239
 835 016c 83F83910 		strb	r1, [r3, #57]
 455:Drivers/STM32F7xx_HAL_Driver/Src/stm32f7xx_hal_hcd.c **** 
 836              		.loc 1 455 3 is_stmt 1 view .LVU240
 455:Drivers/STM32F7xx_HAL_Driver/Src/stm32f7xx_hal_hcd.c **** 
 837              		.loc 1 455 26 is_stmt 0 view .LVU241
 838 0170 83F85D20 		strb	r2, [r3, #93]
 457:Drivers/STM32F7xx_HAL_Driver/Src/stm32f7xx_hal_hcd.c **** }
 839              		.loc 1 457 3 is_stmt 1 view .LVU242
 457:Drivers/STM32F7xx_HAL_Driver/Src/stm32f7xx_hal_hcd.c **** }
 840              		.loc 1 457 43 is_stmt 0 view .LVU243
 841 0174 01EB8101 		add	r1, r1, r1, lsl #2
 842              	.LVL66:
 457:Drivers/STM32F7xx_HAL_Driver/Src/stm32f7xx_hal_hcd.c **** }
 843              		.loc 1 457 43 view .LVU244
 844 0178 C900     		lsls	r1, r1, #3
 845 017a 3831     		adds	r1, r1, #56
 457:Drivers/STM32F7xx_HAL_Driver/Src/stm32f7xx_hal_hcd.c **** }
 846              		.loc 1 457 10 view .LVU245
 847 017c 027C     		ldrb	r2, [r0, #16]	@ zero_extendqisi2
 848 017e 0144     		add	r1, r1, r0
 849 0180 0068     		ldr	r0, [r0]
 850              	.LVL67:
 457:Drivers/STM32F7xx_HAL_Driver/Src/stm32f7xx_hal_hcd.c **** }
 851              		.loc 1 457 10 view .LVU246
 852 0182 FFF7FEFF 		bl	USB_HC_StartXfer
 853              	.LVL68:
 458:Drivers/STM32F7xx_HAL_Driver/Src/stm32f7xx_hal_hcd.c **** 
 854              		.loc 1 458 1 view .LVU247
 855 0186 F8BD     		pop	{r3, r4, r5, r6, r7, pc}
 458:Drivers/STM32F7xx_HAL_Driver/Src/stm32f7xx_hal_hcd.c **** 
 856              		.loc 1 458 1 view .LVU248
 857              		.cfi_endproc
 858              	.LFE144:
ARM GAS  C:\Users\Nina\AppData\Local\Temp\ccxRUdKh.s 			page 41


 860              		.section	.text.HAL_HCD_SOF_Callback,"ax",%progbits
 861              		.align	1
 862              		.weak	HAL_HCD_SOF_Callback
 863              		.syntax unified
 864              		.thumb
 865              		.thumb_func
 866              		.fpu fpv5-sp-d16
 868              	HAL_HCD_SOF_Callback:
 869              	.LVL69:
 870              	.LFB146:
 570:Drivers/STM32F7xx_HAL_Driver/Src/stm32f7xx_hal_hcd.c ****   /* Prevent unused argument(s) compilation warning */
 871              		.loc 1 570 1 is_stmt 1 view -0
 872              		.cfi_startproc
 873              		@ args = 0, pretend = 0, frame = 0
 874              		@ frame_needed = 0, uses_anonymous_args = 0
 875              		@ link register save eliminated.
 572:Drivers/STM32F7xx_HAL_Driver/Src/stm32f7xx_hal_hcd.c **** 
 876              		.loc 1 572 3 view .LVU250
 577:Drivers/STM32F7xx_HAL_Driver/Src/stm32f7xx_hal_hcd.c **** 
 877              		.loc 1 577 1 is_stmt 0 view .LVU251
 878 0000 7047     		bx	lr
 879              		.cfi_endproc
 880              	.LFE146:
 882              		.section	.text.HAL_HCD_Connect_Callback,"ax",%progbits
 883              		.align	1
 884              		.weak	HAL_HCD_Connect_Callback
 885              		.syntax unified
 886              		.thumb
 887              		.thumb_func
 888              		.fpu fpv5-sp-d16
 890              	HAL_HCD_Connect_Callback:
 891              	.LVL70:
 892              	.LFB147:
 585:Drivers/STM32F7xx_HAL_Driver/Src/stm32f7xx_hal_hcd.c ****   /* Prevent unused argument(s) compilation warning */
 893              		.loc 1 585 1 is_stmt 1 view -0
 894              		.cfi_startproc
 895              		@ args = 0, pretend = 0, frame = 0
 896              		@ frame_needed = 0, uses_anonymous_args = 0
 897              		@ link register save eliminated.
 587:Drivers/STM32F7xx_HAL_Driver/Src/stm32f7xx_hal_hcd.c **** 
 898              		.loc 1 587 3 view .LVU253
 592:Drivers/STM32F7xx_HAL_Driver/Src/stm32f7xx_hal_hcd.c **** 
 899              		.loc 1 592 1 is_stmt 0 view .LVU254
 900 0000 7047     		bx	lr
 901              		.cfi_endproc
 902              	.LFE147:
 904              		.section	.text.HAL_HCD_Disconnect_Callback,"ax",%progbits
 905              		.align	1
 906              		.weak	HAL_HCD_Disconnect_Callback
 907              		.syntax unified
 908              		.thumb
 909              		.thumb_func
 910              		.fpu fpv5-sp-d16
 912              	HAL_HCD_Disconnect_Callback:
 913              	.LVL71:
 914              	.LFB148:
 600:Drivers/STM32F7xx_HAL_Driver/Src/stm32f7xx_hal_hcd.c ****   /* Prevent unused argument(s) compilation warning */
ARM GAS  C:\Users\Nina\AppData\Local\Temp\ccxRUdKh.s 			page 42


 915              		.loc 1 600 1 is_stmt 1 view -0
 916              		.cfi_startproc
 917              		@ args = 0, pretend = 0, frame = 0
 918              		@ frame_needed = 0, uses_anonymous_args = 0
 919              		@ link register save eliminated.
 602:Drivers/STM32F7xx_HAL_Driver/Src/stm32f7xx_hal_hcd.c **** 
 920              		.loc 1 602 3 view .LVU256
 607:Drivers/STM32F7xx_HAL_Driver/Src/stm32f7xx_hal_hcd.c **** 
 921              		.loc 1 607 1 is_stmt 0 view .LVU257
 922 0000 7047     		bx	lr
 923              		.cfi_endproc
 924              	.LFE148:
 926              		.section	.text.HAL_HCD_PortEnabled_Callback,"ax",%progbits
 927              		.align	1
 928              		.weak	HAL_HCD_PortEnabled_Callback
 929              		.syntax unified
 930              		.thumb
 931              		.thumb_func
 932              		.fpu fpv5-sp-d16
 934              	HAL_HCD_PortEnabled_Callback:
 935              	.LVL72:
 936              	.LFB149:
 615:Drivers/STM32F7xx_HAL_Driver/Src/stm32f7xx_hal_hcd.c ****   /* Prevent unused argument(s) compilation warning */
 937              		.loc 1 615 1 is_stmt 1 view -0
 938              		.cfi_startproc
 939              		@ args = 0, pretend = 0, frame = 0
 940              		@ frame_needed = 0, uses_anonymous_args = 0
 941              		@ link register save eliminated.
 617:Drivers/STM32F7xx_HAL_Driver/Src/stm32f7xx_hal_hcd.c **** 
 942              		.loc 1 617 3 view .LVU259
 622:Drivers/STM32F7xx_HAL_Driver/Src/stm32f7xx_hal_hcd.c **** 
 943              		.loc 1 622 1 is_stmt 0 view .LVU260
 944 0000 7047     		bx	lr
 945              		.cfi_endproc
 946              	.LFE149:
 948              		.section	.text.HAL_HCD_PortDisabled_Callback,"ax",%progbits
 949              		.align	1
 950              		.weak	HAL_HCD_PortDisabled_Callback
 951              		.syntax unified
 952              		.thumb
 953              		.thumb_func
 954              		.fpu fpv5-sp-d16
 956              	HAL_HCD_PortDisabled_Callback:
 957              	.LVL73:
 958              	.LFB150:
 630:Drivers/STM32F7xx_HAL_Driver/Src/stm32f7xx_hal_hcd.c ****   /* Prevent unused argument(s) compilation warning */
 959              		.loc 1 630 1 is_stmt 1 view -0
 960              		.cfi_startproc
 961              		@ args = 0, pretend = 0, frame = 0
 962              		@ frame_needed = 0, uses_anonymous_args = 0
 963              		@ link register save eliminated.
 632:Drivers/STM32F7xx_HAL_Driver/Src/stm32f7xx_hal_hcd.c **** 
 964              		.loc 1 632 3 view .LVU262
 637:Drivers/STM32F7xx_HAL_Driver/Src/stm32f7xx_hal_hcd.c **** 
 965              		.loc 1 637 1 is_stmt 0 view .LVU263
 966 0000 7047     		bx	lr
 967              		.cfi_endproc
ARM GAS  C:\Users\Nina\AppData\Local\Temp\ccxRUdKh.s 			page 43


 968              	.LFE150:
 970              		.section	.text.HCD_Port_IRQHandler,"ax",%progbits
 971              		.align	1
 972              		.syntax unified
 973              		.thumb
 974              		.thumb_func
 975              		.fpu fpv5-sp-d16
 977              	HCD_Port_IRQHandler:
 978              	.LVL74:
 979              	.LFB164:
1211:Drivers/STM32F7xx_HAL_Driver/Src/stm32f7xx_hal_hcd.c **** 
1212:Drivers/STM32F7xx_HAL_Driver/Src/stm32f7xx_hal_hcd.c **** /**
1213:Drivers/STM32F7xx_HAL_Driver/Src/stm32f7xx_hal_hcd.c ****   * @brief  Handle Host Port interrupt requests.
1214:Drivers/STM32F7xx_HAL_Driver/Src/stm32f7xx_hal_hcd.c ****   * @param  hhcd HCD handle
1215:Drivers/STM32F7xx_HAL_Driver/Src/stm32f7xx_hal_hcd.c ****   * @retval None
1216:Drivers/STM32F7xx_HAL_Driver/Src/stm32f7xx_hal_hcd.c ****   */
1217:Drivers/STM32F7xx_HAL_Driver/Src/stm32f7xx_hal_hcd.c **** static void HCD_Port_IRQHandler (HCD_HandleTypeDef *hhcd)
1218:Drivers/STM32F7xx_HAL_Driver/Src/stm32f7xx_hal_hcd.c **** {
 980              		.loc 1 1218 1 is_stmt 1 view -0
 981              		.cfi_startproc
 982              		@ args = 0, pretend = 0, frame = 8
 983              		@ frame_needed = 0, uses_anonymous_args = 0
 984              		.loc 1 1218 1 is_stmt 0 view .LVU265
 985 0000 30B5     		push	{r4, r5, lr}
 986              	.LCFI15:
 987              		.cfi_def_cfa_offset 12
 988              		.cfi_offset 4, -12
 989              		.cfi_offset 5, -8
 990              		.cfi_offset 14, -4
 991 0002 83B0     		sub	sp, sp, #12
 992              	.LCFI16:
 993              		.cfi_def_cfa_offset 24
 994 0004 0446     		mov	r4, r0
1219:Drivers/STM32F7xx_HAL_Driver/Src/stm32f7xx_hal_hcd.c ****   USB_OTG_GlobalTypeDef *USBx = hhcd->Instance;
 995              		.loc 1 1219 3 is_stmt 1 view .LVU266
 996              		.loc 1 1219 26 is_stmt 0 view .LVU267
 997 0006 0568     		ldr	r5, [r0]
 998              	.LVL75:
1220:Drivers/STM32F7xx_HAL_Driver/Src/stm32f7xx_hal_hcd.c ****   uint32_t USBx_BASE = (uint32_t)USBx;
 999              		.loc 1 1220 3 is_stmt 1 view .LVU268
1221:Drivers/STM32F7xx_HAL_Driver/Src/stm32f7xx_hal_hcd.c ****   __IO uint32_t hprt0, hprt0_dup;
 1000              		.loc 1 1221 3 view .LVU269
1222:Drivers/STM32F7xx_HAL_Driver/Src/stm32f7xx_hal_hcd.c **** 
1223:Drivers/STM32F7xx_HAL_Driver/Src/stm32f7xx_hal_hcd.c ****   /* Handle Host Port Interrupts */
1224:Drivers/STM32F7xx_HAL_Driver/Src/stm32f7xx_hal_hcd.c ****   hprt0 = USBx_HPRT0;
 1001              		.loc 1 1224 3 view .LVU270
 1002              		.loc 1 1224 11 is_stmt 0 view .LVU271
 1003 0008 D5F84034 		ldr	r3, [r5, #1088]
 1004              		.loc 1 1224 9 view .LVU272
 1005 000c 0193     		str	r3, [sp, #4]
1225:Drivers/STM32F7xx_HAL_Driver/Src/stm32f7xx_hal_hcd.c ****   hprt0_dup = USBx_HPRT0;
 1006              		.loc 1 1225 3 is_stmt 1 view .LVU273
 1007              		.loc 1 1225 15 is_stmt 0 view .LVU274
 1008 000e D5F84034 		ldr	r3, [r5, #1088]
 1009              		.loc 1 1225 13 view .LVU275
 1010 0012 0093     		str	r3, [sp]
1226:Drivers/STM32F7xx_HAL_Driver/Src/stm32f7xx_hal_hcd.c **** 
ARM GAS  C:\Users\Nina\AppData\Local\Temp\ccxRUdKh.s 			page 44


1227:Drivers/STM32F7xx_HAL_Driver/Src/stm32f7xx_hal_hcd.c ****   hprt0_dup &= ~(USB_OTG_HPRT_PENA | USB_OTG_HPRT_PCDET |\
 1011              		.loc 1 1227 3 is_stmt 1 view .LVU276
 1012              		.loc 1 1227 13 is_stmt 0 view .LVU277
 1013 0014 009B     		ldr	r3, [sp]
 1014 0016 23F02E03 		bic	r3, r3, #46
 1015 001a 0093     		str	r3, [sp]
1228:Drivers/STM32F7xx_HAL_Driver/Src/stm32f7xx_hal_hcd.c ****                  USB_OTG_HPRT_PENCHNG | USB_OTG_HPRT_POCCHNG);
1229:Drivers/STM32F7xx_HAL_Driver/Src/stm32f7xx_hal_hcd.c **** 
1230:Drivers/STM32F7xx_HAL_Driver/Src/stm32f7xx_hal_hcd.c ****   /* Check whether Port Connect detected */
1231:Drivers/STM32F7xx_HAL_Driver/Src/stm32f7xx_hal_hcd.c ****   if((hprt0 & USB_OTG_HPRT_PCDET) == USB_OTG_HPRT_PCDET)
 1016              		.loc 1 1231 3 is_stmt 1 view .LVU278
 1017              		.loc 1 1231 13 is_stmt 0 view .LVU279
 1018 001c 019B     		ldr	r3, [sp, #4]
 1019              		.loc 1 1231 5 view .LVU280
 1020 001e 13F0020F 		tst	r3, #2
 1021 0022 07D0     		beq	.L63
1232:Drivers/STM32F7xx_HAL_Driver/Src/stm32f7xx_hal_hcd.c ****   {
1233:Drivers/STM32F7xx_HAL_Driver/Src/stm32f7xx_hal_hcd.c ****     if((hprt0 & USB_OTG_HPRT_PCSTS) == USB_OTG_HPRT_PCSTS)
 1022              		.loc 1 1233 5 is_stmt 1 view .LVU281
 1023              		.loc 1 1233 15 is_stmt 0 view .LVU282
 1024 0024 019B     		ldr	r3, [sp, #4]
 1025              		.loc 1 1233 7 view .LVU283
 1026 0026 13F0010F 		tst	r3, #1
 1027 002a 28D1     		bne	.L72
 1028              	.LVL76:
 1029              	.L64:
1234:Drivers/STM32F7xx_HAL_Driver/Src/stm32f7xx_hal_hcd.c ****     {
1235:Drivers/STM32F7xx_HAL_Driver/Src/stm32f7xx_hal_hcd.c ****       USB_MASK_INTERRUPT(hhcd->Instance, USB_OTG_GINTSTS_DISCINT);
1236:Drivers/STM32F7xx_HAL_Driver/Src/stm32f7xx_hal_hcd.c ****       HAL_HCD_Connect_Callback(hhcd);
1237:Drivers/STM32F7xx_HAL_Driver/Src/stm32f7xx_hal_hcd.c ****     }
1238:Drivers/STM32F7xx_HAL_Driver/Src/stm32f7xx_hal_hcd.c ****     hprt0_dup  |= USB_OTG_HPRT_PCDET;
 1030              		.loc 1 1238 5 is_stmt 1 view .LVU284
 1031              		.loc 1 1238 16 is_stmt 0 view .LVU285
 1032 002c 009B     		ldr	r3, [sp]
 1033 002e 43F00203 		orr	r3, r3, #2
 1034 0032 0093     		str	r3, [sp]
 1035              	.L63:
1239:Drivers/STM32F7xx_HAL_Driver/Src/stm32f7xx_hal_hcd.c ****   }
1240:Drivers/STM32F7xx_HAL_Driver/Src/stm32f7xx_hal_hcd.c **** 
1241:Drivers/STM32F7xx_HAL_Driver/Src/stm32f7xx_hal_hcd.c ****   /* Check whether Port Enable Changed */
1242:Drivers/STM32F7xx_HAL_Driver/Src/stm32f7xx_hal_hcd.c ****   if((hprt0 & USB_OTG_HPRT_PENCHNG) == USB_OTG_HPRT_PENCHNG)
 1036              		.loc 1 1242 3 is_stmt 1 view .LVU286
 1037              		.loc 1 1242 13 is_stmt 0 view .LVU287
 1038 0034 019B     		ldr	r3, [sp, #4]
 1039              		.loc 1 1242 5 view .LVU288
 1040 0036 13F0080F 		tst	r3, #8
 1041 003a 13D0     		beq	.L65
1243:Drivers/STM32F7xx_HAL_Driver/Src/stm32f7xx_hal_hcd.c ****   {
1244:Drivers/STM32F7xx_HAL_Driver/Src/stm32f7xx_hal_hcd.c ****     hprt0_dup |= USB_OTG_HPRT_PENCHNG;
 1042              		.loc 1 1244 5 is_stmt 1 view .LVU289
 1043              		.loc 1 1244 15 is_stmt 0 view .LVU290
 1044 003c 009B     		ldr	r3, [sp]
 1045 003e 43F00803 		orr	r3, r3, #8
 1046 0042 0093     		str	r3, [sp]
1245:Drivers/STM32F7xx_HAL_Driver/Src/stm32f7xx_hal_hcd.c **** 
1246:Drivers/STM32F7xx_HAL_Driver/Src/stm32f7xx_hal_hcd.c ****     if((hprt0 & USB_OTG_HPRT_PENA) == USB_OTG_HPRT_PENA)
 1047              		.loc 1 1246 5 is_stmt 1 view .LVU291
ARM GAS  C:\Users\Nina\AppData\Local\Temp\ccxRUdKh.s 			page 45


 1048              		.loc 1 1246 15 is_stmt 0 view .LVU292
 1049 0044 019B     		ldr	r3, [sp, #4]
 1050              		.loc 1 1246 7 view .LVU293
 1051 0046 13F0040F 		tst	r3, #4
 1052 004a 34D0     		beq	.L66
1247:Drivers/STM32F7xx_HAL_Driver/Src/stm32f7xx_hal_hcd.c ****     {
1248:Drivers/STM32F7xx_HAL_Driver/Src/stm32f7xx_hal_hcd.c ****       if(hhcd->Init.phy_itface  == USB_OTG_EMBEDDED_PHY)
 1053              		.loc 1 1248 7 is_stmt 1 view .LVU294
 1054              		.loc 1 1248 20 is_stmt 0 view .LVU295
 1055 004c A369     		ldr	r3, [r4, #24]
 1056              		.loc 1 1248 9 view .LVU296
 1057 004e 022B     		cmp	r3, #2
 1058 0050 1CD0     		beq	.L73
1249:Drivers/STM32F7xx_HAL_Driver/Src/stm32f7xx_hal_hcd.c ****       {
1250:Drivers/STM32F7xx_HAL_Driver/Src/stm32f7xx_hal_hcd.c ****         if ((hprt0 & USB_OTG_HPRT_PSPD) == (HPRT0_PRTSPD_LOW_SPEED << 17))
1251:Drivers/STM32F7xx_HAL_Driver/Src/stm32f7xx_hal_hcd.c ****         {
1252:Drivers/STM32F7xx_HAL_Driver/Src/stm32f7xx_hal_hcd.c ****           (void)USB_InitFSLSPClkSel(hhcd->Instance, HCFG_6_MHZ);
1253:Drivers/STM32F7xx_HAL_Driver/Src/stm32f7xx_hal_hcd.c ****         }
1254:Drivers/STM32F7xx_HAL_Driver/Src/stm32f7xx_hal_hcd.c ****         else
1255:Drivers/STM32F7xx_HAL_Driver/Src/stm32f7xx_hal_hcd.c ****         {
1256:Drivers/STM32F7xx_HAL_Driver/Src/stm32f7xx_hal_hcd.c ****           (void)USB_InitFSLSPClkSel(hhcd->Instance, HCFG_48_MHZ);
1257:Drivers/STM32F7xx_HAL_Driver/Src/stm32f7xx_hal_hcd.c ****         }
1258:Drivers/STM32F7xx_HAL_Driver/Src/stm32f7xx_hal_hcd.c ****       }
1259:Drivers/STM32F7xx_HAL_Driver/Src/stm32f7xx_hal_hcd.c ****       else
1260:Drivers/STM32F7xx_HAL_Driver/Src/stm32f7xx_hal_hcd.c ****       {
1261:Drivers/STM32F7xx_HAL_Driver/Src/stm32f7xx_hal_hcd.c ****         if(hhcd->Init.speed == HCD_SPEED_FULL)
 1059              		.loc 1 1261 9 is_stmt 1 view .LVU297
 1060              		.loc 1 1261 22 is_stmt 0 view .LVU298
 1061 0052 E368     		ldr	r3, [r4, #12]
 1062              		.loc 1 1261 11 view .LVU299
 1063 0054 032B     		cmp	r3, #3
 1064 0056 29D0     		beq	.L74
 1065              	.L69:
1262:Drivers/STM32F7xx_HAL_Driver/Src/stm32f7xx_hal_hcd.c ****         {
1263:Drivers/STM32F7xx_HAL_Driver/Src/stm32f7xx_hal_hcd.c ****           USBx_HOST->HFIR = 60000U;
1264:Drivers/STM32F7xx_HAL_Driver/Src/stm32f7xx_hal_hcd.c ****         }
1265:Drivers/STM32F7xx_HAL_Driver/Src/stm32f7xx_hal_hcd.c ****       }
1266:Drivers/STM32F7xx_HAL_Driver/Src/stm32f7xx_hal_hcd.c **** 
1267:Drivers/STM32F7xx_HAL_Driver/Src/stm32f7xx_hal_hcd.c ****       HAL_HCD_PortEnabled_Callback(hhcd);
 1066              		.loc 1 1267 7 is_stmt 1 view .LVU300
 1067 0058 2046     		mov	r0, r4
 1068 005a FFF7FEFF 		bl	HAL_HCD_PortEnabled_Callback
 1069              	.LVL77:
1268:Drivers/STM32F7xx_HAL_Driver/Src/stm32f7xx_hal_hcd.c ****       HAL_HCD_Connect_Callback(hhcd);
 1070              		.loc 1 1268 7 view .LVU301
 1071 005e 2046     		mov	r0, r4
 1072 0060 FFF7FEFF 		bl	HAL_HCD_Connect_Callback
 1073              	.LVL78:
 1074              	.L65:
1269:Drivers/STM32F7xx_HAL_Driver/Src/stm32f7xx_hal_hcd.c ****     }
1270:Drivers/STM32F7xx_HAL_Driver/Src/stm32f7xx_hal_hcd.c ****     else
1271:Drivers/STM32F7xx_HAL_Driver/Src/stm32f7xx_hal_hcd.c ****     {
1272:Drivers/STM32F7xx_HAL_Driver/Src/stm32f7xx_hal_hcd.c ****       HAL_HCD_PortDisabled_Callback(hhcd);
1273:Drivers/STM32F7xx_HAL_Driver/Src/stm32f7xx_hal_hcd.c **** 
1274:Drivers/STM32F7xx_HAL_Driver/Src/stm32f7xx_hal_hcd.c ****       /* Cleanup HPRT */
1275:Drivers/STM32F7xx_HAL_Driver/Src/stm32f7xx_hal_hcd.c ****       USBx_HPRT0 &= ~(USB_OTG_HPRT_PENA | USB_OTG_HPRT_PCDET |\
1276:Drivers/STM32F7xx_HAL_Driver/Src/stm32f7xx_hal_hcd.c ****         USB_OTG_HPRT_PENCHNG | USB_OTG_HPRT_POCCHNG );
ARM GAS  C:\Users\Nina\AppData\Local\Temp\ccxRUdKh.s 			page 46


1277:Drivers/STM32F7xx_HAL_Driver/Src/stm32f7xx_hal_hcd.c **** 
1278:Drivers/STM32F7xx_HAL_Driver/Src/stm32f7xx_hal_hcd.c ****       USB_UNMASK_INTERRUPT(hhcd->Instance, USB_OTG_GINTSTS_DISCINT);
1279:Drivers/STM32F7xx_HAL_Driver/Src/stm32f7xx_hal_hcd.c ****     }
1280:Drivers/STM32F7xx_HAL_Driver/Src/stm32f7xx_hal_hcd.c ****   }
1281:Drivers/STM32F7xx_HAL_Driver/Src/stm32f7xx_hal_hcd.c **** 
1282:Drivers/STM32F7xx_HAL_Driver/Src/stm32f7xx_hal_hcd.c ****   /* Check for an overcurrent */
1283:Drivers/STM32F7xx_HAL_Driver/Src/stm32f7xx_hal_hcd.c ****   if((hprt0 & USB_OTG_HPRT_POCCHNG) == USB_OTG_HPRT_POCCHNG)
 1075              		.loc 1 1283 3 view .LVU302
 1076              		.loc 1 1283 13 is_stmt 0 view .LVU303
 1077 0064 019B     		ldr	r3, [sp, #4]
 1078              		.loc 1 1283 5 view .LVU304
 1079 0066 13F0200F 		tst	r3, #32
 1080 006a 03D0     		beq	.L70
1284:Drivers/STM32F7xx_HAL_Driver/Src/stm32f7xx_hal_hcd.c ****   {
1285:Drivers/STM32F7xx_HAL_Driver/Src/stm32f7xx_hal_hcd.c ****     hprt0_dup |= USB_OTG_HPRT_POCCHNG;
 1081              		.loc 1 1285 5 is_stmt 1 view .LVU305
 1082              		.loc 1 1285 15 is_stmt 0 view .LVU306
 1083 006c 009B     		ldr	r3, [sp]
 1084 006e 43F02003 		orr	r3, r3, #32
 1085 0072 0093     		str	r3, [sp]
 1086              	.L70:
1286:Drivers/STM32F7xx_HAL_Driver/Src/stm32f7xx_hal_hcd.c ****   }
1287:Drivers/STM32F7xx_HAL_Driver/Src/stm32f7xx_hal_hcd.c **** 
1288:Drivers/STM32F7xx_HAL_Driver/Src/stm32f7xx_hal_hcd.c ****   /* Clear Port Interrupts */
1289:Drivers/STM32F7xx_HAL_Driver/Src/stm32f7xx_hal_hcd.c ****   USBx_HPRT0 = hprt0_dup;
 1087              		.loc 1 1289 3 is_stmt 1 view .LVU307
 1088              		.loc 1 1289 14 is_stmt 0 view .LVU308
 1089 0074 009B     		ldr	r3, [sp]
 1090 0076 C5F84034 		str	r3, [r5, #1088]
1290:Drivers/STM32F7xx_HAL_Driver/Src/stm32f7xx_hal_hcd.c **** }
 1091              		.loc 1 1290 1 view .LVU309
 1092 007a 03B0     		add	sp, sp, #12
 1093              	.LCFI17:
 1094              		.cfi_remember_state
 1095              		.cfi_def_cfa_offset 12
 1096              		@ sp needed
 1097 007c 30BD     		pop	{r4, r5, pc}
 1098              	.LVL79:
 1099              	.L72:
 1100              	.LCFI18:
 1101              		.cfi_restore_state
1235:Drivers/STM32F7xx_HAL_Driver/Src/stm32f7xx_hal_hcd.c ****       HAL_HCD_Connect_Callback(hhcd);
 1102              		.loc 1 1235 7 is_stmt 1 view .LVU310
 1103 007e AB69     		ldr	r3, [r5, #24]
 1104 0080 23F00053 		bic	r3, r3, #536870912
 1105 0084 AB61     		str	r3, [r5, #24]
1236:Drivers/STM32F7xx_HAL_Driver/Src/stm32f7xx_hal_hcd.c ****     }
 1106              		.loc 1 1236 7 view .LVU311
 1107 0086 FFF7FEFF 		bl	HAL_HCD_Connect_Callback
 1108              	.LVL80:
1236:Drivers/STM32F7xx_HAL_Driver/Src/stm32f7xx_hal_hcd.c ****     }
 1109              		.loc 1 1236 7 is_stmt 0 view .LVU312
 1110 008a CFE7     		b	.L64
 1111              	.L73:
1250:Drivers/STM32F7xx_HAL_Driver/Src/stm32f7xx_hal_hcd.c ****         {
 1112              		.loc 1 1250 9 is_stmt 1 view .LVU313
1250:Drivers/STM32F7xx_HAL_Driver/Src/stm32f7xx_hal_hcd.c ****         {
ARM GAS  C:\Users\Nina\AppData\Local\Temp\ccxRUdKh.s 			page 47


 1113              		.loc 1 1250 20 is_stmt 0 view .LVU314
 1114 008c 019B     		ldr	r3, [sp, #4]
 1115 008e 03F4C023 		and	r3, r3, #393216
1250:Drivers/STM32F7xx_HAL_Driver/Src/stm32f7xx_hal_hcd.c ****         {
 1116              		.loc 1 1250 12 view .LVU315
 1117 0092 B3F5802F 		cmp	r3, #262144
 1118 0096 04D0     		beq	.L75
1256:Drivers/STM32F7xx_HAL_Driver/Src/stm32f7xx_hal_hcd.c ****         }
 1119              		.loc 1 1256 11 is_stmt 1 view .LVU316
1256:Drivers/STM32F7xx_HAL_Driver/Src/stm32f7xx_hal_hcd.c ****         }
 1120              		.loc 1 1256 17 is_stmt 0 view .LVU317
 1121 0098 0121     		movs	r1, #1
 1122 009a 2068     		ldr	r0, [r4]
 1123 009c FFF7FEFF 		bl	USB_InitFSLSPClkSel
 1124              	.LVL81:
 1125 00a0 DAE7     		b	.L69
 1126              	.L75:
1252:Drivers/STM32F7xx_HAL_Driver/Src/stm32f7xx_hal_hcd.c ****         }
 1127              		.loc 1 1252 11 is_stmt 1 view .LVU318
1252:Drivers/STM32F7xx_HAL_Driver/Src/stm32f7xx_hal_hcd.c ****         }
 1128              		.loc 1 1252 17 is_stmt 0 view .LVU319
 1129 00a2 0221     		movs	r1, #2
 1130 00a4 2068     		ldr	r0, [r4]
 1131 00a6 FFF7FEFF 		bl	USB_InitFSLSPClkSel
 1132              	.LVL82:
 1133 00aa D5E7     		b	.L69
 1134              	.L74:
1263:Drivers/STM32F7xx_HAL_Driver/Src/stm32f7xx_hal_hcd.c ****         }
 1135              		.loc 1 1263 11 is_stmt 1 view .LVU320
1263:Drivers/STM32F7xx_HAL_Driver/Src/stm32f7xx_hal_hcd.c ****         }
 1136              		.loc 1 1263 27 is_stmt 0 view .LVU321
 1137 00ac 4EF66022 		movw	r2, #60000
 1138 00b0 C5F80424 		str	r2, [r5, #1028]
 1139 00b4 D0E7     		b	.L69
 1140              	.L66:
1272:Drivers/STM32F7xx_HAL_Driver/Src/stm32f7xx_hal_hcd.c **** 
 1141              		.loc 1 1272 7 is_stmt 1 view .LVU322
 1142 00b6 2046     		mov	r0, r4
 1143 00b8 FFF7FEFF 		bl	HAL_HCD_PortDisabled_Callback
 1144              	.LVL83:
1275:Drivers/STM32F7xx_HAL_Driver/Src/stm32f7xx_hal_hcd.c ****         USB_OTG_HPRT_PENCHNG | USB_OTG_HPRT_POCCHNG );
 1145              		.loc 1 1275 7 view .LVU323
1275:Drivers/STM32F7xx_HAL_Driver/Src/stm32f7xx_hal_hcd.c ****         USB_OTG_HPRT_PENCHNG | USB_OTG_HPRT_POCCHNG );
 1146              		.loc 1 1275 18 is_stmt 0 view .LVU324
 1147 00bc D5F84034 		ldr	r3, [r5, #1088]
 1148 00c0 23F02E03 		bic	r3, r3, #46
 1149 00c4 C5F84034 		str	r3, [r5, #1088]
1278:Drivers/STM32F7xx_HAL_Driver/Src/stm32f7xx_hal_hcd.c ****     }
 1150              		.loc 1 1278 7 is_stmt 1 view .LVU325
 1151 00c8 2268     		ldr	r2, [r4]
 1152 00ca 9369     		ldr	r3, [r2, #24]
 1153 00cc 43F00053 		orr	r3, r3, #536870912
 1154 00d0 9361     		str	r3, [r2, #24]
 1155 00d2 C7E7     		b	.L65
 1156              		.cfi_endproc
 1157              	.LFE164:
 1159              		.section	.text.HAL_HCD_HC_NotifyURBChange_Callback,"ax",%progbits
ARM GAS  C:\Users\Nina\AppData\Local\Temp\ccxRUdKh.s 			page 48


 1160              		.align	1
 1161              		.weak	HAL_HCD_HC_NotifyURBChange_Callback
 1162              		.syntax unified
 1163              		.thumb
 1164              		.thumb_func
 1165              		.fpu fpv5-sp-d16
 1167              	HAL_HCD_HC_NotifyURBChange_Callback:
 1168              	.LVL84:
 1169              	.LFB151:
 655:Drivers/STM32F7xx_HAL_Driver/Src/stm32f7xx_hal_hcd.c ****   /* Prevent unused argument(s) compilation warning */
 1170              		.loc 1 655 1 view -0
 1171              		.cfi_startproc
 1172              		@ args = 0, pretend = 0, frame = 0
 1173              		@ frame_needed = 0, uses_anonymous_args = 0
 1174              		@ link register save eliminated.
 657:Drivers/STM32F7xx_HAL_Driver/Src/stm32f7xx_hal_hcd.c ****   UNUSED(chnum);
 1175              		.loc 1 657 3 view .LVU327
 658:Drivers/STM32F7xx_HAL_Driver/Src/stm32f7xx_hal_hcd.c ****   UNUSED(urb_state);
 1176              		.loc 1 658 3 view .LVU328
 659:Drivers/STM32F7xx_HAL_Driver/Src/stm32f7xx_hal_hcd.c **** 
 1177              		.loc 1 659 3 view .LVU329
 664:Drivers/STM32F7xx_HAL_Driver/Src/stm32f7xx_hal_hcd.c **** 
 1178              		.loc 1 664 1 is_stmt 0 view .LVU330
 1179 0000 7047     		bx	lr
 1180              		.cfi_endproc
 1181              	.LFE151:
 1183              		.section	.text.HCD_HC_IN_IRQHandler,"ax",%progbits
 1184              		.align	1
 1185              		.syntax unified
 1186              		.thumb
 1187              		.thumb_func
 1188              		.fpu fpv5-sp-d16
 1190              	HCD_HC_IN_IRQHandler:
 1191              	.LVL85:
 1192              	.LFB161:
 845:Drivers/STM32F7xx_HAL_Driver/Src/stm32f7xx_hal_hcd.c ****   USB_OTG_GlobalTypeDef *USBx = hhcd->Instance;
 1193              		.loc 1 845 1 is_stmt 1 view -0
 1194              		.cfi_startproc
 1195              		@ args = 0, pretend = 0, frame = 0
 1196              		@ frame_needed = 0, uses_anonymous_args = 0
 845:Drivers/STM32F7xx_HAL_Driver/Src/stm32f7xx_hal_hcd.c ****   USB_OTG_GlobalTypeDef *USBx = hhcd->Instance;
 1197              		.loc 1 845 1 is_stmt 0 view .LVU332
 1198 0000 F8B5     		push	{r3, r4, r5, r6, r7, lr}
 1199              	.LCFI19:
 1200              		.cfi_def_cfa_offset 24
 1201              		.cfi_offset 3, -24
 1202              		.cfi_offset 4, -20
 1203              		.cfi_offset 5, -16
 1204              		.cfi_offset 6, -12
 1205              		.cfi_offset 7, -8
 1206              		.cfi_offset 14, -4
 1207 0002 0646     		mov	r6, r0
 1208 0004 0C46     		mov	r4, r1
 846:Drivers/STM32F7xx_HAL_Driver/Src/stm32f7xx_hal_hcd.c ****   uint32_t USBx_BASE = (uint32_t)USBx;
 1209              		.loc 1 846 3 is_stmt 1 view .LVU333
 846:Drivers/STM32F7xx_HAL_Driver/Src/stm32f7xx_hal_hcd.c ****   uint32_t USBx_BASE = (uint32_t)USBx;
 1210              		.loc 1 846 26 is_stmt 0 view .LVU334
ARM GAS  C:\Users\Nina\AppData\Local\Temp\ccxRUdKh.s 			page 49


 1211 0006 0768     		ldr	r7, [r0]
 1212              	.LVL86:
 847:Drivers/STM32F7xx_HAL_Driver/Src/stm32f7xx_hal_hcd.c ****   uint32_t ch_num = (uint32_t)chnum;
 1213              		.loc 1 847 3 is_stmt 1 view .LVU335
 848:Drivers/STM32F7xx_HAL_Driver/Src/stm32f7xx_hal_hcd.c **** 
 1214              		.loc 1 848 3 view .LVU336
 850:Drivers/STM32F7xx_HAL_Driver/Src/stm32f7xx_hal_hcd.c **** 
 1215              		.loc 1 850 3 view .LVU337
 852:Drivers/STM32F7xx_HAL_Driver/Src/stm32f7xx_hal_hcd.c ****   {
 1216              		.loc 1 852 3 view .LVU338
 852:Drivers/STM32F7xx_HAL_Driver/Src/stm32f7xx_hal_hcd.c ****   {
 1217              		.loc 1 852 8 is_stmt 0 view .LVU339
 1218 0008 07EB4117 		add	r7, r7, r1, lsl #5
 1219              	.LVL87:
 852:Drivers/STM32F7xx_HAL_Driver/Src/stm32f7xx_hal_hcd.c ****   {
 1220              		.loc 1 852 8 view .LVU340
 1221 000c 07F5A065 		add	r5, r7, #1280
 852:Drivers/STM32F7xx_HAL_Driver/Src/stm32f7xx_hal_hcd.c ****   {
 1222              		.loc 1 852 23 view .LVU341
 1223 0010 AB68     		ldr	r3, [r5, #8]
 852:Drivers/STM32F7xx_HAL_Driver/Src/stm32f7xx_hal_hcd.c ****   {
 1224              		.loc 1 852 6 view .LVU342
 1225 0012 13F0040F 		tst	r3, #4
 1226 0016 3CD0     		beq	.L78
 854:Drivers/STM32F7xx_HAL_Driver/Src/stm32f7xx_hal_hcd.c ****     __HAL_HCD_UNMASK_HALT_HC_INT(ch_num);
 1227              		.loc 1 854 5 is_stmt 1 view .LVU343
 1228 0018 0423     		movs	r3, #4
 1229 001a AB60     		str	r3, [r5, #8]
 1230              	.LVL88:
 855:Drivers/STM32F7xx_HAL_Driver/Src/stm32f7xx_hal_hcd.c ****   }
 1231              		.loc 1 855 5 view .LVU344
 1232 001c EB68     		ldr	r3, [r5, #12]
 1233 001e 43F00203 		orr	r3, r3, #2
 1234 0022 EB60     		str	r3, [r5, #12]
 1235              	.LVL89:
 1236              	.L79:
 880:Drivers/STM32F7xx_HAL_Driver/Src/stm32f7xx_hal_hcd.c **** 
 1237              		.loc 1 880 3 view .LVU345
 882:Drivers/STM32F7xx_HAL_Driver/Src/stm32f7xx_hal_hcd.c ****   {
 1238              		.loc 1 882 3 view .LVU346
 882:Drivers/STM32F7xx_HAL_Driver/Src/stm32f7xx_hal_hcd.c ****   {
 1239              		.loc 1 882 23 is_stmt 0 view .LVU347
 1240 0024 AB68     		ldr	r3, [r5, #8]
 882:Drivers/STM32F7xx_HAL_Driver/Src/stm32f7xx_hal_hcd.c ****   {
 1241              		.loc 1 882 6 view .LVU348
 1242 0026 13F4007F 		tst	r3, #512
 1243 002a 68D1     		bne	.L99
 888:Drivers/STM32F7xx_HAL_Driver/Src/stm32f7xx_hal_hcd.c ****   {
 1244              		.loc 1 888 8 is_stmt 1 view .LVU349
 888:Drivers/STM32F7xx_HAL_Driver/Src/stm32f7xx_hal_hcd.c ****   {
 1245              		.loc 1 888 28 is_stmt 0 view .LVU350
 1246 002c AB68     		ldr	r3, [r5, #8]
 888:Drivers/STM32F7xx_HAL_Driver/Src/stm32f7xx_hal_hcd.c ****   {
 1247              		.loc 1 888 11 view .LVU351
 1248 002e 13F0010F 		tst	r3, #1
 1249 0032 00F08D80 		beq	.L84
 890:Drivers/STM32F7xx_HAL_Driver/Src/stm32f7xx_hal_hcd.c ****     {
ARM GAS  C:\Users\Nina\AppData\Local\Temp\ccxRUdKh.s 			page 50


 1250              		.loc 1 890 5 is_stmt 1 view .LVU352
 890:Drivers/STM32F7xx_HAL_Driver/Src/stm32f7xx_hal_hcd.c ****     {
 1251              		.loc 1 890 19 is_stmt 0 view .LVU353
 1252 0036 3369     		ldr	r3, [r6, #16]
 890:Drivers/STM32F7xx_HAL_Driver/Src/stm32f7xx_hal_hcd.c ****     {
 1253              		.loc 1 890 8 view .LVU354
 1254 0038 4BB1     		cbz	r3, .L85
 892:Drivers/STM32F7xx_HAL_Driver/Src/stm32f7xx_hal_hcd.c ****                                (USBx_HC(ch_num)->HCTSIZ & USB_OTG_HCTSIZ_XFRSIZ);
 1255              		.loc 1 892 7 is_stmt 1 view .LVU355
 892:Drivers/STM32F7xx_HAL_Driver/Src/stm32f7xx_hal_hcd.c ****                                (USBx_HC(ch_num)->HCTSIZ & USB_OTG_HCTSIZ_XFRSIZ);
 1256              		.loc 1 892 53 is_stmt 0 view .LVU356
 1257 003a 04EB8403 		add	r3, r4, r4, lsl #2
 1258 003e 06EBC303 		add	r3, r6, r3, lsl #3
 1259 0042 9A6C     		ldr	r2, [r3, #72]
 893:Drivers/STM32F7xx_HAL_Driver/Src/stm32f7xx_hal_hcd.c ****     }
 1260              		.loc 1 893 48 view .LVU357
 1261 0044 2969     		ldr	r1, [r5, #16]
 893:Drivers/STM32F7xx_HAL_Driver/Src/stm32f7xx_hal_hcd.c ****     }
 1262              		.loc 1 893 57 view .LVU358
 1263 0046 C1F31201 		ubfx	r1, r1, #0, #19
 892:Drivers/STM32F7xx_HAL_Driver/Src/stm32f7xx_hal_hcd.c ****                                (USBx_HC(ch_num)->HCTSIZ & USB_OTG_HCTSIZ_XFRSIZ);
 1264              		.loc 1 892 63 view .LVU359
 1265 004a 521A     		subs	r2, r2, r1
 892:Drivers/STM32F7xx_HAL_Driver/Src/stm32f7xx_hal_hcd.c ****                                (USBx_HC(ch_num)->HCTSIZ & USB_OTG_HCTSIZ_XFRSIZ);
 1266              		.loc 1 892 35 view .LVU360
 1267 004c DA64     		str	r2, [r3, #76]
 1268              	.L85:
 896:Drivers/STM32F7xx_HAL_Driver/Src/stm32f7xx_hal_hcd.c ****     hhcd->hc[ch_num].ErrCnt = 0U;
 1269              		.loc 1 896 5 is_stmt 1 view .LVU361
 896:Drivers/STM32F7xx_HAL_Driver/Src/stm32f7xx_hal_hcd.c ****     hhcd->hc[ch_num].ErrCnt = 0U;
 1270              		.loc 1 896 28 is_stmt 0 view .LVU362
 1271 004e 04EB8403 		add	r3, r4, r4, lsl #2
 1272 0052 06EBC303 		add	r3, r6, r3, lsl #3
 1273 0056 0122     		movs	r2, #1
 1274 0058 83F85D20 		strb	r2, [r3, #93]
 897:Drivers/STM32F7xx_HAL_Driver/Src/stm32f7xx_hal_hcd.c ****     __HAL_HCD_CLEAR_HC_INT(ch_num, USB_OTG_HCINT_XFRC);
 1275              		.loc 1 897 5 is_stmt 1 view .LVU363
 897:Drivers/STM32F7xx_HAL_Driver/Src/stm32f7xx_hal_hcd.c ****     __HAL_HCD_CLEAR_HC_INT(ch_num, USB_OTG_HCINT_XFRC);
 1276              		.loc 1 897 29 is_stmt 0 view .LVU364
 1277 005c 0021     		movs	r1, #0
 1278 005e 9965     		str	r1, [r3, #88]
 898:Drivers/STM32F7xx_HAL_Driver/Src/stm32f7xx_hal_hcd.c **** 
 1279              		.loc 1 898 5 is_stmt 1 view .LVU365
 1280 0060 AA60     		str	r2, [r5, #8]
 900:Drivers/STM32F7xx_HAL_Driver/Src/stm32f7xx_hal_hcd.c ****         (hhcd->hc[ch_num].ep_type == EP_TYPE_BULK))
 1281              		.loc 1 900 5 view .LVU366
 900:Drivers/STM32F7xx_HAL_Driver/Src/stm32f7xx_hal_hcd.c ****         (hhcd->hc[ch_num].ep_type == EP_TYPE_BULK))
 1282              		.loc 1 900 26 is_stmt 0 view .LVU367
 1283 0062 93F83F20 		ldrb	r2, [r3, #63]	@ zero_extendqisi2
 900:Drivers/STM32F7xx_HAL_Driver/Src/stm32f7xx_hal_hcd.c ****         (hhcd->hc[ch_num].ep_type == EP_TYPE_BULK))
 1284              		.loc 1 900 51 view .LVU368
 1285 0066 022A     		cmp	r2, #2
 1286 0068 14BF     		ite	ne
 1287 006a 0023     		movne	r3, #0
 1288 006c 0123     		moveq	r3, #1
 1289 006e 8A42     		cmp	r2, r1
 1290 0070 08BF     		it	eq
ARM GAS  C:\Users\Nina\AppData\Local\Temp\ccxRUdKh.s 			page 51


 1291 0072 0123     		moveq	r3, #1
 900:Drivers/STM32F7xx_HAL_Driver/Src/stm32f7xx_hal_hcd.c ****         (hhcd->hc[ch_num].ep_type == EP_TYPE_BULK))
 1292              		.loc 1 900 8 view .LVU369
 1293 0074 002B     		cmp	r3, #0
 1294 0076 4ED1     		bne	.L100
 907:Drivers/STM32F7xx_HAL_Driver/Src/stm32f7xx_hal_hcd.c ****     {
 1295              		.loc 1 907 10 is_stmt 1 view .LVU370
 907:Drivers/STM32F7xx_HAL_Driver/Src/stm32f7xx_hal_hcd.c ****     {
 1296              		.loc 1 907 12 is_stmt 0 view .LVU371
 1297 0078 032A     		cmp	r2, #3
 1298 007a 57D0     		beq	.L101
 1299              	.L87:
 916:Drivers/STM32F7xx_HAL_Driver/Src/stm32f7xx_hal_hcd.c ****     hhcd->hc[ch_num].toggle_in ^= 1U;
 1300              		.loc 1 916 5 is_stmt 1 view .LVU372
 917:Drivers/STM32F7xx_HAL_Driver/Src/stm32f7xx_hal_hcd.c **** 
 1301              		.loc 1 917 5 view .LVU373
 917:Drivers/STM32F7xx_HAL_Driver/Src/stm32f7xx_hal_hcd.c **** 
 1302              		.loc 1 917 32 is_stmt 0 view .LVU374
 1303 007c 04EB8403 		add	r3, r4, r4, lsl #2
 1304 0080 06EBC303 		add	r3, r6, r3, lsl #3
 1305 0084 93F85020 		ldrb	r2, [r3, #80]	@ zero_extendqisi2
 1306 0088 82F00102 		eor	r2, r2, #1
 1307 008c 83F85020 		strb	r2, [r3, #80]
 1308              	.L77:
1005:Drivers/STM32F7xx_HAL_Driver/Src/stm32f7xx_hal_hcd.c **** 
 1309              		.loc 1 1005 1 view .LVU375
 1310 0090 F8BD     		pop	{r3, r4, r5, r6, r7, pc}
 1311              	.LVL90:
 1312              	.L78:
 857:Drivers/STM32F7xx_HAL_Driver/Src/stm32f7xx_hal_hcd.c ****   {
 1313              		.loc 1 857 8 is_stmt 1 view .LVU376
 857:Drivers/STM32F7xx_HAL_Driver/Src/stm32f7xx_hal_hcd.c ****   {
 1314              		.loc 1 857 28 is_stmt 0 view .LVU377
 1315 0092 AB68     		ldr	r3, [r5, #8]
 857:Drivers/STM32F7xx_HAL_Driver/Src/stm32f7xx_hal_hcd.c ****   {
 1316              		.loc 1 857 11 view .LVU378
 1317 0094 13F0200F 		tst	r3, #32
 1318 0098 02D0     		beq	.L80
 859:Drivers/STM32F7xx_HAL_Driver/Src/stm32f7xx_hal_hcd.c ****   }
 1319              		.loc 1 859 5 is_stmt 1 view .LVU379
 1320 009a 2023     		movs	r3, #32
 1321 009c AB60     		str	r3, [r5, #8]
 1322              	.LVL91:
 859:Drivers/STM32F7xx_HAL_Driver/Src/stm32f7xx_hal_hcd.c ****   }
 1323              		.loc 1 859 5 is_stmt 0 view .LVU380
 1324 009e C1E7     		b	.L79
 1325              	.LVL92:
 1326              	.L80:
 861:Drivers/STM32F7xx_HAL_Driver/Src/stm32f7xx_hal_hcd.c ****   {
 1327              		.loc 1 861 8 is_stmt 1 view .LVU381
 861:Drivers/STM32F7xx_HAL_Driver/Src/stm32f7xx_hal_hcd.c ****   {
 1328              		.loc 1 861 28 is_stmt 0 view .LVU382
 1329 00a0 AB68     		ldr	r3, [r5, #8]
 861:Drivers/STM32F7xx_HAL_Driver/Src/stm32f7xx_hal_hcd.c ****   {
 1330              		.loc 1 861 11 view .LVU383
 1331 00a2 13F0080F 		tst	r3, #8
 1332 00a6 17D1     		bne	.L102
ARM GAS  C:\Users\Nina\AppData\Local\Temp\ccxRUdKh.s 			page 52


 869:Drivers/STM32F7xx_HAL_Driver/Src/stm32f7xx_hal_hcd.c ****   {
 1333              		.loc 1 869 8 is_stmt 1 view .LVU384
 869:Drivers/STM32F7xx_HAL_Driver/Src/stm32f7xx_hal_hcd.c ****   {
 1334              		.loc 1 869 28 is_stmt 0 view .LVU385
 1335 00a8 AB68     		ldr	r3, [r5, #8]
 869:Drivers/STM32F7xx_HAL_Driver/Src/stm32f7xx_hal_hcd.c ****   {
 1336              		.loc 1 869 11 view .LVU386
 1337 00aa 13F4806F 		tst	r3, #1024
 1338 00ae B9D0     		beq	.L79
 871:Drivers/STM32F7xx_HAL_Driver/Src/stm32f7xx_hal_hcd.c ****     (void)USB_HC_Halt(hhcd->Instance, (uint8_t)ch_num);
 1339              		.loc 1 871 5 is_stmt 1 view .LVU387
 1340 00b0 EB68     		ldr	r3, [r5, #12]
 1341 00b2 43F00203 		orr	r3, r3, #2
 1342 00b6 EB60     		str	r3, [r5, #12]
 1343              	.LVL93:
 872:Drivers/STM32F7xx_HAL_Driver/Src/stm32f7xx_hal_hcd.c ****     __HAL_HCD_CLEAR_HC_INT(ch_num, USB_OTG_HCINT_NAK);
 1344              		.loc 1 872 5 view .LVU388
 872:Drivers/STM32F7xx_HAL_Driver/Src/stm32f7xx_hal_hcd.c ****     __HAL_HCD_CLEAR_HC_INT(ch_num, USB_OTG_HCINT_NAK);
 1345              		.loc 1 872 11 is_stmt 0 view .LVU389
 1346 00b8 0068     		ldr	r0, [r0]
 1347              	.LVL94:
 872:Drivers/STM32F7xx_HAL_Driver/Src/stm32f7xx_hal_hcd.c ****     __HAL_HCD_CLEAR_HC_INT(ch_num, USB_OTG_HCINT_NAK);
 1348              		.loc 1 872 11 view .LVU390
 1349 00ba FFF7FEFF 		bl	USB_HC_Halt
 1350              	.LVL95:
 873:Drivers/STM32F7xx_HAL_Driver/Src/stm32f7xx_hal_hcd.c ****     hhcd->hc[ch_num].state = HC_DATATGLERR;
 1351              		.loc 1 873 5 is_stmt 1 view .LVU391
 1352 00be 1023     		movs	r3, #16
 1353 00c0 AB60     		str	r3, [r5, #8]
 874:Drivers/STM32F7xx_HAL_Driver/Src/stm32f7xx_hal_hcd.c ****     __HAL_HCD_CLEAR_HC_INT(ch_num, USB_OTG_HCINT_DTERR);
 1354              		.loc 1 874 5 view .LVU392
 874:Drivers/STM32F7xx_HAL_Driver/Src/stm32f7xx_hal_hcd.c ****     __HAL_HCD_CLEAR_HC_INT(ch_num, USB_OTG_HCINT_DTERR);
 1355              		.loc 1 874 28 is_stmt 0 view .LVU393
 1356 00c2 04EB8403 		add	r3, r4, r4, lsl #2
 1357 00c6 06EBC303 		add	r3, r6, r3, lsl #3
 1358 00ca 0822     		movs	r2, #8
 1359 00cc 83F85D20 		strb	r2, [r3, #93]
 875:Drivers/STM32F7xx_HAL_Driver/Src/stm32f7xx_hal_hcd.c ****   }
 1360              		.loc 1 875 5 is_stmt 1 view .LVU394
 1361 00d0 4FF48063 		mov	r3, #1024
 1362 00d4 AB60     		str	r3, [r5, #8]
 1363 00d6 A5E7     		b	.L79
 1364              	.LVL96:
 1365              	.L102:
 863:Drivers/STM32F7xx_HAL_Driver/Src/stm32f7xx_hal_hcd.c ****     hhcd->hc[ch_num].state = HC_STALL;
 1366              		.loc 1 863 5 view .LVU395
 1367 00d8 EB68     		ldr	r3, [r5, #12]
 1368 00da 43F00203 		orr	r3, r3, #2
 1369 00de EB60     		str	r3, [r5, #12]
 1370              	.LVL97:
 864:Drivers/STM32F7xx_HAL_Driver/Src/stm32f7xx_hal_hcd.c ****     __HAL_HCD_CLEAR_HC_INT(ch_num, USB_OTG_HCINT_NAK);
 1371              		.loc 1 864 5 view .LVU396
 864:Drivers/STM32F7xx_HAL_Driver/Src/stm32f7xx_hal_hcd.c ****     __HAL_HCD_CLEAR_HC_INT(ch_num, USB_OTG_HCINT_NAK);
 1372              		.loc 1 864 28 is_stmt 0 view .LVU397
 1373 00e0 01EB8103 		add	r3, r1, r1, lsl #2
 1374 00e4 00EBC303 		add	r3, r0, r3, lsl #3
 1375 00e8 0522     		movs	r2, #5
ARM GAS  C:\Users\Nina\AppData\Local\Temp\ccxRUdKh.s 			page 53


 1376 00ea 83F85D20 		strb	r2, [r3, #93]
 865:Drivers/STM32F7xx_HAL_Driver/Src/stm32f7xx_hal_hcd.c ****     __HAL_HCD_CLEAR_HC_INT(ch_num, USB_OTG_HCINT_STALL);
 1377              		.loc 1 865 5 is_stmt 1 view .LVU398
 1378 00ee 1023     		movs	r3, #16
 1379 00f0 AB60     		str	r3, [r5, #8]
 866:Drivers/STM32F7xx_HAL_Driver/Src/stm32f7xx_hal_hcd.c ****     (void)USB_HC_Halt(hhcd->Instance, (uint8_t)ch_num);
 1380              		.loc 1 866 5 view .LVU399
 1381 00f2 0823     		movs	r3, #8
 1382 00f4 AB60     		str	r3, [r5, #8]
 867:Drivers/STM32F7xx_HAL_Driver/Src/stm32f7xx_hal_hcd.c ****   }
 1383              		.loc 1 867 5 view .LVU400
 867:Drivers/STM32F7xx_HAL_Driver/Src/stm32f7xx_hal_hcd.c ****   }
 1384              		.loc 1 867 11 is_stmt 0 view .LVU401
 1385 00f6 0068     		ldr	r0, [r0]
 1386              	.LVL98:
 867:Drivers/STM32F7xx_HAL_Driver/Src/stm32f7xx_hal_hcd.c ****   }
 1387              		.loc 1 867 11 view .LVU402
 1388 00f8 FFF7FEFF 		bl	USB_HC_Halt
 1389              	.LVL99:
 867:Drivers/STM32F7xx_HAL_Driver/Src/stm32f7xx_hal_hcd.c ****   }
 1390              		.loc 1 867 11 view .LVU403
 1391 00fc 92E7     		b	.L79
 1392              	.L99:
 884:Drivers/STM32F7xx_HAL_Driver/Src/stm32f7xx_hal_hcd.c ****     (void)USB_HC_Halt(hhcd->Instance, (uint8_t)ch_num);
 1393              		.loc 1 884 5 is_stmt 1 view .LVU404
 1394 00fe EB68     		ldr	r3, [r5, #12]
 1395 0100 43F00203 		orr	r3, r3, #2
 1396 0104 EB60     		str	r3, [r5, #12]
 885:Drivers/STM32F7xx_HAL_Driver/Src/stm32f7xx_hal_hcd.c ****     __HAL_HCD_CLEAR_HC_INT(ch_num, USB_OTG_HCINT_FRMOR);
 1397              		.loc 1 885 5 view .LVU405
 885:Drivers/STM32F7xx_HAL_Driver/Src/stm32f7xx_hal_hcd.c ****     __HAL_HCD_CLEAR_HC_INT(ch_num, USB_OTG_HCINT_FRMOR);
 1398              		.loc 1 885 11 is_stmt 0 view .LVU406
 1399 0106 2146     		mov	r1, r4
 1400 0108 3068     		ldr	r0, [r6]
 1401 010a FFF7FEFF 		bl	USB_HC_Halt
 1402              	.LVL100:
 886:Drivers/STM32F7xx_HAL_Driver/Src/stm32f7xx_hal_hcd.c ****   }
 1403              		.loc 1 886 5 is_stmt 1 view .LVU407
 1404 010e 4FF40073 		mov	r3, #512
 1405 0112 AB60     		str	r3, [r5, #8]
 1406 0114 BCE7     		b	.L77
 1407              	.L100:
 903:Drivers/STM32F7xx_HAL_Driver/Src/stm32f7xx_hal_hcd.c ****       (void)USB_HC_Halt(hhcd->Instance, (uint8_t)ch_num);
 1408              		.loc 1 903 7 view .LVU408
 1409 0116 EB68     		ldr	r3, [r5, #12]
 1410 0118 43F00203 		orr	r3, r3, #2
 1411 011c EB60     		str	r3, [r5, #12]
 904:Drivers/STM32F7xx_HAL_Driver/Src/stm32f7xx_hal_hcd.c ****       __HAL_HCD_CLEAR_HC_INT(ch_num, USB_OTG_HCINT_NAK);
 1412              		.loc 1 904 7 view .LVU409
 904:Drivers/STM32F7xx_HAL_Driver/Src/stm32f7xx_hal_hcd.c ****       __HAL_HCD_CLEAR_HC_INT(ch_num, USB_OTG_HCINT_NAK);
 1413              		.loc 1 904 13 is_stmt 0 view .LVU410
 1414 011e 2146     		mov	r1, r4
 1415 0120 3068     		ldr	r0, [r6]
 1416 0122 FFF7FEFF 		bl	USB_HC_Halt
 1417              	.LVL101:
 905:Drivers/STM32F7xx_HAL_Driver/Src/stm32f7xx_hal_hcd.c ****     }
 1418              		.loc 1 905 7 is_stmt 1 view .LVU411
ARM GAS  C:\Users\Nina\AppData\Local\Temp\ccxRUdKh.s 			page 54


 1419 0126 1023     		movs	r3, #16
 1420 0128 AB60     		str	r3, [r5, #8]
 1421 012a A7E7     		b	.L87
 1422              	.L101:
 909:Drivers/STM32F7xx_HAL_Driver/Src/stm32f7xx_hal_hcd.c ****       hhcd->hc[ch_num].urb_state = URB_DONE;
 1423              		.loc 1 909 7 view .LVU412
 909:Drivers/STM32F7xx_HAL_Driver/Src/stm32f7xx_hal_hcd.c ****       hhcd->hc[ch_num].urb_state = URB_DONE;
 1424              		.loc 1 909 31 is_stmt 0 view .LVU413
 1425 012c D7F80035 		ldr	r3, [r7, #1280]
 1426 0130 43F00053 		orr	r3, r3, #536870912
 1427 0134 C7F80035 		str	r3, [r7, #1280]
 910:Drivers/STM32F7xx_HAL_Driver/Src/stm32f7xx_hal_hcd.c ****       HAL_HCD_HC_NotifyURBChange_Callback(hhcd, (uint8_t)ch_num, hhcd->hc[ch_num].urb_state);
 1428              		.loc 1 910 7 is_stmt 1 view .LVU414
 910:Drivers/STM32F7xx_HAL_Driver/Src/stm32f7xx_hal_hcd.c ****       HAL_HCD_HC_NotifyURBChange_Callback(hhcd, (uint8_t)ch_num, hhcd->hc[ch_num].urb_state);
 1429              		.loc 1 910 34 is_stmt 0 view .LVU415
 1430 0138 04EB8403 		add	r3, r4, r4, lsl #2
 1431 013c 06EBC303 		add	r3, r6, r3, lsl #3
 1432 0140 0122     		movs	r2, #1
 1433 0142 83F85C20 		strb	r2, [r3, #92]
 911:Drivers/STM32F7xx_HAL_Driver/Src/stm32f7xx_hal_hcd.c ****     }
 1434              		.loc 1 911 7 is_stmt 1 view .LVU416
 1435 0146 2146     		mov	r1, r4
 1436 0148 3046     		mov	r0, r6
 1437 014a FFF7FEFF 		bl	HAL_HCD_HC_NotifyURBChange_Callback
 1438              	.LVL102:
 1439 014e 95E7     		b	.L87
 1440              	.L84:
 920:Drivers/STM32F7xx_HAL_Driver/Src/stm32f7xx_hal_hcd.c ****   {
 1441              		.loc 1 920 8 view .LVU417
 920:Drivers/STM32F7xx_HAL_Driver/Src/stm32f7xx_hal_hcd.c ****   {
 1442              		.loc 1 920 28 is_stmt 0 view .LVU418
 1443 0150 AB68     		ldr	r3, [r5, #8]
 920:Drivers/STM32F7xx_HAL_Driver/Src/stm32f7xx_hal_hcd.c ****   {
 1444              		.loc 1 920 11 view .LVU419
 1445 0152 13F0020F 		tst	r3, #2
 1446 0156 5FD0     		beq	.L88
 922:Drivers/STM32F7xx_HAL_Driver/Src/stm32f7xx_hal_hcd.c **** 
 1447              		.loc 1 922 5 is_stmt 1 view .LVU420
 1448 0158 EB68     		ldr	r3, [r5, #12]
 1449 015a 23F00203 		bic	r3, r3, #2
 1450 015e EB60     		str	r3, [r5, #12]
 924:Drivers/STM32F7xx_HAL_Driver/Src/stm32f7xx_hal_hcd.c ****     {
 1451              		.loc 1 924 5 view .LVU421
 924:Drivers/STM32F7xx_HAL_Driver/Src/stm32f7xx_hal_hcd.c ****     {
 1452              		.loc 1 924 24 is_stmt 0 view .LVU422
 1453 0160 04EB8403 		add	r3, r4, r4, lsl #2
 1454 0164 06EBC303 		add	r3, r6, r3, lsl #3
 1455 0168 93F85D30 		ldrb	r3, [r3, #93]	@ zero_extendqisi2
 924:Drivers/STM32F7xx_HAL_Driver/Src/stm32f7xx_hal_hcd.c ****     {
 1456              		.loc 1 924 7 view .LVU423
 1457 016c 012B     		cmp	r3, #1
 1458 016e 1DD0     		beq	.L103
 928:Drivers/STM32F7xx_HAL_Driver/Src/stm32f7xx_hal_hcd.c ****     {
 1459              		.loc 1 928 10 is_stmt 1 view .LVU424
 928:Drivers/STM32F7xx_HAL_Driver/Src/stm32f7xx_hal_hcd.c ****     {
 1460              		.loc 1 928 13 is_stmt 0 view .LVU425
 1461 0170 052B     		cmp	r3, #5
ARM GAS  C:\Users\Nina\AppData\Local\Temp\ccxRUdKh.s 			page 55


 1462 0172 2FD0     		beq	.L104
 932:Drivers/STM32F7xx_HAL_Driver/Src/stm32f7xx_hal_hcd.c ****             (hhcd->hc[ch_num].state == HC_DATATGLERR))
 1463              		.loc 1 932 10 is_stmt 1 view .LVU426
 932:Drivers/STM32F7xx_HAL_Driver/Src/stm32f7xx_hal_hcd.c ****             (hhcd->hc[ch_num].state == HC_DATATGLERR))
 1464              		.loc 1 932 12 is_stmt 0 view .LVU427
 1465 0174 082B     		cmp	r3, #8
 1466 0176 18BF     		it	ne
 1467 0178 062B     		cmpne	r3, #6
 1468 017a 3BD1     		bne	.L92
 935:Drivers/STM32F7xx_HAL_Driver/Src/stm32f7xx_hal_hcd.c ****       if(hhcd->hc[ch_num].ErrCnt > 3U)
 1469              		.loc 1 935 7 is_stmt 1 view .LVU428
 935:Drivers/STM32F7xx_HAL_Driver/Src/stm32f7xx_hal_hcd.c ****       if(hhcd->hc[ch_num].ErrCnt > 3U)
 1470              		.loc 1 935 23 is_stmt 0 view .LVU429
 1471 017c 04EB8402 		add	r2, r4, r4, lsl #2
 1472 0180 06EBC202 		add	r2, r6, r2, lsl #3
 1473 0184 936D     		ldr	r3, [r2, #88]
 935:Drivers/STM32F7xx_HAL_Driver/Src/stm32f7xx_hal_hcd.c ****       if(hhcd->hc[ch_num].ErrCnt > 3U)
 1474              		.loc 1 935 30 view .LVU430
 1475 0186 0133     		adds	r3, r3, #1
 1476 0188 9365     		str	r3, [r2, #88]
 936:Drivers/STM32F7xx_HAL_Driver/Src/stm32f7xx_hal_hcd.c ****       {
 1477              		.loc 1 936 7 is_stmt 1 view .LVU431
 936:Drivers/STM32F7xx_HAL_Driver/Src/stm32f7xx_hal_hcd.c ****       {
 1478              		.loc 1 936 9 is_stmt 0 view .LVU432
 1479 018a 032B     		cmp	r3, #3
 1480 018c 2AD9     		bls	.L93
 938:Drivers/STM32F7xx_HAL_Driver/Src/stm32f7xx_hal_hcd.c ****         hhcd->hc[ch_num].urb_state = URB_ERROR;
 1481              		.loc 1 938 9 is_stmt 1 view .LVU433
 938:Drivers/STM32F7xx_HAL_Driver/Src/stm32f7xx_hal_hcd.c ****         hhcd->hc[ch_num].urb_state = URB_ERROR;
 1482              		.loc 1 938 33 is_stmt 0 view .LVU434
 1483 018e 1346     		mov	r3, r2
 1484 0190 0022     		movs	r2, #0
 1485 0192 9A65     		str	r2, [r3, #88]
 939:Drivers/STM32F7xx_HAL_Driver/Src/stm32f7xx_hal_hcd.c ****       }
 1486              		.loc 1 939 9 is_stmt 1 view .LVU435
 939:Drivers/STM32F7xx_HAL_Driver/Src/stm32f7xx_hal_hcd.c ****       }
 1487              		.loc 1 939 36 is_stmt 0 view .LVU436
 1488 0194 0422     		movs	r2, #4
 1489 0196 83F85C20 		strb	r2, [r3, #92]
 1490              	.L94:
 947:Drivers/STM32F7xx_HAL_Driver/Src/stm32f7xx_hal_hcd.c ****       tmpreg &= ~USB_OTG_HCCHAR_CHDIS;
 1491              		.loc 1 947 7 is_stmt 1 view .LVU437
 947:Drivers/STM32F7xx_HAL_Driver/Src/stm32f7xx_hal_hcd.c ****       tmpreg &= ~USB_OTG_HCCHAR_CHDIS;
 1492              		.loc 1 947 14 is_stmt 0 view .LVU438
 1493 019a D7F80035 		ldr	r3, [r7, #1280]
 1494              	.LVL103:
 948:Drivers/STM32F7xx_HAL_Driver/Src/stm32f7xx_hal_hcd.c ****       tmpreg |= USB_OTG_HCCHAR_CHENA;
 1495              		.loc 1 948 7 is_stmt 1 view .LVU439
 948:Drivers/STM32F7xx_HAL_Driver/Src/stm32f7xx_hal_hcd.c ****       tmpreg |= USB_OTG_HCCHAR_CHENA;
 1496              		.loc 1 948 14 is_stmt 0 view .LVU440
 1497 019e 23F08043 		bic	r3, r3, #1073741824
 1498              	.LVL104:
 949:Drivers/STM32F7xx_HAL_Driver/Src/stm32f7xx_hal_hcd.c ****       USBx_HC(ch_num)->HCCHAR = tmpreg;
 1499              		.loc 1 949 7 is_stmt 1 view .LVU441
 949:Drivers/STM32F7xx_HAL_Driver/Src/stm32f7xx_hal_hcd.c ****       USBx_HC(ch_num)->HCCHAR = tmpreg;
 1500              		.loc 1 949 14 is_stmt 0 view .LVU442
 1501 01a2 43F00043 		orr	r3, r3, #-2147483648
ARM GAS  C:\Users\Nina\AppData\Local\Temp\ccxRUdKh.s 			page 56


 1502              	.LVL105:
 950:Drivers/STM32F7xx_HAL_Driver/Src/stm32f7xx_hal_hcd.c ****     }
 1503              		.loc 1 950 7 is_stmt 1 view .LVU443
 950:Drivers/STM32F7xx_HAL_Driver/Src/stm32f7xx_hal_hcd.c ****     }
 1504              		.loc 1 950 31 is_stmt 0 view .LVU444
 1505 01a6 C7F80035 		str	r3, [r7, #1280]
 1506 01aa 06E0     		b	.L90
 1507              	.LVL106:
 1508              	.L103:
 926:Drivers/STM32F7xx_HAL_Driver/Src/stm32f7xx_hal_hcd.c ****     }
 1509              		.loc 1 926 7 is_stmt 1 view .LVU445
 926:Drivers/STM32F7xx_HAL_Driver/Src/stm32f7xx_hal_hcd.c ****     }
 1510              		.loc 1 926 35 is_stmt 0 view .LVU446
 1511 01ac 04EB8403 		add	r3, r4, r4, lsl #2
 1512 01b0 06EBC303 		add	r3, r6, r3, lsl #3
 1513 01b4 0122     		movs	r2, #1
 1514 01b6 83F85C20 		strb	r2, [r3, #92]
 1515              	.L90:
 964:Drivers/STM32F7xx_HAL_Driver/Src/stm32f7xx_hal_hcd.c ****     __HAL_HCD_CLEAR_HC_INT(ch_num, USB_OTG_HCINT_CHH);
 1516              		.loc 1 964 5 is_stmt 1 view .LVU447
 965:Drivers/STM32F7xx_HAL_Driver/Src/stm32f7xx_hal_hcd.c ****     HAL_HCD_HC_NotifyURBChange_Callback(hhcd, (uint8_t)ch_num, hhcd->hc[ch_num].urb_state);
 1517              		.loc 1 965 5 view .LVU448
 1518 01ba 0223     		movs	r3, #2
 1519 01bc AB60     		str	r3, [r5, #8]
 966:Drivers/STM32F7xx_HAL_Driver/Src/stm32f7xx_hal_hcd.c ****   }
 1520              		.loc 1 966 5 view .LVU449
 1521 01be 04EB8403 		add	r3, r4, r4, lsl #2
 1522 01c2 06EBC303 		add	r3, r6, r3, lsl #3
 1523 01c6 93F85C20 		ldrb	r2, [r3, #92]	@ zero_extendqisi2
 1524 01ca 2146     		mov	r1, r4
 1525 01cc 3046     		mov	r0, r6
 1526 01ce FFF7FEFF 		bl	HAL_HCD_HC_NotifyURBChange_Callback
 1527              	.LVL107:
 1528 01d2 5DE7     		b	.L77
 1529              	.L104:
 930:Drivers/STM32F7xx_HAL_Driver/Src/stm32f7xx_hal_hcd.c ****     }
 1530              		.loc 1 930 7 view .LVU450
 930:Drivers/STM32F7xx_HAL_Driver/Src/stm32f7xx_hal_hcd.c ****     }
 1531              		.loc 1 930 35 is_stmt 0 view .LVU451
 1532 01d4 04EB8403 		add	r3, r4, r4, lsl #2
 1533 01d8 06EBC303 		add	r3, r6, r3, lsl #3
 1534 01dc 0522     		movs	r2, #5
 1535 01de 83F85C20 		strb	r2, [r3, #92]
 1536 01e2 EAE7     		b	.L90
 1537              	.L93:
 943:Drivers/STM32F7xx_HAL_Driver/Src/stm32f7xx_hal_hcd.c ****       }
 1538              		.loc 1 943 9 is_stmt 1 view .LVU452
 943:Drivers/STM32F7xx_HAL_Driver/Src/stm32f7xx_hal_hcd.c ****       }
 1539              		.loc 1 943 36 is_stmt 0 view .LVU453
 1540 01e4 04EB8403 		add	r3, r4, r4, lsl #2
 1541 01e8 06EBC303 		add	r3, r6, r3, lsl #3
 1542 01ec 0222     		movs	r2, #2
 1543 01ee 83F85C20 		strb	r2, [r3, #92]
 1544 01f2 D2E7     		b	.L94
 1545              	.L92:
 952:Drivers/STM32F7xx_HAL_Driver/Src/stm32f7xx_hal_hcd.c ****     {
 1546              		.loc 1 952 10 is_stmt 1 view .LVU454
ARM GAS  C:\Users\Nina\AppData\Local\Temp\ccxRUdKh.s 			page 57


 952:Drivers/STM32F7xx_HAL_Driver/Src/stm32f7xx_hal_hcd.c ****     {
 1547              		.loc 1 952 13 is_stmt 0 view .LVU455
 1548 01f4 032B     		cmp	r3, #3
 1549 01f6 E0D1     		bne	.L90
 954:Drivers/STM32F7xx_HAL_Driver/Src/stm32f7xx_hal_hcd.c ****       /* re-activate the channel  */
 1550              		.loc 1 954 7 is_stmt 1 view .LVU456
 954:Drivers/STM32F7xx_HAL_Driver/Src/stm32f7xx_hal_hcd.c ****       /* re-activate the channel  */
 1551              		.loc 1 954 35 is_stmt 0 view .LVU457
 1552 01f8 04EB8403 		add	r3, r4, r4, lsl #2
 1553 01fc 06EBC303 		add	r3, r6, r3, lsl #3
 1554 0200 0222     		movs	r2, #2
 1555 0202 83F85C20 		strb	r2, [r3, #92]
 956:Drivers/STM32F7xx_HAL_Driver/Src/stm32f7xx_hal_hcd.c ****       tmpreg &= ~USB_OTG_HCCHAR_CHDIS;
 1556              		.loc 1 956 7 is_stmt 1 view .LVU458
 956:Drivers/STM32F7xx_HAL_Driver/Src/stm32f7xx_hal_hcd.c ****       tmpreg &= ~USB_OTG_HCCHAR_CHDIS;
 1557              		.loc 1 956 14 is_stmt 0 view .LVU459
 1558 0206 D7F80035 		ldr	r3, [r7, #1280]
 1559              	.LVL108:
 957:Drivers/STM32F7xx_HAL_Driver/Src/stm32f7xx_hal_hcd.c ****       tmpreg |= USB_OTG_HCCHAR_CHENA;
 1560              		.loc 1 957 7 is_stmt 1 view .LVU460
 957:Drivers/STM32F7xx_HAL_Driver/Src/stm32f7xx_hal_hcd.c ****       tmpreg |= USB_OTG_HCCHAR_CHENA;
 1561              		.loc 1 957 14 is_stmt 0 view .LVU461
 1562 020a 23F08043 		bic	r3, r3, #1073741824
 1563              	.LVL109:
 958:Drivers/STM32F7xx_HAL_Driver/Src/stm32f7xx_hal_hcd.c ****       USBx_HC(ch_num)->HCCHAR = tmpreg;
 1564              		.loc 1 958 7 is_stmt 1 view .LVU462
 958:Drivers/STM32F7xx_HAL_Driver/Src/stm32f7xx_hal_hcd.c ****       USBx_HC(ch_num)->HCCHAR = tmpreg;
 1565              		.loc 1 958 14 is_stmt 0 view .LVU463
 1566 020e 43F00043 		orr	r3, r3, #-2147483648
 1567              	.LVL110:
 959:Drivers/STM32F7xx_HAL_Driver/Src/stm32f7xx_hal_hcd.c ****     }
 1568              		.loc 1 959 7 is_stmt 1 view .LVU464
 959:Drivers/STM32F7xx_HAL_Driver/Src/stm32f7xx_hal_hcd.c ****     }
 1569              		.loc 1 959 31 is_stmt 0 view .LVU465
 1570 0212 C7F80035 		str	r3, [r7, #1280]
 1571 0216 D0E7     		b	.L90
 1572              	.LVL111:
 1573              	.L88:
 968:Drivers/STM32F7xx_HAL_Driver/Src/stm32f7xx_hal_hcd.c ****   {
 1574              		.loc 1 968 8 is_stmt 1 view .LVU466
 968:Drivers/STM32F7xx_HAL_Driver/Src/stm32f7xx_hal_hcd.c ****   {
 1575              		.loc 1 968 28 is_stmt 0 view .LVU467
 1576 0218 AB68     		ldr	r3, [r5, #8]
 968:Drivers/STM32F7xx_HAL_Driver/Src/stm32f7xx_hal_hcd.c ****   {
 1577              		.loc 1 968 11 view .LVU468
 1578 021a 13F0800F 		tst	r3, #128
 1579 021e 20D1     		bne	.L105
 976:Drivers/STM32F7xx_HAL_Driver/Src/stm32f7xx_hal_hcd.c ****   {
 1580              		.loc 1 976 8 is_stmt 1 view .LVU469
 976:Drivers/STM32F7xx_HAL_Driver/Src/stm32f7xx_hal_hcd.c ****   {
 1581              		.loc 1 976 28 is_stmt 0 view .LVU470
 1582 0220 AB68     		ldr	r3, [r5, #8]
 976:Drivers/STM32F7xx_HAL_Driver/Src/stm32f7xx_hal_hcd.c ****   {
 1583              		.loc 1 976 11 view .LVU471
 1584 0222 13F0100F 		tst	r3, #16
 1585 0226 3FF433AF 		beq	.L77
 978:Drivers/STM32F7xx_HAL_Driver/Src/stm32f7xx_hal_hcd.c ****     {
ARM GAS  C:\Users\Nina\AppData\Local\Temp\ccxRUdKh.s 			page 58


 1586              		.loc 1 978 5 is_stmt 1 view .LVU472
 978:Drivers/STM32F7xx_HAL_Driver/Src/stm32f7xx_hal_hcd.c ****     {
 1587              		.loc 1 978 24 is_stmt 0 view .LVU473
 1588 022a 04EB8403 		add	r3, r4, r4, lsl #2
 1589 022e 06EBC303 		add	r3, r6, r3, lsl #3
 1590 0232 93F83F30 		ldrb	r3, [r3, #63]	@ zero_extendqisi2
 978:Drivers/STM32F7xx_HAL_Driver/Src/stm32f7xx_hal_hcd.c ****     {
 1591              		.loc 1 978 7 view .LVU474
 1592 0236 032B     		cmp	r3, #3
 1593 0238 2CD0     		beq	.L106
 984:Drivers/STM32F7xx_HAL_Driver/Src/stm32f7xx_hal_hcd.c ****              (hhcd->hc[ch_num].ep_type == EP_TYPE_BULK))
 1594              		.loc 1 984 10 is_stmt 1 view .LVU475
 984:Drivers/STM32F7xx_HAL_Driver/Src/stm32f7xx_hal_hcd.c ****              (hhcd->hc[ch_num].ep_type == EP_TYPE_BULK))
 1595              		.loc 1 984 56 is_stmt 0 view .LVU476
 1596 023a 022B     		cmp	r3, #2
 1597 023c 14BF     		ite	ne
 1598 023e 0022     		movne	r2, #0
 1599 0240 0122     		moveq	r2, #1
 1600 0242 002B     		cmp	r3, #0
 1601 0244 14BF     		ite	ne
 1602 0246 1346     		movne	r3, r2
 1603 0248 0123     		moveq	r3, #1
 984:Drivers/STM32F7xx_HAL_Driver/Src/stm32f7xx_hal_hcd.c ****              (hhcd->hc[ch_num].ep_type == EP_TYPE_BULK))
 1604              		.loc 1 984 13 view .LVU477
 1605 024a 3BB1     		cbz	r3, .L97
 987:Drivers/STM32F7xx_HAL_Driver/Src/stm32f7xx_hal_hcd.c ****        if (hhcd->Init.dma_enable == 0U)
 1606              		.loc 1 987 8 is_stmt 1 view .LVU478
 987:Drivers/STM32F7xx_HAL_Driver/Src/stm32f7xx_hal_hcd.c ****        if (hhcd->Init.dma_enable == 0U)
 1607              		.loc 1 987 32 is_stmt 0 view .LVU479
 1608 024c 04EB8403 		add	r3, r4, r4, lsl #2
 1609 0250 06EBC303 		add	r3, r6, r3, lsl #3
 1610 0254 0022     		movs	r2, #0
 1611 0256 9A65     		str	r2, [r3, #88]
 988:Drivers/STM32F7xx_HAL_Driver/Src/stm32f7xx_hal_hcd.c ****        {
 1612              		.loc 1 988 8 is_stmt 1 view .LVU480
 988:Drivers/STM32F7xx_HAL_Driver/Src/stm32f7xx_hal_hcd.c ****        {
 1613              		.loc 1 988 22 is_stmt 0 view .LVU481
 1614 0258 3369     		ldr	r3, [r6, #16]
 988:Drivers/STM32F7xx_HAL_Driver/Src/stm32f7xx_hal_hcd.c ****        {
 1615              		.loc 1 988 11 view .LVU482
 1616 025a 53B3     		cbz	r3, .L107
 1617              	.L97:
 998:Drivers/STM32F7xx_HAL_Driver/Src/stm32f7xx_hal_hcd.c ****     __HAL_HCD_CLEAR_HC_INT(ch_num, USB_OTG_HCINT_NAK);
 1618              		.loc 1 998 5 is_stmt 1 view .LVU483
 999:Drivers/STM32F7xx_HAL_Driver/Src/stm32f7xx_hal_hcd.c ****   }
 1619              		.loc 1 999 5 view .LVU484
 1620 025c 1023     		movs	r3, #16
 1621 025e AB60     		str	r3, [r5, #8]
1004:Drivers/STM32F7xx_HAL_Driver/Src/stm32f7xx_hal_hcd.c **** }
 1622              		.loc 1 1004 3 view .LVU485
1005:Drivers/STM32F7xx_HAL_Driver/Src/stm32f7xx_hal_hcd.c **** 
 1623              		.loc 1 1005 1 is_stmt 0 view .LVU486
 1624 0260 16E7     		b	.L77
 1625              	.L105:
 970:Drivers/STM32F7xx_HAL_Driver/Src/stm32f7xx_hal_hcd.c ****     hhcd->hc[ch_num].ErrCnt++;
 1626              		.loc 1 970 5 is_stmt 1 view .LVU487
 1627 0262 EB68     		ldr	r3, [r5, #12]
ARM GAS  C:\Users\Nina\AppData\Local\Temp\ccxRUdKh.s 			page 59


 1628 0264 43F00203 		orr	r3, r3, #2
 1629 0268 EB60     		str	r3, [r5, #12]
 971:Drivers/STM32F7xx_HAL_Driver/Src/stm32f7xx_hal_hcd.c ****     hhcd->hc[ch_num].state = HC_XACTERR;
 1630              		.loc 1 971 5 view .LVU488
 971:Drivers/STM32F7xx_HAL_Driver/Src/stm32f7xx_hal_hcd.c ****     hhcd->hc[ch_num].state = HC_XACTERR;
 1631              		.loc 1 971 21 is_stmt 0 view .LVU489
 1632 026a 04EB8403 		add	r3, r4, r4, lsl #2
 1633 026e 06EBC303 		add	r3, r6, r3, lsl #3
 1634 0272 9A6D     		ldr	r2, [r3, #88]
 971:Drivers/STM32F7xx_HAL_Driver/Src/stm32f7xx_hal_hcd.c ****     hhcd->hc[ch_num].state = HC_XACTERR;
 1635              		.loc 1 971 28 view .LVU490
 1636 0274 0132     		adds	r2, r2, #1
 1637 0276 9A65     		str	r2, [r3, #88]
 972:Drivers/STM32F7xx_HAL_Driver/Src/stm32f7xx_hal_hcd.c ****     (void)USB_HC_Halt(hhcd->Instance, (uint8_t)ch_num);
 1638              		.loc 1 972 5 is_stmt 1 view .LVU491
 972:Drivers/STM32F7xx_HAL_Driver/Src/stm32f7xx_hal_hcd.c ****     (void)USB_HC_Halt(hhcd->Instance, (uint8_t)ch_num);
 1639              		.loc 1 972 28 is_stmt 0 view .LVU492
 1640 0278 04EB8403 		add	r3, r4, r4, lsl #2
 1641 027c 06EBC303 		add	r3, r6, r3, lsl #3
 1642 0280 0622     		movs	r2, #6
 1643 0282 83F85D20 		strb	r2, [r3, #93]
 973:Drivers/STM32F7xx_HAL_Driver/Src/stm32f7xx_hal_hcd.c ****     __HAL_HCD_CLEAR_HC_INT(ch_num, USB_OTG_HCINT_TXERR);
 1644              		.loc 1 973 5 is_stmt 1 view .LVU493
 973:Drivers/STM32F7xx_HAL_Driver/Src/stm32f7xx_hal_hcd.c ****     __HAL_HCD_CLEAR_HC_INT(ch_num, USB_OTG_HCINT_TXERR);
 1645              		.loc 1 973 11 is_stmt 0 view .LVU494
 1646 0286 2146     		mov	r1, r4
 1647 0288 3068     		ldr	r0, [r6]
 1648 028a FFF7FEFF 		bl	USB_HC_Halt
 1649              	.LVL112:
 974:Drivers/STM32F7xx_HAL_Driver/Src/stm32f7xx_hal_hcd.c ****   }
 1650              		.loc 1 974 5 is_stmt 1 view .LVU495
 1651 028e 8023     		movs	r3, #128
 1652 0290 AB60     		str	r3, [r5, #8]
 1653 0292 FDE6     		b	.L77
 1654              	.L106:
 980:Drivers/STM32F7xx_HAL_Driver/Src/stm32f7xx_hal_hcd.c ****       __HAL_HCD_UNMASK_HALT_HC_INT(ch_num);
 1655              		.loc 1 980 7 view .LVU496
 980:Drivers/STM32F7xx_HAL_Driver/Src/stm32f7xx_hal_hcd.c ****       __HAL_HCD_UNMASK_HALT_HC_INT(ch_num);
 1656              		.loc 1 980 31 is_stmt 0 view .LVU497
 1657 0294 04EB8403 		add	r3, r4, r4, lsl #2
 1658 0298 06EBC303 		add	r3, r6, r3, lsl #3
 1659 029c 0022     		movs	r2, #0
 1660 029e 9A65     		str	r2, [r3, #88]
 981:Drivers/STM32F7xx_HAL_Driver/Src/stm32f7xx_hal_hcd.c ****       (void)USB_HC_Halt(hhcd->Instance, (uint8_t)ch_num);
 1661              		.loc 1 981 7 is_stmt 1 view .LVU498
 1662 02a0 EB68     		ldr	r3, [r5, #12]
 1663 02a2 43F00203 		orr	r3, r3, #2
 1664 02a6 EB60     		str	r3, [r5, #12]
 982:Drivers/STM32F7xx_HAL_Driver/Src/stm32f7xx_hal_hcd.c ****     }
 1665              		.loc 1 982 7 view .LVU499
 982:Drivers/STM32F7xx_HAL_Driver/Src/stm32f7xx_hal_hcd.c ****     }
 1666              		.loc 1 982 13 is_stmt 0 view .LVU500
 1667 02a8 2146     		mov	r1, r4
 1668 02aa 3068     		ldr	r0, [r6]
 1669 02ac FFF7FEFF 		bl	USB_HC_Halt
 1670              	.LVL113:
 1671 02b0 D4E7     		b	.L97
ARM GAS  C:\Users\Nina\AppData\Local\Temp\ccxRUdKh.s 			page 60


 1672              	.L107:
 990:Drivers/STM32F7xx_HAL_Driver/Src/stm32f7xx_hal_hcd.c ****          __HAL_HCD_UNMASK_HALT_HC_INT(ch_num);
 1673              		.loc 1 990 10 is_stmt 1 view .LVU501
 990:Drivers/STM32F7xx_HAL_Driver/Src/stm32f7xx_hal_hcd.c ****          __HAL_HCD_UNMASK_HALT_HC_INT(ch_num);
 1674              		.loc 1 990 33 is_stmt 0 view .LVU502
 1675 02b2 04EB8403 		add	r3, r4, r4, lsl #2
 1676 02b6 06EBC303 		add	r3, r6, r3, lsl #3
 1677 02ba 0322     		movs	r2, #3
 1678 02bc 83F85D20 		strb	r2, [r3, #93]
 991:Drivers/STM32F7xx_HAL_Driver/Src/stm32f7xx_hal_hcd.c ****          (void)USB_HC_Halt(hhcd->Instance, (uint8_t)ch_num);
 1679              		.loc 1 991 10 is_stmt 1 view .LVU503
 1680 02c0 EB68     		ldr	r3, [r5, #12]
 1681 02c2 43F00203 		orr	r3, r3, #2
 1682 02c6 EB60     		str	r3, [r5, #12]
 992:Drivers/STM32F7xx_HAL_Driver/Src/stm32f7xx_hal_hcd.c ****        }
 1683              		.loc 1 992 10 view .LVU504
 992:Drivers/STM32F7xx_HAL_Driver/Src/stm32f7xx_hal_hcd.c ****        }
 1684              		.loc 1 992 16 is_stmt 0 view .LVU505
 1685 02c8 2146     		mov	r1, r4
 1686 02ca 3068     		ldr	r0, [r6]
 1687 02cc FFF7FEFF 		bl	USB_HC_Halt
 1688              	.LVL114:
 1689 02d0 C4E7     		b	.L97
 1690              		.cfi_endproc
 1691              	.LFE161:
 1693              		.section	.text.HCD_HC_OUT_IRQHandler,"ax",%progbits
 1694              		.align	1
 1695              		.syntax unified
 1696              		.thumb
 1697              		.thumb_func
 1698              		.fpu fpv5-sp-d16
 1700              	HCD_HC_OUT_IRQHandler:
 1701              	.LVL115:
 1702              	.LFB162:
1015:Drivers/STM32F7xx_HAL_Driver/Src/stm32f7xx_hal_hcd.c ****   USB_OTG_GlobalTypeDef *USBx = hhcd->Instance;
 1703              		.loc 1 1015 1 is_stmt 1 view -0
 1704              		.cfi_startproc
 1705              		@ args = 0, pretend = 0, frame = 0
 1706              		@ frame_needed = 0, uses_anonymous_args = 0
1015:Drivers/STM32F7xx_HAL_Driver/Src/stm32f7xx_hal_hcd.c ****   USB_OTG_GlobalTypeDef *USBx = hhcd->Instance;
 1707              		.loc 1 1015 1 is_stmt 0 view .LVU507
 1708 0000 F8B5     		push	{r3, r4, r5, r6, r7, lr}
 1709              	.LCFI20:
 1710              		.cfi_def_cfa_offset 24
 1711              		.cfi_offset 3, -24
 1712              		.cfi_offset 4, -20
 1713              		.cfi_offset 5, -16
 1714              		.cfi_offset 6, -12
 1715              		.cfi_offset 7, -8
 1716              		.cfi_offset 14, -4
1016:Drivers/STM32F7xx_HAL_Driver/Src/stm32f7xx_hal_hcd.c ****   uint32_t USBx_BASE = (uint32_t)USBx;
 1717              		.loc 1 1016 3 is_stmt 1 view .LVU508
1016:Drivers/STM32F7xx_HAL_Driver/Src/stm32f7xx_hal_hcd.c ****   uint32_t USBx_BASE = (uint32_t)USBx;
 1718              		.loc 1 1016 26 is_stmt 0 view .LVU509
 1719 0002 0368     		ldr	r3, [r0]
 1720              	.LVL116:
1017:Drivers/STM32F7xx_HAL_Driver/Src/stm32f7xx_hal_hcd.c ****   uint32_t ch_num = (uint32_t)chnum;
ARM GAS  C:\Users\Nina\AppData\Local\Temp\ccxRUdKh.s 			page 61


 1721              		.loc 1 1017 3 is_stmt 1 view .LVU510
1018:Drivers/STM32F7xx_HAL_Driver/Src/stm32f7xx_hal_hcd.c ****   uint32_t tmpreg;
 1722              		.loc 1 1018 3 view .LVU511
1019:Drivers/STM32F7xx_HAL_Driver/Src/stm32f7xx_hal_hcd.c **** 
 1723              		.loc 1 1019 3 view .LVU512
1021:Drivers/STM32F7xx_HAL_Driver/Src/stm32f7xx_hal_hcd.c ****   {
 1724              		.loc 1 1021 3 view .LVU513
1021:Drivers/STM32F7xx_HAL_Driver/Src/stm32f7xx_hal_hcd.c ****   {
 1725              		.loc 1 1021 8 is_stmt 0 view .LVU514
 1726 0004 03EB4113 		add	r3, r3, r1, lsl #5
 1727              	.LVL117:
1021:Drivers/STM32F7xx_HAL_Driver/Src/stm32f7xx_hal_hcd.c ****   {
 1728              		.loc 1 1021 8 view .LVU515
 1729 0008 03F5A065 		add	r5, r3, #1280
1021:Drivers/STM32F7xx_HAL_Driver/Src/stm32f7xx_hal_hcd.c ****   {
 1730              		.loc 1 1021 23 view .LVU516
 1731 000c AA68     		ldr	r2, [r5, #8]
1021:Drivers/STM32F7xx_HAL_Driver/Src/stm32f7xx_hal_hcd.c ****   {
 1732              		.loc 1 1021 6 view .LVU517
 1733 000e 12F0040F 		tst	r2, #4
 1734 0012 06D0     		beq	.L109
1023:Drivers/STM32F7xx_HAL_Driver/Src/stm32f7xx_hal_hcd.c ****     __HAL_HCD_UNMASK_HALT_HC_INT(ch_num);
 1735              		.loc 1 1023 5 is_stmt 1 view .LVU518
 1736 0014 0423     		movs	r3, #4
 1737 0016 AB60     		str	r3, [r5, #8]
 1738              	.LVL118:
1024:Drivers/STM32F7xx_HAL_Driver/Src/stm32f7xx_hal_hcd.c ****   }
 1739              		.loc 1 1024 5 view .LVU519
 1740 0018 EB68     		ldr	r3, [r5, #12]
 1741 001a 43F00203 		orr	r3, r3, #2
 1742 001e EB60     		str	r3, [r5, #12]
 1743              	.LVL119:
 1744              	.L108:
1156:Drivers/STM32F7xx_HAL_Driver/Src/stm32f7xx_hal_hcd.c **** 
 1745              		.loc 1 1156 1 is_stmt 0 view .LVU520
 1746 0020 F8BD     		pop	{r3, r4, r5, r6, r7, pc}
 1747              	.LVL120:
 1748              	.L109:
1156:Drivers/STM32F7xx_HAL_Driver/Src/stm32f7xx_hal_hcd.c **** 
 1749              		.loc 1 1156 1 view .LVU521
 1750 0022 0646     		mov	r6, r0
 1751 0024 0C46     		mov	r4, r1
1026:Drivers/STM32F7xx_HAL_Driver/Src/stm32f7xx_hal_hcd.c ****   {
 1752              		.loc 1 1026 8 is_stmt 1 view .LVU522
1026:Drivers/STM32F7xx_HAL_Driver/Src/stm32f7xx_hal_hcd.c ****   {
 1753              		.loc 1 1026 28 is_stmt 0 view .LVU523
 1754 0026 AA68     		ldr	r2, [r5, #8]
1026:Drivers/STM32F7xx_HAL_Driver/Src/stm32f7xx_hal_hcd.c ****   {
 1755              		.loc 1 1026 11 view .LVU524
 1756 0028 12F0200F 		tst	r2, #32
 1757 002c 1ED0     		beq	.L111
1028:Drivers/STM32F7xx_HAL_Driver/Src/stm32f7xx_hal_hcd.c **** 
 1758              		.loc 1 1028 5 is_stmt 1 view .LVU525
 1759 002e 2023     		movs	r3, #32
 1760 0030 AB60     		str	r3, [r5, #8]
 1761              	.LVL121:
1030:Drivers/STM32F7xx_HAL_Driver/Src/stm32f7xx_hal_hcd.c ****     {
ARM GAS  C:\Users\Nina\AppData\Local\Temp\ccxRUdKh.s 			page 62


 1762              		.loc 1 1030 5 view .LVU526
1030:Drivers/STM32F7xx_HAL_Driver/Src/stm32f7xx_hal_hcd.c ****     {
 1763              		.loc 1 1030 25 is_stmt 0 view .LVU527
 1764 0032 01EB8103 		add	r3, r1, r1, lsl #2
 1765 0036 00EBC303 		add	r3, r0, r3, lsl #3
 1766 003a 93F83D30 		ldrb	r3, [r3, #61]	@ zero_extendqisi2
1030:Drivers/STM32F7xx_HAL_Driver/Src/stm32f7xx_hal_hcd.c ****     {
 1767              		.loc 1 1030 7 view .LVU528
 1768 003e 012B     		cmp	r3, #1
 1769 0040 EED1     		bne	.L108
1032:Drivers/STM32F7xx_HAL_Driver/Src/stm32f7xx_hal_hcd.c ****       hhcd->hc[ch_num].urb_state  = URB_NOTREADY;
 1770              		.loc 1 1032 7 is_stmt 1 view .LVU529
1032:Drivers/STM32F7xx_HAL_Driver/Src/stm32f7xx_hal_hcd.c ****       hhcd->hc[ch_num].urb_state  = URB_NOTREADY;
 1771              		.loc 1 1032 32 is_stmt 0 view .LVU530
 1772 0042 01EB8103 		add	r3, r1, r1, lsl #2
 1773 0046 00EBC303 		add	r3, r0, r3, lsl #3
 1774 004a 0022     		movs	r2, #0
 1775 004c 83F83D20 		strb	r2, [r3, #61]
1033:Drivers/STM32F7xx_HAL_Driver/Src/stm32f7xx_hal_hcd.c ****       __HAL_HCD_UNMASK_HALT_HC_INT(ch_num);
 1776              		.loc 1 1033 7 is_stmt 1 view .LVU531
1033:Drivers/STM32F7xx_HAL_Driver/Src/stm32f7xx_hal_hcd.c ****       __HAL_HCD_UNMASK_HALT_HC_INT(ch_num);
 1777              		.loc 1 1033 35 is_stmt 0 view .LVU532
 1778 0050 01EB8103 		add	r3, r1, r1, lsl #2
 1779 0054 00EBC303 		add	r3, r0, r3, lsl #3
 1780 0058 0222     		movs	r2, #2
 1781 005a 83F85C20 		strb	r2, [r3, #92]
1034:Drivers/STM32F7xx_HAL_Driver/Src/stm32f7xx_hal_hcd.c ****       (void)USB_HC_Halt(hhcd->Instance, (uint8_t)ch_num);
 1782              		.loc 1 1034 7 is_stmt 1 view .LVU533
 1783 005e EB68     		ldr	r3, [r5, #12]
 1784 0060 1343     		orrs	r3, r3, r2
 1785 0062 EB60     		str	r3, [r5, #12]
1035:Drivers/STM32F7xx_HAL_Driver/Src/stm32f7xx_hal_hcd.c ****     }
 1786              		.loc 1 1035 7 view .LVU534
1035:Drivers/STM32F7xx_HAL_Driver/Src/stm32f7xx_hal_hcd.c ****     }
 1787              		.loc 1 1035 13 is_stmt 0 view .LVU535
 1788 0064 0068     		ldr	r0, [r0]
 1789              	.LVL122:
1035:Drivers/STM32F7xx_HAL_Driver/Src/stm32f7xx_hal_hcd.c ****     }
 1790              		.loc 1 1035 13 view .LVU536
 1791 0066 FFF7FEFF 		bl	USB_HC_Halt
 1792              	.LVL123:
1035:Drivers/STM32F7xx_HAL_Driver/Src/stm32f7xx_hal_hcd.c ****     }
 1793              		.loc 1 1035 13 view .LVU537
 1794 006a D9E7     		b	.L108
 1795              	.LVL124:
 1796              	.L111:
1038:Drivers/STM32F7xx_HAL_Driver/Src/stm32f7xx_hal_hcd.c ****   {
 1797              		.loc 1 1038 8 is_stmt 1 view .LVU538
1038:Drivers/STM32F7xx_HAL_Driver/Src/stm32f7xx_hal_hcd.c ****   {
 1798              		.loc 1 1038 28 is_stmt 0 view .LVU539
 1799 006c AA68     		ldr	r2, [r5, #8]
1038:Drivers/STM32F7xx_HAL_Driver/Src/stm32f7xx_hal_hcd.c ****   {
 1800              		.loc 1 1038 11 view .LVU540
 1801 006e 12F0400F 		tst	r2, #64
 1802 0072 34D1     		bne	.L128
1047:Drivers/STM32F7xx_HAL_Driver/Src/stm32f7xx_hal_hcd.c ****   {
 1803              		.loc 1 1047 8 is_stmt 1 view .LVU541
ARM GAS  C:\Users\Nina\AppData\Local\Temp\ccxRUdKh.s 			page 63


1047:Drivers/STM32F7xx_HAL_Driver/Src/stm32f7xx_hal_hcd.c ****   {
 1804              		.loc 1 1047 28 is_stmt 0 view .LVU542
 1805 0074 AA68     		ldr	r2, [r5, #8]
1047:Drivers/STM32F7xx_HAL_Driver/Src/stm32f7xx_hal_hcd.c ****   {
 1806              		.loc 1 1047 11 view .LVU543
 1807 0076 12F4007F 		tst	r2, #512
 1808 007a 4AD1     		bne	.L129
1053:Drivers/STM32F7xx_HAL_Driver/Src/stm32f7xx_hal_hcd.c ****   {
 1809              		.loc 1 1053 8 is_stmt 1 view .LVU544
1053:Drivers/STM32F7xx_HAL_Driver/Src/stm32f7xx_hal_hcd.c ****   {
 1810              		.loc 1 1053 28 is_stmt 0 view .LVU545
 1811 007c AA68     		ldr	r2, [r5, #8]
1053:Drivers/STM32F7xx_HAL_Driver/Src/stm32f7xx_hal_hcd.c ****   {
 1812              		.loc 1 1053 11 view .LVU546
 1813 007e 12F0010F 		tst	r2, #1
 1814 0082 51D1     		bne	.L130
1061:Drivers/STM32F7xx_HAL_Driver/Src/stm32f7xx_hal_hcd.c ****   {
 1815              		.loc 1 1061 8 is_stmt 1 view .LVU547
1061:Drivers/STM32F7xx_HAL_Driver/Src/stm32f7xx_hal_hcd.c ****   {
 1816              		.loc 1 1061 28 is_stmt 0 view .LVU548
 1817 0084 AA68     		ldr	r2, [r5, #8]
1061:Drivers/STM32F7xx_HAL_Driver/Src/stm32f7xx_hal_hcd.c ****   {
 1818              		.loc 1 1061 11 view .LVU549
 1819 0086 12F0080F 		tst	r2, #8
 1820 008a 63D1     		bne	.L131
1068:Drivers/STM32F7xx_HAL_Driver/Src/stm32f7xx_hal_hcd.c ****   {
 1821              		.loc 1 1068 8 is_stmt 1 view .LVU550
1068:Drivers/STM32F7xx_HAL_Driver/Src/stm32f7xx_hal_hcd.c ****   {
 1822              		.loc 1 1068 28 is_stmt 0 view .LVU551
 1823 008c AA68     		ldr	r2, [r5, #8]
1068:Drivers/STM32F7xx_HAL_Driver/Src/stm32f7xx_hal_hcd.c ****   {
 1824              		.loc 1 1068 11 view .LVU552
 1825 008e 12F0100F 		tst	r2, #16
 1826 0092 70D0     		beq	.L116
1070:Drivers/STM32F7xx_HAL_Driver/Src/stm32f7xx_hal_hcd.c ****     hhcd->hc[ch_num].state = HC_NAK;
 1827              		.loc 1 1070 5 is_stmt 1 view .LVU553
1070:Drivers/STM32F7xx_HAL_Driver/Src/stm32f7xx_hal_hcd.c ****     hhcd->hc[ch_num].state = HC_NAK;
 1828              		.loc 1 1070 29 is_stmt 0 view .LVU554
 1829 0094 01EB8103 		add	r3, r1, r1, lsl #2
 1830 0098 00EBC303 		add	r3, r0, r3, lsl #3
 1831 009c 0022     		movs	r2, #0
 1832 009e 9A65     		str	r2, [r3, #88]
 1833              	.LVL125:
1071:Drivers/STM32F7xx_HAL_Driver/Src/stm32f7xx_hal_hcd.c **** 
 1834              		.loc 1 1071 5 is_stmt 1 view .LVU555
1071:Drivers/STM32F7xx_HAL_Driver/Src/stm32f7xx_hal_hcd.c **** 
 1835              		.loc 1 1071 28 is_stmt 0 view .LVU556
 1836 00a0 0322     		movs	r2, #3
 1837 00a2 83F85D20 		strb	r2, [r3, #93]
1073:Drivers/STM32F7xx_HAL_Driver/Src/stm32f7xx_hal_hcd.c ****     {
 1838              		.loc 1 1073 5 is_stmt 1 view .LVU557
1073:Drivers/STM32F7xx_HAL_Driver/Src/stm32f7xx_hal_hcd.c ****     {
 1839              		.loc 1 1073 25 is_stmt 0 view .LVU558
 1840 00a6 93F83D30 		ldrb	r3, [r3, #61]	@ zero_extendqisi2
1073:Drivers/STM32F7xx_HAL_Driver/Src/stm32f7xx_hal_hcd.c ****     {
 1841              		.loc 1 1073 8 view .LVU559
 1842 00aa 6BB9     		cbnz	r3, .L117
ARM GAS  C:\Users\Nina\AppData\Local\Temp\ccxRUdKh.s 			page 64


1075:Drivers/STM32F7xx_HAL_Driver/Src/stm32f7xx_hal_hcd.c ****       {
 1843              		.loc 1 1075 7 is_stmt 1 view .LVU560
1075:Drivers/STM32F7xx_HAL_Driver/Src/stm32f7xx_hal_hcd.c ****       {
 1844              		.loc 1 1075 27 is_stmt 0 view .LVU561
 1845 00ac 01EB8103 		add	r3, r1, r1, lsl #2
 1846 00b0 00EBC303 		add	r3, r0, r3, lsl #3
 1847 00b4 93F83C30 		ldrb	r3, [r3, #60]	@ zero_extendqisi2
1075:Drivers/STM32F7xx_HAL_Driver/Src/stm32f7xx_hal_hcd.c ****       {
 1848              		.loc 1 1075 10 view .LVU562
 1849 00b8 33B9     		cbnz	r3, .L117
1077:Drivers/STM32F7xx_HAL_Driver/Src/stm32f7xx_hal_hcd.c ****       }
 1850              		.loc 1 1077 9 is_stmt 1 view .LVU563
1077:Drivers/STM32F7xx_HAL_Driver/Src/stm32f7xx_hal_hcd.c ****       }
 1851              		.loc 1 1077 34 is_stmt 0 view .LVU564
 1852 00ba 01EB8103 		add	r3, r1, r1, lsl #2
 1853 00be 00EBC303 		add	r3, r0, r3, lsl #3
 1854 00c2 0122     		movs	r2, #1
 1855 00c4 83F83D20 		strb	r2, [r3, #61]
 1856              	.L117:
1081:Drivers/STM32F7xx_HAL_Driver/Src/stm32f7xx_hal_hcd.c ****     (void)USB_HC_Halt(hhcd->Instance, (uint8_t)ch_num);
 1857              		.loc 1 1081 5 is_stmt 1 view .LVU565
 1858 00c8 EB68     		ldr	r3, [r5, #12]
 1859 00ca 43F00203 		orr	r3, r3, #2
 1860 00ce EB60     		str	r3, [r5, #12]
1082:Drivers/STM32F7xx_HAL_Driver/Src/stm32f7xx_hal_hcd.c ****     __HAL_HCD_CLEAR_HC_INT(ch_num, USB_OTG_HCINT_NAK);
 1861              		.loc 1 1082 5 view .LVU566
1082:Drivers/STM32F7xx_HAL_Driver/Src/stm32f7xx_hal_hcd.c ****     __HAL_HCD_CLEAR_HC_INT(ch_num, USB_OTG_HCINT_NAK);
 1862              		.loc 1 1082 11 is_stmt 0 view .LVU567
 1863 00d0 2146     		mov	r1, r4
 1864              	.LVL126:
1082:Drivers/STM32F7xx_HAL_Driver/Src/stm32f7xx_hal_hcd.c ****     __HAL_HCD_CLEAR_HC_INT(ch_num, USB_OTG_HCINT_NAK);
 1865              		.loc 1 1082 11 view .LVU568
 1866 00d2 3068     		ldr	r0, [r6]
 1867              	.LVL127:
1082:Drivers/STM32F7xx_HAL_Driver/Src/stm32f7xx_hal_hcd.c ****     __HAL_HCD_CLEAR_HC_INT(ch_num, USB_OTG_HCINT_NAK);
 1868              		.loc 1 1082 11 view .LVU569
 1869 00d4 FFF7FEFF 		bl	USB_HC_Halt
 1870              	.LVL128:
1083:Drivers/STM32F7xx_HAL_Driver/Src/stm32f7xx_hal_hcd.c ****   }
 1871              		.loc 1 1083 5 is_stmt 1 view .LVU570
 1872 00d8 1023     		movs	r3, #16
 1873 00da AB60     		str	r3, [r5, #8]
 1874 00dc A0E7     		b	.L108
 1875              	.LVL129:
 1876              	.L128:
1040:Drivers/STM32F7xx_HAL_Driver/Src/stm32f7xx_hal_hcd.c ****     hhcd->hc[ch_num].do_ping = 1U;
 1877              		.loc 1 1040 5 view .LVU571
1040:Drivers/STM32F7xx_HAL_Driver/Src/stm32f7xx_hal_hcd.c ****     hhcd->hc[ch_num].do_ping = 1U;
 1878              		.loc 1 1040 28 is_stmt 0 view .LVU572
 1879 00de 01EB8103 		add	r3, r1, r1, lsl #2
 1880 00e2 00EBC303 		add	r3, r0, r3, lsl #3
 1881 00e6 0422     		movs	r2, #4
 1882 00e8 83F85D20 		strb	r2, [r3, #93]
 1883              	.LVL130:
1041:Drivers/STM32F7xx_HAL_Driver/Src/stm32f7xx_hal_hcd.c ****     hhcd->hc[ch_num].ErrCnt= 0U;
 1884              		.loc 1 1041 5 is_stmt 1 view .LVU573
1041:Drivers/STM32F7xx_HAL_Driver/Src/stm32f7xx_hal_hcd.c ****     hhcd->hc[ch_num].ErrCnt= 0U;
ARM GAS  C:\Users\Nina\AppData\Local\Temp\ccxRUdKh.s 			page 65


 1885              		.loc 1 1041 30 is_stmt 0 view .LVU574
 1886 00ec 0122     		movs	r2, #1
 1887 00ee 83F83D20 		strb	r2, [r3, #61]
1042:Drivers/STM32F7xx_HAL_Driver/Src/stm32f7xx_hal_hcd.c ****     __HAL_HCD_UNMASK_HALT_HC_INT(ch_num);
 1888              		.loc 1 1042 5 is_stmt 1 view .LVU575
1042:Drivers/STM32F7xx_HAL_Driver/Src/stm32f7xx_hal_hcd.c ****     __HAL_HCD_UNMASK_HALT_HC_INT(ch_num);
 1889              		.loc 1 1042 28 is_stmt 0 view .LVU576
 1890 00f2 01EB8103 		add	r3, r1, r1, lsl #2
 1891 00f6 00EBC303 		add	r3, r0, r3, lsl #3
 1892 00fa 0022     		movs	r2, #0
 1893 00fc 9A65     		str	r2, [r3, #88]
1043:Drivers/STM32F7xx_HAL_Driver/Src/stm32f7xx_hal_hcd.c ****     (void)USB_HC_Halt(hhcd->Instance, (uint8_t)ch_num);
 1894              		.loc 1 1043 5 is_stmt 1 view .LVU577
 1895 00fe EB68     		ldr	r3, [r5, #12]
 1896 0100 43F00203 		orr	r3, r3, #2
 1897 0104 EB60     		str	r3, [r5, #12]
1044:Drivers/STM32F7xx_HAL_Driver/Src/stm32f7xx_hal_hcd.c ****     __HAL_HCD_CLEAR_HC_INT(ch_num, USB_OTG_HCINT_NYET);
 1898              		.loc 1 1044 5 view .LVU578
1044:Drivers/STM32F7xx_HAL_Driver/Src/stm32f7xx_hal_hcd.c ****     __HAL_HCD_CLEAR_HC_INT(ch_num, USB_OTG_HCINT_NYET);
 1899              		.loc 1 1044 11 is_stmt 0 view .LVU579
 1900 0106 0068     		ldr	r0, [r0]
 1901              	.LVL131:
1044:Drivers/STM32F7xx_HAL_Driver/Src/stm32f7xx_hal_hcd.c ****     __HAL_HCD_CLEAR_HC_INT(ch_num, USB_OTG_HCINT_NYET);
 1902              		.loc 1 1044 11 view .LVU580
 1903 0108 FFF7FEFF 		bl	USB_HC_Halt
 1904              	.LVL132:
1045:Drivers/STM32F7xx_HAL_Driver/Src/stm32f7xx_hal_hcd.c ****   }
 1905              		.loc 1 1045 5 is_stmt 1 view .LVU581
 1906 010c 4023     		movs	r3, #64
 1907 010e AB60     		str	r3, [r5, #8]
 1908 0110 86E7     		b	.L108
 1909              	.LVL133:
 1910              	.L129:
1049:Drivers/STM32F7xx_HAL_Driver/Src/stm32f7xx_hal_hcd.c ****     (void)USB_HC_Halt(hhcd->Instance, (uint8_t)ch_num);
 1911              		.loc 1 1049 5 view .LVU582
 1912 0112 EB68     		ldr	r3, [r5, #12]
 1913 0114 43F00203 		orr	r3, r3, #2
 1914 0118 EB60     		str	r3, [r5, #12]
 1915              	.LVL134:
1050:Drivers/STM32F7xx_HAL_Driver/Src/stm32f7xx_hal_hcd.c ****     __HAL_HCD_CLEAR_HC_INT(ch_num, USB_OTG_HCINT_FRMOR);
 1916              		.loc 1 1050 5 view .LVU583
1050:Drivers/STM32F7xx_HAL_Driver/Src/stm32f7xx_hal_hcd.c ****     __HAL_HCD_CLEAR_HC_INT(ch_num, USB_OTG_HCINT_FRMOR);
 1917              		.loc 1 1050 11 is_stmt 0 view .LVU584
 1918 011a 0068     		ldr	r0, [r0]
 1919              	.LVL135:
1050:Drivers/STM32F7xx_HAL_Driver/Src/stm32f7xx_hal_hcd.c ****     __HAL_HCD_CLEAR_HC_INT(ch_num, USB_OTG_HCINT_FRMOR);
 1920              		.loc 1 1050 11 view .LVU585
 1921 011c FFF7FEFF 		bl	USB_HC_Halt
 1922              	.LVL136:
1051:Drivers/STM32F7xx_HAL_Driver/Src/stm32f7xx_hal_hcd.c ****   }
 1923              		.loc 1 1051 5 is_stmt 1 view .LVU586
 1924 0120 4FF40073 		mov	r3, #512
 1925 0124 AB60     		str	r3, [r5, #8]
 1926 0126 7BE7     		b	.L108
 1927              	.LVL137:
 1928              	.L130:
1055:Drivers/STM32F7xx_HAL_Driver/Src/stm32f7xx_hal_hcd.c ****     __HAL_HCD_UNMASK_HALT_HC_INT(ch_num);
ARM GAS  C:\Users\Nina\AppData\Local\Temp\ccxRUdKh.s 			page 66


 1929              		.loc 1 1055 5 view .LVU587
1055:Drivers/STM32F7xx_HAL_Driver/Src/stm32f7xx_hal_hcd.c ****     __HAL_HCD_UNMASK_HALT_HC_INT(ch_num);
 1930              		.loc 1 1055 29 is_stmt 0 view .LVU588
 1931 0128 8F00     		lsls	r7, r1, #2
 1932 012a 01EB8103 		add	r3, r1, r1, lsl #2
 1933 012e 00EBC303 		add	r3, r0, r3, lsl #3
 1934 0132 0022     		movs	r2, #0
 1935 0134 9A65     		str	r2, [r3, #88]
 1936              	.LVL138:
1056:Drivers/STM32F7xx_HAL_Driver/Src/stm32f7xx_hal_hcd.c ****     (void)USB_HC_Halt(hhcd->Instance, (uint8_t)ch_num);
 1937              		.loc 1 1056 5 is_stmt 1 view .LVU589
 1938 0136 EB68     		ldr	r3, [r5, #12]
 1939 0138 43F00203 		orr	r3, r3, #2
 1940 013c EB60     		str	r3, [r5, #12]
1057:Drivers/STM32F7xx_HAL_Driver/Src/stm32f7xx_hal_hcd.c ****     __HAL_HCD_CLEAR_HC_INT(ch_num, USB_OTG_HCINT_XFRC);
 1941              		.loc 1 1057 5 view .LVU590
1057:Drivers/STM32F7xx_HAL_Driver/Src/stm32f7xx_hal_hcd.c ****     __HAL_HCD_CLEAR_HC_INT(ch_num, USB_OTG_HCINT_XFRC);
 1942              		.loc 1 1057 11 is_stmt 0 view .LVU591
 1943 013e 0068     		ldr	r0, [r0]
 1944              	.LVL139:
1057:Drivers/STM32F7xx_HAL_Driver/Src/stm32f7xx_hal_hcd.c ****     __HAL_HCD_CLEAR_HC_INT(ch_num, USB_OTG_HCINT_XFRC);
 1945              		.loc 1 1057 11 view .LVU592
 1946 0140 FFF7FEFF 		bl	USB_HC_Halt
 1947              	.LVL140:
1058:Drivers/STM32F7xx_HAL_Driver/Src/stm32f7xx_hal_hcd.c ****     hhcd->hc[ch_num].state = HC_XFRC;
 1948              		.loc 1 1058 5 is_stmt 1 view .LVU593
 1949 0144 0123     		movs	r3, #1
 1950 0146 AB60     		str	r3, [r5, #8]
1059:Drivers/STM32F7xx_HAL_Driver/Src/stm32f7xx_hal_hcd.c ****   }
 1951              		.loc 1 1059 5 view .LVU594
1059:Drivers/STM32F7xx_HAL_Driver/Src/stm32f7xx_hal_hcd.c ****   }
 1952              		.loc 1 1059 28 is_stmt 0 view .LVU595
 1953 0148 3C44     		add	r4, r4, r7
 1954              	.LVL141:
1059:Drivers/STM32F7xx_HAL_Driver/Src/stm32f7xx_hal_hcd.c ****   }
 1955              		.loc 1 1059 28 view .LVU596
 1956 014a 06EBC406 		add	r6, r6, r4, lsl #3
 1957              	.LVL142:
1059:Drivers/STM32F7xx_HAL_Driver/Src/stm32f7xx_hal_hcd.c ****   }
 1958              		.loc 1 1059 28 view .LVU597
 1959 014e 86F85D30 		strb	r3, [r6, #93]
 1960 0152 65E7     		b	.L108
 1961              	.LVL143:
 1962              	.L131:
1063:Drivers/STM32F7xx_HAL_Driver/Src/stm32f7xx_hal_hcd.c ****     __HAL_HCD_UNMASK_HALT_HC_INT(ch_num);
 1963              		.loc 1 1063 5 is_stmt 1 view .LVU598
 1964 0154 0823     		movs	r3, #8
 1965 0156 AB60     		str	r3, [r5, #8]
 1966              	.LVL144:
1064:Drivers/STM32F7xx_HAL_Driver/Src/stm32f7xx_hal_hcd.c ****     (void)USB_HC_Halt(hhcd->Instance, (uint8_t)ch_num);
 1967              		.loc 1 1064 5 view .LVU599
 1968 0158 EB68     		ldr	r3, [r5, #12]
 1969 015a 43F00203 		orr	r3, r3, #2
 1970 015e EB60     		str	r3, [r5, #12]
1065:Drivers/STM32F7xx_HAL_Driver/Src/stm32f7xx_hal_hcd.c ****     hhcd->hc[ch_num].state = HC_STALL;
 1971              		.loc 1 1065 5 view .LVU600
1065:Drivers/STM32F7xx_HAL_Driver/Src/stm32f7xx_hal_hcd.c ****     hhcd->hc[ch_num].state = HC_STALL;
ARM GAS  C:\Users\Nina\AppData\Local\Temp\ccxRUdKh.s 			page 67


 1972              		.loc 1 1065 11 is_stmt 0 view .LVU601
 1973 0160 0068     		ldr	r0, [r0]
 1974              	.LVL145:
1065:Drivers/STM32F7xx_HAL_Driver/Src/stm32f7xx_hal_hcd.c ****     hhcd->hc[ch_num].state = HC_STALL;
 1975              		.loc 1 1065 11 view .LVU602
 1976 0162 FFF7FEFF 		bl	USB_HC_Halt
 1977              	.LVL146:
1066:Drivers/STM32F7xx_HAL_Driver/Src/stm32f7xx_hal_hcd.c ****   }
 1978              		.loc 1 1066 5 is_stmt 1 view .LVU603
1066:Drivers/STM32F7xx_HAL_Driver/Src/stm32f7xx_hal_hcd.c ****   }
 1979              		.loc 1 1066 28 is_stmt 0 view .LVU604
 1980 0166 04EB8404 		add	r4, r4, r4, lsl #2
 1981              	.LVL147:
1066:Drivers/STM32F7xx_HAL_Driver/Src/stm32f7xx_hal_hcd.c ****   }
 1982              		.loc 1 1066 28 view .LVU605
 1983 016a 06EBC406 		add	r6, r6, r4, lsl #3
 1984              	.LVL148:
1066:Drivers/STM32F7xx_HAL_Driver/Src/stm32f7xx_hal_hcd.c ****   }
 1985              		.loc 1 1066 28 view .LVU606
 1986 016e 0523     		movs	r3, #5
 1987 0170 86F85D30 		strb	r3, [r6, #93]
 1988 0174 54E7     		b	.L108
 1989              	.LVL149:
 1990              	.L116:
1085:Drivers/STM32F7xx_HAL_Driver/Src/stm32f7xx_hal_hcd.c ****   {
 1991              		.loc 1 1085 8 is_stmt 1 view .LVU607
1085:Drivers/STM32F7xx_HAL_Driver/Src/stm32f7xx_hal_hcd.c ****   {
 1992              		.loc 1 1085 28 is_stmt 0 view .LVU608
 1993 0176 AA68     		ldr	r2, [r5, #8]
1085:Drivers/STM32F7xx_HAL_Driver/Src/stm32f7xx_hal_hcd.c ****   {
 1994              		.loc 1 1085 11 view .LVU609
 1995 0178 12F0800F 		tst	r2, #128
 1996 017c 35D1     		bne	.L132
1092:Drivers/STM32F7xx_HAL_Driver/Src/stm32f7xx_hal_hcd.c ****   {
 1997              		.loc 1 1092 8 is_stmt 1 view .LVU610
1092:Drivers/STM32F7xx_HAL_Driver/Src/stm32f7xx_hal_hcd.c ****   {
 1998              		.loc 1 1092 28 is_stmt 0 view .LVU611
 1999 017e AA68     		ldr	r2, [r5, #8]
1092:Drivers/STM32F7xx_HAL_Driver/Src/stm32f7xx_hal_hcd.c ****   {
 2000              		.loc 1 1092 11 view .LVU612
 2001 0180 12F4806F 		tst	r2, #1024
 2002 0184 42D1     		bne	.L133
1100:Drivers/STM32F7xx_HAL_Driver/Src/stm32f7xx_hal_hcd.c ****   {
 2003              		.loc 1 1100 8 is_stmt 1 view .LVU613
1100:Drivers/STM32F7xx_HAL_Driver/Src/stm32f7xx_hal_hcd.c ****   {
 2004              		.loc 1 1100 28 is_stmt 0 view .LVU614
 2005 0186 AA68     		ldr	r2, [r5, #8]
1100:Drivers/STM32F7xx_HAL_Driver/Src/stm32f7xx_hal_hcd.c ****   {
 2006              		.loc 1 1100 11 view .LVU615
 2007 0188 12F0020F 		tst	r2, #2
 2008 018c 3FF448AF 		beq	.L108
1102:Drivers/STM32F7xx_HAL_Driver/Src/stm32f7xx_hal_hcd.c **** 
 2009              		.loc 1 1102 5 is_stmt 1 view .LVU616
 2010 0190 EA68     		ldr	r2, [r5, #12]
 2011 0192 22F00202 		bic	r2, r2, #2
 2012 0196 EA60     		str	r2, [r5, #12]
 2013              	.LVL150:
ARM GAS  C:\Users\Nina\AppData\Local\Temp\ccxRUdKh.s 			page 68


1104:Drivers/STM32F7xx_HAL_Driver/Src/stm32f7xx_hal_hcd.c ****     {
 2014              		.loc 1 1104 5 view .LVU617
1104:Drivers/STM32F7xx_HAL_Driver/Src/stm32f7xx_hal_hcd.c ****     {
 2015              		.loc 1 1104 25 is_stmt 0 view .LVU618
 2016 0198 01EB8102 		add	r2, r1, r1, lsl #2
 2017 019c 00EBC202 		add	r2, r0, r2, lsl #3
 2018 01a0 92F85D20 		ldrb	r2, [r2, #93]	@ zero_extendqisi2
1104:Drivers/STM32F7xx_HAL_Driver/Src/stm32f7xx_hal_hcd.c ****     {
 2019              		.loc 1 1104 8 view .LVU619
 2020 01a4 012A     		cmp	r2, #1
 2021 01a6 45D0     		beq	.L134
1112:Drivers/STM32F7xx_HAL_Driver/Src/stm32f7xx_hal_hcd.c ****     {
 2022              		.loc 1 1112 10 is_stmt 1 view .LVU620
1112:Drivers/STM32F7xx_HAL_Driver/Src/stm32f7xx_hal_hcd.c ****     {
 2023              		.loc 1 1112 13 is_stmt 0 view .LVU621
 2024 01a8 032A     		cmp	r2, #3
 2025 01aa 64D0     		beq	.L135
1116:Drivers/STM32F7xx_HAL_Driver/Src/stm32f7xx_hal_hcd.c ****     {
 2026              		.loc 1 1116 10 is_stmt 1 view .LVU622
1116:Drivers/STM32F7xx_HAL_Driver/Src/stm32f7xx_hal_hcd.c ****     {
 2027              		.loc 1 1116 13 is_stmt 0 view .LVU623
 2028 01ac 042A     		cmp	r2, #4
 2029 01ae 6AD0     		beq	.L136
1120:Drivers/STM32F7xx_HAL_Driver/Src/stm32f7xx_hal_hcd.c ****     {
 2030              		.loc 1 1120 10 is_stmt 1 view .LVU624
1120:Drivers/STM32F7xx_HAL_Driver/Src/stm32f7xx_hal_hcd.c ****     {
 2031              		.loc 1 1120 13 is_stmt 0 view .LVU625
 2032 01b0 052A     		cmp	r2, #5
 2033 01b2 6FD0     		beq	.L137
1124:Drivers/STM32F7xx_HAL_Driver/Src/stm32f7xx_hal_hcd.c ****             (hhcd->hc[ch_num].state == HC_DATATGLERR))
 2034              		.loc 1 1124 10 is_stmt 1 view .LVU626
1124:Drivers/STM32F7xx_HAL_Driver/Src/stm32f7xx_hal_hcd.c ****             (hhcd->hc[ch_num].state == HC_DATATGLERR))
 2035              		.loc 1 1124 13 is_stmt 0 view .LVU627
 2036 01b4 082A     		cmp	r2, #8
 2037 01b6 18BF     		it	ne
 2038 01b8 062A     		cmpne	r2, #6
 2039 01ba 45D1     		bne	.L121
1127:Drivers/STM32F7xx_HAL_Driver/Src/stm32f7xx_hal_hcd.c ****       if (hhcd->hc[ch_num].ErrCnt > 3U)
 2040              		.loc 1 1127 7 is_stmt 1 view .LVU628
1127:Drivers/STM32F7xx_HAL_Driver/Src/stm32f7xx_hal_hcd.c ****       if (hhcd->hc[ch_num].ErrCnt > 3U)
 2041              		.loc 1 1127 23 is_stmt 0 view .LVU629
 2042 01bc 2821     		movs	r1, #40
 2043              	.LVL151:
1127:Drivers/STM32F7xx_HAL_Driver/Src/stm32f7xx_hal_hcd.c ****       if (hhcd->hc[ch_num].ErrCnt > 3U)
 2044              		.loc 1 1127 23 view .LVU630
 2045 01be 01FB0401 		mla	r1, r1, r4, r0
 2046 01c2 8A6D     		ldr	r2, [r1, #88]
1127:Drivers/STM32F7xx_HAL_Driver/Src/stm32f7xx_hal_hcd.c ****       if (hhcd->hc[ch_num].ErrCnt > 3U)
 2047              		.loc 1 1127 30 view .LVU631
 2048 01c4 0132     		adds	r2, r2, #1
 2049 01c6 8A65     		str	r2, [r1, #88]
1128:Drivers/STM32F7xx_HAL_Driver/Src/stm32f7xx_hal_hcd.c ****       {
 2050              		.loc 1 1128 7 is_stmt 1 view .LVU632
1128:Drivers/STM32F7xx_HAL_Driver/Src/stm32f7xx_hal_hcd.c ****       {
 2051              		.loc 1 1128 10 is_stmt 0 view .LVU633
 2052 01c8 032A     		cmp	r2, #3
 2053 01ca 69D9     		bls	.L125
ARM GAS  C:\Users\Nina\AppData\Local\Temp\ccxRUdKh.s 			page 69


1130:Drivers/STM32F7xx_HAL_Driver/Src/stm32f7xx_hal_hcd.c ****         hhcd->hc[ch_num].urb_state = URB_ERROR;
 2054              		.loc 1 1130 9 is_stmt 1 view .LVU634
1130:Drivers/STM32F7xx_HAL_Driver/Src/stm32f7xx_hal_hcd.c ****         hhcd->hc[ch_num].urb_state = URB_ERROR;
 2055              		.loc 1 1130 33 is_stmt 0 view .LVU635
 2056 01cc 0A46     		mov	r2, r1
 2057 01ce 0021     		movs	r1, #0
 2058 01d0 9165     		str	r1, [r2, #88]
1131:Drivers/STM32F7xx_HAL_Driver/Src/stm32f7xx_hal_hcd.c ****       }
 2059              		.loc 1 1131 9 is_stmt 1 view .LVU636
1131:Drivers/STM32F7xx_HAL_Driver/Src/stm32f7xx_hal_hcd.c ****       }
 2060              		.loc 1 1131 36 is_stmt 0 view .LVU637
 2061 01d2 0421     		movs	r1, #4
 2062 01d4 82F85C10 		strb	r1, [r2, #92]
 2063              	.L126:
1139:Drivers/STM32F7xx_HAL_Driver/Src/stm32f7xx_hal_hcd.c ****       tmpreg &= ~USB_OTG_HCCHAR_CHDIS;
 2064              		.loc 1 1139 7 is_stmt 1 view .LVU638
1139:Drivers/STM32F7xx_HAL_Driver/Src/stm32f7xx_hal_hcd.c ****       tmpreg &= ~USB_OTG_HCCHAR_CHDIS;
 2065              		.loc 1 1139 14 is_stmt 0 view .LVU639
 2066 01d8 D3F80025 		ldr	r2, [r3, #1280]
 2067              	.LVL152:
1140:Drivers/STM32F7xx_HAL_Driver/Src/stm32f7xx_hal_hcd.c ****       tmpreg |= USB_OTG_HCCHAR_CHENA;
 2068              		.loc 1 1140 7 is_stmt 1 view .LVU640
1140:Drivers/STM32F7xx_HAL_Driver/Src/stm32f7xx_hal_hcd.c ****       tmpreg |= USB_OTG_HCCHAR_CHENA;
 2069              		.loc 1 1140 14 is_stmt 0 view .LVU641
 2070 01dc 22F08042 		bic	r2, r2, #1073741824
 2071              	.LVL153:
1141:Drivers/STM32F7xx_HAL_Driver/Src/stm32f7xx_hal_hcd.c ****       USBx_HC(ch_num)->HCCHAR = tmpreg;
 2072              		.loc 1 1141 7 is_stmt 1 view .LVU642
1141:Drivers/STM32F7xx_HAL_Driver/Src/stm32f7xx_hal_hcd.c ****       USBx_HC(ch_num)->HCCHAR = tmpreg;
 2073              		.loc 1 1141 14 is_stmt 0 view .LVU643
 2074 01e0 42F00042 		orr	r2, r2, #-2147483648
 2075              	.LVL154:
1142:Drivers/STM32F7xx_HAL_Driver/Src/stm32f7xx_hal_hcd.c ****     }
 2076              		.loc 1 1142 7 is_stmt 1 view .LVU644
1142:Drivers/STM32F7xx_HAL_Driver/Src/stm32f7xx_hal_hcd.c ****     }
 2077              		.loc 1 1142 31 is_stmt 0 view .LVU645
 2078 01e4 C3F80025 		str	r2, [r3, #1280]
 2079 01e8 2EE0     		b	.L121
 2080              	.LVL155:
 2081              	.L132:
1087:Drivers/STM32F7xx_HAL_Driver/Src/stm32f7xx_hal_hcd.c ****     (void)USB_HC_Halt(hhcd->Instance, (uint8_t)ch_num);
 2082              		.loc 1 1087 5 is_stmt 1 view .LVU646
 2083 01ea EB68     		ldr	r3, [r5, #12]
 2084 01ec 43F00203 		orr	r3, r3, #2
 2085 01f0 EB60     		str	r3, [r5, #12]
 2086              	.LVL156:
1088:Drivers/STM32F7xx_HAL_Driver/Src/stm32f7xx_hal_hcd.c ****     hhcd->hc[ch_num].state = HC_XACTERR;
 2087              		.loc 1 1088 5 view .LVU647
1088:Drivers/STM32F7xx_HAL_Driver/Src/stm32f7xx_hal_hcd.c ****     hhcd->hc[ch_num].state = HC_XACTERR;
 2088              		.loc 1 1088 11 is_stmt 0 view .LVU648
 2089 01f2 0068     		ldr	r0, [r0]
 2090              	.LVL157:
1088:Drivers/STM32F7xx_HAL_Driver/Src/stm32f7xx_hal_hcd.c ****     hhcd->hc[ch_num].state = HC_XACTERR;
 2091              		.loc 1 1088 11 view .LVU649
 2092 01f4 FFF7FEFF 		bl	USB_HC_Halt
 2093              	.LVL158:
1089:Drivers/STM32F7xx_HAL_Driver/Src/stm32f7xx_hal_hcd.c ****      __HAL_HCD_CLEAR_HC_INT(ch_num, USB_OTG_HCINT_TXERR);
ARM GAS  C:\Users\Nina\AppData\Local\Temp\ccxRUdKh.s 			page 70


 2094              		.loc 1 1089 5 is_stmt 1 view .LVU650
1089:Drivers/STM32F7xx_HAL_Driver/Src/stm32f7xx_hal_hcd.c ****      __HAL_HCD_CLEAR_HC_INT(ch_num, USB_OTG_HCINT_TXERR);
 2095              		.loc 1 1089 28 is_stmt 0 view .LVU651
 2096 01f8 04EB8404 		add	r4, r4, r4, lsl #2
 2097              	.LVL159:
1089:Drivers/STM32F7xx_HAL_Driver/Src/stm32f7xx_hal_hcd.c ****      __HAL_HCD_CLEAR_HC_INT(ch_num, USB_OTG_HCINT_TXERR);
 2098              		.loc 1 1089 28 view .LVU652
 2099 01fc 06EBC406 		add	r6, r6, r4, lsl #3
 2100              	.LVL160:
1089:Drivers/STM32F7xx_HAL_Driver/Src/stm32f7xx_hal_hcd.c ****      __HAL_HCD_CLEAR_HC_INT(ch_num, USB_OTG_HCINT_TXERR);
 2101              		.loc 1 1089 28 view .LVU653
 2102 0200 0623     		movs	r3, #6
 2103 0202 86F85D30 		strb	r3, [r6, #93]
1090:Drivers/STM32F7xx_HAL_Driver/Src/stm32f7xx_hal_hcd.c ****   }
 2104              		.loc 1 1090 6 is_stmt 1 view .LVU654
 2105 0206 8023     		movs	r3, #128
 2106 0208 AB60     		str	r3, [r5, #8]
 2107 020a 09E7     		b	.L108
 2108              	.LVL161:
 2109              	.L133:
1094:Drivers/STM32F7xx_HAL_Driver/Src/stm32f7xx_hal_hcd.c ****     (void)USB_HC_Halt(hhcd->Instance, (uint8_t)ch_num);
 2110              		.loc 1 1094 5 view .LVU655
 2111 020c EB68     		ldr	r3, [r5, #12]
 2112 020e 43F00203 		orr	r3, r3, #2
 2113 0212 EB60     		str	r3, [r5, #12]
 2114              	.LVL162:
1095:Drivers/STM32F7xx_HAL_Driver/Src/stm32f7xx_hal_hcd.c ****     __HAL_HCD_CLEAR_HC_INT(ch_num, USB_OTG_HCINT_NAK);
 2115              		.loc 1 1095 5 view .LVU656
1095:Drivers/STM32F7xx_HAL_Driver/Src/stm32f7xx_hal_hcd.c ****     __HAL_HCD_CLEAR_HC_INT(ch_num, USB_OTG_HCINT_NAK);
 2116              		.loc 1 1095 11 is_stmt 0 view .LVU657
 2117 0214 0068     		ldr	r0, [r0]
 2118              	.LVL163:
1095:Drivers/STM32F7xx_HAL_Driver/Src/stm32f7xx_hal_hcd.c ****     __HAL_HCD_CLEAR_HC_INT(ch_num, USB_OTG_HCINT_NAK);
 2119              		.loc 1 1095 11 view .LVU658
 2120 0216 FFF7FEFF 		bl	USB_HC_Halt
 2121              	.LVL164:
1096:Drivers/STM32F7xx_HAL_Driver/Src/stm32f7xx_hal_hcd.c ****     __HAL_HCD_CLEAR_HC_INT(ch_num, USB_OTG_HCINT_DTERR);
 2122              		.loc 1 1096 5 is_stmt 1 view .LVU659
 2123 021a 1023     		movs	r3, #16
 2124 021c AB60     		str	r3, [r5, #8]
1097:Drivers/STM32F7xx_HAL_Driver/Src/stm32f7xx_hal_hcd.c ****     hhcd->hc[ch_num].state = HC_DATATGLERR;
 2125              		.loc 1 1097 5 view .LVU660
 2126 021e 4FF48063 		mov	r3, #1024
 2127 0222 AB60     		str	r3, [r5, #8]
1098:Drivers/STM32F7xx_HAL_Driver/Src/stm32f7xx_hal_hcd.c ****   }
 2128              		.loc 1 1098 5 view .LVU661
1098:Drivers/STM32F7xx_HAL_Driver/Src/stm32f7xx_hal_hcd.c ****   }
 2129              		.loc 1 1098 28 is_stmt 0 view .LVU662
 2130 0224 04EB8404 		add	r4, r4, r4, lsl #2
 2131              	.LVL165:
1098:Drivers/STM32F7xx_HAL_Driver/Src/stm32f7xx_hal_hcd.c ****   }
 2132              		.loc 1 1098 28 view .LVU663
 2133 0228 06EBC406 		add	r6, r6, r4, lsl #3
 2134              	.LVL166:
1098:Drivers/STM32F7xx_HAL_Driver/Src/stm32f7xx_hal_hcd.c ****   }
 2135              		.loc 1 1098 28 view .LVU664
 2136 022c 0823     		movs	r3, #8
ARM GAS  C:\Users\Nina\AppData\Local\Temp\ccxRUdKh.s 			page 71


 2137 022e 86F85D30 		strb	r3, [r6, #93]
 2138 0232 F5E6     		b	.L108
 2139              	.LVL167:
 2140              	.L134:
1106:Drivers/STM32F7xx_HAL_Driver/Src/stm32f7xx_hal_hcd.c ****       if (hhcd->hc[ch_num].ep_type == EP_TYPE_BULK)
 2141              		.loc 1 1106 7 is_stmt 1 view .LVU665
1106:Drivers/STM32F7xx_HAL_Driver/Src/stm32f7xx_hal_hcd.c ****       if (hhcd->hc[ch_num].ep_type == EP_TYPE_BULK)
 2142              		.loc 1 1106 35 is_stmt 0 view .LVU666
 2143 0234 01EB8103 		add	r3, r1, r1, lsl #2
 2144 0238 00EBC303 		add	r3, r0, r3, lsl #3
 2145 023c 83F85C20 		strb	r2, [r3, #92]
1107:Drivers/STM32F7xx_HAL_Driver/Src/stm32f7xx_hal_hcd.c ****       {
 2146              		.loc 1 1107 7 is_stmt 1 view .LVU667
1107:Drivers/STM32F7xx_HAL_Driver/Src/stm32f7xx_hal_hcd.c ****       {
 2147              		.loc 1 1107 27 is_stmt 0 view .LVU668
 2148 0240 93F83F30 		ldrb	r3, [r3, #63]	@ zero_extendqisi2
1107:Drivers/STM32F7xx_HAL_Driver/Src/stm32f7xx_hal_hcd.c ****       {
 2149              		.loc 1 1107 10 view .LVU669
 2150 0244 022B     		cmp	r3, #2
 2151 0246 0CD0     		beq	.L138
 2152              	.LVL168:
 2153              	.L121:
1147:Drivers/STM32F7xx_HAL_Driver/Src/stm32f7xx_hal_hcd.c **** 
 2154              		.loc 1 1147 5 is_stmt 1 view .LVU670
1149:Drivers/STM32F7xx_HAL_Driver/Src/stm32f7xx_hal_hcd.c ****     HAL_HCD_HC_NotifyURBChange_Callback(hhcd, (uint8_t)ch_num, hhcd->hc[ch_num].urb_state);
 2155              		.loc 1 1149 5 view .LVU671
 2156 0248 0223     		movs	r3, #2
 2157 024a AB60     		str	r3, [r5, #8]
1150:Drivers/STM32F7xx_HAL_Driver/Src/stm32f7xx_hal_hcd.c ****   }
 2158              		.loc 1 1150 5 view .LVU672
 2159 024c 04EB8403 		add	r3, r4, r4, lsl #2
 2160 0250 06EBC303 		add	r3, r6, r3, lsl #3
 2161 0254 93F85C20 		ldrb	r2, [r3, #92]	@ zero_extendqisi2
 2162 0258 2146     		mov	r1, r4
 2163 025a 3046     		mov	r0, r6
 2164              	.LVL169:
1150:Drivers/STM32F7xx_HAL_Driver/Src/stm32f7xx_hal_hcd.c ****   }
 2165              		.loc 1 1150 5 is_stmt 0 view .LVU673
 2166 025c FFF7FEFF 		bl	HAL_HCD_HC_NotifyURBChange_Callback
 2167              	.LVL170:
1155:Drivers/STM32F7xx_HAL_Driver/Src/stm32f7xx_hal_hcd.c **** }
 2168              		.loc 1 1155 3 is_stmt 1 view .LVU674
1156:Drivers/STM32F7xx_HAL_Driver/Src/stm32f7xx_hal_hcd.c **** 
 2169              		.loc 1 1156 1 is_stmt 0 view .LVU675
 2170 0260 DEE6     		b	.L108
 2171              	.LVL171:
 2172              	.L138:
1109:Drivers/STM32F7xx_HAL_Driver/Src/stm32f7xx_hal_hcd.c ****       }
 2173              		.loc 1 1109 9 is_stmt 1 view .LVU676
1109:Drivers/STM32F7xx_HAL_Driver/Src/stm32f7xx_hal_hcd.c ****       }
 2174              		.loc 1 1109 37 is_stmt 0 view .LVU677
 2175 0262 2823     		movs	r3, #40
 2176 0264 03FB0103 		mla	r3, r3, r1, r0
 2177 0268 93F85120 		ldrb	r2, [r3, #81]	@ zero_extendqisi2
 2178 026c 82F00102 		eor	r2, r2, #1
 2179 0270 83F85120 		strb	r2, [r3, #81]
 2180 0274 E8E7     		b	.L121
ARM GAS  C:\Users\Nina\AppData\Local\Temp\ccxRUdKh.s 			page 72


 2181              	.L135:
1114:Drivers/STM32F7xx_HAL_Driver/Src/stm32f7xx_hal_hcd.c ****     }
 2182              		.loc 1 1114 7 is_stmt 1 view .LVU678
1114:Drivers/STM32F7xx_HAL_Driver/Src/stm32f7xx_hal_hcd.c ****     }
 2183              		.loc 1 1114 34 is_stmt 0 view .LVU679
 2184 0276 01EB8103 		add	r3, r1, r1, lsl #2
 2185 027a 00EBC303 		add	r3, r0, r3, lsl #3
 2186 027e 0222     		movs	r2, #2
 2187 0280 83F85C20 		strb	r2, [r3, #92]
 2188 0284 E0E7     		b	.L121
 2189              	.L136:
1118:Drivers/STM32F7xx_HAL_Driver/Src/stm32f7xx_hal_hcd.c ****     }
 2190              		.loc 1 1118 7 is_stmt 1 view .LVU680
1118:Drivers/STM32F7xx_HAL_Driver/Src/stm32f7xx_hal_hcd.c ****     }
 2191              		.loc 1 1118 35 is_stmt 0 view .LVU681
 2192 0286 2823     		movs	r3, #40
 2193 0288 03FB0103 		mla	r3, r3, r1, r0
 2194 028c 0222     		movs	r2, #2
 2195 028e 83F85C20 		strb	r2, [r3, #92]
 2196 0292 D9E7     		b	.L121
 2197              	.L137:
1122:Drivers/STM32F7xx_HAL_Driver/Src/stm32f7xx_hal_hcd.c ****     }
 2198              		.loc 1 1122 7 is_stmt 1 view .LVU682
1122:Drivers/STM32F7xx_HAL_Driver/Src/stm32f7xx_hal_hcd.c ****     }
 2199              		.loc 1 1122 35 is_stmt 0 view .LVU683
 2200 0294 2823     		movs	r3, #40
 2201 0296 03FB0103 		mla	r3, r3, r1, r0
 2202 029a 83F85C20 		strb	r2, [r3, #92]
 2203 029e D3E7     		b	.L121
 2204              	.LVL172:
 2205              	.L125:
1135:Drivers/STM32F7xx_HAL_Driver/Src/stm32f7xx_hal_hcd.c ****       }
 2206              		.loc 1 1135 9 is_stmt 1 view .LVU684
1135:Drivers/STM32F7xx_HAL_Driver/Src/stm32f7xx_hal_hcd.c ****       }
 2207              		.loc 1 1135 36 is_stmt 0 view .LVU685
 2208 02a0 2822     		movs	r2, #40
 2209 02a2 02FB0402 		mla	r2, r2, r4, r0
 2210 02a6 0221     		movs	r1, #2
 2211 02a8 82F85C10 		strb	r1, [r2, #92]
 2212 02ac 94E7     		b	.L126
 2213              		.cfi_endproc
 2214              	.LFE162:
 2216              		.section	.text.HAL_HCD_IRQHandler,"ax",%progbits
 2217              		.align	1
 2218              		.global	HAL_HCD_IRQHandler
 2219              		.syntax unified
 2220              		.thumb
 2221              		.thumb_func
 2222              		.fpu fpv5-sp-d16
 2224              	HAL_HCD_IRQHandler:
 2225              	.LVL173:
 2226              	.LFB145:
 466:Drivers/STM32F7xx_HAL_Driver/Src/stm32f7xx_hal_hcd.c ****   USB_OTG_GlobalTypeDef *USBx = hhcd->Instance;
 2227              		.loc 1 466 1 is_stmt 1 view -0
 2228              		.cfi_startproc
 2229              		@ args = 0, pretend = 0, frame = 0
 2230              		@ frame_needed = 0, uses_anonymous_args = 0
ARM GAS  C:\Users\Nina\AppData\Local\Temp\ccxRUdKh.s 			page 73


 466:Drivers/STM32F7xx_HAL_Driver/Src/stm32f7xx_hal_hcd.c ****   USB_OTG_GlobalTypeDef *USBx = hhcd->Instance;
 2231              		.loc 1 466 1 is_stmt 0 view .LVU687
 2232 0000 F8B5     		push	{r3, r4, r5, r6, r7, lr}
 2233              	.LCFI21:
 2234              		.cfi_def_cfa_offset 24
 2235              		.cfi_offset 3, -24
 2236              		.cfi_offset 4, -20
 2237              		.cfi_offset 5, -16
 2238              		.cfi_offset 6, -12
 2239              		.cfi_offset 7, -8
 2240              		.cfi_offset 14, -4
 2241 0002 0446     		mov	r4, r0
 467:Drivers/STM32F7xx_HAL_Driver/Src/stm32f7xx_hal_hcd.c ****   uint32_t USBx_BASE = (uint32_t)USBx;
 2242              		.loc 1 467 3 is_stmt 1 view .LVU688
 467:Drivers/STM32F7xx_HAL_Driver/Src/stm32f7xx_hal_hcd.c ****   uint32_t USBx_BASE = (uint32_t)USBx;
 2243              		.loc 1 467 26 is_stmt 0 view .LVU689
 2244 0004 0568     		ldr	r5, [r0]
 468:Drivers/STM32F7xx_HAL_Driver/Src/stm32f7xx_hal_hcd.c ****   uint32_t i, interrupt;
 2245              		.loc 1 468 3 is_stmt 1 view .LVU690
 2246              	.LVL174:
 469:Drivers/STM32F7xx_HAL_Driver/Src/stm32f7xx_hal_hcd.c **** 
 2247              		.loc 1 469 3 view .LVU691
 472:Drivers/STM32F7xx_HAL_Driver/Src/stm32f7xx_hal_hcd.c ****   {
 2248              		.loc 1 472 3 view .LVU692
 472:Drivers/STM32F7xx_HAL_Driver/Src/stm32f7xx_hal_hcd.c ****   {
 2249              		.loc 1 472 7 is_stmt 0 view .LVU693
 2250 0006 2846     		mov	r0, r5
 2251              	.LVL175:
 472:Drivers/STM32F7xx_HAL_Driver/Src/stm32f7xx_hal_hcd.c ****   {
 2252              		.loc 1 472 7 view .LVU694
 2253 0008 FFF7FEFF 		bl	USB_GetMode
 2254              	.LVL176:
 472:Drivers/STM32F7xx_HAL_Driver/Src/stm32f7xx_hal_hcd.c ****   {
 2255              		.loc 1 472 6 view .LVU695
 2256 000c 0128     		cmp	r0, #1
 2257 000e 00D0     		beq	.L154
 2258              	.L139:
 562:Drivers/STM32F7xx_HAL_Driver/Src/stm32f7xx_hal_hcd.c **** 
 2259              		.loc 1 562 1 view .LVU696
 2260 0010 F8BD     		pop	{r3, r4, r5, r6, r7, pc}
 2261              	.LVL177:
 2262              	.L154:
 475:Drivers/STM32F7xx_HAL_Driver/Src/stm32f7xx_hal_hcd.c ****     {
 2263              		.loc 1 475 5 is_stmt 1 view .LVU697
 475:Drivers/STM32F7xx_HAL_Driver/Src/stm32f7xx_hal_hcd.c ****     {
 2264              		.loc 1 475 8 is_stmt 0 view .LVU698
 2265 0012 2068     		ldr	r0, [r4]
 2266 0014 FFF7FEFF 		bl	USB_ReadInterrupts
 2267              	.LVL178:
 475:Drivers/STM32F7xx_HAL_Driver/Src/stm32f7xx_hal_hcd.c ****     {
 2268              		.loc 1 475 7 view .LVU699
 2269 0018 0028     		cmp	r0, #0
 2270 001a F9D0     		beq	.L139
 480:Drivers/STM32F7xx_HAL_Driver/Src/stm32f7xx_hal_hcd.c ****     {
 2271              		.loc 1 480 5 is_stmt 1 view .LVU700
 480:Drivers/STM32F7xx_HAL_Driver/Src/stm32f7xx_hal_hcd.c ****     {
 2272              		.loc 1 480 8 is_stmt 0 view .LVU701
ARM GAS  C:\Users\Nina\AppData\Local\Temp\ccxRUdKh.s 			page 74


 2273 001c 2068     		ldr	r0, [r4]
 2274 001e FFF7FEFF 		bl	USB_ReadInterrupts
 2275              	.LVL179:
 480:Drivers/STM32F7xx_HAL_Driver/Src/stm32f7xx_hal_hcd.c ****     {
 2276              		.loc 1 480 7 view .LVU702
 2277 0022 10F4001F 		tst	r0, #2097152
 2278 0026 03D0     		beq	.L141
 483:Drivers/STM32F7xx_HAL_Driver/Src/stm32f7xx_hal_hcd.c ****     }
 2279              		.loc 1 483 7 is_stmt 1 view .LVU703
 2280 0028 2368     		ldr	r3, [r4]
 2281 002a 4FF40012 		mov	r2, #2097152
 2282 002e 5A61     		str	r2, [r3, #20]
 2283              	.L141:
 486:Drivers/STM32F7xx_HAL_Driver/Src/stm32f7xx_hal_hcd.c ****     {
 2284              		.loc 1 486 5 view .LVU704
 486:Drivers/STM32F7xx_HAL_Driver/Src/stm32f7xx_hal_hcd.c ****     {
 2285              		.loc 1 486 8 is_stmt 0 view .LVU705
 2286 0030 2068     		ldr	r0, [r4]
 2287 0032 FFF7FEFF 		bl	USB_ReadInterrupts
 2288              	.LVL180:
 486:Drivers/STM32F7xx_HAL_Driver/Src/stm32f7xx_hal_hcd.c ****     {
 2289              		.loc 1 486 7 view .LVU706
 2290 0036 10F4801F 		tst	r0, #1048576
 2291 003a 03D0     		beq	.L142
 489:Drivers/STM32F7xx_HAL_Driver/Src/stm32f7xx_hal_hcd.c ****     }
 2292              		.loc 1 489 7 is_stmt 1 view .LVU707
 2293 003c 2368     		ldr	r3, [r4]
 2294 003e 4FF48012 		mov	r2, #1048576
 2295 0042 5A61     		str	r2, [r3, #20]
 2296              	.L142:
 492:Drivers/STM32F7xx_HAL_Driver/Src/stm32f7xx_hal_hcd.c ****     {
 2297              		.loc 1 492 5 view .LVU708
 492:Drivers/STM32F7xx_HAL_Driver/Src/stm32f7xx_hal_hcd.c ****     {
 2298              		.loc 1 492 8 is_stmt 0 view .LVU709
 2299 0044 2068     		ldr	r0, [r4]
 2300 0046 FFF7FEFF 		bl	USB_ReadInterrupts
 2301              	.LVL181:
 492:Drivers/STM32F7xx_HAL_Driver/Src/stm32f7xx_hal_hcd.c ****     {
 2302              		.loc 1 492 7 view .LVU710
 2303 004a 10F0806F 		tst	r0, #67108864
 2304 004e 03D0     		beq	.L143
 495:Drivers/STM32F7xx_HAL_Driver/Src/stm32f7xx_hal_hcd.c ****     }
 2305              		.loc 1 495 7 is_stmt 1 view .LVU711
 2306 0050 2368     		ldr	r3, [r4]
 2307 0052 4FF08062 		mov	r2, #67108864
 2308 0056 5A61     		str	r2, [r3, #20]
 2309              	.L143:
 498:Drivers/STM32F7xx_HAL_Driver/Src/stm32f7xx_hal_hcd.c ****     {
 2310              		.loc 1 498 5 view .LVU712
 498:Drivers/STM32F7xx_HAL_Driver/Src/stm32f7xx_hal_hcd.c ****     {
 2311              		.loc 1 498 8 is_stmt 0 view .LVU713
 2312 0058 2068     		ldr	r0, [r4]
 2313 005a FFF7FEFF 		bl	USB_ReadInterrupts
 2314              	.LVL182:
 498:Drivers/STM32F7xx_HAL_Driver/Src/stm32f7xx_hal_hcd.c ****     {
 2315              		.loc 1 498 7 view .LVU714
 2316 005e 10F0020F 		tst	r0, #2
ARM GAS  C:\Users\Nina\AppData\Local\Temp\ccxRUdKh.s 			page 75


 2317 0062 02D0     		beq	.L144
 501:Drivers/STM32F7xx_HAL_Driver/Src/stm32f7xx_hal_hcd.c ****     }
 2318              		.loc 1 501 7 is_stmt 1 view .LVU715
 2319 0064 2368     		ldr	r3, [r4]
 2320 0066 0222     		movs	r2, #2
 2321 0068 5A61     		str	r2, [r3, #20]
 2322              	.L144:
 505:Drivers/STM32F7xx_HAL_Driver/Src/stm32f7xx_hal_hcd.c ****     {
 2323              		.loc 1 505 5 view .LVU716
 505:Drivers/STM32F7xx_HAL_Driver/Src/stm32f7xx_hal_hcd.c ****     {
 2324              		.loc 1 505 8 is_stmt 0 view .LVU717
 2325 006a 2068     		ldr	r0, [r4]
 2326 006c FFF7FEFF 		bl	USB_ReadInterrupts
 2327              	.LVL183:
 505:Drivers/STM32F7xx_HAL_Driver/Src/stm32f7xx_hal_hcd.c ****     {
 2328              		.loc 1 505 7 view .LVU718
 2329 0070 10F0005F 		tst	r0, #536870912
 2330 0074 25D1     		bne	.L155
 2331              	.L145:
 519:Drivers/STM32F7xx_HAL_Driver/Src/stm32f7xx_hal_hcd.c ****     {
 2332              		.loc 1 519 5 is_stmt 1 view .LVU719
 519:Drivers/STM32F7xx_HAL_Driver/Src/stm32f7xx_hal_hcd.c ****     {
 2333              		.loc 1 519 8 is_stmt 0 view .LVU720
 2334 0076 2068     		ldr	r0, [r4]
 2335 0078 FFF7FEFF 		bl	USB_ReadInterrupts
 2336              	.LVL184:
 519:Drivers/STM32F7xx_HAL_Driver/Src/stm32f7xx_hal_hcd.c ****     {
 2337              		.loc 1 519 7 view .LVU721
 2338 007c 10F0807F 		tst	r0, #16777216
 2339 0080 31D1     		bne	.L156
 2340              	.L146:
 525:Drivers/STM32F7xx_HAL_Driver/Src/stm32f7xx_hal_hcd.c ****     {
 2341              		.loc 1 525 5 is_stmt 1 view .LVU722
 525:Drivers/STM32F7xx_HAL_Driver/Src/stm32f7xx_hal_hcd.c ****     {
 2342              		.loc 1 525 8 is_stmt 0 view .LVU723
 2343 0082 2068     		ldr	r0, [r4]
 2344 0084 FFF7FEFF 		bl	USB_ReadInterrupts
 2345              	.LVL185:
 525:Drivers/STM32F7xx_HAL_Driver/Src/stm32f7xx_hal_hcd.c ****     {
 2346              		.loc 1 525 7 view .LVU724
 2347 0088 10F0080F 		tst	r0, #8
 2348 008c 2FD1     		bne	.L157
 2349              	.L147:
 532:Drivers/STM32F7xx_HAL_Driver/Src/stm32f7xx_hal_hcd.c ****     {
 2350              		.loc 1 532 5 is_stmt 1 view .LVU725
 532:Drivers/STM32F7xx_HAL_Driver/Src/stm32f7xx_hal_hcd.c ****     {
 2351              		.loc 1 532 8 is_stmt 0 view .LVU726
 2352 008e 2068     		ldr	r0, [r4]
 2353 0090 FFF7FEFF 		bl	USB_ReadInterrupts
 2354              	.LVL186:
 532:Drivers/STM32F7xx_HAL_Driver/Src/stm32f7xx_hal_hcd.c ****     {
 2355              		.loc 1 532 7 view .LVU727
 2356 0094 10F0007F 		tst	r0, #33554432
 2357 0098 30D1     		bne	.L158
 2358              	.L148:
 553:Drivers/STM32F7xx_HAL_Driver/Src/stm32f7xx_hal_hcd.c ****     {
 2359              		.loc 1 553 5 is_stmt 1 view .LVU728
ARM GAS  C:\Users\Nina\AppData\Local\Temp\ccxRUdKh.s 			page 76


 553:Drivers/STM32F7xx_HAL_Driver/Src/stm32f7xx_hal_hcd.c ****     {
 2360              		.loc 1 553 9 is_stmt 0 view .LVU729
 2361 009a 2068     		ldr	r0, [r4]
 2362 009c FFF7FEFF 		bl	USB_ReadInterrupts
 2363              	.LVL187:
 553:Drivers/STM32F7xx_HAL_Driver/Src/stm32f7xx_hal_hcd.c ****     {
 2364              		.loc 1 553 59 view .LVU730
 2365 00a0 10F0100F 		tst	r0, #16
 2366 00a4 B4D0     		beq	.L139
 555:Drivers/STM32F7xx_HAL_Driver/Src/stm32f7xx_hal_hcd.c **** 
 2367              		.loc 1 555 7 is_stmt 1 view .LVU731
 2368 00a6 2268     		ldr	r2, [r4]
 2369 00a8 9369     		ldr	r3, [r2, #24]
 2370 00aa 23F01003 		bic	r3, r3, #16
 2371 00ae 9361     		str	r3, [r2, #24]
 557:Drivers/STM32F7xx_HAL_Driver/Src/stm32f7xx_hal_hcd.c **** 
 2372              		.loc 1 557 7 view .LVU732
 2373 00b0 2046     		mov	r0, r4
 2374 00b2 FFF7FEFF 		bl	HCD_RXQLVL_IRQHandler
 2375              	.LVL188:
 559:Drivers/STM32F7xx_HAL_Driver/Src/stm32f7xx_hal_hcd.c ****     }
 2376              		.loc 1 559 7 view .LVU733
 2377 00b6 2268     		ldr	r2, [r4]
 2378 00b8 9369     		ldr	r3, [r2, #24]
 2379 00ba 43F01003 		orr	r3, r3, #16
 2380 00be 9361     		str	r3, [r2, #24]
 2381 00c0 A6E7     		b	.L139
 2382              	.L155:
 509:Drivers/STM32F7xx_HAL_Driver/Src/stm32f7xx_hal_hcd.c ****         USB_OTG_HPRT_PENCHNG | USB_OTG_HPRT_POCCHNG );
 2383              		.loc 1 509 7 view .LVU734
 509:Drivers/STM32F7xx_HAL_Driver/Src/stm32f7xx_hal_hcd.c ****         USB_OTG_HPRT_PENCHNG | USB_OTG_HPRT_POCCHNG );
 2384              		.loc 1 509 18 is_stmt 0 view .LVU735
 2385 00c2 D5F84034 		ldr	r3, [r5, #1088]
 2386 00c6 23F02E03 		bic	r3, r3, #46
 2387 00ca C5F84034 		str	r3, [r5, #1088]
 513:Drivers/STM32F7xx_HAL_Driver/Src/stm32f7xx_hal_hcd.c ****       (void)USB_InitFSLSPClkSel(hhcd->Instance, HCFG_48_MHZ);
 2388              		.loc 1 513 7 is_stmt 1 view .LVU736
 2389 00ce 2046     		mov	r0, r4
 2390 00d0 FFF7FEFF 		bl	HAL_HCD_Disconnect_Callback
 2391              	.LVL189:
 514:Drivers/STM32F7xx_HAL_Driver/Src/stm32f7xx_hal_hcd.c ****       __HAL_HCD_CLEAR_FLAG(hhcd, USB_OTG_GINTSTS_DISCINT);
 2392              		.loc 1 514 7 view .LVU737
 514:Drivers/STM32F7xx_HAL_Driver/Src/stm32f7xx_hal_hcd.c ****       __HAL_HCD_CLEAR_FLAG(hhcd, USB_OTG_GINTSTS_DISCINT);
 2393              		.loc 1 514 13 is_stmt 0 view .LVU738
 2394 00d4 0121     		movs	r1, #1
 2395 00d6 2068     		ldr	r0, [r4]
 2396 00d8 FFF7FEFF 		bl	USB_InitFSLSPClkSel
 2397              	.LVL190:
 515:Drivers/STM32F7xx_HAL_Driver/Src/stm32f7xx_hal_hcd.c ****     }
 2398              		.loc 1 515 7 is_stmt 1 view .LVU739
 2399 00dc 2368     		ldr	r3, [r4]
 2400 00de 4FF00052 		mov	r2, #536870912
 2401 00e2 5A61     		str	r2, [r3, #20]
 2402 00e4 C7E7     		b	.L145
 2403              	.L156:
 521:Drivers/STM32F7xx_HAL_Driver/Src/stm32f7xx_hal_hcd.c ****     }
 2404              		.loc 1 521 7 view .LVU740
ARM GAS  C:\Users\Nina\AppData\Local\Temp\ccxRUdKh.s 			page 77


 2405 00e6 2046     		mov	r0, r4
 2406 00e8 FFF7FEFF 		bl	HCD_Port_IRQHandler
 2407              	.LVL191:
 2408 00ec C9E7     		b	.L146
 2409              	.L157:
 527:Drivers/STM32F7xx_HAL_Driver/Src/stm32f7xx_hal_hcd.c ****       __HAL_HCD_CLEAR_FLAG(hhcd, USB_OTG_GINTSTS_SOF);
 2410              		.loc 1 527 7 view .LVU741
 2411 00ee 2046     		mov	r0, r4
 2412 00f0 FFF7FEFF 		bl	HAL_HCD_SOF_Callback
 2413              	.LVL192:
 528:Drivers/STM32F7xx_HAL_Driver/Src/stm32f7xx_hal_hcd.c ****     }
 2414              		.loc 1 528 7 view .LVU742
 2415 00f4 2368     		ldr	r3, [r4]
 2416 00f6 0822     		movs	r2, #8
 2417 00f8 5A61     		str	r2, [r3, #20]
 2418 00fa C8E7     		b	.L147
 2419              	.L158:
 534:Drivers/STM32F7xx_HAL_Driver/Src/stm32f7xx_hal_hcd.c ****       for (i = 0U; i < hhcd->Init.Host_channels; i++)
 2420              		.loc 1 534 7 view .LVU743
 534:Drivers/STM32F7xx_HAL_Driver/Src/stm32f7xx_hal_hcd.c ****       for (i = 0U; i < hhcd->Init.Host_channels; i++)
 2421              		.loc 1 534 19 is_stmt 0 view .LVU744
 2422 00fc 2068     		ldr	r0, [r4]
 2423 00fe FFF7FEFF 		bl	USB_HC_ReadInterrupt
 2424              	.LVL193:
 2425 0102 0746     		mov	r7, r0
 2426              	.LVL194:
 535:Drivers/STM32F7xx_HAL_Driver/Src/stm32f7xx_hal_hcd.c ****       {
 2427              		.loc 1 535 7 is_stmt 1 view .LVU745
 535:Drivers/STM32F7xx_HAL_Driver/Src/stm32f7xx_hal_hcd.c ****       {
 2428              		.loc 1 535 14 is_stmt 0 view .LVU746
 2429 0104 0026     		movs	r6, #0
 535:Drivers/STM32F7xx_HAL_Driver/Src/stm32f7xx_hal_hcd.c ****       {
 2430              		.loc 1 535 7 view .LVU747
 2431 0106 04E0     		b	.L149
 2432              	.LVL195:
 2433              	.L151:
 545:Drivers/STM32F7xx_HAL_Driver/Src/stm32f7xx_hal_hcd.c ****           }
 2434              		.loc 1 545 13 is_stmt 1 view .LVU748
 2435 0108 F1B2     		uxtb	r1, r6
 2436 010a 2046     		mov	r0, r4
 2437 010c FFF7FEFF 		bl	HCD_HC_OUT_IRQHandler
 2438              	.LVL196:
 2439              	.L150:
 535:Drivers/STM32F7xx_HAL_Driver/Src/stm32f7xx_hal_hcd.c ****       {
 2440              		.loc 1 535 50 discriminator 2 view .LVU749
 535:Drivers/STM32F7xx_HAL_Driver/Src/stm32f7xx_hal_hcd.c ****       {
 2441              		.loc 1 535 51 is_stmt 0 discriminator 2 view .LVU750
 2442 0110 0136     		adds	r6, r6, #1
 2443              	.LVL197:
 2444              	.L149:
 535:Drivers/STM32F7xx_HAL_Driver/Src/stm32f7xx_hal_hcd.c ****       {
 2445              		.loc 1 535 20 is_stmt 1 discriminator 1 view .LVU751
 535:Drivers/STM32F7xx_HAL_Driver/Src/stm32f7xx_hal_hcd.c ****       {
 2446              		.loc 1 535 34 is_stmt 0 discriminator 1 view .LVU752
 2447 0112 A368     		ldr	r3, [r4, #8]
 535:Drivers/STM32F7xx_HAL_Driver/Src/stm32f7xx_hal_hcd.c ****       {
 2448              		.loc 1 535 7 discriminator 1 view .LVU753
ARM GAS  C:\Users\Nina\AppData\Local\Temp\ccxRUdKh.s 			page 78


 2449 0114 B342     		cmp	r3, r6
 2450 0116 12D9     		bls	.L159
 537:Drivers/STM32F7xx_HAL_Driver/Src/stm32f7xx_hal_hcd.c ****         {
 2451              		.loc 1 537 9 is_stmt 1 view .LVU754
 537:Drivers/STM32F7xx_HAL_Driver/Src/stm32f7xx_hal_hcd.c ****         {
 2452              		.loc 1 537 37 is_stmt 0 view .LVU755
 2453 0118 06F00F03 		and	r3, r6, #15
 537:Drivers/STM32F7xx_HAL_Driver/Src/stm32f7xx_hal_hcd.c ****         {
 2454              		.loc 1 537 47 view .LVU756
 2455 011c 27FA03F3 		lsr	r3, r7, r3
 537:Drivers/STM32F7xx_HAL_Driver/Src/stm32f7xx_hal_hcd.c ****         {
 2456              		.loc 1 537 12 view .LVU757
 2457 0120 13F0010F 		tst	r3, #1
 2458 0124 F4D0     		beq	.L150
 539:Drivers/STM32F7xx_HAL_Driver/Src/stm32f7xx_hal_hcd.c ****           {
 2459              		.loc 1 539 11 is_stmt 1 view .LVU758
 539:Drivers/STM32F7xx_HAL_Driver/Src/stm32f7xx_hal_hcd.c ****           {
 2460              		.loc 1 539 16 is_stmt 0 view .LVU759
 2461 0126 05EB4613 		add	r3, r5, r6, lsl #5
 539:Drivers/STM32F7xx_HAL_Driver/Src/stm32f7xx_hal_hcd.c ****           {
 2462              		.loc 1 539 26 view .LVU760
 2463 012a D3F80035 		ldr	r3, [r3, #1280]
 539:Drivers/STM32F7xx_HAL_Driver/Src/stm32f7xx_hal_hcd.c ****           {
 2464              		.loc 1 539 14 view .LVU761
 2465 012e 13F4004F 		tst	r3, #32768
 2466 0132 E9D0     		beq	.L151
 541:Drivers/STM32F7xx_HAL_Driver/Src/stm32f7xx_hal_hcd.c ****           }
 2467              		.loc 1 541 13 is_stmt 1 view .LVU762
 2468 0134 F1B2     		uxtb	r1, r6
 2469 0136 2046     		mov	r0, r4
 2470 0138 FFF7FEFF 		bl	HCD_HC_IN_IRQHandler
 2471              	.LVL198:
 2472 013c E8E7     		b	.L150
 2473              	.L159:
 549:Drivers/STM32F7xx_HAL_Driver/Src/stm32f7xx_hal_hcd.c ****     }
 2474              		.loc 1 549 7 view .LVU763
 2475 013e 2368     		ldr	r3, [r4]
 2476 0140 4FF00072 		mov	r2, #33554432
 2477 0144 5A61     		str	r2, [r3, #20]
 2478 0146 A8E7     		b	.L148
 2479              		.cfi_endproc
 2480              	.LFE145:
 2482              		.section	.text.HAL_HCD_Start,"ax",%progbits
 2483              		.align	1
 2484              		.global	HAL_HCD_Start
 2485              		.syntax unified
 2486              		.thumb
 2487              		.thumb_func
 2488              		.fpu fpv5-sp-d16
 2490              	HAL_HCD_Start:
 2491              	.LVL199:
 2492              	.LFB152:
 691:Drivers/STM32F7xx_HAL_Driver/Src/stm32f7xx_hal_hcd.c ****   __HAL_LOCK(hhcd);
 2493              		.loc 1 691 1 view -0
 2494              		.cfi_startproc
 2495              		@ args = 0, pretend = 0, frame = 0
 2496              		@ frame_needed = 0, uses_anonymous_args = 0
ARM GAS  C:\Users\Nina\AppData\Local\Temp\ccxRUdKh.s 			page 79


 691:Drivers/STM32F7xx_HAL_Driver/Src/stm32f7xx_hal_hcd.c ****   __HAL_LOCK(hhcd);
 2497              		.loc 1 691 1 is_stmt 0 view .LVU765
 2498 0000 38B5     		push	{r3, r4, r5, lr}
 2499              	.LCFI22:
 2500              		.cfi_def_cfa_offset 16
 2501              		.cfi_offset 3, -16
 2502              		.cfi_offset 4, -12
 2503              		.cfi_offset 5, -8
 2504              		.cfi_offset 14, -4
 692:Drivers/STM32F7xx_HAL_Driver/Src/stm32f7xx_hal_hcd.c ****   __HAL_HCD_ENABLE(hhcd);
 2505              		.loc 1 692 3 is_stmt 1 view .LVU766
 692:Drivers/STM32F7xx_HAL_Driver/Src/stm32f7xx_hal_hcd.c ****   __HAL_HCD_ENABLE(hhcd);
 2506              		.loc 1 692 3 view .LVU767
 2507 0002 90F8B832 		ldrb	r3, [r0, #696]	@ zero_extendqisi2
 2508 0006 012B     		cmp	r3, #1
 2509 0008 0ED0     		beq	.L162
 2510 000a 0446     		mov	r4, r0
 692:Drivers/STM32F7xx_HAL_Driver/Src/stm32f7xx_hal_hcd.c ****   __HAL_HCD_ENABLE(hhcd);
 2511              		.loc 1 692 3 discriminator 2 view .LVU768
 2512 000c 0125     		movs	r5, #1
 2513 000e 80F8B852 		strb	r5, [r0, #696]
 692:Drivers/STM32F7xx_HAL_Driver/Src/stm32f7xx_hal_hcd.c ****   __HAL_HCD_ENABLE(hhcd);
 2514              		.loc 1 692 3 discriminator 2 view .LVU769
 693:Drivers/STM32F7xx_HAL_Driver/Src/stm32f7xx_hal_hcd.c ****   (void)USB_DriveVbus(hhcd->Instance, 1U);
 2515              		.loc 1 693 3 discriminator 2 view .LVU770
 2516 0012 0068     		ldr	r0, [r0]
 2517              	.LVL200:
 693:Drivers/STM32F7xx_HAL_Driver/Src/stm32f7xx_hal_hcd.c ****   (void)USB_DriveVbus(hhcd->Instance, 1U);
 2518              		.loc 1 693 3 is_stmt 0 discriminator 2 view .LVU771
 2519 0014 FFF7FEFF 		bl	USB_EnableGlobalInt
 2520              	.LVL201:
 694:Drivers/STM32F7xx_HAL_Driver/Src/stm32f7xx_hal_hcd.c ****   __HAL_UNLOCK(hhcd);
 2521              		.loc 1 694 3 is_stmt 1 discriminator 2 view .LVU772
 694:Drivers/STM32F7xx_HAL_Driver/Src/stm32f7xx_hal_hcd.c ****   __HAL_UNLOCK(hhcd);
 2522              		.loc 1 694 9 is_stmt 0 discriminator 2 view .LVU773
 2523 0018 2946     		mov	r1, r5
 2524 001a 2068     		ldr	r0, [r4]
 2525 001c FFF7FEFF 		bl	USB_DriveVbus
 2526              	.LVL202:
 695:Drivers/STM32F7xx_HAL_Driver/Src/stm32f7xx_hal_hcd.c ****   return HAL_OK;
 2527              		.loc 1 695 3 is_stmt 1 discriminator 2 view .LVU774
 695:Drivers/STM32F7xx_HAL_Driver/Src/stm32f7xx_hal_hcd.c ****   return HAL_OK;
 2528              		.loc 1 695 3 discriminator 2 view .LVU775
 2529 0020 0020     		movs	r0, #0
 2530 0022 84F8B802 		strb	r0, [r4, #696]
 695:Drivers/STM32F7xx_HAL_Driver/Src/stm32f7xx_hal_hcd.c ****   return HAL_OK;
 2531              		.loc 1 695 3 discriminator 2 view .LVU776
 696:Drivers/STM32F7xx_HAL_Driver/Src/stm32f7xx_hal_hcd.c **** }
 2532              		.loc 1 696 3 discriminator 2 view .LVU777
 2533              	.LVL203:
 2534              	.L161:
 697:Drivers/STM32F7xx_HAL_Driver/Src/stm32f7xx_hal_hcd.c **** 
 2535              		.loc 1 697 1 is_stmt 0 view .LVU778
 2536 0026 38BD     		pop	{r3, r4, r5, pc}
 2537              	.LVL204:
 2538              	.L162:
 692:Drivers/STM32F7xx_HAL_Driver/Src/stm32f7xx_hal_hcd.c ****   __HAL_HCD_ENABLE(hhcd);
ARM GAS  C:\Users\Nina\AppData\Local\Temp\ccxRUdKh.s 			page 80


 2539              		.loc 1 692 3 view .LVU779
 2540 0028 0220     		movs	r0, #2
 2541              	.LVL205:
 692:Drivers/STM32F7xx_HAL_Driver/Src/stm32f7xx_hal_hcd.c ****   __HAL_HCD_ENABLE(hhcd);
 2542              		.loc 1 692 3 view .LVU780
 2543 002a FCE7     		b	.L161
 2544              		.cfi_endproc
 2545              	.LFE152:
 2547              		.section	.text.HAL_HCD_Stop,"ax",%progbits
 2548              		.align	1
 2549              		.global	HAL_HCD_Stop
 2550              		.syntax unified
 2551              		.thumb
 2552              		.thumb_func
 2553              		.fpu fpv5-sp-d16
 2555              	HAL_HCD_Stop:
 2556              	.LVL206:
 2557              	.LFB153:
 706:Drivers/STM32F7xx_HAL_Driver/Src/stm32f7xx_hal_hcd.c ****   __HAL_LOCK(hhcd);
 2558              		.loc 1 706 1 is_stmt 1 view -0
 2559              		.cfi_startproc
 2560              		@ args = 0, pretend = 0, frame = 0
 2561              		@ frame_needed = 0, uses_anonymous_args = 0
 707:Drivers/STM32F7xx_HAL_Driver/Src/stm32f7xx_hal_hcd.c ****   (void)USB_StopHost(hhcd->Instance);
 2562              		.loc 1 707 3 view .LVU782
 707:Drivers/STM32F7xx_HAL_Driver/Src/stm32f7xx_hal_hcd.c ****   (void)USB_StopHost(hhcd->Instance);
 2563              		.loc 1 707 3 view .LVU783
 2564 0000 90F8B832 		ldrb	r3, [r0, #696]	@ zero_extendqisi2
 2565 0004 012B     		cmp	r3, #1
 2566 0006 0BD0     		beq	.L166
 706:Drivers/STM32F7xx_HAL_Driver/Src/stm32f7xx_hal_hcd.c ****   __HAL_LOCK(hhcd);
 2567              		.loc 1 706 1 is_stmt 0 discriminator 2 view .LVU784
 2568 0008 10B5     		push	{r4, lr}
 2569              	.LCFI23:
 2570              		.cfi_def_cfa_offset 8
 2571              		.cfi_offset 4, -8
 2572              		.cfi_offset 14, -4
 2573 000a 0446     		mov	r4, r0
 707:Drivers/STM32F7xx_HAL_Driver/Src/stm32f7xx_hal_hcd.c ****   (void)USB_StopHost(hhcd->Instance);
 2574              		.loc 1 707 3 is_stmt 1 discriminator 2 view .LVU785
 2575 000c 0123     		movs	r3, #1
 2576 000e 80F8B832 		strb	r3, [r0, #696]
 707:Drivers/STM32F7xx_HAL_Driver/Src/stm32f7xx_hal_hcd.c ****   (void)USB_StopHost(hhcd->Instance);
 2577              		.loc 1 707 3 discriminator 2 view .LVU786
 708:Drivers/STM32F7xx_HAL_Driver/Src/stm32f7xx_hal_hcd.c ****   __HAL_UNLOCK(hhcd);
 2578              		.loc 1 708 3 discriminator 2 view .LVU787
 708:Drivers/STM32F7xx_HAL_Driver/Src/stm32f7xx_hal_hcd.c ****   __HAL_UNLOCK(hhcd);
 2579              		.loc 1 708 9 is_stmt 0 discriminator 2 view .LVU788
 2580 0012 0068     		ldr	r0, [r0]
 2581              	.LVL207:
 708:Drivers/STM32F7xx_HAL_Driver/Src/stm32f7xx_hal_hcd.c ****   __HAL_UNLOCK(hhcd);
 2582              		.loc 1 708 9 discriminator 2 view .LVU789
 2583 0014 FFF7FEFF 		bl	USB_StopHost
 2584              	.LVL208:
 709:Drivers/STM32F7xx_HAL_Driver/Src/stm32f7xx_hal_hcd.c ****   return HAL_OK;
 2585              		.loc 1 709 3 is_stmt 1 discriminator 2 view .LVU790
 709:Drivers/STM32F7xx_HAL_Driver/Src/stm32f7xx_hal_hcd.c ****   return HAL_OK;
ARM GAS  C:\Users\Nina\AppData\Local\Temp\ccxRUdKh.s 			page 81


 2586              		.loc 1 709 3 discriminator 2 view .LVU791
 2587 0018 0020     		movs	r0, #0
 2588 001a 84F8B802 		strb	r0, [r4, #696]
 709:Drivers/STM32F7xx_HAL_Driver/Src/stm32f7xx_hal_hcd.c ****   return HAL_OK;
 2589              		.loc 1 709 3 discriminator 2 view .LVU792
 710:Drivers/STM32F7xx_HAL_Driver/Src/stm32f7xx_hal_hcd.c **** }
 2590              		.loc 1 710 3 discriminator 2 view .LVU793
 711:Drivers/STM32F7xx_HAL_Driver/Src/stm32f7xx_hal_hcd.c **** 
 2591              		.loc 1 711 1 is_stmt 0 discriminator 2 view .LVU794
 2592 001e 10BD     		pop	{r4, pc}
 2593              	.LVL209:
 2594              	.L166:
 2595              	.LCFI24:
 2596              		.cfi_def_cfa_offset 0
 2597              		.cfi_restore 4
 2598              		.cfi_restore 14
 707:Drivers/STM32F7xx_HAL_Driver/Src/stm32f7xx_hal_hcd.c ****   (void)USB_StopHost(hhcd->Instance);
 2599              		.loc 1 707 3 view .LVU795
 2600 0020 0220     		movs	r0, #2
 2601              	.LVL210:
 711:Drivers/STM32F7xx_HAL_Driver/Src/stm32f7xx_hal_hcd.c **** 
 2602              		.loc 1 711 1 view .LVU796
 2603 0022 7047     		bx	lr
 2604              		.cfi_endproc
 2605              	.LFE153:
 2607              		.section	.text.HAL_HCD_ResetPort,"ax",%progbits
 2608              		.align	1
 2609              		.global	HAL_HCD_ResetPort
 2610              		.syntax unified
 2611              		.thumb
 2612              		.thumb_func
 2613              		.fpu fpv5-sp-d16
 2615              	HAL_HCD_ResetPort:
 2616              	.LVL211:
 2617              	.LFB154:
 719:Drivers/STM32F7xx_HAL_Driver/Src/stm32f7xx_hal_hcd.c ****   return (USB_ResetPort(hhcd->Instance));
 2618              		.loc 1 719 1 is_stmt 1 view -0
 2619              		.cfi_startproc
 2620              		@ args = 0, pretend = 0, frame = 0
 2621              		@ frame_needed = 0, uses_anonymous_args = 0
 719:Drivers/STM32F7xx_HAL_Driver/Src/stm32f7xx_hal_hcd.c ****   return (USB_ResetPort(hhcd->Instance));
 2622              		.loc 1 719 1 is_stmt 0 view .LVU798
 2623 0000 08B5     		push	{r3, lr}
 2624              	.LCFI25:
 2625              		.cfi_def_cfa_offset 8
 2626              		.cfi_offset 3, -8
 2627              		.cfi_offset 14, -4
 720:Drivers/STM32F7xx_HAL_Driver/Src/stm32f7xx_hal_hcd.c **** }
 2628              		.loc 1 720 3 is_stmt 1 view .LVU799
 720:Drivers/STM32F7xx_HAL_Driver/Src/stm32f7xx_hal_hcd.c **** }
 2629              		.loc 1 720 11 is_stmt 0 view .LVU800
 2630 0002 0068     		ldr	r0, [r0]
 2631              	.LVL212:
 720:Drivers/STM32F7xx_HAL_Driver/Src/stm32f7xx_hal_hcd.c **** }
 2632              		.loc 1 720 11 view .LVU801
 2633 0004 FFF7FEFF 		bl	USB_ResetPort
 2634              	.LVL213:
ARM GAS  C:\Users\Nina\AppData\Local\Temp\ccxRUdKh.s 			page 82


 721:Drivers/STM32F7xx_HAL_Driver/Src/stm32f7xx_hal_hcd.c **** 
 2635              		.loc 1 721 1 view .LVU802
 2636 0008 08BD     		pop	{r3, pc}
 2637              		.cfi_endproc
 2638              	.LFE154:
 2640              		.section	.text.HAL_HCD_GetState,"ax",%progbits
 2641              		.align	1
 2642              		.global	HAL_HCD_GetState
 2643              		.syntax unified
 2644              		.thumb
 2645              		.thumb_func
 2646              		.fpu fpv5-sp-d16
 2648              	HAL_HCD_GetState:
 2649              	.LVL214:
 2650              	.LFB155:
 748:Drivers/STM32F7xx_HAL_Driver/Src/stm32f7xx_hal_hcd.c ****   return hhcd->State;
 2651              		.loc 1 748 1 is_stmt 1 view -0
 2652              		.cfi_startproc
 2653              		@ args = 0, pretend = 0, frame = 0
 2654              		@ frame_needed = 0, uses_anonymous_args = 0
 2655              		@ link register save eliminated.
 749:Drivers/STM32F7xx_HAL_Driver/Src/stm32f7xx_hal_hcd.c **** }
 2656              		.loc 1 749 3 view .LVU804
 749:Drivers/STM32F7xx_HAL_Driver/Src/stm32f7xx_hal_hcd.c **** }
 2657              		.loc 1 749 14 is_stmt 0 view .LVU805
 2658 0000 90F8B902 		ldrb	r0, [r0, #697]	@ zero_extendqisi2
 2659              	.LVL215:
 750:Drivers/STM32F7xx_HAL_Driver/Src/stm32f7xx_hal_hcd.c **** 
 2660              		.loc 1 750 1 view .LVU806
 2661 0004 7047     		bx	lr
 2662              		.cfi_endproc
 2663              	.LFE155:
 2665              		.section	.text.HAL_HCD_HC_GetURBState,"ax",%progbits
 2666              		.align	1
 2667              		.global	HAL_HCD_HC_GetURBState
 2668              		.syntax unified
 2669              		.thumb
 2670              		.thumb_func
 2671              		.fpu fpv5-sp-d16
 2673              	HAL_HCD_HC_GetURBState:
 2674              	.LVL216:
 2675              	.LFB156:
 767:Drivers/STM32F7xx_HAL_Driver/Src/stm32f7xx_hal_hcd.c ****   return hhcd->hc[chnum].urb_state;
 2676              		.loc 1 767 1 is_stmt 1 view -0
 2677              		.cfi_startproc
 2678              		@ args = 0, pretend = 0, frame = 0
 2679              		@ frame_needed = 0, uses_anonymous_args = 0
 2680              		@ link register save eliminated.
 768:Drivers/STM32F7xx_HAL_Driver/Src/stm32f7xx_hal_hcd.c **** }
 2681              		.loc 1 768 3 view .LVU808
 768:Drivers/STM32F7xx_HAL_Driver/Src/stm32f7xx_hal_hcd.c **** }
 2682              		.loc 1 768 25 is_stmt 0 view .LVU809
 2683 0000 01EB8101 		add	r1, r1, r1, lsl #2
 2684              	.LVL217:
 768:Drivers/STM32F7xx_HAL_Driver/Src/stm32f7xx_hal_hcd.c **** }
 2685              		.loc 1 768 25 view .LVU810
 2686 0004 00EBC101 		add	r1, r0, r1, lsl #3
ARM GAS  C:\Users\Nina\AppData\Local\Temp\ccxRUdKh.s 			page 83


 769:Drivers/STM32F7xx_HAL_Driver/Src/stm32f7xx_hal_hcd.c **** 
 2687              		.loc 1 769 1 view .LVU811
 2688 0008 91F85C00 		ldrb	r0, [r1, #92]	@ zero_extendqisi2
 2689              	.LVL218:
 769:Drivers/STM32F7xx_HAL_Driver/Src/stm32f7xx_hal_hcd.c **** 
 2690              		.loc 1 769 1 view .LVU812
 2691 000c 7047     		bx	lr
 2692              		.cfi_endproc
 2693              	.LFE156:
 2695              		.section	.text.HAL_HCD_HC_GetXferCount,"ax",%progbits
 2696              		.align	1
 2697              		.global	HAL_HCD_HC_GetXferCount
 2698              		.syntax unified
 2699              		.thumb
 2700              		.thumb_func
 2701              		.fpu fpv5-sp-d16
 2703              	HAL_HCD_HC_GetXferCount:
 2704              	.LVL219:
 2705              	.LFB157:
 780:Drivers/STM32F7xx_HAL_Driver/Src/stm32f7xx_hal_hcd.c ****   return hhcd->hc[chnum].xfer_count;
 2706              		.loc 1 780 1 is_stmt 1 view -0
 2707              		.cfi_startproc
 2708              		@ args = 0, pretend = 0, frame = 0
 2709              		@ frame_needed = 0, uses_anonymous_args = 0
 2710              		@ link register save eliminated.
 781:Drivers/STM32F7xx_HAL_Driver/Src/stm32f7xx_hal_hcd.c **** }
 2711              		.loc 1 781 3 view .LVU814
 781:Drivers/STM32F7xx_HAL_Driver/Src/stm32f7xx_hal_hcd.c **** }
 2712              		.loc 1 781 25 is_stmt 0 view .LVU815
 2713 0000 01EB8101 		add	r1, r1, r1, lsl #2
 2714              	.LVL220:
 781:Drivers/STM32F7xx_HAL_Driver/Src/stm32f7xx_hal_hcd.c **** }
 2715              		.loc 1 781 25 view .LVU816
 2716 0004 00EBC101 		add	r1, r0, r1, lsl #3
 782:Drivers/STM32F7xx_HAL_Driver/Src/stm32f7xx_hal_hcd.c **** 
 2717              		.loc 1 782 1 view .LVU817
 2718 0008 C86C     		ldr	r0, [r1, #76]
 2719              	.LVL221:
 782:Drivers/STM32F7xx_HAL_Driver/Src/stm32f7xx_hal_hcd.c **** 
 2720              		.loc 1 782 1 view .LVU818
 2721 000a 7047     		bx	lr
 2722              		.cfi_endproc
 2723              	.LFE157:
 2725              		.section	.text.HAL_HCD_HC_GetState,"ax",%progbits
 2726              		.align	1
 2727              		.global	HAL_HCD_HC_GetState
 2728              		.syntax unified
 2729              		.thumb
 2730              		.thumb_func
 2731              		.fpu fpv5-sp-d16
 2733              	HAL_HCD_HC_GetState:
 2734              	.LVL222:
 2735              	.LFB158:
 802:Drivers/STM32F7xx_HAL_Driver/Src/stm32f7xx_hal_hcd.c ****   return hhcd->hc[chnum].state;
 2736              		.loc 1 802 1 is_stmt 1 view -0
 2737              		.cfi_startproc
 2738              		@ args = 0, pretend = 0, frame = 0
ARM GAS  C:\Users\Nina\AppData\Local\Temp\ccxRUdKh.s 			page 84


 2739              		@ frame_needed = 0, uses_anonymous_args = 0
 2740              		@ link register save eliminated.
 803:Drivers/STM32F7xx_HAL_Driver/Src/stm32f7xx_hal_hcd.c **** }
 2741              		.loc 1 803 3 view .LVU820
 803:Drivers/STM32F7xx_HAL_Driver/Src/stm32f7xx_hal_hcd.c **** }
 2742              		.loc 1 803 25 is_stmt 0 view .LVU821
 2743 0000 01EB8101 		add	r1, r1, r1, lsl #2
 2744              	.LVL223:
 803:Drivers/STM32F7xx_HAL_Driver/Src/stm32f7xx_hal_hcd.c **** }
 2745              		.loc 1 803 25 view .LVU822
 2746 0004 00EBC101 		add	r1, r0, r1, lsl #3
 804:Drivers/STM32F7xx_HAL_Driver/Src/stm32f7xx_hal_hcd.c **** 
 2747              		.loc 1 804 1 view .LVU823
 2748 0008 91F85D00 		ldrb	r0, [r1, #93]	@ zero_extendqisi2
 2749              	.LVL224:
 804:Drivers/STM32F7xx_HAL_Driver/Src/stm32f7xx_hal_hcd.c **** 
 2750              		.loc 1 804 1 view .LVU824
 2751 000c 7047     		bx	lr
 2752              		.cfi_endproc
 2753              	.LFE158:
 2755              		.section	.text.HAL_HCD_GetCurrentFrame,"ax",%progbits
 2756              		.align	1
 2757              		.global	HAL_HCD_GetCurrentFrame
 2758              		.syntax unified
 2759              		.thumb
 2760              		.thumb_func
 2761              		.fpu fpv5-sp-d16
 2763              	HAL_HCD_GetCurrentFrame:
 2764              	.LVL225:
 2765              	.LFB159:
 812:Drivers/STM32F7xx_HAL_Driver/Src/stm32f7xx_hal_hcd.c ****   return (USB_GetCurrentFrame(hhcd->Instance));
 2766              		.loc 1 812 1 is_stmt 1 view -0
 2767              		.cfi_startproc
 2768              		@ args = 0, pretend = 0, frame = 0
 2769              		@ frame_needed = 0, uses_anonymous_args = 0
 812:Drivers/STM32F7xx_HAL_Driver/Src/stm32f7xx_hal_hcd.c ****   return (USB_GetCurrentFrame(hhcd->Instance));
 2770              		.loc 1 812 1 is_stmt 0 view .LVU826
 2771 0000 08B5     		push	{r3, lr}
 2772              	.LCFI26:
 2773              		.cfi_def_cfa_offset 8
 2774              		.cfi_offset 3, -8
 2775              		.cfi_offset 14, -4
 813:Drivers/STM32F7xx_HAL_Driver/Src/stm32f7xx_hal_hcd.c **** }
 2776              		.loc 1 813 3 is_stmt 1 view .LVU827
 813:Drivers/STM32F7xx_HAL_Driver/Src/stm32f7xx_hal_hcd.c **** }
 2777              		.loc 1 813 11 is_stmt 0 view .LVU828
 2778 0002 0068     		ldr	r0, [r0]
 2779              	.LVL226:
 813:Drivers/STM32F7xx_HAL_Driver/Src/stm32f7xx_hal_hcd.c **** }
 2780              		.loc 1 813 11 view .LVU829
 2781 0004 FFF7FEFF 		bl	USB_GetCurrentFrame
 2782              	.LVL227:
 814:Drivers/STM32F7xx_HAL_Driver/Src/stm32f7xx_hal_hcd.c **** 
 2783              		.loc 1 814 1 view .LVU830
 2784 0008 08BD     		pop	{r3, pc}
 2785              		.cfi_endproc
 2786              	.LFE159:
ARM GAS  C:\Users\Nina\AppData\Local\Temp\ccxRUdKh.s 			page 85


 2788              		.section	.text.HAL_HCD_GetCurrentSpeed,"ax",%progbits
 2789              		.align	1
 2790              		.global	HAL_HCD_GetCurrentSpeed
 2791              		.syntax unified
 2792              		.thumb
 2793              		.thumb_func
 2794              		.fpu fpv5-sp-d16
 2796              	HAL_HCD_GetCurrentSpeed:
 2797              	.LVL228:
 2798              	.LFB160:
 822:Drivers/STM32F7xx_HAL_Driver/Src/stm32f7xx_hal_hcd.c ****   return (USB_GetHostSpeed(hhcd->Instance));
 2799              		.loc 1 822 1 is_stmt 1 view -0
 2800              		.cfi_startproc
 2801              		@ args = 0, pretend = 0, frame = 0
 2802              		@ frame_needed = 0, uses_anonymous_args = 0
 822:Drivers/STM32F7xx_HAL_Driver/Src/stm32f7xx_hal_hcd.c ****   return (USB_GetHostSpeed(hhcd->Instance));
 2803              		.loc 1 822 1 is_stmt 0 view .LVU832
 2804 0000 08B5     		push	{r3, lr}
 2805              	.LCFI27:
 2806              		.cfi_def_cfa_offset 8
 2807              		.cfi_offset 3, -8
 2808              		.cfi_offset 14, -4
 823:Drivers/STM32F7xx_HAL_Driver/Src/stm32f7xx_hal_hcd.c **** }
 2809              		.loc 1 823 3 is_stmt 1 view .LVU833
 823:Drivers/STM32F7xx_HAL_Driver/Src/stm32f7xx_hal_hcd.c **** }
 2810              		.loc 1 823 11 is_stmt 0 view .LVU834
 2811 0002 0068     		ldr	r0, [r0]
 2812              	.LVL229:
 823:Drivers/STM32F7xx_HAL_Driver/Src/stm32f7xx_hal_hcd.c **** }
 2813              		.loc 1 823 11 view .LVU835
 2814 0004 FFF7FEFF 		bl	USB_GetHostSpeed
 2815              	.LVL230:
 824:Drivers/STM32F7xx_HAL_Driver/Src/stm32f7xx_hal_hcd.c **** 
 2816              		.loc 1 824 1 view .LVU836
 2817 0008 08BD     		pop	{r3, pc}
 2818              		.cfi_endproc
 2819              	.LFE160:
 2821              		.text
 2822              	.Letext0:
 2823              		.file 2 "c:\\program files (x86)\\gnu tools arm embedded\\9 2019-q4-major\\arm-none-eabi\\include\
 2824              		.file 3 "c:\\program files (x86)\\gnu tools arm embedded\\9 2019-q4-major\\arm-none-eabi\\include\
 2825              		.file 4 "Drivers/CMSIS/Include/core_cm7.h"
 2826              		.file 5 "Drivers/CMSIS/Device/ST/STM32F7xx/Include/system_stm32f7xx.h"
 2827              		.file 6 "Drivers/CMSIS/Device/ST/STM32F7xx/Include/stm32f746xx.h"
 2828              		.file 7 "c:\\program files (x86)\\gnu tools arm embedded\\9 2019-q4-major\\arm-none-eabi\\include\
 2829              		.file 8 "c:\\program files (x86)\\gnu tools arm embedded\\9 2019-q4-major\\arm-none-eabi\\include\
 2830              		.file 9 "c:\\program files (x86)\\gnu tools arm embedded\\9 2019-q4-major\\lib\\gcc\\arm-none-eabi
 2831              		.file 10 "c:\\program files (x86)\\gnu tools arm embedded\\9 2019-q4-major\\arm-none-eabi\\include
 2832              		.file 11 "Drivers/STM32F7xx_HAL_Driver/Inc/stm32f7xx_hal_def.h"
 2833              		.file 12 "Drivers/STM32F7xx_HAL_Driver/Inc/stm32f7xx_ll_usb.h"
 2834              		.file 13 "Drivers/STM32F7xx_HAL_Driver/Inc/stm32f7xx_hal_hcd.h"
ARM GAS  C:\Users\Nina\AppData\Local\Temp\ccxRUdKh.s 			page 86


DEFINED SYMBOLS
                            *ABS*:00000000 stm32f7xx_hal_hcd.c
C:\Users\Nina\AppData\Local\Temp\ccxRUdKh.s:18     .text.HCD_RXQLVL_IRQHandler:00000000 $t
C:\Users\Nina\AppData\Local\Temp\ccxRUdKh.s:25     .text.HCD_RXQLVL_IRQHandler:00000000 HCD_RXQLVL_IRQHandler
C:\Users\Nina\AppData\Local\Temp\ccxRUdKh.s:155    .text.HCD_RXQLVL_IRQHandler:00000080 $d
C:\Users\Nina\AppData\Local\Temp\ccxRUdKh.s:160    .text.HAL_HCD_HC_Init:00000000 $t
C:\Users\Nina\AppData\Local\Temp\ccxRUdKh.s:167    .text.HAL_HCD_HC_Init:00000000 HAL_HCD_HC_Init
C:\Users\Nina\AppData\Local\Temp\ccxRUdKh.s:283    .text.HAL_HCD_HC_Halt:00000000 $t
C:\Users\Nina\AppData\Local\Temp\ccxRUdKh.s:290    .text.HAL_HCD_HC_Halt:00000000 HAL_HCD_HC_Halt
C:\Users\Nina\AppData\Local\Temp\ccxRUdKh.s:344    .text.HAL_HCD_MspInit:00000000 $t
C:\Users\Nina\AppData\Local\Temp\ccxRUdKh.s:351    .text.HAL_HCD_MspInit:00000000 HAL_HCD_MspInit
C:\Users\Nina\AppData\Local\Temp\ccxRUdKh.s:366    .text.HAL_HCD_Init:00000000 $t
C:\Users\Nina\AppData\Local\Temp\ccxRUdKh.s:373    .text.HAL_HCD_Init:00000000 HAL_HCD_Init
C:\Users\Nina\AppData\Local\Temp\ccxRUdKh.s:496    .text.HAL_HCD_MspDeInit:00000000 $t
C:\Users\Nina\AppData\Local\Temp\ccxRUdKh.s:503    .text.HAL_HCD_MspDeInit:00000000 HAL_HCD_MspDeInit
C:\Users\Nina\AppData\Local\Temp\ccxRUdKh.s:518    .text.HAL_HCD_DeInit:00000000 $t
C:\Users\Nina\AppData\Local\Temp\ccxRUdKh.s:525    .text.HAL_HCD_DeInit:00000000 HAL_HCD_DeInit
C:\Users\Nina\AppData\Local\Temp\ccxRUdKh.s:575    .text.HAL_HCD_HC_SubmitRequest:00000000 $t
C:\Users\Nina\AppData\Local\Temp\ccxRUdKh.s:582    .text.HAL_HCD_HC_SubmitRequest:00000000 HAL_HCD_HC_SubmitRequest
C:\Users\Nina\AppData\Local\Temp\ccxRUdKh.s:625    .text.HAL_HCD_HC_SubmitRequest:00000034 $d
C:\Users\Nina\AppData\Local\Temp\ccxRUdKh.s:629    .text.HAL_HCD_HC_SubmitRequest:00000038 $t
C:\Users\Nina\AppData\Local\Temp\ccxRUdKh.s:861    .text.HAL_HCD_SOF_Callback:00000000 $t
C:\Users\Nina\AppData\Local\Temp\ccxRUdKh.s:868    .text.HAL_HCD_SOF_Callback:00000000 HAL_HCD_SOF_Callback
C:\Users\Nina\AppData\Local\Temp\ccxRUdKh.s:883    .text.HAL_HCD_Connect_Callback:00000000 $t
C:\Users\Nina\AppData\Local\Temp\ccxRUdKh.s:890    .text.HAL_HCD_Connect_Callback:00000000 HAL_HCD_Connect_Callback
C:\Users\Nina\AppData\Local\Temp\ccxRUdKh.s:905    .text.HAL_HCD_Disconnect_Callback:00000000 $t
C:\Users\Nina\AppData\Local\Temp\ccxRUdKh.s:912    .text.HAL_HCD_Disconnect_Callback:00000000 HAL_HCD_Disconnect_Callback
C:\Users\Nina\AppData\Local\Temp\ccxRUdKh.s:927    .text.HAL_HCD_PortEnabled_Callback:00000000 $t
C:\Users\Nina\AppData\Local\Temp\ccxRUdKh.s:934    .text.HAL_HCD_PortEnabled_Callback:00000000 HAL_HCD_PortEnabled_Callback
C:\Users\Nina\AppData\Local\Temp\ccxRUdKh.s:949    .text.HAL_HCD_PortDisabled_Callback:00000000 $t
C:\Users\Nina\AppData\Local\Temp\ccxRUdKh.s:956    .text.HAL_HCD_PortDisabled_Callback:00000000 HAL_HCD_PortDisabled_Callback
C:\Users\Nina\AppData\Local\Temp\ccxRUdKh.s:971    .text.HCD_Port_IRQHandler:00000000 $t
C:\Users\Nina\AppData\Local\Temp\ccxRUdKh.s:977    .text.HCD_Port_IRQHandler:00000000 HCD_Port_IRQHandler
C:\Users\Nina\AppData\Local\Temp\ccxRUdKh.s:1160   .text.HAL_HCD_HC_NotifyURBChange_Callback:00000000 $t
C:\Users\Nina\AppData\Local\Temp\ccxRUdKh.s:1167   .text.HAL_HCD_HC_NotifyURBChange_Callback:00000000 HAL_HCD_HC_NotifyURBChange_Callback
C:\Users\Nina\AppData\Local\Temp\ccxRUdKh.s:1184   .text.HCD_HC_IN_IRQHandler:00000000 $t
C:\Users\Nina\AppData\Local\Temp\ccxRUdKh.s:1190   .text.HCD_HC_IN_IRQHandler:00000000 HCD_HC_IN_IRQHandler
C:\Users\Nina\AppData\Local\Temp\ccxRUdKh.s:1694   .text.HCD_HC_OUT_IRQHandler:00000000 $t
C:\Users\Nina\AppData\Local\Temp\ccxRUdKh.s:1700   .text.HCD_HC_OUT_IRQHandler:00000000 HCD_HC_OUT_IRQHandler
C:\Users\Nina\AppData\Local\Temp\ccxRUdKh.s:2217   .text.HAL_HCD_IRQHandler:00000000 $t
C:\Users\Nina\AppData\Local\Temp\ccxRUdKh.s:2224   .text.HAL_HCD_IRQHandler:00000000 HAL_HCD_IRQHandler
C:\Users\Nina\AppData\Local\Temp\ccxRUdKh.s:2483   .text.HAL_HCD_Start:00000000 $t
C:\Users\Nina\AppData\Local\Temp\ccxRUdKh.s:2490   .text.HAL_HCD_Start:00000000 HAL_HCD_Start
C:\Users\Nina\AppData\Local\Temp\ccxRUdKh.s:2548   .text.HAL_HCD_Stop:00000000 $t
C:\Users\Nina\AppData\Local\Temp\ccxRUdKh.s:2555   .text.HAL_HCD_Stop:00000000 HAL_HCD_Stop
C:\Users\Nina\AppData\Local\Temp\ccxRUdKh.s:2608   .text.HAL_HCD_ResetPort:00000000 $t
C:\Users\Nina\AppData\Local\Temp\ccxRUdKh.s:2615   .text.HAL_HCD_ResetPort:00000000 HAL_HCD_ResetPort
C:\Users\Nina\AppData\Local\Temp\ccxRUdKh.s:2641   .text.HAL_HCD_GetState:00000000 $t
C:\Users\Nina\AppData\Local\Temp\ccxRUdKh.s:2648   .text.HAL_HCD_GetState:00000000 HAL_HCD_GetState
C:\Users\Nina\AppData\Local\Temp\ccxRUdKh.s:2666   .text.HAL_HCD_HC_GetURBState:00000000 $t
C:\Users\Nina\AppData\Local\Temp\ccxRUdKh.s:2673   .text.HAL_HCD_HC_GetURBState:00000000 HAL_HCD_HC_GetURBState
C:\Users\Nina\AppData\Local\Temp\ccxRUdKh.s:2696   .text.HAL_HCD_HC_GetXferCount:00000000 $t
C:\Users\Nina\AppData\Local\Temp\ccxRUdKh.s:2703   .text.HAL_HCD_HC_GetXferCount:00000000 HAL_HCD_HC_GetXferCount
C:\Users\Nina\AppData\Local\Temp\ccxRUdKh.s:2726   .text.HAL_HCD_HC_GetState:00000000 $t
C:\Users\Nina\AppData\Local\Temp\ccxRUdKh.s:2733   .text.HAL_HCD_HC_GetState:00000000 HAL_HCD_HC_GetState
C:\Users\Nina\AppData\Local\Temp\ccxRUdKh.s:2756   .text.HAL_HCD_GetCurrentFrame:00000000 $t
C:\Users\Nina\AppData\Local\Temp\ccxRUdKh.s:2763   .text.HAL_HCD_GetCurrentFrame:00000000 HAL_HCD_GetCurrentFrame
ARM GAS  C:\Users\Nina\AppData\Local\Temp\ccxRUdKh.s 			page 87


C:\Users\Nina\AppData\Local\Temp\ccxRUdKh.s:2789   .text.HAL_HCD_GetCurrentSpeed:00000000 $t
C:\Users\Nina\AppData\Local\Temp\ccxRUdKh.s:2796   .text.HAL_HCD_GetCurrentSpeed:00000000 HAL_HCD_GetCurrentSpeed

UNDEFINED SYMBOLS
USB_ReadPacket
USB_HC_Init
USB_HC_Halt
USB_DisableGlobalInt
USB_CoreInit
USB_SetCurrentMode
USB_HostInit
USB_HC_StartXfer
USB_InitFSLSPClkSel
USB_GetMode
USB_ReadInterrupts
USB_HC_ReadInterrupt
USB_EnableGlobalInt
USB_DriveVbus
USB_StopHost
USB_ResetPort
USB_GetCurrentFrame
USB_GetHostSpeed
