ARM GAS  C:\Users\Nina\AppData\Local\Temp\ccnJIoBd.s 			page 1


   1              		.cpu cortex-m7
   2              		.eabi_attribute 27, 1
   3              		.eabi_attribute 28, 1
   4              		.eabi_attribute 20, 1
   5              		.eabi_attribute 21, 1
   6              		.eabi_attribute 23, 3
   7              		.eabi_attribute 24, 1
   8              		.eabi_attribute 25, 1
   9              		.eabi_attribute 26, 1
  10              		.eabi_attribute 30, 1
  11              		.eabi_attribute 34, 1
  12              		.eabi_attribute 18, 4
  13              		.file	"stm32f7xx_hal_rcc.c"
  14              		.text
  15              	.Ltext0:
  16              		.cfi_sections	.debug_frame
  17              		.section	.text.HAL_RCC_DeInit,"ax",%progbits
  18              		.align	1
  19              		.global	HAL_RCC_DeInit
  20              		.arch armv7e-m
  21              		.syntax unified
  22              		.thumb
  23              		.thumb_func
  24              		.fpu fpv5-sp-d16
  26              	HAL_RCC_DeInit:
  27              	.LFB138:
  28              		.file 1 "Drivers/STM32F7xx_HAL_Driver/Src/stm32f7xx_hal_rcc.c"
   1:Drivers/STM32F7xx_HAL_Driver/Src/stm32f7xx_hal_rcc.c **** /**
   2:Drivers/STM32F7xx_HAL_Driver/Src/stm32f7xx_hal_rcc.c ****   ******************************************************************************
   3:Drivers/STM32F7xx_HAL_Driver/Src/stm32f7xx_hal_rcc.c ****   * @file    stm32f7xx_hal_rcc.c
   4:Drivers/STM32F7xx_HAL_Driver/Src/stm32f7xx_hal_rcc.c ****   * @author  MCD Application Team
   5:Drivers/STM32F7xx_HAL_Driver/Src/stm32f7xx_hal_rcc.c ****   * @brief   RCC HAL module driver.
   6:Drivers/STM32F7xx_HAL_Driver/Src/stm32f7xx_hal_rcc.c ****   *          This file provides firmware functions to manage the following
   7:Drivers/STM32F7xx_HAL_Driver/Src/stm32f7xx_hal_rcc.c ****   *          functionalities of the Reset and Clock Control (RCC) peripheral:
   8:Drivers/STM32F7xx_HAL_Driver/Src/stm32f7xx_hal_rcc.c ****   *           + Initialization and de-initialization functions
   9:Drivers/STM32F7xx_HAL_Driver/Src/stm32f7xx_hal_rcc.c ****   *           + Peripheral Control functions
  10:Drivers/STM32F7xx_HAL_Driver/Src/stm32f7xx_hal_rcc.c ****   *
  11:Drivers/STM32F7xx_HAL_Driver/Src/stm32f7xx_hal_rcc.c ****   @verbatim
  12:Drivers/STM32F7xx_HAL_Driver/Src/stm32f7xx_hal_rcc.c ****   ==============================================================================
  13:Drivers/STM32F7xx_HAL_Driver/Src/stm32f7xx_hal_rcc.c ****                       ##### RCC specific features #####
  14:Drivers/STM32F7xx_HAL_Driver/Src/stm32f7xx_hal_rcc.c ****   ==============================================================================
  15:Drivers/STM32F7xx_HAL_Driver/Src/stm32f7xx_hal_rcc.c ****     [..]
  16:Drivers/STM32F7xx_HAL_Driver/Src/stm32f7xx_hal_rcc.c ****       After reset the device is running from Internal High Speed oscillator
  17:Drivers/STM32F7xx_HAL_Driver/Src/stm32f7xx_hal_rcc.c ****       (HSI 16MHz) with Flash 0 wait state, Flash prefetch buffer, D-Cache
  18:Drivers/STM32F7xx_HAL_Driver/Src/stm32f7xx_hal_rcc.c ****       and I-Cache are disabled, and all peripherals are off except internal
  19:Drivers/STM32F7xx_HAL_Driver/Src/stm32f7xx_hal_rcc.c ****       SRAM, Flash and JTAG.
  20:Drivers/STM32F7xx_HAL_Driver/Src/stm32f7xx_hal_rcc.c ****       (+) There is no prescaler on High speed (AHB) and Low speed (APB) busses;
  21:Drivers/STM32F7xx_HAL_Driver/Src/stm32f7xx_hal_rcc.c ****           all peripherals mapped on these busses are running at HSI speed.
  22:Drivers/STM32F7xx_HAL_Driver/Src/stm32f7xx_hal_rcc.c ****       (+) The clock for all peripherals is switched off, except the SRAM and FLASH.
  23:Drivers/STM32F7xx_HAL_Driver/Src/stm32f7xx_hal_rcc.c ****       (+) All GPIOs are in input floating state, except the JTAG pins which
  24:Drivers/STM32F7xx_HAL_Driver/Src/stm32f7xx_hal_rcc.c ****           are assigned to be used for debug purpose.
  25:Drivers/STM32F7xx_HAL_Driver/Src/stm32f7xx_hal_rcc.c **** 
  26:Drivers/STM32F7xx_HAL_Driver/Src/stm32f7xx_hal_rcc.c ****     [..]
  27:Drivers/STM32F7xx_HAL_Driver/Src/stm32f7xx_hal_rcc.c ****       Once the device started from reset, the user application has to:
  28:Drivers/STM32F7xx_HAL_Driver/Src/stm32f7xx_hal_rcc.c ****       (+) Configure the clock source to be used to drive the System clock
  29:Drivers/STM32F7xx_HAL_Driver/Src/stm32f7xx_hal_rcc.c ****           (if the application needs higher frequency/performance)
  30:Drivers/STM32F7xx_HAL_Driver/Src/stm32f7xx_hal_rcc.c ****       (+) Configure the System clock frequency and Flash settings
ARM GAS  C:\Users\Nina\AppData\Local\Temp\ccnJIoBd.s 			page 2


  31:Drivers/STM32F7xx_HAL_Driver/Src/stm32f7xx_hal_rcc.c ****       (+) Configure the AHB and APB busses prescalers
  32:Drivers/STM32F7xx_HAL_Driver/Src/stm32f7xx_hal_rcc.c ****       (+) Enable the clock for the peripheral(s) to be used
  33:Drivers/STM32F7xx_HAL_Driver/Src/stm32f7xx_hal_rcc.c ****       (+) Configure the clock source(s) for peripherals which clocks are not
  34:Drivers/STM32F7xx_HAL_Driver/Src/stm32f7xx_hal_rcc.c ****           derived from the System clock (I2S, RTC, ADC, USB OTG FS/SDIO/RNG)
  35:Drivers/STM32F7xx_HAL_Driver/Src/stm32f7xx_hal_rcc.c **** 
  36:Drivers/STM32F7xx_HAL_Driver/Src/stm32f7xx_hal_rcc.c ****                       ##### RCC Limitations #####
  37:Drivers/STM32F7xx_HAL_Driver/Src/stm32f7xx_hal_rcc.c ****   ==============================================================================
  38:Drivers/STM32F7xx_HAL_Driver/Src/stm32f7xx_hal_rcc.c ****     [..]
  39:Drivers/STM32F7xx_HAL_Driver/Src/stm32f7xx_hal_rcc.c ****       A delay between an RCC peripheral clock enable and the effective peripheral
  40:Drivers/STM32F7xx_HAL_Driver/Src/stm32f7xx_hal_rcc.c ****       enabling should be taken into account in order to manage the peripheral read/write
  41:Drivers/STM32F7xx_HAL_Driver/Src/stm32f7xx_hal_rcc.c ****       from/to registers.
  42:Drivers/STM32F7xx_HAL_Driver/Src/stm32f7xx_hal_rcc.c ****       (+) This delay depends on the peripheral mapping.
  43:Drivers/STM32F7xx_HAL_Driver/Src/stm32f7xx_hal_rcc.c ****       (+) If peripheral is mapped on AHB: the delay is 2 AHB clock cycle
  44:Drivers/STM32F7xx_HAL_Driver/Src/stm32f7xx_hal_rcc.c ****           after the clock enable bit is set on the hardware register
  45:Drivers/STM32F7xx_HAL_Driver/Src/stm32f7xx_hal_rcc.c ****       (+) If peripheral is mapped on APB: the delay is 2 APB clock cycle
  46:Drivers/STM32F7xx_HAL_Driver/Src/stm32f7xx_hal_rcc.c ****           after the clock enable bit is set on the hardware register
  47:Drivers/STM32F7xx_HAL_Driver/Src/stm32f7xx_hal_rcc.c **** 
  48:Drivers/STM32F7xx_HAL_Driver/Src/stm32f7xx_hal_rcc.c ****     [..]
  49:Drivers/STM32F7xx_HAL_Driver/Src/stm32f7xx_hal_rcc.c ****       Implemented Workaround:
  50:Drivers/STM32F7xx_HAL_Driver/Src/stm32f7xx_hal_rcc.c ****       (+) For AHB & APB peripherals, a dummy read to the peripheral register has been
  51:Drivers/STM32F7xx_HAL_Driver/Src/stm32f7xx_hal_rcc.c ****           inserted in each __HAL_RCC_PPP_CLK_ENABLE() macro.
  52:Drivers/STM32F7xx_HAL_Driver/Src/stm32f7xx_hal_rcc.c **** 
  53:Drivers/STM32F7xx_HAL_Driver/Src/stm32f7xx_hal_rcc.c ****   @endverbatim
  54:Drivers/STM32F7xx_HAL_Driver/Src/stm32f7xx_hal_rcc.c ****   ******************************************************************************
  55:Drivers/STM32F7xx_HAL_Driver/Src/stm32f7xx_hal_rcc.c ****   * @attention
  56:Drivers/STM32F7xx_HAL_Driver/Src/stm32f7xx_hal_rcc.c ****   *
  57:Drivers/STM32F7xx_HAL_Driver/Src/stm32f7xx_hal_rcc.c ****   * <h2><center>&copy; COPYRIGHT(c) 2017 STMicroelectronics</center></h2>
  58:Drivers/STM32F7xx_HAL_Driver/Src/stm32f7xx_hal_rcc.c ****   *
  59:Drivers/STM32F7xx_HAL_Driver/Src/stm32f7xx_hal_rcc.c ****   * Redistribution and use in source and binary forms, with or without modification,
  60:Drivers/STM32F7xx_HAL_Driver/Src/stm32f7xx_hal_rcc.c ****   * are permitted provided that the following conditions are met:
  61:Drivers/STM32F7xx_HAL_Driver/Src/stm32f7xx_hal_rcc.c ****   *   1. Redistributions of source code must retain the above copyright notice,
  62:Drivers/STM32F7xx_HAL_Driver/Src/stm32f7xx_hal_rcc.c ****   *      this list of conditions and the following disclaimer.
  63:Drivers/STM32F7xx_HAL_Driver/Src/stm32f7xx_hal_rcc.c ****   *   2. Redistributions in binary form must reproduce the above copyright notice,
  64:Drivers/STM32F7xx_HAL_Driver/Src/stm32f7xx_hal_rcc.c ****   *      this list of conditions and the following disclaimer in the documentation
  65:Drivers/STM32F7xx_HAL_Driver/Src/stm32f7xx_hal_rcc.c ****   *      and/or other materials provided with the distribution.
  66:Drivers/STM32F7xx_HAL_Driver/Src/stm32f7xx_hal_rcc.c ****   *   3. Neither the name of STMicroelectronics nor the names of its contributors
  67:Drivers/STM32F7xx_HAL_Driver/Src/stm32f7xx_hal_rcc.c ****   *      may be used to endorse or promote products derived from this software
  68:Drivers/STM32F7xx_HAL_Driver/Src/stm32f7xx_hal_rcc.c ****   *      without specific prior written permission.
  69:Drivers/STM32F7xx_HAL_Driver/Src/stm32f7xx_hal_rcc.c ****   *
  70:Drivers/STM32F7xx_HAL_Driver/Src/stm32f7xx_hal_rcc.c ****   * THIS SOFTWARE IS PROVIDED BY THE COPYRIGHT HOLDERS AND CONTRIBUTORS "AS IS"
  71:Drivers/STM32F7xx_HAL_Driver/Src/stm32f7xx_hal_rcc.c ****   * AND ANY EXPRESS OR IMPLIED WARRANTIES, INCLUDING, BUT NOT LIMITED TO, THE
  72:Drivers/STM32F7xx_HAL_Driver/Src/stm32f7xx_hal_rcc.c ****   * IMPLIED WARRANTIES OF MERCHANTABILITY AND FITNESS FOR A PARTICULAR PURPOSE ARE
  73:Drivers/STM32F7xx_HAL_Driver/Src/stm32f7xx_hal_rcc.c ****   * DISCLAIMED. IN NO EVENT SHALL THE COPYRIGHT HOLDER OR CONTRIBUTORS BE LIABLE
  74:Drivers/STM32F7xx_HAL_Driver/Src/stm32f7xx_hal_rcc.c ****   * FOR ANY DIRECT, INDIRECT, INCIDENTAL, SPECIAL, EXEMPLARY, OR CONSEQUENTIAL
  75:Drivers/STM32F7xx_HAL_Driver/Src/stm32f7xx_hal_rcc.c ****   * DAMAGES (INCLUDING, BUT NOT LIMITED TO, PROCUREMENT OF SUBSTITUTE GOODS OR
  76:Drivers/STM32F7xx_HAL_Driver/Src/stm32f7xx_hal_rcc.c ****   * SERVICES; LOSS OF USE, DATA, OR PROFITS; OR BUSINESS INTERRUPTION) HOWEVER
  77:Drivers/STM32F7xx_HAL_Driver/Src/stm32f7xx_hal_rcc.c ****   * CAUSED AND ON ANY THEORY OF LIABILITY, WHETHER IN CONTRACT, STRICT LIABILITY,
  78:Drivers/STM32F7xx_HAL_Driver/Src/stm32f7xx_hal_rcc.c ****   * OR TORT (INCLUDING NEGLIGENCE OR OTHERWISE) ARISING IN ANY WAY OUT OF THE USE
  79:Drivers/STM32F7xx_HAL_Driver/Src/stm32f7xx_hal_rcc.c ****   * OF THIS SOFTWARE, EVEN IF ADVISED OF THE POSSIBILITY OF SUCH DAMAGE.
  80:Drivers/STM32F7xx_HAL_Driver/Src/stm32f7xx_hal_rcc.c ****   *
  81:Drivers/STM32F7xx_HAL_Driver/Src/stm32f7xx_hal_rcc.c ****   ******************************************************************************
  82:Drivers/STM32F7xx_HAL_Driver/Src/stm32f7xx_hal_rcc.c ****   */
  83:Drivers/STM32F7xx_HAL_Driver/Src/stm32f7xx_hal_rcc.c **** 
  84:Drivers/STM32F7xx_HAL_Driver/Src/stm32f7xx_hal_rcc.c **** /* Includes ------------------------------------------------------------------*/
  85:Drivers/STM32F7xx_HAL_Driver/Src/stm32f7xx_hal_rcc.c **** #include "stm32f7xx_hal.h"
  86:Drivers/STM32F7xx_HAL_Driver/Src/stm32f7xx_hal_rcc.c **** 
  87:Drivers/STM32F7xx_HAL_Driver/Src/stm32f7xx_hal_rcc.c **** /** @addtogroup STM32F7xx_HAL_Driver
ARM GAS  C:\Users\Nina\AppData\Local\Temp\ccnJIoBd.s 			page 3


  88:Drivers/STM32F7xx_HAL_Driver/Src/stm32f7xx_hal_rcc.c ****   * @{
  89:Drivers/STM32F7xx_HAL_Driver/Src/stm32f7xx_hal_rcc.c ****   */
  90:Drivers/STM32F7xx_HAL_Driver/Src/stm32f7xx_hal_rcc.c **** 
  91:Drivers/STM32F7xx_HAL_Driver/Src/stm32f7xx_hal_rcc.c **** /** @defgroup RCC RCC
  92:Drivers/STM32F7xx_HAL_Driver/Src/stm32f7xx_hal_rcc.c ****   * @brief RCC HAL module driver
  93:Drivers/STM32F7xx_HAL_Driver/Src/stm32f7xx_hal_rcc.c ****   * @{
  94:Drivers/STM32F7xx_HAL_Driver/Src/stm32f7xx_hal_rcc.c ****   */
  95:Drivers/STM32F7xx_HAL_Driver/Src/stm32f7xx_hal_rcc.c **** 
  96:Drivers/STM32F7xx_HAL_Driver/Src/stm32f7xx_hal_rcc.c **** #ifdef HAL_RCC_MODULE_ENABLED
  97:Drivers/STM32F7xx_HAL_Driver/Src/stm32f7xx_hal_rcc.c **** 
  98:Drivers/STM32F7xx_HAL_Driver/Src/stm32f7xx_hal_rcc.c **** /* Private typedef -----------------------------------------------------------*/
  99:Drivers/STM32F7xx_HAL_Driver/Src/stm32f7xx_hal_rcc.c **** /* Private define ------------------------------------------------------------*/
 100:Drivers/STM32F7xx_HAL_Driver/Src/stm32f7xx_hal_rcc.c **** /* Private macro -------------------------------------------------------------*/
 101:Drivers/STM32F7xx_HAL_Driver/Src/stm32f7xx_hal_rcc.c **** /** @defgroup RCC_Private_Macros RCC Private Macros
 102:Drivers/STM32F7xx_HAL_Driver/Src/stm32f7xx_hal_rcc.c ****   * @{
 103:Drivers/STM32F7xx_HAL_Driver/Src/stm32f7xx_hal_rcc.c ****   */
 104:Drivers/STM32F7xx_HAL_Driver/Src/stm32f7xx_hal_rcc.c **** 
 105:Drivers/STM32F7xx_HAL_Driver/Src/stm32f7xx_hal_rcc.c **** #define MCO1_CLK_ENABLE()   __HAL_RCC_GPIOA_CLK_ENABLE()
 106:Drivers/STM32F7xx_HAL_Driver/Src/stm32f7xx_hal_rcc.c **** #define MCO1_GPIO_PORT        GPIOA
 107:Drivers/STM32F7xx_HAL_Driver/Src/stm32f7xx_hal_rcc.c **** #define MCO1_PIN              GPIO_PIN_8
 108:Drivers/STM32F7xx_HAL_Driver/Src/stm32f7xx_hal_rcc.c **** 
 109:Drivers/STM32F7xx_HAL_Driver/Src/stm32f7xx_hal_rcc.c **** #define MCO2_CLK_ENABLE()   __HAL_RCC_GPIOC_CLK_ENABLE()
 110:Drivers/STM32F7xx_HAL_Driver/Src/stm32f7xx_hal_rcc.c **** #define MCO2_GPIO_PORT         GPIOC
 111:Drivers/STM32F7xx_HAL_Driver/Src/stm32f7xx_hal_rcc.c **** #define MCO2_PIN               GPIO_PIN_9
 112:Drivers/STM32F7xx_HAL_Driver/Src/stm32f7xx_hal_rcc.c **** 
 113:Drivers/STM32F7xx_HAL_Driver/Src/stm32f7xx_hal_rcc.c **** /**
 114:Drivers/STM32F7xx_HAL_Driver/Src/stm32f7xx_hal_rcc.c ****   * @}
 115:Drivers/STM32F7xx_HAL_Driver/Src/stm32f7xx_hal_rcc.c ****   */
 116:Drivers/STM32F7xx_HAL_Driver/Src/stm32f7xx_hal_rcc.c **** /* Private variables ---------------------------------------------------------*/
 117:Drivers/STM32F7xx_HAL_Driver/Src/stm32f7xx_hal_rcc.c **** /** @defgroup RCC_Private_Variables RCC Private Variables
 118:Drivers/STM32F7xx_HAL_Driver/Src/stm32f7xx_hal_rcc.c ****   * @{
 119:Drivers/STM32F7xx_HAL_Driver/Src/stm32f7xx_hal_rcc.c ****   */
 120:Drivers/STM32F7xx_HAL_Driver/Src/stm32f7xx_hal_rcc.c **** 
 121:Drivers/STM32F7xx_HAL_Driver/Src/stm32f7xx_hal_rcc.c **** /**
 122:Drivers/STM32F7xx_HAL_Driver/Src/stm32f7xx_hal_rcc.c ****   * @}
 123:Drivers/STM32F7xx_HAL_Driver/Src/stm32f7xx_hal_rcc.c ****   */
 124:Drivers/STM32F7xx_HAL_Driver/Src/stm32f7xx_hal_rcc.c **** 
 125:Drivers/STM32F7xx_HAL_Driver/Src/stm32f7xx_hal_rcc.c **** /* Private function prototypes -----------------------------------------------*/
 126:Drivers/STM32F7xx_HAL_Driver/Src/stm32f7xx_hal_rcc.c **** /* Exported functions ---------------------------------------------------------*/
 127:Drivers/STM32F7xx_HAL_Driver/Src/stm32f7xx_hal_rcc.c **** 
 128:Drivers/STM32F7xx_HAL_Driver/Src/stm32f7xx_hal_rcc.c **** /** @defgroup RCC_Exported_Functions RCC Exported Functions
 129:Drivers/STM32F7xx_HAL_Driver/Src/stm32f7xx_hal_rcc.c ****   * @{
 130:Drivers/STM32F7xx_HAL_Driver/Src/stm32f7xx_hal_rcc.c ****   */
 131:Drivers/STM32F7xx_HAL_Driver/Src/stm32f7xx_hal_rcc.c **** 
 132:Drivers/STM32F7xx_HAL_Driver/Src/stm32f7xx_hal_rcc.c **** /** @defgroup RCC_Exported_Functions_Group1 Initialization and de-initialization functions
 133:Drivers/STM32F7xx_HAL_Driver/Src/stm32f7xx_hal_rcc.c ****   *  @brief    Initialization and Configuration functions
 134:Drivers/STM32F7xx_HAL_Driver/Src/stm32f7xx_hal_rcc.c ****   *
 135:Drivers/STM32F7xx_HAL_Driver/Src/stm32f7xx_hal_rcc.c ****   @verbatim
 136:Drivers/STM32F7xx_HAL_Driver/Src/stm32f7xx_hal_rcc.c ****   ===============================================================================
 137:Drivers/STM32F7xx_HAL_Driver/Src/stm32f7xx_hal_rcc.c **** ##### Initialization and de-initialization functions #####
 138:Drivers/STM32F7xx_HAL_Driver/Src/stm32f7xx_hal_rcc.c ****   ===============================================================================
 139:Drivers/STM32F7xx_HAL_Driver/Src/stm32f7xx_hal_rcc.c ****     [..]
 140:Drivers/STM32F7xx_HAL_Driver/Src/stm32f7xx_hal_rcc.c ****       This section provides functions allowing to configure the internal/external oscillators
 141:Drivers/STM32F7xx_HAL_Driver/Src/stm32f7xx_hal_rcc.c ****       (HSE, HSI, LSE, LSI, PLL, CSS and MCO) and the System buses clocks (SYSCLK, AHB, APB1
 142:Drivers/STM32F7xx_HAL_Driver/Src/stm32f7xx_hal_rcc.c ****       and APB2).
 143:Drivers/STM32F7xx_HAL_Driver/Src/stm32f7xx_hal_rcc.c **** 
 144:Drivers/STM32F7xx_HAL_Driver/Src/stm32f7xx_hal_rcc.c ****     [..] Internal/external clock and PLL configuration
ARM GAS  C:\Users\Nina\AppData\Local\Temp\ccnJIoBd.s 			page 4


 145:Drivers/STM32F7xx_HAL_Driver/Src/stm32f7xx_hal_rcc.c ****       (#) HSI (high-speed internal), 16 MHz factory-trimmed RC used directly or through
 146:Drivers/STM32F7xx_HAL_Driver/Src/stm32f7xx_hal_rcc.c ****           the PLL as System clock source.
 147:Drivers/STM32F7xx_HAL_Driver/Src/stm32f7xx_hal_rcc.c **** 
 148:Drivers/STM32F7xx_HAL_Driver/Src/stm32f7xx_hal_rcc.c ****       (#) LSI (low-speed internal), 32 KHz low consumption RC used as IWDG and/or RTC
 149:Drivers/STM32F7xx_HAL_Driver/Src/stm32f7xx_hal_rcc.c ****           clock source.
 150:Drivers/STM32F7xx_HAL_Driver/Src/stm32f7xx_hal_rcc.c **** 
 151:Drivers/STM32F7xx_HAL_Driver/Src/stm32f7xx_hal_rcc.c ****       (#) HSE (high-speed external), 4 to 26 MHz crystal oscillator used directly or
 152:Drivers/STM32F7xx_HAL_Driver/Src/stm32f7xx_hal_rcc.c ****           through the PLL as System clock source. Can be used also as RTC clock source.
 153:Drivers/STM32F7xx_HAL_Driver/Src/stm32f7xx_hal_rcc.c **** 
 154:Drivers/STM32F7xx_HAL_Driver/Src/stm32f7xx_hal_rcc.c ****       (#) LSE (low-speed external), 32 KHz oscillator used as RTC clock source.
 155:Drivers/STM32F7xx_HAL_Driver/Src/stm32f7xx_hal_rcc.c **** 
 156:Drivers/STM32F7xx_HAL_Driver/Src/stm32f7xx_hal_rcc.c ****       (#) PLL (clocked by HSI or HSE), featuring two different output clocks:
 157:Drivers/STM32F7xx_HAL_Driver/Src/stm32f7xx_hal_rcc.c ****         (++) The first output is used to generate the high speed system clock (up to 216 MHz)
 158:Drivers/STM32F7xx_HAL_Driver/Src/stm32f7xx_hal_rcc.c ****         (++) The second output is used to generate the clock for the USB OTG FS (48 MHz),
 159:Drivers/STM32F7xx_HAL_Driver/Src/stm32f7xx_hal_rcc.c ****              the random analog generator (<=48 MHz) and the SDIO (<= 48 MHz).
 160:Drivers/STM32F7xx_HAL_Driver/Src/stm32f7xx_hal_rcc.c **** 
 161:Drivers/STM32F7xx_HAL_Driver/Src/stm32f7xx_hal_rcc.c ****       (#) CSS (Clock security system), once enable using the function HAL_RCC_EnableCSS()
 162:Drivers/STM32F7xx_HAL_Driver/Src/stm32f7xx_hal_rcc.c ****           and if a HSE clock failure occurs(HSE used directly or through PLL as System
 163:Drivers/STM32F7xx_HAL_Driver/Src/stm32f7xx_hal_rcc.c ****           clock source), the System clock is automatically switched to HSI and an interrupt
 164:Drivers/STM32F7xx_HAL_Driver/Src/stm32f7xx_hal_rcc.c ****           is generated if enabled. The interrupt is linked to the Cortex-M7 NMI
 165:Drivers/STM32F7xx_HAL_Driver/Src/stm32f7xx_hal_rcc.c ****           (Non-Maskable Interrupt) exception vector.
 166:Drivers/STM32F7xx_HAL_Driver/Src/stm32f7xx_hal_rcc.c **** 
 167:Drivers/STM32F7xx_HAL_Driver/Src/stm32f7xx_hal_rcc.c ****       (#) MCO1 (microcontroller clock output), used to output HSI, LSE, HSE or PLL
 168:Drivers/STM32F7xx_HAL_Driver/Src/stm32f7xx_hal_rcc.c ****           clock (through a configurable prescaler) on PA8 pin.
 169:Drivers/STM32F7xx_HAL_Driver/Src/stm32f7xx_hal_rcc.c **** 
 170:Drivers/STM32F7xx_HAL_Driver/Src/stm32f7xx_hal_rcc.c ****       (#) MCO2 (microcontroller clock output), used to output HSE, PLL, SYSCLK or PLLI2S
 171:Drivers/STM32F7xx_HAL_Driver/Src/stm32f7xx_hal_rcc.c ****           clock (through a configurable prescaler) on PC9 pin.
 172:Drivers/STM32F7xx_HAL_Driver/Src/stm32f7xx_hal_rcc.c **** 
 173:Drivers/STM32F7xx_HAL_Driver/Src/stm32f7xx_hal_rcc.c ****     [..] System, AHB and APB busses clocks configuration
 174:Drivers/STM32F7xx_HAL_Driver/Src/stm32f7xx_hal_rcc.c ****       (#) Several clock sources can be used to drive the System clock (SYSCLK): HSI,
 175:Drivers/STM32F7xx_HAL_Driver/Src/stm32f7xx_hal_rcc.c ****           HSE and PLL.
 176:Drivers/STM32F7xx_HAL_Driver/Src/stm32f7xx_hal_rcc.c ****           The AHB clock (HCLK) is derived from System clock through configurable
 177:Drivers/STM32F7xx_HAL_Driver/Src/stm32f7xx_hal_rcc.c ****           prescaler and used to clock the CPU, memory and peripherals mapped
 178:Drivers/STM32F7xx_HAL_Driver/Src/stm32f7xx_hal_rcc.c ****           on AHB bus (DMA, GPIO...). APB1 (PCLK1) and APB2 (PCLK2) clocks are derived
 179:Drivers/STM32F7xx_HAL_Driver/Src/stm32f7xx_hal_rcc.c ****           from AHB clock through configurable prescalers and used to clock
 180:Drivers/STM32F7xx_HAL_Driver/Src/stm32f7xx_hal_rcc.c ****           the peripherals mapped on these busses. You can use
 181:Drivers/STM32F7xx_HAL_Driver/Src/stm32f7xx_hal_rcc.c ****           "HAL_RCC_GetSysClockFreq()" function to retrieve the frequencies of these clocks.
 182:Drivers/STM32F7xx_HAL_Driver/Src/stm32f7xx_hal_rcc.c **** 
 183:Drivers/STM32F7xx_HAL_Driver/Src/stm32f7xx_hal_rcc.c ****       -@- All the peripheral clocks are derived from the System clock (SYSCLK) except:
 184:Drivers/STM32F7xx_HAL_Driver/Src/stm32f7xx_hal_rcc.c ****           (+@) I2S: the I2S clock can be derived either from a specific PLL (PLLI2S) or
 185:Drivers/STM32F7xx_HAL_Driver/Src/stm32f7xx_hal_rcc.c ****               from an external clock mapped on the I2S_CKIN pin.
 186:Drivers/STM32F7xx_HAL_Driver/Src/stm32f7xx_hal_rcc.c ****               You have to use __HAL_RCC_PLLI2S_CONFIG() macro to configure this clock.
 187:Drivers/STM32F7xx_HAL_Driver/Src/stm32f7xx_hal_rcc.c ****           (+@)  SAI: the SAI clock can be derived either from a specific PLL (PLLI2S) or (PLLSAI) o
 188:Drivers/STM32F7xx_HAL_Driver/Src/stm32f7xx_hal_rcc.c ****               from an external clock mapped on the I2S_CKIN pin.
 189:Drivers/STM32F7xx_HAL_Driver/Src/stm32f7xx_hal_rcc.c ****                You have to use __HAL_RCC_PLLI2S_CONFIG() macro to configure this clock.
 190:Drivers/STM32F7xx_HAL_Driver/Src/stm32f7xx_hal_rcc.c ****           (+@) RTC: the RTC clock can be derived either from the LSI, LSE or HSE clock
 191:Drivers/STM32F7xx_HAL_Driver/Src/stm32f7xx_hal_rcc.c ****               divided by 2 to 31. You have to use __HAL_RCC_RTC_CONFIG() and __HAL_RCC_RTC_ENABLE()
 192:Drivers/STM32F7xx_HAL_Driver/Src/stm32f7xx_hal_rcc.c ****               macros to configure this clock.
 193:Drivers/STM32F7xx_HAL_Driver/Src/stm32f7xx_hal_rcc.c ****           (+@) USB OTG FS, SDIO and RTC: USB OTG FS require a frequency equal to 48 MHz
 194:Drivers/STM32F7xx_HAL_Driver/Src/stm32f7xx_hal_rcc.c ****               to work correctly, while the SDIO require a frequency equal or lower than
 195:Drivers/STM32F7xx_HAL_Driver/Src/stm32f7xx_hal_rcc.c ****               to 48. This clock is derived of the main PLL through PLLQ divider.
 196:Drivers/STM32F7xx_HAL_Driver/Src/stm32f7xx_hal_rcc.c ****           (+@) IWDG clock which is always the LSI clock.
 197:Drivers/STM32F7xx_HAL_Driver/Src/stm32f7xx_hal_rcc.c **** @endverbatim
 198:Drivers/STM32F7xx_HAL_Driver/Src/stm32f7xx_hal_rcc.c ****   * @{
 199:Drivers/STM32F7xx_HAL_Driver/Src/stm32f7xx_hal_rcc.c ****   */
 200:Drivers/STM32F7xx_HAL_Driver/Src/stm32f7xx_hal_rcc.c **** 
 201:Drivers/STM32F7xx_HAL_Driver/Src/stm32f7xx_hal_rcc.c **** /**
ARM GAS  C:\Users\Nina\AppData\Local\Temp\ccnJIoBd.s 			page 5


 202:Drivers/STM32F7xx_HAL_Driver/Src/stm32f7xx_hal_rcc.c ****   * @brief  Resets the RCC clock configuration to the default reset state.
 203:Drivers/STM32F7xx_HAL_Driver/Src/stm32f7xx_hal_rcc.c ****   * @note   The default reset state of the clock configuration is given below:
 204:Drivers/STM32F7xx_HAL_Driver/Src/stm32f7xx_hal_rcc.c ****   *            - HSI ON and used as system clock source
 205:Drivers/STM32F7xx_HAL_Driver/Src/stm32f7xx_hal_rcc.c ****   *            - HSE, PLL, PLLI2S and PLLSAI OFF
 206:Drivers/STM32F7xx_HAL_Driver/Src/stm32f7xx_hal_rcc.c ****   *            - AHB, APB1 and APB2 prescaler set to 1.
 207:Drivers/STM32F7xx_HAL_Driver/Src/stm32f7xx_hal_rcc.c ****   *            - CSS, MCO1 and MCO2 OFF
 208:Drivers/STM32F7xx_HAL_Driver/Src/stm32f7xx_hal_rcc.c ****   *            - All interrupts disabled
 209:Drivers/STM32F7xx_HAL_Driver/Src/stm32f7xx_hal_rcc.c ****   * @note   This function doesn't modify the configuration of the
 210:Drivers/STM32F7xx_HAL_Driver/Src/stm32f7xx_hal_rcc.c ****   *            - Peripheral clocks
 211:Drivers/STM32F7xx_HAL_Driver/Src/stm32f7xx_hal_rcc.c ****   *            - LSI, LSE and RTC clocks
 212:Drivers/STM32F7xx_HAL_Driver/Src/stm32f7xx_hal_rcc.c ****   * @retval None
 213:Drivers/STM32F7xx_HAL_Driver/Src/stm32f7xx_hal_rcc.c ****   */
 214:Drivers/STM32F7xx_HAL_Driver/Src/stm32f7xx_hal_rcc.c **** HAL_StatusTypeDef HAL_RCC_DeInit(void)
 215:Drivers/STM32F7xx_HAL_Driver/Src/stm32f7xx_hal_rcc.c **** {
  29              		.loc 1 215 1 view -0
  30              		.cfi_startproc
  31              		@ args = 0, pretend = 0, frame = 0
  32              		@ frame_needed = 0, uses_anonymous_args = 0
  33 0000 38B5     		push	{r3, r4, r5, lr}
  34              	.LCFI0:
  35              		.cfi_def_cfa_offset 16
  36              		.cfi_offset 3, -16
  37              		.cfi_offset 4, -12
  38              		.cfi_offset 5, -8
  39              		.cfi_offset 14, -4
 216:Drivers/STM32F7xx_HAL_Driver/Src/stm32f7xx_hal_rcc.c ****   uint32_t tickstart;
  40              		.loc 1 216 3 view .LVU1
 217:Drivers/STM32F7xx_HAL_Driver/Src/stm32f7xx_hal_rcc.c **** 
 218:Drivers/STM32F7xx_HAL_Driver/Src/stm32f7xx_hal_rcc.c ****   /* Get Start Tick */
 219:Drivers/STM32F7xx_HAL_Driver/Src/stm32f7xx_hal_rcc.c ****   tickstart = HAL_GetTick();
  41              		.loc 1 219 3 view .LVU2
  42              		.loc 1 219 15 is_stmt 0 view .LVU3
  43 0002 FFF7FEFF 		bl	HAL_GetTick
  44              	.LVL0:
  45 0006 0446     		mov	r4, r0
  46              	.LVL1:
 220:Drivers/STM32F7xx_HAL_Driver/Src/stm32f7xx_hal_rcc.c **** 
 221:Drivers/STM32F7xx_HAL_Driver/Src/stm32f7xx_hal_rcc.c ****   /* Set HSION bit to the reset value */
 222:Drivers/STM32F7xx_HAL_Driver/Src/stm32f7xx_hal_rcc.c ****   SET_BIT(RCC->CR, RCC_CR_HSION);
  47              		.loc 1 222 3 is_stmt 1 view .LVU4
  48 0008 4D4A     		ldr	r2, .L28
  49 000a 1368     		ldr	r3, [r2]
  50 000c 43F00103 		orr	r3, r3, #1
  51 0010 1360     		str	r3, [r2]
 223:Drivers/STM32F7xx_HAL_Driver/Src/stm32f7xx_hal_rcc.c **** 
 224:Drivers/STM32F7xx_HAL_Driver/Src/stm32f7xx_hal_rcc.c ****   /* Wait till HSI is ready */
 225:Drivers/STM32F7xx_HAL_Driver/Src/stm32f7xx_hal_rcc.c ****   while (READ_BIT(RCC->CR, RCC_CR_HSIRDY) == RESET)
  52              		.loc 1 225 3 view .LVU5
  53              	.LVL2:
  54              	.L2:
  55              		.loc 1 225 9 view .LVU6
  56              		.loc 1 225 10 is_stmt 0 view .LVU7
  57 0012 4B4B     		ldr	r3, .L28
  58 0014 1B68     		ldr	r3, [r3]
  59              		.loc 1 225 9 view .LVU8
  60 0016 13F0020F 		tst	r3, #2
  61 001a 06D1     		bne	.L22
ARM GAS  C:\Users\Nina\AppData\Local\Temp\ccnJIoBd.s 			page 6


 226:Drivers/STM32F7xx_HAL_Driver/Src/stm32f7xx_hal_rcc.c ****   {
 227:Drivers/STM32F7xx_HAL_Driver/Src/stm32f7xx_hal_rcc.c ****     if ((HAL_GetTick() - tickstart) > HSI_TIMEOUT_VALUE)
  62              		.loc 1 227 5 is_stmt 1 view .LVU9
  63              		.loc 1 227 10 is_stmt 0 view .LVU10
  64 001c FFF7FEFF 		bl	HAL_GetTick
  65              	.LVL3:
  66              		.loc 1 227 24 view .LVU11
  67 0020 001B     		subs	r0, r0, r4
  68              		.loc 1 227 8 view .LVU12
  69 0022 0228     		cmp	r0, #2
  70 0024 F5D9     		bls	.L2
 228:Drivers/STM32F7xx_HAL_Driver/Src/stm32f7xx_hal_rcc.c ****     {
 229:Drivers/STM32F7xx_HAL_Driver/Src/stm32f7xx_hal_rcc.c ****       return HAL_TIMEOUT;
  71              		.loc 1 229 14 view .LVU13
  72 0026 0320     		movs	r0, #3
  73              	.L3:
 230:Drivers/STM32F7xx_HAL_Driver/Src/stm32f7xx_hal_rcc.c ****     }
 231:Drivers/STM32F7xx_HAL_Driver/Src/stm32f7xx_hal_rcc.c ****   }
 232:Drivers/STM32F7xx_HAL_Driver/Src/stm32f7xx_hal_rcc.c **** 
 233:Drivers/STM32F7xx_HAL_Driver/Src/stm32f7xx_hal_rcc.c ****   /* Set HSITRIM[4:0] bits to the reset value */
 234:Drivers/STM32F7xx_HAL_Driver/Src/stm32f7xx_hal_rcc.c ****   SET_BIT(RCC->CR, RCC_CR_HSITRIM_4);
 235:Drivers/STM32F7xx_HAL_Driver/Src/stm32f7xx_hal_rcc.c **** 
 236:Drivers/STM32F7xx_HAL_Driver/Src/stm32f7xx_hal_rcc.c ****   /* Get Start Tick */
 237:Drivers/STM32F7xx_HAL_Driver/Src/stm32f7xx_hal_rcc.c ****   tickstart = HAL_GetTick();
 238:Drivers/STM32F7xx_HAL_Driver/Src/stm32f7xx_hal_rcc.c **** 
 239:Drivers/STM32F7xx_HAL_Driver/Src/stm32f7xx_hal_rcc.c ****   /* Reset CFGR register */
 240:Drivers/STM32F7xx_HAL_Driver/Src/stm32f7xx_hal_rcc.c ****   CLEAR_REG(RCC->CFGR);
 241:Drivers/STM32F7xx_HAL_Driver/Src/stm32f7xx_hal_rcc.c **** 
 242:Drivers/STM32F7xx_HAL_Driver/Src/stm32f7xx_hal_rcc.c ****   /* Wait till clock switch is ready */
 243:Drivers/STM32F7xx_HAL_Driver/Src/stm32f7xx_hal_rcc.c ****   while (READ_BIT(RCC->CFGR, RCC_CFGR_SWS) != RESET)
 244:Drivers/STM32F7xx_HAL_Driver/Src/stm32f7xx_hal_rcc.c ****   {
 245:Drivers/STM32F7xx_HAL_Driver/Src/stm32f7xx_hal_rcc.c ****     if ((HAL_GetTick() - tickstart) > CLOCKSWITCH_TIMEOUT_VALUE)
 246:Drivers/STM32F7xx_HAL_Driver/Src/stm32f7xx_hal_rcc.c ****     {
 247:Drivers/STM32F7xx_HAL_Driver/Src/stm32f7xx_hal_rcc.c ****       return HAL_TIMEOUT;
 248:Drivers/STM32F7xx_HAL_Driver/Src/stm32f7xx_hal_rcc.c ****     }
 249:Drivers/STM32F7xx_HAL_Driver/Src/stm32f7xx_hal_rcc.c ****   }
 250:Drivers/STM32F7xx_HAL_Driver/Src/stm32f7xx_hal_rcc.c **** 
 251:Drivers/STM32F7xx_HAL_Driver/Src/stm32f7xx_hal_rcc.c ****   /* Get Start Tick */
 252:Drivers/STM32F7xx_HAL_Driver/Src/stm32f7xx_hal_rcc.c ****   tickstart = HAL_GetTick();
 253:Drivers/STM32F7xx_HAL_Driver/Src/stm32f7xx_hal_rcc.c **** 
 254:Drivers/STM32F7xx_HAL_Driver/Src/stm32f7xx_hal_rcc.c ****   /* Clear HSEON, HSEBYP and CSSON bits */
 255:Drivers/STM32F7xx_HAL_Driver/Src/stm32f7xx_hal_rcc.c ****   CLEAR_BIT(RCC->CR, RCC_CR_HSEON | RCC_CR_HSEBYP | RCC_CR_CSSON);
 256:Drivers/STM32F7xx_HAL_Driver/Src/stm32f7xx_hal_rcc.c **** 
 257:Drivers/STM32F7xx_HAL_Driver/Src/stm32f7xx_hal_rcc.c ****   /* Wait till HSE is disabled */
 258:Drivers/STM32F7xx_HAL_Driver/Src/stm32f7xx_hal_rcc.c ****   while (READ_BIT(RCC->CR, RCC_CR_HSERDY) != RESET)
 259:Drivers/STM32F7xx_HAL_Driver/Src/stm32f7xx_hal_rcc.c ****   {
 260:Drivers/STM32F7xx_HAL_Driver/Src/stm32f7xx_hal_rcc.c ****     if ((HAL_GetTick() - tickstart) > HSE_TIMEOUT_VALUE)
 261:Drivers/STM32F7xx_HAL_Driver/Src/stm32f7xx_hal_rcc.c ****     {
 262:Drivers/STM32F7xx_HAL_Driver/Src/stm32f7xx_hal_rcc.c ****       return HAL_TIMEOUT;
 263:Drivers/STM32F7xx_HAL_Driver/Src/stm32f7xx_hal_rcc.c ****     }
 264:Drivers/STM32F7xx_HAL_Driver/Src/stm32f7xx_hal_rcc.c ****   }
 265:Drivers/STM32F7xx_HAL_Driver/Src/stm32f7xx_hal_rcc.c **** 
 266:Drivers/STM32F7xx_HAL_Driver/Src/stm32f7xx_hal_rcc.c ****   /* Get Start Tick */
 267:Drivers/STM32F7xx_HAL_Driver/Src/stm32f7xx_hal_rcc.c ****   tickstart = HAL_GetTick();
 268:Drivers/STM32F7xx_HAL_Driver/Src/stm32f7xx_hal_rcc.c **** 
 269:Drivers/STM32F7xx_HAL_Driver/Src/stm32f7xx_hal_rcc.c ****   /* Clear PLLON bit */
 270:Drivers/STM32F7xx_HAL_Driver/Src/stm32f7xx_hal_rcc.c ****   CLEAR_BIT(RCC->CR, RCC_CR_PLLON);
ARM GAS  C:\Users\Nina\AppData\Local\Temp\ccnJIoBd.s 			page 7


 271:Drivers/STM32F7xx_HAL_Driver/Src/stm32f7xx_hal_rcc.c **** 
 272:Drivers/STM32F7xx_HAL_Driver/Src/stm32f7xx_hal_rcc.c ****   /* Wait till PLL is disabled */
 273:Drivers/STM32F7xx_HAL_Driver/Src/stm32f7xx_hal_rcc.c ****   while (READ_BIT(RCC->CR, RCC_CR_PLLRDY) != RESET)
 274:Drivers/STM32F7xx_HAL_Driver/Src/stm32f7xx_hal_rcc.c ****   {
 275:Drivers/STM32F7xx_HAL_Driver/Src/stm32f7xx_hal_rcc.c ****     if ((HAL_GetTick() - tickstart) > PLL_TIMEOUT_VALUE)
 276:Drivers/STM32F7xx_HAL_Driver/Src/stm32f7xx_hal_rcc.c ****     {
 277:Drivers/STM32F7xx_HAL_Driver/Src/stm32f7xx_hal_rcc.c ****       return HAL_TIMEOUT;
 278:Drivers/STM32F7xx_HAL_Driver/Src/stm32f7xx_hal_rcc.c ****     }
 279:Drivers/STM32F7xx_HAL_Driver/Src/stm32f7xx_hal_rcc.c ****   }
 280:Drivers/STM32F7xx_HAL_Driver/Src/stm32f7xx_hal_rcc.c **** 
 281:Drivers/STM32F7xx_HAL_Driver/Src/stm32f7xx_hal_rcc.c ****   /* Get Start Tick */
 282:Drivers/STM32F7xx_HAL_Driver/Src/stm32f7xx_hal_rcc.c ****   tickstart = HAL_GetTick();
 283:Drivers/STM32F7xx_HAL_Driver/Src/stm32f7xx_hal_rcc.c **** 
 284:Drivers/STM32F7xx_HAL_Driver/Src/stm32f7xx_hal_rcc.c ****   /* Reset PLLI2SON bit */
 285:Drivers/STM32F7xx_HAL_Driver/Src/stm32f7xx_hal_rcc.c ****   CLEAR_BIT(RCC->CR, RCC_CR_PLLI2SON);
 286:Drivers/STM32F7xx_HAL_Driver/Src/stm32f7xx_hal_rcc.c **** 
 287:Drivers/STM32F7xx_HAL_Driver/Src/stm32f7xx_hal_rcc.c ****   /* Wait till PLLI2S is disabled */
 288:Drivers/STM32F7xx_HAL_Driver/Src/stm32f7xx_hal_rcc.c ****   while (READ_BIT(RCC->CR, RCC_CR_PLLI2SRDY) != RESET)
 289:Drivers/STM32F7xx_HAL_Driver/Src/stm32f7xx_hal_rcc.c ****   {
 290:Drivers/STM32F7xx_HAL_Driver/Src/stm32f7xx_hal_rcc.c ****     if ((HAL_GetTick() - tickstart) > PLLI2S_TIMEOUT_VALUE)
 291:Drivers/STM32F7xx_HAL_Driver/Src/stm32f7xx_hal_rcc.c ****     {
 292:Drivers/STM32F7xx_HAL_Driver/Src/stm32f7xx_hal_rcc.c ****       return HAL_TIMEOUT;
 293:Drivers/STM32F7xx_HAL_Driver/Src/stm32f7xx_hal_rcc.c ****     }
 294:Drivers/STM32F7xx_HAL_Driver/Src/stm32f7xx_hal_rcc.c ****   }
 295:Drivers/STM32F7xx_HAL_Driver/Src/stm32f7xx_hal_rcc.c **** 
 296:Drivers/STM32F7xx_HAL_Driver/Src/stm32f7xx_hal_rcc.c ****   /* Get Start Tick */
 297:Drivers/STM32F7xx_HAL_Driver/Src/stm32f7xx_hal_rcc.c ****   tickstart = HAL_GetTick();
 298:Drivers/STM32F7xx_HAL_Driver/Src/stm32f7xx_hal_rcc.c **** 
 299:Drivers/STM32F7xx_HAL_Driver/Src/stm32f7xx_hal_rcc.c ****   /* Reset PLLSAI bit */
 300:Drivers/STM32F7xx_HAL_Driver/Src/stm32f7xx_hal_rcc.c ****   CLEAR_BIT(RCC->CR, RCC_CR_PLLSAION);
 301:Drivers/STM32F7xx_HAL_Driver/Src/stm32f7xx_hal_rcc.c **** 
 302:Drivers/STM32F7xx_HAL_Driver/Src/stm32f7xx_hal_rcc.c ****   /* Wait till PLLSAI is disabled */
 303:Drivers/STM32F7xx_HAL_Driver/Src/stm32f7xx_hal_rcc.c ****   while (READ_BIT(RCC->CR, RCC_CR_PLLSAIRDY) != RESET)
 304:Drivers/STM32F7xx_HAL_Driver/Src/stm32f7xx_hal_rcc.c ****   {
 305:Drivers/STM32F7xx_HAL_Driver/Src/stm32f7xx_hal_rcc.c ****     if ((HAL_GetTick() - tickstart) > PLLSAI_TIMEOUT_VALUE)
 306:Drivers/STM32F7xx_HAL_Driver/Src/stm32f7xx_hal_rcc.c ****     {
 307:Drivers/STM32F7xx_HAL_Driver/Src/stm32f7xx_hal_rcc.c ****       return HAL_TIMEOUT;
 308:Drivers/STM32F7xx_HAL_Driver/Src/stm32f7xx_hal_rcc.c ****     }
 309:Drivers/STM32F7xx_HAL_Driver/Src/stm32f7xx_hal_rcc.c ****   }
 310:Drivers/STM32F7xx_HAL_Driver/Src/stm32f7xx_hal_rcc.c **** 
 311:Drivers/STM32F7xx_HAL_Driver/Src/stm32f7xx_hal_rcc.c ****   /* Once PLL, PLLI2S and PLLSAI are OFF, reset PLLCFGR register to default value */
 312:Drivers/STM32F7xx_HAL_Driver/Src/stm32f7xx_hal_rcc.c ****   RCC->PLLCFGR = RCC_PLLCFGR_PLLM_4 | RCC_PLLCFGR_PLLN_6 | RCC_PLLCFGR_PLLN_7 | RCC_PLLCFGR_PLLQ_2 
 313:Drivers/STM32F7xx_HAL_Driver/Src/stm32f7xx_hal_rcc.c **** 
 314:Drivers/STM32F7xx_HAL_Driver/Src/stm32f7xx_hal_rcc.c ****   /* Reset PLLI2SCFGR register to default value */
 315:Drivers/STM32F7xx_HAL_Driver/Src/stm32f7xx_hal_rcc.c ****   RCC->PLLI2SCFGR = RCC_PLLI2SCFGR_PLLI2SN_6 | RCC_PLLI2SCFGR_PLLI2SN_7 | RCC_PLLI2SCFGR_PLLI2SQ_2 
 316:Drivers/STM32F7xx_HAL_Driver/Src/stm32f7xx_hal_rcc.c **** 
 317:Drivers/STM32F7xx_HAL_Driver/Src/stm32f7xx_hal_rcc.c ****   /* Reset PLLSAICFGR register to default value */
 318:Drivers/STM32F7xx_HAL_Driver/Src/stm32f7xx_hal_rcc.c ****   RCC->PLLSAICFGR = RCC_PLLSAICFGR_PLLSAIN_6 | RCC_PLLSAICFGR_PLLSAIN_7 | RCC_PLLSAICFGR_PLLSAIQ_2 
 319:Drivers/STM32F7xx_HAL_Driver/Src/stm32f7xx_hal_rcc.c **** 
 320:Drivers/STM32F7xx_HAL_Driver/Src/stm32f7xx_hal_rcc.c ****   /* Disable all interrupts */
 321:Drivers/STM32F7xx_HAL_Driver/Src/stm32f7xx_hal_rcc.c ****   CLEAR_BIT(RCC->CIR, RCC_CIR_LSIRDYIE | RCC_CIR_LSERDYIE | RCC_CIR_HSIRDYIE | RCC_CIR_HSERDYIE | R
 322:Drivers/STM32F7xx_HAL_Driver/Src/stm32f7xx_hal_rcc.c **** 
 323:Drivers/STM32F7xx_HAL_Driver/Src/stm32f7xx_hal_rcc.c ****   /* Clear all interrupt flags */
 324:Drivers/STM32F7xx_HAL_Driver/Src/stm32f7xx_hal_rcc.c ****   SET_BIT(RCC->CIR, RCC_CIR_LSIRDYC | RCC_CIR_LSERDYC | RCC_CIR_HSIRDYC | RCC_CIR_HSERDYC | RCC_CIR
 325:Drivers/STM32F7xx_HAL_Driver/Src/stm32f7xx_hal_rcc.c **** 
 326:Drivers/STM32F7xx_HAL_Driver/Src/stm32f7xx_hal_rcc.c ****   /* Clear LSION bit */
 327:Drivers/STM32F7xx_HAL_Driver/Src/stm32f7xx_hal_rcc.c ****   CLEAR_BIT(RCC->CSR, RCC_CSR_LSION);
ARM GAS  C:\Users\Nina\AppData\Local\Temp\ccnJIoBd.s 			page 8


 328:Drivers/STM32F7xx_HAL_Driver/Src/stm32f7xx_hal_rcc.c **** 
 329:Drivers/STM32F7xx_HAL_Driver/Src/stm32f7xx_hal_rcc.c ****   /* Reset all CSR flags */
 330:Drivers/STM32F7xx_HAL_Driver/Src/stm32f7xx_hal_rcc.c ****   SET_BIT(RCC->CSR, RCC_CSR_RMVF);
 331:Drivers/STM32F7xx_HAL_Driver/Src/stm32f7xx_hal_rcc.c **** 
 332:Drivers/STM32F7xx_HAL_Driver/Src/stm32f7xx_hal_rcc.c ****   /* Update the SystemCoreClock global variable */
 333:Drivers/STM32F7xx_HAL_Driver/Src/stm32f7xx_hal_rcc.c ****   SystemCoreClock = HSI_VALUE;
 334:Drivers/STM32F7xx_HAL_Driver/Src/stm32f7xx_hal_rcc.c **** 
 335:Drivers/STM32F7xx_HAL_Driver/Src/stm32f7xx_hal_rcc.c ****   /* Adapt Systick interrupt period */
 336:Drivers/STM32F7xx_HAL_Driver/Src/stm32f7xx_hal_rcc.c ****   if(HAL_InitTick(TICK_INT_PRIORITY) != HAL_OK)
 337:Drivers/STM32F7xx_HAL_Driver/Src/stm32f7xx_hal_rcc.c ****   {
 338:Drivers/STM32F7xx_HAL_Driver/Src/stm32f7xx_hal_rcc.c ****     return HAL_ERROR;
 339:Drivers/STM32F7xx_HAL_Driver/Src/stm32f7xx_hal_rcc.c ****   }
 340:Drivers/STM32F7xx_HAL_Driver/Src/stm32f7xx_hal_rcc.c ****   else
 341:Drivers/STM32F7xx_HAL_Driver/Src/stm32f7xx_hal_rcc.c ****   {
 342:Drivers/STM32F7xx_HAL_Driver/Src/stm32f7xx_hal_rcc.c ****     return HAL_OK;
 343:Drivers/STM32F7xx_HAL_Driver/Src/stm32f7xx_hal_rcc.c ****   }
 344:Drivers/STM32F7xx_HAL_Driver/Src/stm32f7xx_hal_rcc.c **** }
  74              		.loc 1 344 1 view .LVU14
  75 0028 38BD     		pop	{r3, r4, r5, pc}
  76              	.LVL4:
  77              	.L22:
 234:Drivers/STM32F7xx_HAL_Driver/Src/stm32f7xx_hal_rcc.c **** 
  78              		.loc 1 234 3 is_stmt 1 view .LVU15
  79 002a 454D     		ldr	r5, .L28
  80 002c 2B68     		ldr	r3, [r5]
  81 002e 43F08003 		orr	r3, r3, #128
  82 0032 2B60     		str	r3, [r5]
 237:Drivers/STM32F7xx_HAL_Driver/Src/stm32f7xx_hal_rcc.c **** 
  83              		.loc 1 237 3 view .LVU16
 237:Drivers/STM32F7xx_HAL_Driver/Src/stm32f7xx_hal_rcc.c **** 
  84              		.loc 1 237 15 is_stmt 0 view .LVU17
  85 0034 FFF7FEFF 		bl	HAL_GetTick
  86              	.LVL5:
  87 0038 0446     		mov	r4, r0
  88              	.LVL6:
 240:Drivers/STM32F7xx_HAL_Driver/Src/stm32f7xx_hal_rcc.c **** 
  89              		.loc 1 240 3 is_stmt 1 view .LVU18
  90 003a 0023     		movs	r3, #0
  91 003c AB60     		str	r3, [r5, #8]
 243:Drivers/STM32F7xx_HAL_Driver/Src/stm32f7xx_hal_rcc.c ****   {
  92              		.loc 1 243 3 view .LVU19
  93              	.LVL7:
  94              	.L5:
 243:Drivers/STM32F7xx_HAL_Driver/Src/stm32f7xx_hal_rcc.c ****   {
  95              		.loc 1 243 9 view .LVU20
 243:Drivers/STM32F7xx_HAL_Driver/Src/stm32f7xx_hal_rcc.c ****   {
  96              		.loc 1 243 10 is_stmt 0 view .LVU21
  97 003e 404B     		ldr	r3, .L28
  98 0040 9B68     		ldr	r3, [r3, #8]
 243:Drivers/STM32F7xx_HAL_Driver/Src/stm32f7xx_hal_rcc.c ****   {
  99              		.loc 1 243 9 view .LVU22
 100 0042 13F00C0F 		tst	r3, #12
 101 0046 08D0     		beq	.L23
 245:Drivers/STM32F7xx_HAL_Driver/Src/stm32f7xx_hal_rcc.c ****     {
 102              		.loc 1 245 5 is_stmt 1 view .LVU23
 245:Drivers/STM32F7xx_HAL_Driver/Src/stm32f7xx_hal_rcc.c ****     {
 103              		.loc 1 245 10 is_stmt 0 view .LVU24
ARM GAS  C:\Users\Nina\AppData\Local\Temp\ccnJIoBd.s 			page 9


 104 0048 FFF7FEFF 		bl	HAL_GetTick
 105              	.LVL8:
 245:Drivers/STM32F7xx_HAL_Driver/Src/stm32f7xx_hal_rcc.c ****     {
 106              		.loc 1 245 24 view .LVU25
 107 004c 001B     		subs	r0, r0, r4
 245:Drivers/STM32F7xx_HAL_Driver/Src/stm32f7xx_hal_rcc.c ****     {
 108              		.loc 1 245 8 view .LVU26
 109 004e 41F28833 		movw	r3, #5000
 110 0052 9842     		cmp	r0, r3
 111 0054 F3D9     		bls	.L5
 247:Drivers/STM32F7xx_HAL_Driver/Src/stm32f7xx_hal_rcc.c ****     }
 112              		.loc 1 247 14 view .LVU27
 113 0056 0320     		movs	r0, #3
 114 0058 E6E7     		b	.L3
 115              	.L23:
 252:Drivers/STM32F7xx_HAL_Driver/Src/stm32f7xx_hal_rcc.c **** 
 116              		.loc 1 252 3 is_stmt 1 view .LVU28
 252:Drivers/STM32F7xx_HAL_Driver/Src/stm32f7xx_hal_rcc.c **** 
 117              		.loc 1 252 15 is_stmt 0 view .LVU29
 118 005a FFF7FEFF 		bl	HAL_GetTick
 119              	.LVL9:
 120 005e 0446     		mov	r4, r0
 121              	.LVL10:
 255:Drivers/STM32F7xx_HAL_Driver/Src/stm32f7xx_hal_rcc.c **** 
 122              		.loc 1 255 3 is_stmt 1 view .LVU30
 123 0060 374A     		ldr	r2, .L28
 124 0062 1368     		ldr	r3, [r2]
 125 0064 23F45023 		bic	r3, r3, #851968
 126 0068 1360     		str	r3, [r2]
 258:Drivers/STM32F7xx_HAL_Driver/Src/stm32f7xx_hal_rcc.c ****   {
 127              		.loc 1 258 3 view .LVU31
 128              	.LVL11:
 129              	.L7:
 258:Drivers/STM32F7xx_HAL_Driver/Src/stm32f7xx_hal_rcc.c ****   {
 130              		.loc 1 258 9 view .LVU32
 258:Drivers/STM32F7xx_HAL_Driver/Src/stm32f7xx_hal_rcc.c ****   {
 131              		.loc 1 258 10 is_stmt 0 view .LVU33
 132 006a 354B     		ldr	r3, .L28
 133 006c 1B68     		ldr	r3, [r3]
 258:Drivers/STM32F7xx_HAL_Driver/Src/stm32f7xx_hal_rcc.c ****   {
 134              		.loc 1 258 9 view .LVU34
 135 006e 13F4003F 		tst	r3, #131072
 136 0072 06D0     		beq	.L24
 260:Drivers/STM32F7xx_HAL_Driver/Src/stm32f7xx_hal_rcc.c ****     {
 137              		.loc 1 260 5 is_stmt 1 view .LVU35
 260:Drivers/STM32F7xx_HAL_Driver/Src/stm32f7xx_hal_rcc.c ****     {
 138              		.loc 1 260 10 is_stmt 0 view .LVU36
 139 0074 FFF7FEFF 		bl	HAL_GetTick
 140              	.LVL12:
 260:Drivers/STM32F7xx_HAL_Driver/Src/stm32f7xx_hal_rcc.c ****     {
 141              		.loc 1 260 24 view .LVU37
 142 0078 001B     		subs	r0, r0, r4
 260:Drivers/STM32F7xx_HAL_Driver/Src/stm32f7xx_hal_rcc.c ****     {
 143              		.loc 1 260 8 view .LVU38
 144 007a 6428     		cmp	r0, #100
 145 007c F5D9     		bls	.L7
 262:Drivers/STM32F7xx_HAL_Driver/Src/stm32f7xx_hal_rcc.c ****     }
ARM GAS  C:\Users\Nina\AppData\Local\Temp\ccnJIoBd.s 			page 10


 146              		.loc 1 262 14 view .LVU39
 147 007e 0320     		movs	r0, #3
 148 0080 D2E7     		b	.L3
 149              	.L24:
 267:Drivers/STM32F7xx_HAL_Driver/Src/stm32f7xx_hal_rcc.c **** 
 150              		.loc 1 267 3 is_stmt 1 view .LVU40
 267:Drivers/STM32F7xx_HAL_Driver/Src/stm32f7xx_hal_rcc.c **** 
 151              		.loc 1 267 15 is_stmt 0 view .LVU41
 152 0082 FFF7FEFF 		bl	HAL_GetTick
 153              	.LVL13:
 154 0086 0446     		mov	r4, r0
 155              	.LVL14:
 270:Drivers/STM32F7xx_HAL_Driver/Src/stm32f7xx_hal_rcc.c **** 
 156              		.loc 1 270 3 is_stmt 1 view .LVU42
 157 0088 2D4A     		ldr	r2, .L28
 158 008a 1368     		ldr	r3, [r2]
 159 008c 23F08073 		bic	r3, r3, #16777216
 160 0090 1360     		str	r3, [r2]
 273:Drivers/STM32F7xx_HAL_Driver/Src/stm32f7xx_hal_rcc.c ****   {
 161              		.loc 1 273 3 view .LVU43
 162              	.LVL15:
 163              	.L9:
 273:Drivers/STM32F7xx_HAL_Driver/Src/stm32f7xx_hal_rcc.c ****   {
 164              		.loc 1 273 9 view .LVU44
 273:Drivers/STM32F7xx_HAL_Driver/Src/stm32f7xx_hal_rcc.c ****   {
 165              		.loc 1 273 10 is_stmt 0 view .LVU45
 166 0092 2B4B     		ldr	r3, .L28
 167 0094 1B68     		ldr	r3, [r3]
 273:Drivers/STM32F7xx_HAL_Driver/Src/stm32f7xx_hal_rcc.c ****   {
 168              		.loc 1 273 9 view .LVU46
 169 0096 13F0007F 		tst	r3, #33554432
 170 009a 06D0     		beq	.L25
 275:Drivers/STM32F7xx_HAL_Driver/Src/stm32f7xx_hal_rcc.c ****     {
 171              		.loc 1 275 5 is_stmt 1 view .LVU47
 275:Drivers/STM32F7xx_HAL_Driver/Src/stm32f7xx_hal_rcc.c ****     {
 172              		.loc 1 275 10 is_stmt 0 view .LVU48
 173 009c FFF7FEFF 		bl	HAL_GetTick
 174              	.LVL16:
 275:Drivers/STM32F7xx_HAL_Driver/Src/stm32f7xx_hal_rcc.c ****     {
 175              		.loc 1 275 24 view .LVU49
 176 00a0 001B     		subs	r0, r0, r4
 275:Drivers/STM32F7xx_HAL_Driver/Src/stm32f7xx_hal_rcc.c ****     {
 177              		.loc 1 275 8 view .LVU50
 178 00a2 0228     		cmp	r0, #2
 179 00a4 F5D9     		bls	.L9
 277:Drivers/STM32F7xx_HAL_Driver/Src/stm32f7xx_hal_rcc.c ****     }
 180              		.loc 1 277 14 view .LVU51
 181 00a6 0320     		movs	r0, #3
 182 00a8 BEE7     		b	.L3
 183              	.L25:
 282:Drivers/STM32F7xx_HAL_Driver/Src/stm32f7xx_hal_rcc.c **** 
 184              		.loc 1 282 3 is_stmt 1 view .LVU52
 282:Drivers/STM32F7xx_HAL_Driver/Src/stm32f7xx_hal_rcc.c **** 
 185              		.loc 1 282 15 is_stmt 0 view .LVU53
 186 00aa FFF7FEFF 		bl	HAL_GetTick
 187              	.LVL17:
 188 00ae 0446     		mov	r4, r0
ARM GAS  C:\Users\Nina\AppData\Local\Temp\ccnJIoBd.s 			page 11


 189              	.LVL18:
 285:Drivers/STM32F7xx_HAL_Driver/Src/stm32f7xx_hal_rcc.c **** 
 190              		.loc 1 285 3 is_stmt 1 view .LVU54
 191 00b0 234A     		ldr	r2, .L28
 192 00b2 1368     		ldr	r3, [r2]
 193 00b4 23F08063 		bic	r3, r3, #67108864
 194 00b8 1360     		str	r3, [r2]
 288:Drivers/STM32F7xx_HAL_Driver/Src/stm32f7xx_hal_rcc.c ****   {
 195              		.loc 1 288 3 view .LVU55
 196              	.LVL19:
 197              	.L11:
 288:Drivers/STM32F7xx_HAL_Driver/Src/stm32f7xx_hal_rcc.c ****   {
 198              		.loc 1 288 9 view .LVU56
 288:Drivers/STM32F7xx_HAL_Driver/Src/stm32f7xx_hal_rcc.c ****   {
 199              		.loc 1 288 10 is_stmt 0 view .LVU57
 200 00ba 214B     		ldr	r3, .L28
 201 00bc 1B68     		ldr	r3, [r3]
 288:Drivers/STM32F7xx_HAL_Driver/Src/stm32f7xx_hal_rcc.c ****   {
 202              		.loc 1 288 9 view .LVU58
 203 00be 13F0006F 		tst	r3, #134217728
 204 00c2 06D0     		beq	.L26
 290:Drivers/STM32F7xx_HAL_Driver/Src/stm32f7xx_hal_rcc.c ****     {
 205              		.loc 1 290 5 is_stmt 1 view .LVU59
 290:Drivers/STM32F7xx_HAL_Driver/Src/stm32f7xx_hal_rcc.c ****     {
 206              		.loc 1 290 10 is_stmt 0 view .LVU60
 207 00c4 FFF7FEFF 		bl	HAL_GetTick
 208              	.LVL20:
 290:Drivers/STM32F7xx_HAL_Driver/Src/stm32f7xx_hal_rcc.c ****     {
 209              		.loc 1 290 24 view .LVU61
 210 00c8 001B     		subs	r0, r0, r4
 290:Drivers/STM32F7xx_HAL_Driver/Src/stm32f7xx_hal_rcc.c ****     {
 211              		.loc 1 290 8 view .LVU62
 212 00ca 6428     		cmp	r0, #100
 213 00cc F5D9     		bls	.L11
 292:Drivers/STM32F7xx_HAL_Driver/Src/stm32f7xx_hal_rcc.c ****     }
 214              		.loc 1 292 14 view .LVU63
 215 00ce 0320     		movs	r0, #3
 216 00d0 AAE7     		b	.L3
 217              	.L26:
 297:Drivers/STM32F7xx_HAL_Driver/Src/stm32f7xx_hal_rcc.c **** 
 218              		.loc 1 297 3 is_stmt 1 view .LVU64
 297:Drivers/STM32F7xx_HAL_Driver/Src/stm32f7xx_hal_rcc.c **** 
 219              		.loc 1 297 15 is_stmt 0 view .LVU65
 220 00d2 FFF7FEFF 		bl	HAL_GetTick
 221              	.LVL21:
 222 00d6 0446     		mov	r4, r0
 223              	.LVL22:
 300:Drivers/STM32F7xx_HAL_Driver/Src/stm32f7xx_hal_rcc.c **** 
 224              		.loc 1 300 3 is_stmt 1 view .LVU66
 225 00d8 194A     		ldr	r2, .L28
 226 00da 1368     		ldr	r3, [r2]
 227 00dc 23F08053 		bic	r3, r3, #268435456
 228 00e0 1360     		str	r3, [r2]
 303:Drivers/STM32F7xx_HAL_Driver/Src/stm32f7xx_hal_rcc.c ****   {
 229              		.loc 1 303 3 view .LVU67
 230              	.LVL23:
 231              	.L13:
ARM GAS  C:\Users\Nina\AppData\Local\Temp\ccnJIoBd.s 			page 12


 303:Drivers/STM32F7xx_HAL_Driver/Src/stm32f7xx_hal_rcc.c ****   {
 232              		.loc 1 303 9 view .LVU68
 303:Drivers/STM32F7xx_HAL_Driver/Src/stm32f7xx_hal_rcc.c ****   {
 233              		.loc 1 303 10 is_stmt 0 view .LVU69
 234 00e2 174B     		ldr	r3, .L28
 235 00e4 1B68     		ldr	r3, [r3]
 303:Drivers/STM32F7xx_HAL_Driver/Src/stm32f7xx_hal_rcc.c ****   {
 236              		.loc 1 303 9 view .LVU70
 237 00e6 13F0005F 		tst	r3, #536870912
 238 00ea 06D0     		beq	.L27
 305:Drivers/STM32F7xx_HAL_Driver/Src/stm32f7xx_hal_rcc.c ****     {
 239              		.loc 1 305 5 is_stmt 1 view .LVU71
 305:Drivers/STM32F7xx_HAL_Driver/Src/stm32f7xx_hal_rcc.c ****     {
 240              		.loc 1 305 10 is_stmt 0 view .LVU72
 241 00ec FFF7FEFF 		bl	HAL_GetTick
 242              	.LVL24:
 305:Drivers/STM32F7xx_HAL_Driver/Src/stm32f7xx_hal_rcc.c ****     {
 243              		.loc 1 305 24 view .LVU73
 244 00f0 001B     		subs	r0, r0, r4
 305:Drivers/STM32F7xx_HAL_Driver/Src/stm32f7xx_hal_rcc.c ****     {
 245              		.loc 1 305 8 view .LVU74
 246 00f2 6428     		cmp	r0, #100
 247 00f4 F5D9     		bls	.L13
 307:Drivers/STM32F7xx_HAL_Driver/Src/stm32f7xx_hal_rcc.c ****     }
 248              		.loc 1 307 14 view .LVU75
 249 00f6 0320     		movs	r0, #3
 250 00f8 96E7     		b	.L3
 251              	.L27:
 312:Drivers/STM32F7xx_HAL_Driver/Src/stm32f7xx_hal_rcc.c **** 
 252              		.loc 1 312 3 is_stmt 1 view .LVU76
 312:Drivers/STM32F7xx_HAL_Driver/Src/stm32f7xx_hal_rcc.c **** 
 253              		.loc 1 312 16 is_stmt 0 view .LVU77
 254 00fa 114B     		ldr	r3, .L28
 255 00fc 114A     		ldr	r2, .L28+4
 256 00fe 5A60     		str	r2, [r3, #4]
 315:Drivers/STM32F7xx_HAL_Driver/Src/stm32f7xx_hal_rcc.c **** 
 257              		.loc 1 315 3 is_stmt 1 view .LVU78
 315:Drivers/STM32F7xx_HAL_Driver/Src/stm32f7xx_hal_rcc.c **** 
 258              		.loc 1 315 19 is_stmt 0 view .LVU79
 259 0100 103A     		subs	r2, r2, #16
 260 0102 C3F88420 		str	r2, [r3, #132]
 318:Drivers/STM32F7xx_HAL_Driver/Src/stm32f7xx_hal_rcc.c **** 
 261              		.loc 1 318 3 is_stmt 1 view .LVU80
 318:Drivers/STM32F7xx_HAL_Driver/Src/stm32f7xx_hal_rcc.c **** 
 262              		.loc 1 318 19 is_stmt 0 view .LVU81
 263 0106 C3F88820 		str	r2, [r3, #136]
 321:Drivers/STM32F7xx_HAL_Driver/Src/stm32f7xx_hal_rcc.c **** 
 264              		.loc 1 321 3 is_stmt 1 view .LVU82
 265 010a DA68     		ldr	r2, [r3, #12]
 266 010c 22F4FE42 		bic	r2, r2, #32512
 267 0110 DA60     		str	r2, [r3, #12]
 324:Drivers/STM32F7xx_HAL_Driver/Src/stm32f7xx_hal_rcc.c **** 
 268              		.loc 1 324 3 view .LVU83
 269 0112 DA68     		ldr	r2, [r3, #12]
 270 0114 42F47F02 		orr	r2, r2, #16711680
 271 0118 DA60     		str	r2, [r3, #12]
 327:Drivers/STM32F7xx_HAL_Driver/Src/stm32f7xx_hal_rcc.c **** 
ARM GAS  C:\Users\Nina\AppData\Local\Temp\ccnJIoBd.s 			page 13


 272              		.loc 1 327 3 view .LVU84
 273 011a 5A6F     		ldr	r2, [r3, #116]
 274 011c 22F00102 		bic	r2, r2, #1
 275 0120 5A67     		str	r2, [r3, #116]
 330:Drivers/STM32F7xx_HAL_Driver/Src/stm32f7xx_hal_rcc.c **** 
 276              		.loc 1 330 3 view .LVU85
 277 0122 5A6F     		ldr	r2, [r3, #116]
 278 0124 42F08072 		orr	r2, r2, #16777216
 279 0128 5A67     		str	r2, [r3, #116]
 333:Drivers/STM32F7xx_HAL_Driver/Src/stm32f7xx_hal_rcc.c **** 
 280              		.loc 1 333 3 view .LVU86
 333:Drivers/STM32F7xx_HAL_Driver/Src/stm32f7xx_hal_rcc.c **** 
 281              		.loc 1 333 19 is_stmt 0 view .LVU87
 282 012a 074B     		ldr	r3, .L28+8
 283 012c 074A     		ldr	r2, .L28+12
 284 012e 1A60     		str	r2, [r3]
 336:Drivers/STM32F7xx_HAL_Driver/Src/stm32f7xx_hal_rcc.c ****   {
 285              		.loc 1 336 3 is_stmt 1 view .LVU88
 336:Drivers/STM32F7xx_HAL_Driver/Src/stm32f7xx_hal_rcc.c ****   {
 286              		.loc 1 336 6 is_stmt 0 view .LVU89
 287 0130 0020     		movs	r0, #0
 288 0132 FFF7FEFF 		bl	HAL_InitTick
 289              	.LVL25:
 336:Drivers/STM32F7xx_HAL_Driver/Src/stm32f7xx_hal_rcc.c ****   {
 290              		.loc 1 336 5 view .LVU90
 291 0136 0028     		cmp	r0, #0
 292 0138 3FF476AF 		beq	.L3
 338:Drivers/STM32F7xx_HAL_Driver/Src/stm32f7xx_hal_rcc.c ****   }
 293              		.loc 1 338 12 view .LVU91
 294 013c 0120     		movs	r0, #1
 295 013e 73E7     		b	.L3
 296              	.L29:
 297              		.align	2
 298              	.L28:
 299 0140 00380240 		.word	1073887232
 300 0144 10300024 		.word	603992080
 301 0148 00000000 		.word	SystemCoreClock
 302 014c 0024F400 		.word	16000000
 303              		.cfi_endproc
 304              	.LFE138:
 306              		.section	.text.HAL_RCC_OscConfig,"ax",%progbits
 307              		.align	1
 308              		.global	HAL_RCC_OscConfig
 309              		.syntax unified
 310              		.thumb
 311              		.thumb_func
 312              		.fpu fpv5-sp-d16
 314              	HAL_RCC_OscConfig:
 315              	.LVL26:
 316              	.LFB139:
 345:Drivers/STM32F7xx_HAL_Driver/Src/stm32f7xx_hal_rcc.c **** 
 346:Drivers/STM32F7xx_HAL_Driver/Src/stm32f7xx_hal_rcc.c **** /**
 347:Drivers/STM32F7xx_HAL_Driver/Src/stm32f7xx_hal_rcc.c ****   * @brief  Initializes the RCC Oscillators according to the specified parameters in the
 348:Drivers/STM32F7xx_HAL_Driver/Src/stm32f7xx_hal_rcc.c ****   *         RCC_OscInitTypeDef.
 349:Drivers/STM32F7xx_HAL_Driver/Src/stm32f7xx_hal_rcc.c ****   * @param  RCC_OscInitStruct pointer to an RCC_OscInitTypeDef structure that
 350:Drivers/STM32F7xx_HAL_Driver/Src/stm32f7xx_hal_rcc.c ****   *         contains the configuration information for the RCC Oscillators.
 351:Drivers/STM32F7xx_HAL_Driver/Src/stm32f7xx_hal_rcc.c ****   * @note   The PLL is not disabled when used as system clock.
ARM GAS  C:\Users\Nina\AppData\Local\Temp\ccnJIoBd.s 			page 14


 352:Drivers/STM32F7xx_HAL_Driver/Src/stm32f7xx_hal_rcc.c ****   * @note   Transitions LSE Bypass to LSE On and LSE On to LSE Bypass are not
 353:Drivers/STM32F7xx_HAL_Driver/Src/stm32f7xx_hal_rcc.c ****   *         supported by this function. User should request a transition to LSE Off
 354:Drivers/STM32F7xx_HAL_Driver/Src/stm32f7xx_hal_rcc.c ****   *         first and then LSE On or LSE Bypass.
 355:Drivers/STM32F7xx_HAL_Driver/Src/stm32f7xx_hal_rcc.c ****   * @note   Transition HSE Bypass to HSE On and HSE On to HSE Bypass are not
 356:Drivers/STM32F7xx_HAL_Driver/Src/stm32f7xx_hal_rcc.c ****   *         supported by this function. User should request a transition to HSE Off
 357:Drivers/STM32F7xx_HAL_Driver/Src/stm32f7xx_hal_rcc.c ****   *         first and then HSE On or HSE Bypass.
 358:Drivers/STM32F7xx_HAL_Driver/Src/stm32f7xx_hal_rcc.c ****   * @retval HAL status
 359:Drivers/STM32F7xx_HAL_Driver/Src/stm32f7xx_hal_rcc.c ****   */
 360:Drivers/STM32F7xx_HAL_Driver/Src/stm32f7xx_hal_rcc.c **** HAL_StatusTypeDef HAL_RCC_OscConfig(RCC_OscInitTypeDef  *RCC_OscInitStruct)
 361:Drivers/STM32F7xx_HAL_Driver/Src/stm32f7xx_hal_rcc.c **** {
 317              		.loc 1 361 1 is_stmt 1 view -0
 318              		.cfi_startproc
 319              		@ args = 0, pretend = 0, frame = 8
 320              		@ frame_needed = 0, uses_anonymous_args = 0
 362:Drivers/STM32F7xx_HAL_Driver/Src/stm32f7xx_hal_rcc.c ****   uint32_t tickstart;
 321              		.loc 1 362 3 view .LVU93
 363:Drivers/STM32F7xx_HAL_Driver/Src/stm32f7xx_hal_rcc.c ****   FlagStatus pwrclkchanged = RESET;
 322              		.loc 1 363 3 view .LVU94
 364:Drivers/STM32F7xx_HAL_Driver/Src/stm32f7xx_hal_rcc.c **** 
 365:Drivers/STM32F7xx_HAL_Driver/Src/stm32f7xx_hal_rcc.c ****   /* Check Null pointer */
 366:Drivers/STM32F7xx_HAL_Driver/Src/stm32f7xx_hal_rcc.c ****   if(RCC_OscInitStruct == NULL)
 323              		.loc 1 366 3 view .LVU95
 324              		.loc 1 366 5 is_stmt 0 view .LVU96
 325 0000 0028     		cmp	r0, #0
 326 0002 00F0D981 		beq	.L81
 361:Drivers/STM32F7xx_HAL_Driver/Src/stm32f7xx_hal_rcc.c ****   uint32_t tickstart;
 327              		.loc 1 361 1 view .LVU97
 328 0006 70B5     		push	{r4, r5, r6, lr}
 329              	.LCFI1:
 330              		.cfi_def_cfa_offset 16
 331              		.cfi_offset 4, -16
 332              		.cfi_offset 5, -12
 333              		.cfi_offset 6, -8
 334              		.cfi_offset 14, -4
 335 0008 82B0     		sub	sp, sp, #8
 336              	.LCFI2:
 337              		.cfi_def_cfa_offset 24
 338 000a 0446     		mov	r4, r0
 367:Drivers/STM32F7xx_HAL_Driver/Src/stm32f7xx_hal_rcc.c ****   {
 368:Drivers/STM32F7xx_HAL_Driver/Src/stm32f7xx_hal_rcc.c ****     return HAL_ERROR;
 369:Drivers/STM32F7xx_HAL_Driver/Src/stm32f7xx_hal_rcc.c ****   }
 370:Drivers/STM32F7xx_HAL_Driver/Src/stm32f7xx_hal_rcc.c **** 
 371:Drivers/STM32F7xx_HAL_Driver/Src/stm32f7xx_hal_rcc.c ****   /* Check the parameters */
 372:Drivers/STM32F7xx_HAL_Driver/Src/stm32f7xx_hal_rcc.c ****   assert_param(IS_RCC_OSCILLATORTYPE(RCC_OscInitStruct->OscillatorType));
 339              		.loc 1 372 3 is_stmt 1 view .LVU98
 373:Drivers/STM32F7xx_HAL_Driver/Src/stm32f7xx_hal_rcc.c **** 
 374:Drivers/STM32F7xx_HAL_Driver/Src/stm32f7xx_hal_rcc.c ****   /*------------------------------- HSE Configuration ------------------------*/
 375:Drivers/STM32F7xx_HAL_Driver/Src/stm32f7xx_hal_rcc.c ****   if(((RCC_OscInitStruct->OscillatorType) & RCC_OSCILLATORTYPE_HSE) == RCC_OSCILLATORTYPE_HSE)
 340              		.loc 1 375 3 view .LVU99
 341              		.loc 1 375 25 is_stmt 0 view .LVU100
 342 000c 0368     		ldr	r3, [r0]
 343              		.loc 1 375 5 view .LVU101
 344 000e 13F0010F 		tst	r3, #1
 345 0012 29D0     		beq	.L32
 376:Drivers/STM32F7xx_HAL_Driver/Src/stm32f7xx_hal_rcc.c ****   {
 377:Drivers/STM32F7xx_HAL_Driver/Src/stm32f7xx_hal_rcc.c ****     /* Check the parameters */
 378:Drivers/STM32F7xx_HAL_Driver/Src/stm32f7xx_hal_rcc.c ****     assert_param(IS_RCC_HSE(RCC_OscInitStruct->HSEState));
ARM GAS  C:\Users\Nina\AppData\Local\Temp\ccnJIoBd.s 			page 15


 346              		.loc 1 378 5 is_stmt 1 view .LVU102
 379:Drivers/STM32F7xx_HAL_Driver/Src/stm32f7xx_hal_rcc.c ****     /* When the HSE is used as system clock or clock source for PLL, It can not be disabled */
 380:Drivers/STM32F7xx_HAL_Driver/Src/stm32f7xx_hal_rcc.c ****     if((__HAL_RCC_GET_SYSCLK_SOURCE() == RCC_SYSCLKSOURCE_STATUS_HSE)
 347              		.loc 1 380 5 view .LVU103
 348              		.loc 1 380 9 is_stmt 0 view .LVU104
 349 0014 A74B     		ldr	r3, .L117
 350 0016 9B68     		ldr	r3, [r3, #8]
 351 0018 03F00C03 		and	r3, r3, #12
 352              		.loc 1 380 7 view .LVU105
 353 001c 042B     		cmp	r3, #4
 354 001e 1AD0     		beq	.L33
 381:Drivers/STM32F7xx_HAL_Driver/Src/stm32f7xx_hal_rcc.c ****        || ((__HAL_RCC_GET_SYSCLK_SOURCE() == RCC_SYSCLKSOURCE_STATUS_PLLCLK) && ((RCC->PLLCFGR & RC
 355              		.loc 1 381 13 view .LVU106
 356 0020 A44B     		ldr	r3, .L117
 357 0022 9B68     		ldr	r3, [r3, #8]
 358 0024 03F00C03 		and	r3, r3, #12
 359              		.loc 1 381 8 view .LVU107
 360 0028 082B     		cmp	r3, #8
 361 002a 0FD0     		beq	.L103
 362              	.L34:
 382:Drivers/STM32F7xx_HAL_Driver/Src/stm32f7xx_hal_rcc.c ****     {
 383:Drivers/STM32F7xx_HAL_Driver/Src/stm32f7xx_hal_rcc.c ****       if((__HAL_RCC_GET_FLAG(RCC_FLAG_HSERDY) != RESET) && (RCC_OscInitStruct->HSEState == RCC_HSE_
 384:Drivers/STM32F7xx_HAL_Driver/Src/stm32f7xx_hal_rcc.c ****       {
 385:Drivers/STM32F7xx_HAL_Driver/Src/stm32f7xx_hal_rcc.c ****         return HAL_ERROR;
 386:Drivers/STM32F7xx_HAL_Driver/Src/stm32f7xx_hal_rcc.c ****       }
 387:Drivers/STM32F7xx_HAL_Driver/Src/stm32f7xx_hal_rcc.c ****     }
 388:Drivers/STM32F7xx_HAL_Driver/Src/stm32f7xx_hal_rcc.c ****     else
 389:Drivers/STM32F7xx_HAL_Driver/Src/stm32f7xx_hal_rcc.c ****     {
 390:Drivers/STM32F7xx_HAL_Driver/Src/stm32f7xx_hal_rcc.c ****       /* Set the new HSE configuration ---------------------------------------*/
 391:Drivers/STM32F7xx_HAL_Driver/Src/stm32f7xx_hal_rcc.c ****       __HAL_RCC_HSE_CONFIG(RCC_OscInitStruct->HSEState);
 363              		.loc 1 391 7 is_stmt 1 view .LVU108
 364              		.loc 1 391 7 view .LVU109
 365 002c 6368     		ldr	r3, [r4, #4]
 366 002e B3F5803F 		cmp	r3, #65536
 367 0032 40D0     		beq	.L104
 368              		.loc 1 391 7 discriminator 2 view .LVU110
 369 0034 002B     		cmp	r3, #0
 370 0036 54D1     		bne	.L37
 371              		.loc 1 391 7 discriminator 4 view .LVU111
 372 0038 9E4B     		ldr	r3, .L117
 373 003a 1A68     		ldr	r2, [r3]
 374 003c 22F48032 		bic	r2, r2, #65536
 375 0040 1A60     		str	r2, [r3]
 376              		.loc 1 391 7 discriminator 4 view .LVU112
 377 0042 1A68     		ldr	r2, [r3]
 378 0044 22F48022 		bic	r2, r2, #262144
 379 0048 1A60     		str	r2, [r3]
 380 004a 39E0     		b	.L36
 381              	.L103:
 381:Drivers/STM32F7xx_HAL_Driver/Src/stm32f7xx_hal_rcc.c ****        || ((__HAL_RCC_GET_SYSCLK_SOURCE() == RCC_SYSCLKSOURCE_STATUS_PLLCLK) && ((RCC->PLLCFGR & RC
 382              		.loc 1 381 86 is_stmt 0 discriminator 1 view .LVU113
 383 004c 994B     		ldr	r3, .L117
 384 004e 5B68     		ldr	r3, [r3, #4]
 381:Drivers/STM32F7xx_HAL_Driver/Src/stm32f7xx_hal_rcc.c ****        || ((__HAL_RCC_GET_SYSCLK_SOURCE() == RCC_SYSCLKSOURCE_STATUS_PLLCLK) && ((RCC->PLLCFGR & RC
 385              		.loc 1 381 78 discriminator 1 view .LVU114
 386 0050 13F4800F 		tst	r3, #4194304
 387 0054 EAD0     		beq	.L34
ARM GAS  C:\Users\Nina\AppData\Local\Temp\ccnJIoBd.s 			page 16


 388              	.L33:
 383:Drivers/STM32F7xx_HAL_Driver/Src/stm32f7xx_hal_rcc.c ****       {
 389              		.loc 1 383 7 is_stmt 1 view .LVU115
 383:Drivers/STM32F7xx_HAL_Driver/Src/stm32f7xx_hal_rcc.c ****       {
 390              		.loc 1 383 11 is_stmt 0 view .LVU116
 391 0056 974B     		ldr	r3, .L117
 392 0058 1B68     		ldr	r3, [r3]
 383:Drivers/STM32F7xx_HAL_Driver/Src/stm32f7xx_hal_rcc.c ****       {
 393              		.loc 1 383 9 view .LVU117
 394 005a 13F4003F 		tst	r3, #131072
 395 005e 03D0     		beq	.L32
 383:Drivers/STM32F7xx_HAL_Driver/Src/stm32f7xx_hal_rcc.c ****       {
 396              		.loc 1 383 78 discriminator 1 view .LVU118
 397 0060 6368     		ldr	r3, [r4, #4]
 383:Drivers/STM32F7xx_HAL_Driver/Src/stm32f7xx_hal_rcc.c ****       {
 398              		.loc 1 383 57 discriminator 1 view .LVU119
 399 0062 002B     		cmp	r3, #0
 400 0064 00F0AA81 		beq	.L105
 401              	.LVL27:
 402              	.L32:
 392:Drivers/STM32F7xx_HAL_Driver/Src/stm32f7xx_hal_rcc.c **** 
 393:Drivers/STM32F7xx_HAL_Driver/Src/stm32f7xx_hal_rcc.c ****       /* Check the HSE State */
 394:Drivers/STM32F7xx_HAL_Driver/Src/stm32f7xx_hal_rcc.c ****       if(RCC_OscInitStruct->HSEState != RCC_HSE_OFF)
 395:Drivers/STM32F7xx_HAL_Driver/Src/stm32f7xx_hal_rcc.c ****       {
 396:Drivers/STM32F7xx_HAL_Driver/Src/stm32f7xx_hal_rcc.c ****         /* Get Start Tick*/
 397:Drivers/STM32F7xx_HAL_Driver/Src/stm32f7xx_hal_rcc.c ****         tickstart = HAL_GetTick();
 398:Drivers/STM32F7xx_HAL_Driver/Src/stm32f7xx_hal_rcc.c **** 
 399:Drivers/STM32F7xx_HAL_Driver/Src/stm32f7xx_hal_rcc.c ****         /* Wait till HSE is ready */
 400:Drivers/STM32F7xx_HAL_Driver/Src/stm32f7xx_hal_rcc.c ****         while(__HAL_RCC_GET_FLAG(RCC_FLAG_HSERDY) == RESET)
 401:Drivers/STM32F7xx_HAL_Driver/Src/stm32f7xx_hal_rcc.c ****         {
 402:Drivers/STM32F7xx_HAL_Driver/Src/stm32f7xx_hal_rcc.c ****           if((HAL_GetTick() - tickstart ) > HSE_TIMEOUT_VALUE)
 403:Drivers/STM32F7xx_HAL_Driver/Src/stm32f7xx_hal_rcc.c ****           {
 404:Drivers/STM32F7xx_HAL_Driver/Src/stm32f7xx_hal_rcc.c ****             return HAL_TIMEOUT;
 405:Drivers/STM32F7xx_HAL_Driver/Src/stm32f7xx_hal_rcc.c ****           }
 406:Drivers/STM32F7xx_HAL_Driver/Src/stm32f7xx_hal_rcc.c ****         }
 407:Drivers/STM32F7xx_HAL_Driver/Src/stm32f7xx_hal_rcc.c ****       }
 408:Drivers/STM32F7xx_HAL_Driver/Src/stm32f7xx_hal_rcc.c ****       else
 409:Drivers/STM32F7xx_HAL_Driver/Src/stm32f7xx_hal_rcc.c ****       {
 410:Drivers/STM32F7xx_HAL_Driver/Src/stm32f7xx_hal_rcc.c ****         /* Get Start Tick*/
 411:Drivers/STM32F7xx_HAL_Driver/Src/stm32f7xx_hal_rcc.c ****         tickstart = HAL_GetTick();
 412:Drivers/STM32F7xx_HAL_Driver/Src/stm32f7xx_hal_rcc.c **** 
 413:Drivers/STM32F7xx_HAL_Driver/Src/stm32f7xx_hal_rcc.c ****         /* Wait till HSE is bypassed or disabled */
 414:Drivers/STM32F7xx_HAL_Driver/Src/stm32f7xx_hal_rcc.c ****         while(__HAL_RCC_GET_FLAG(RCC_FLAG_HSERDY) != RESET)
 415:Drivers/STM32F7xx_HAL_Driver/Src/stm32f7xx_hal_rcc.c ****         {
 416:Drivers/STM32F7xx_HAL_Driver/Src/stm32f7xx_hal_rcc.c ****            if((HAL_GetTick() - tickstart ) > HSE_TIMEOUT_VALUE)
 417:Drivers/STM32F7xx_HAL_Driver/Src/stm32f7xx_hal_rcc.c ****           {
 418:Drivers/STM32F7xx_HAL_Driver/Src/stm32f7xx_hal_rcc.c ****             return HAL_TIMEOUT;
 419:Drivers/STM32F7xx_HAL_Driver/Src/stm32f7xx_hal_rcc.c ****           }
 420:Drivers/STM32F7xx_HAL_Driver/Src/stm32f7xx_hal_rcc.c ****         }
 421:Drivers/STM32F7xx_HAL_Driver/Src/stm32f7xx_hal_rcc.c ****       }
 422:Drivers/STM32F7xx_HAL_Driver/Src/stm32f7xx_hal_rcc.c ****     }
 423:Drivers/STM32F7xx_HAL_Driver/Src/stm32f7xx_hal_rcc.c ****   }
 424:Drivers/STM32F7xx_HAL_Driver/Src/stm32f7xx_hal_rcc.c ****   /*----------------------------- HSI Configuration --------------------------*/
 425:Drivers/STM32F7xx_HAL_Driver/Src/stm32f7xx_hal_rcc.c ****   if(((RCC_OscInitStruct->OscillatorType) & RCC_OSCILLATORTYPE_HSI) == RCC_OSCILLATORTYPE_HSI)
 403              		.loc 1 425 3 is_stmt 1 view .LVU120
 404              		.loc 1 425 25 is_stmt 0 view .LVU121
 405 0068 2368     		ldr	r3, [r4]
ARM GAS  C:\Users\Nina\AppData\Local\Temp\ccnJIoBd.s 			page 17


 406              		.loc 1 425 5 view .LVU122
 407 006a 13F0020F 		tst	r3, #2
 408 006e 74D0     		beq	.L44
 426:Drivers/STM32F7xx_HAL_Driver/Src/stm32f7xx_hal_rcc.c ****   {
 427:Drivers/STM32F7xx_HAL_Driver/Src/stm32f7xx_hal_rcc.c ****     /* Check the parameters */
 428:Drivers/STM32F7xx_HAL_Driver/Src/stm32f7xx_hal_rcc.c ****     assert_param(IS_RCC_HSI(RCC_OscInitStruct->HSIState));
 409              		.loc 1 428 5 is_stmt 1 view .LVU123
 429:Drivers/STM32F7xx_HAL_Driver/Src/stm32f7xx_hal_rcc.c ****     assert_param(IS_RCC_CALIBRATION_VALUE(RCC_OscInitStruct->HSICalibrationValue));
 410              		.loc 1 429 5 view .LVU124
 430:Drivers/STM32F7xx_HAL_Driver/Src/stm32f7xx_hal_rcc.c **** 
 431:Drivers/STM32F7xx_HAL_Driver/Src/stm32f7xx_hal_rcc.c ****     /* Check if HSI is used as system clock or as PLL source when PLL is selected as system clock *
 432:Drivers/STM32F7xx_HAL_Driver/Src/stm32f7xx_hal_rcc.c ****     if((__HAL_RCC_GET_SYSCLK_SOURCE() == RCC_SYSCLKSOURCE_STATUS_HSI)
 411              		.loc 1 432 5 view .LVU125
 412              		.loc 1 432 9 is_stmt 0 view .LVU126
 413 0070 904B     		ldr	r3, .L117
 414 0072 9B68     		ldr	r3, [r3, #8]
 415              		.loc 1 432 7 view .LVU127
 416 0074 13F00C0F 		tst	r3, #12
 417 0078 5ED0     		beq	.L45
 433:Drivers/STM32F7xx_HAL_Driver/Src/stm32f7xx_hal_rcc.c ****        || ((__HAL_RCC_GET_SYSCLK_SOURCE() == RCC_SYSCLKSOURCE_STATUS_PLLCLK) && ((RCC->PLLCFGR & RC
 418              		.loc 1 433 13 view .LVU128
 419 007a 8E4B     		ldr	r3, .L117
 420 007c 9B68     		ldr	r3, [r3, #8]
 421 007e 03F00C03 		and	r3, r3, #12
 422              		.loc 1 433 8 view .LVU129
 423 0082 082B     		cmp	r3, #8
 424 0084 53D0     		beq	.L106
 425              	.L46:
 434:Drivers/STM32F7xx_HAL_Driver/Src/stm32f7xx_hal_rcc.c ****     {
 435:Drivers/STM32F7xx_HAL_Driver/Src/stm32f7xx_hal_rcc.c ****       /* When HSI is used as system clock it will not disabled */
 436:Drivers/STM32F7xx_HAL_Driver/Src/stm32f7xx_hal_rcc.c ****       if((__HAL_RCC_GET_FLAG(RCC_FLAG_HSIRDY) != RESET) && (RCC_OscInitStruct->HSIState != RCC_HSI_
 437:Drivers/STM32F7xx_HAL_Driver/Src/stm32f7xx_hal_rcc.c ****       {
 438:Drivers/STM32F7xx_HAL_Driver/Src/stm32f7xx_hal_rcc.c ****         return HAL_ERROR;
 439:Drivers/STM32F7xx_HAL_Driver/Src/stm32f7xx_hal_rcc.c ****       }
 440:Drivers/STM32F7xx_HAL_Driver/Src/stm32f7xx_hal_rcc.c ****       /* Otherwise, just the calibration is allowed */
 441:Drivers/STM32F7xx_HAL_Driver/Src/stm32f7xx_hal_rcc.c ****       else
 442:Drivers/STM32F7xx_HAL_Driver/Src/stm32f7xx_hal_rcc.c ****       {
 443:Drivers/STM32F7xx_HAL_Driver/Src/stm32f7xx_hal_rcc.c ****         /* Adjusts the Internal High Speed oscillator (HSI) calibration value.*/
 444:Drivers/STM32F7xx_HAL_Driver/Src/stm32f7xx_hal_rcc.c ****         __HAL_RCC_HSI_CALIBRATIONVALUE_ADJUST(RCC_OscInitStruct->HSICalibrationValue);
 445:Drivers/STM32F7xx_HAL_Driver/Src/stm32f7xx_hal_rcc.c ****       }
 446:Drivers/STM32F7xx_HAL_Driver/Src/stm32f7xx_hal_rcc.c ****     }
 447:Drivers/STM32F7xx_HAL_Driver/Src/stm32f7xx_hal_rcc.c ****     else
 448:Drivers/STM32F7xx_HAL_Driver/Src/stm32f7xx_hal_rcc.c ****     {
 449:Drivers/STM32F7xx_HAL_Driver/Src/stm32f7xx_hal_rcc.c ****       /* Check the HSI State */
 450:Drivers/STM32F7xx_HAL_Driver/Src/stm32f7xx_hal_rcc.c ****       if((RCC_OscInitStruct->HSIState)!= RCC_HSI_OFF)
 426              		.loc 1 450 7 is_stmt 1 view .LVU130
 427              		.loc 1 450 28 is_stmt 0 view .LVU131
 428 0086 E368     		ldr	r3, [r4, #12]
 429              		.loc 1 450 9 view .LVU132
 430 0088 002B     		cmp	r3, #0
 431 008a 00F08980 		beq	.L48
 451:Drivers/STM32F7xx_HAL_Driver/Src/stm32f7xx_hal_rcc.c ****       {
 452:Drivers/STM32F7xx_HAL_Driver/Src/stm32f7xx_hal_rcc.c ****         /* Enable the Internal High Speed oscillator (HSI). */
 453:Drivers/STM32F7xx_HAL_Driver/Src/stm32f7xx_hal_rcc.c ****         __HAL_RCC_HSI_ENABLE();
 432              		.loc 1 453 9 is_stmt 1 view .LVU133
 433 008e 894A     		ldr	r2, .L117
 434 0090 1368     		ldr	r3, [r2]
ARM GAS  C:\Users\Nina\AppData\Local\Temp\ccnJIoBd.s 			page 18


 435 0092 43F00103 		orr	r3, r3, #1
 436 0096 1360     		str	r3, [r2]
 454:Drivers/STM32F7xx_HAL_Driver/Src/stm32f7xx_hal_rcc.c **** 
 455:Drivers/STM32F7xx_HAL_Driver/Src/stm32f7xx_hal_rcc.c ****         /* Get Start Tick*/
 456:Drivers/STM32F7xx_HAL_Driver/Src/stm32f7xx_hal_rcc.c ****         tickstart = HAL_GetTick();
 437              		.loc 1 456 9 view .LVU134
 438              		.loc 1 456 21 is_stmt 0 view .LVU135
 439 0098 FFF7FEFF 		bl	HAL_GetTick
 440              	.LVL28:
 441 009c 0546     		mov	r5, r0
 442              	.LVL29:
 457:Drivers/STM32F7xx_HAL_Driver/Src/stm32f7xx_hal_rcc.c **** 
 458:Drivers/STM32F7xx_HAL_Driver/Src/stm32f7xx_hal_rcc.c ****         /* Wait till HSI is ready */
 459:Drivers/STM32F7xx_HAL_Driver/Src/stm32f7xx_hal_rcc.c ****         while(__HAL_RCC_GET_FLAG(RCC_FLAG_HSIRDY) == RESET)
 443              		.loc 1 459 9 is_stmt 1 view .LVU136
 444              	.L49:
 445              		.loc 1 459 14 view .LVU137
 446              		.loc 1 459 15 is_stmt 0 view .LVU138
 447 009e 854B     		ldr	r3, .L117
 448 00a0 1B68     		ldr	r3, [r3]
 449              		.loc 1 459 14 view .LVU139
 450 00a2 13F0020F 		tst	r3, #2
 451 00a6 72D1     		bne	.L107
 460:Drivers/STM32F7xx_HAL_Driver/Src/stm32f7xx_hal_rcc.c ****         {
 461:Drivers/STM32F7xx_HAL_Driver/Src/stm32f7xx_hal_rcc.c ****           if((HAL_GetTick() - tickstart ) > HSI_TIMEOUT_VALUE)
 452              		.loc 1 461 11 is_stmt 1 view .LVU140
 453              		.loc 1 461 15 is_stmt 0 view .LVU141
 454 00a8 FFF7FEFF 		bl	HAL_GetTick
 455              	.LVL30:
 456              		.loc 1 461 29 view .LVU142
 457 00ac 401B     		subs	r0, r0, r5
 458              		.loc 1 461 13 view .LVU143
 459 00ae 0228     		cmp	r0, #2
 460 00b0 F5D9     		bls	.L49
 462:Drivers/STM32F7xx_HAL_Driver/Src/stm32f7xx_hal_rcc.c ****           {
 463:Drivers/STM32F7xx_HAL_Driver/Src/stm32f7xx_hal_rcc.c ****             return HAL_TIMEOUT;
 461              		.loc 1 463 20 view .LVU144
 462 00b2 0320     		movs	r0, #3
 463 00b4 87E1     		b	.L31
 464              	.LVL31:
 465              	.L104:
 391:Drivers/STM32F7xx_HAL_Driver/Src/stm32f7xx_hal_rcc.c **** 
 466              		.loc 1 391 7 is_stmt 1 discriminator 1 view .LVU145
 467 00b6 7F4A     		ldr	r2, .L117
 468 00b8 1368     		ldr	r3, [r2]
 469 00ba 43F48033 		orr	r3, r3, #65536
 470 00be 1360     		str	r3, [r2]
 471              	.L36:
 391:Drivers/STM32F7xx_HAL_Driver/Src/stm32f7xx_hal_rcc.c **** 
 472              		.loc 1 391 7 discriminator 10 view .LVU146
 394:Drivers/STM32F7xx_HAL_Driver/Src/stm32f7xx_hal_rcc.c ****       {
 473              		.loc 1 394 7 discriminator 10 view .LVU147
 394:Drivers/STM32F7xx_HAL_Driver/Src/stm32f7xx_hal_rcc.c ****       {
 474              		.loc 1 394 27 is_stmt 0 discriminator 10 view .LVU148
 475 00c0 6368     		ldr	r3, [r4, #4]
 394:Drivers/STM32F7xx_HAL_Driver/Src/stm32f7xx_hal_rcc.c ****       {
 476              		.loc 1 394 9 discriminator 10 view .LVU149
ARM GAS  C:\Users\Nina\AppData\Local\Temp\ccnJIoBd.s 			page 19


 477 00c2 2BB3     		cbz	r3, .L39
 397:Drivers/STM32F7xx_HAL_Driver/Src/stm32f7xx_hal_rcc.c **** 
 478              		.loc 1 397 9 is_stmt 1 view .LVU150
 397:Drivers/STM32F7xx_HAL_Driver/Src/stm32f7xx_hal_rcc.c **** 
 479              		.loc 1 397 21 is_stmt 0 view .LVU151
 480 00c4 FFF7FEFF 		bl	HAL_GetTick
 481              	.LVL32:
 397:Drivers/STM32F7xx_HAL_Driver/Src/stm32f7xx_hal_rcc.c **** 
 482              		.loc 1 397 21 view .LVU152
 483 00c8 0546     		mov	r5, r0
 484              	.LVL33:
 400:Drivers/STM32F7xx_HAL_Driver/Src/stm32f7xx_hal_rcc.c ****         {
 485              		.loc 1 400 9 is_stmt 1 view .LVU153
 486              	.L40:
 400:Drivers/STM32F7xx_HAL_Driver/Src/stm32f7xx_hal_rcc.c ****         {
 487              		.loc 1 400 14 view .LVU154
 400:Drivers/STM32F7xx_HAL_Driver/Src/stm32f7xx_hal_rcc.c ****         {
 488              		.loc 1 400 15 is_stmt 0 view .LVU155
 489 00ca 7A4B     		ldr	r3, .L117
 490 00cc 1B68     		ldr	r3, [r3]
 400:Drivers/STM32F7xx_HAL_Driver/Src/stm32f7xx_hal_rcc.c ****         {
 491              		.loc 1 400 14 view .LVU156
 492 00ce 13F4003F 		tst	r3, #131072
 493 00d2 C9D1     		bne	.L32
 402:Drivers/STM32F7xx_HAL_Driver/Src/stm32f7xx_hal_rcc.c ****           {
 494              		.loc 1 402 11 is_stmt 1 view .LVU157
 402:Drivers/STM32F7xx_HAL_Driver/Src/stm32f7xx_hal_rcc.c ****           {
 495              		.loc 1 402 15 is_stmt 0 view .LVU158
 496 00d4 FFF7FEFF 		bl	HAL_GetTick
 497              	.LVL34:
 402:Drivers/STM32F7xx_HAL_Driver/Src/stm32f7xx_hal_rcc.c ****           {
 498              		.loc 1 402 29 view .LVU159
 499 00d8 401B     		subs	r0, r0, r5
 402:Drivers/STM32F7xx_HAL_Driver/Src/stm32f7xx_hal_rcc.c ****           {
 500              		.loc 1 402 13 view .LVU160
 501 00da 6428     		cmp	r0, #100
 502 00dc F5D9     		bls	.L40
 404:Drivers/STM32F7xx_HAL_Driver/Src/stm32f7xx_hal_rcc.c ****           }
 503              		.loc 1 404 20 view .LVU161
 504 00de 0320     		movs	r0, #3
 505 00e0 71E1     		b	.L31
 506              	.LVL35:
 507              	.L37:
 391:Drivers/STM32F7xx_HAL_Driver/Src/stm32f7xx_hal_rcc.c **** 
 508              		.loc 1 391 7 is_stmt 1 discriminator 5 view .LVU162
 509 00e2 B3F5A02F 		cmp	r3, #327680
 510 00e6 09D0     		beq	.L108
 391:Drivers/STM32F7xx_HAL_Driver/Src/stm32f7xx_hal_rcc.c **** 
 511              		.loc 1 391 7 discriminator 8 view .LVU163
 512 00e8 724B     		ldr	r3, .L117
 513 00ea 1A68     		ldr	r2, [r3]
 514 00ec 22F48032 		bic	r2, r2, #65536
 515 00f0 1A60     		str	r2, [r3]
 391:Drivers/STM32F7xx_HAL_Driver/Src/stm32f7xx_hal_rcc.c **** 
 516              		.loc 1 391 7 discriminator 8 view .LVU164
 517 00f2 1A68     		ldr	r2, [r3]
 518 00f4 22F48022 		bic	r2, r2, #262144
ARM GAS  C:\Users\Nina\AppData\Local\Temp\ccnJIoBd.s 			page 20


 519 00f8 1A60     		str	r2, [r3]
 520 00fa E1E7     		b	.L36
 521              	.L108:
 391:Drivers/STM32F7xx_HAL_Driver/Src/stm32f7xx_hal_rcc.c **** 
 522              		.loc 1 391 7 discriminator 7 view .LVU165
 523 00fc 6D4B     		ldr	r3, .L117
 524 00fe 1A68     		ldr	r2, [r3]
 525 0100 42F48022 		orr	r2, r2, #262144
 526 0104 1A60     		str	r2, [r3]
 391:Drivers/STM32F7xx_HAL_Driver/Src/stm32f7xx_hal_rcc.c **** 
 527              		.loc 1 391 7 discriminator 7 view .LVU166
 528 0106 1A68     		ldr	r2, [r3]
 529 0108 42F48032 		orr	r2, r2, #65536
 530 010c 1A60     		str	r2, [r3]
 531 010e D7E7     		b	.L36
 532              	.L39:
 411:Drivers/STM32F7xx_HAL_Driver/Src/stm32f7xx_hal_rcc.c **** 
 533              		.loc 1 411 9 view .LVU167
 411:Drivers/STM32F7xx_HAL_Driver/Src/stm32f7xx_hal_rcc.c **** 
 534              		.loc 1 411 21 is_stmt 0 view .LVU168
 535 0110 FFF7FEFF 		bl	HAL_GetTick
 536              	.LVL36:
 411:Drivers/STM32F7xx_HAL_Driver/Src/stm32f7xx_hal_rcc.c **** 
 537              		.loc 1 411 21 view .LVU169
 538 0114 0546     		mov	r5, r0
 539              	.LVL37:
 414:Drivers/STM32F7xx_HAL_Driver/Src/stm32f7xx_hal_rcc.c ****         {
 540              		.loc 1 414 9 is_stmt 1 view .LVU170
 541              	.L42:
 414:Drivers/STM32F7xx_HAL_Driver/Src/stm32f7xx_hal_rcc.c ****         {
 542              		.loc 1 414 14 view .LVU171
 414:Drivers/STM32F7xx_HAL_Driver/Src/stm32f7xx_hal_rcc.c ****         {
 543              		.loc 1 414 15 is_stmt 0 view .LVU172
 544 0116 674B     		ldr	r3, .L117
 545 0118 1B68     		ldr	r3, [r3]
 414:Drivers/STM32F7xx_HAL_Driver/Src/stm32f7xx_hal_rcc.c ****         {
 546              		.loc 1 414 14 view .LVU173
 547 011a 13F4003F 		tst	r3, #131072
 548 011e A3D0     		beq	.L32
 416:Drivers/STM32F7xx_HAL_Driver/Src/stm32f7xx_hal_rcc.c ****           {
 549              		.loc 1 416 12 is_stmt 1 view .LVU174
 416:Drivers/STM32F7xx_HAL_Driver/Src/stm32f7xx_hal_rcc.c ****           {
 550              		.loc 1 416 16 is_stmt 0 view .LVU175
 551 0120 FFF7FEFF 		bl	HAL_GetTick
 552              	.LVL38:
 416:Drivers/STM32F7xx_HAL_Driver/Src/stm32f7xx_hal_rcc.c ****           {
 553              		.loc 1 416 30 view .LVU176
 554 0124 401B     		subs	r0, r0, r5
 416:Drivers/STM32F7xx_HAL_Driver/Src/stm32f7xx_hal_rcc.c ****           {
 555              		.loc 1 416 14 view .LVU177
 556 0126 6428     		cmp	r0, #100
 557 0128 F5D9     		bls	.L42
 418:Drivers/STM32F7xx_HAL_Driver/Src/stm32f7xx_hal_rcc.c ****           }
 558              		.loc 1 418 20 view .LVU178
 559 012a 0320     		movs	r0, #3
 560 012c 4BE1     		b	.L31
 561              	.LVL39:
ARM GAS  C:\Users\Nina\AppData\Local\Temp\ccnJIoBd.s 			page 21


 562              	.L106:
 433:Drivers/STM32F7xx_HAL_Driver/Src/stm32f7xx_hal_rcc.c ****     {
 563              		.loc 1 433 86 discriminator 1 view .LVU179
 564 012e 614B     		ldr	r3, .L117
 565 0130 5B68     		ldr	r3, [r3, #4]
 433:Drivers/STM32F7xx_HAL_Driver/Src/stm32f7xx_hal_rcc.c ****     {
 566              		.loc 1 433 78 discriminator 1 view .LVU180
 567 0132 13F4800F 		tst	r3, #4194304
 568 0136 A6D1     		bne	.L46
 569              	.L45:
 436:Drivers/STM32F7xx_HAL_Driver/Src/stm32f7xx_hal_rcc.c ****       {
 570              		.loc 1 436 7 is_stmt 1 view .LVU181
 436:Drivers/STM32F7xx_HAL_Driver/Src/stm32f7xx_hal_rcc.c ****       {
 571              		.loc 1 436 11 is_stmt 0 view .LVU182
 572 0138 5E4B     		ldr	r3, .L117
 573 013a 1B68     		ldr	r3, [r3]
 436:Drivers/STM32F7xx_HAL_Driver/Src/stm32f7xx_hal_rcc.c ****       {
 574              		.loc 1 436 9 view .LVU183
 575 013c 13F0020F 		tst	r3, #2
 576 0140 03D0     		beq	.L47
 436:Drivers/STM32F7xx_HAL_Driver/Src/stm32f7xx_hal_rcc.c ****       {
 577              		.loc 1 436 78 discriminator 1 view .LVU184
 578 0142 E368     		ldr	r3, [r4, #12]
 436:Drivers/STM32F7xx_HAL_Driver/Src/stm32f7xx_hal_rcc.c ****       {
 579              		.loc 1 436 57 discriminator 1 view .LVU185
 580 0144 012B     		cmp	r3, #1
 581 0146 40F03B81 		bne	.L85
 582              	.L47:
 444:Drivers/STM32F7xx_HAL_Driver/Src/stm32f7xx_hal_rcc.c ****       }
 583              		.loc 1 444 9 is_stmt 1 view .LVU186
 584 014a 5A4A     		ldr	r2, .L117
 585 014c 1368     		ldr	r3, [r2]
 586 014e 23F0F803 		bic	r3, r3, #248
 587 0152 2169     		ldr	r1, [r4, #16]
 588 0154 43EAC103 		orr	r3, r3, r1, lsl #3
 589 0158 1360     		str	r3, [r2]
 590              	.L44:
 464:Drivers/STM32F7xx_HAL_Driver/Src/stm32f7xx_hal_rcc.c ****           }
 465:Drivers/STM32F7xx_HAL_Driver/Src/stm32f7xx_hal_rcc.c ****         }
 466:Drivers/STM32F7xx_HAL_Driver/Src/stm32f7xx_hal_rcc.c **** 
 467:Drivers/STM32F7xx_HAL_Driver/Src/stm32f7xx_hal_rcc.c ****         /* Adjusts the Internal High Speed oscillator (HSI) calibration value.*/
 468:Drivers/STM32F7xx_HAL_Driver/Src/stm32f7xx_hal_rcc.c ****         __HAL_RCC_HSI_CALIBRATIONVALUE_ADJUST(RCC_OscInitStruct->HSICalibrationValue);
 469:Drivers/STM32F7xx_HAL_Driver/Src/stm32f7xx_hal_rcc.c ****       }
 470:Drivers/STM32F7xx_HAL_Driver/Src/stm32f7xx_hal_rcc.c ****       else
 471:Drivers/STM32F7xx_HAL_Driver/Src/stm32f7xx_hal_rcc.c ****       {
 472:Drivers/STM32F7xx_HAL_Driver/Src/stm32f7xx_hal_rcc.c ****         /* Disable the Internal High Speed oscillator (HSI). */
 473:Drivers/STM32F7xx_HAL_Driver/Src/stm32f7xx_hal_rcc.c ****         __HAL_RCC_HSI_DISABLE();
 474:Drivers/STM32F7xx_HAL_Driver/Src/stm32f7xx_hal_rcc.c **** 
 475:Drivers/STM32F7xx_HAL_Driver/Src/stm32f7xx_hal_rcc.c ****         /* Get Start Tick*/
 476:Drivers/STM32F7xx_HAL_Driver/Src/stm32f7xx_hal_rcc.c ****         tickstart = HAL_GetTick();
 477:Drivers/STM32F7xx_HAL_Driver/Src/stm32f7xx_hal_rcc.c **** 
 478:Drivers/STM32F7xx_HAL_Driver/Src/stm32f7xx_hal_rcc.c ****         /* Wait till HSI is ready */
 479:Drivers/STM32F7xx_HAL_Driver/Src/stm32f7xx_hal_rcc.c ****         while(__HAL_RCC_GET_FLAG(RCC_FLAG_HSIRDY) != RESET)
 480:Drivers/STM32F7xx_HAL_Driver/Src/stm32f7xx_hal_rcc.c ****         {
 481:Drivers/STM32F7xx_HAL_Driver/Src/stm32f7xx_hal_rcc.c ****           if((HAL_GetTick() - tickstart ) > HSI_TIMEOUT_VALUE)
 482:Drivers/STM32F7xx_HAL_Driver/Src/stm32f7xx_hal_rcc.c ****           {
 483:Drivers/STM32F7xx_HAL_Driver/Src/stm32f7xx_hal_rcc.c ****             return HAL_TIMEOUT;
ARM GAS  C:\Users\Nina\AppData\Local\Temp\ccnJIoBd.s 			page 22


 484:Drivers/STM32F7xx_HAL_Driver/Src/stm32f7xx_hal_rcc.c ****           }
 485:Drivers/STM32F7xx_HAL_Driver/Src/stm32f7xx_hal_rcc.c ****         }
 486:Drivers/STM32F7xx_HAL_Driver/Src/stm32f7xx_hal_rcc.c ****       }
 487:Drivers/STM32F7xx_HAL_Driver/Src/stm32f7xx_hal_rcc.c ****     }
 488:Drivers/STM32F7xx_HAL_Driver/Src/stm32f7xx_hal_rcc.c ****   }
 489:Drivers/STM32F7xx_HAL_Driver/Src/stm32f7xx_hal_rcc.c ****   /*------------------------------ LSI Configuration -------------------------*/
 490:Drivers/STM32F7xx_HAL_Driver/Src/stm32f7xx_hal_rcc.c ****   if(((RCC_OscInitStruct->OscillatorType) & RCC_OSCILLATORTYPE_LSI) == RCC_OSCILLATORTYPE_LSI)
 591              		.loc 1 490 3 view .LVU187
 592              		.loc 1 490 25 is_stmt 0 view .LVU188
 593 015a 2368     		ldr	r3, [r4]
 594              		.loc 1 490 5 view .LVU189
 595 015c 13F0080F 		tst	r3, #8
 596 0160 46D0     		beq	.L53
 491:Drivers/STM32F7xx_HAL_Driver/Src/stm32f7xx_hal_rcc.c ****   {
 492:Drivers/STM32F7xx_HAL_Driver/Src/stm32f7xx_hal_rcc.c ****     /* Check the parameters */
 493:Drivers/STM32F7xx_HAL_Driver/Src/stm32f7xx_hal_rcc.c ****     assert_param(IS_RCC_LSI(RCC_OscInitStruct->LSIState));
 597              		.loc 1 493 5 is_stmt 1 view .LVU190
 494:Drivers/STM32F7xx_HAL_Driver/Src/stm32f7xx_hal_rcc.c **** 
 495:Drivers/STM32F7xx_HAL_Driver/Src/stm32f7xx_hal_rcc.c ****     /* Check the LSI State */
 496:Drivers/STM32F7xx_HAL_Driver/Src/stm32f7xx_hal_rcc.c ****     if((RCC_OscInitStruct->LSIState)!= RCC_LSI_OFF)
 598              		.loc 1 496 5 view .LVU191
 599              		.loc 1 496 26 is_stmt 0 view .LVU192
 600 0162 6369     		ldr	r3, [r4, #20]
 601              		.loc 1 496 7 view .LVU193
 602 0164 83B3     		cbz	r3, .L54
 497:Drivers/STM32F7xx_HAL_Driver/Src/stm32f7xx_hal_rcc.c ****     {
 498:Drivers/STM32F7xx_HAL_Driver/Src/stm32f7xx_hal_rcc.c ****       /* Enable the Internal Low Speed oscillator (LSI). */
 499:Drivers/STM32F7xx_HAL_Driver/Src/stm32f7xx_hal_rcc.c ****       __HAL_RCC_LSI_ENABLE();
 603              		.loc 1 499 7 is_stmt 1 view .LVU194
 604 0166 534A     		ldr	r2, .L117
 605 0168 536F     		ldr	r3, [r2, #116]
 606 016a 43F00103 		orr	r3, r3, #1
 607 016e 5367     		str	r3, [r2, #116]
 500:Drivers/STM32F7xx_HAL_Driver/Src/stm32f7xx_hal_rcc.c **** 
 501:Drivers/STM32F7xx_HAL_Driver/Src/stm32f7xx_hal_rcc.c ****       /* Get Start Tick*/
 502:Drivers/STM32F7xx_HAL_Driver/Src/stm32f7xx_hal_rcc.c ****       tickstart = HAL_GetTick();
 608              		.loc 1 502 7 view .LVU195
 609              		.loc 1 502 19 is_stmt 0 view .LVU196
 610 0170 FFF7FEFF 		bl	HAL_GetTick
 611              	.LVL40:
 612 0174 0546     		mov	r5, r0
 613              	.LVL41:
 503:Drivers/STM32F7xx_HAL_Driver/Src/stm32f7xx_hal_rcc.c **** 
 504:Drivers/STM32F7xx_HAL_Driver/Src/stm32f7xx_hal_rcc.c ****       /* Wait till LSI is ready */
 505:Drivers/STM32F7xx_HAL_Driver/Src/stm32f7xx_hal_rcc.c ****       while(__HAL_RCC_GET_FLAG(RCC_FLAG_LSIRDY) == RESET)
 614              		.loc 1 505 7 is_stmt 1 view .LVU197
 615              	.L55:
 616              		.loc 1 505 12 view .LVU198
 617              		.loc 1 505 13 is_stmt 0 view .LVU199
 618 0176 4F4B     		ldr	r3, .L117
 619 0178 5B6F     		ldr	r3, [r3, #116]
 620              		.loc 1 505 12 view .LVU200
 621 017a 13F0020F 		tst	r3, #2
 622 017e 37D1     		bne	.L53
 506:Drivers/STM32F7xx_HAL_Driver/Src/stm32f7xx_hal_rcc.c ****       {
 507:Drivers/STM32F7xx_HAL_Driver/Src/stm32f7xx_hal_rcc.c ****         if((HAL_GetTick() - tickstart ) > LSI_TIMEOUT_VALUE)
 623              		.loc 1 507 9 is_stmt 1 view .LVU201
ARM GAS  C:\Users\Nina\AppData\Local\Temp\ccnJIoBd.s 			page 23


 624              		.loc 1 507 13 is_stmt 0 view .LVU202
 625 0180 FFF7FEFF 		bl	HAL_GetTick
 626              	.LVL42:
 627              		.loc 1 507 27 view .LVU203
 628 0184 401B     		subs	r0, r0, r5
 629              		.loc 1 507 11 view .LVU204
 630 0186 0228     		cmp	r0, #2
 631 0188 F5D9     		bls	.L55
 508:Drivers/STM32F7xx_HAL_Driver/Src/stm32f7xx_hal_rcc.c ****         {
 509:Drivers/STM32F7xx_HAL_Driver/Src/stm32f7xx_hal_rcc.c ****           return HAL_TIMEOUT;
 632              		.loc 1 509 18 view .LVU205
 633 018a 0320     		movs	r0, #3
 634 018c 1BE1     		b	.L31
 635              	.L107:
 468:Drivers/STM32F7xx_HAL_Driver/Src/stm32f7xx_hal_rcc.c ****       }
 636              		.loc 1 468 9 is_stmt 1 view .LVU206
 637 018e 494A     		ldr	r2, .L117
 638 0190 1368     		ldr	r3, [r2]
 639 0192 23F0F803 		bic	r3, r3, #248
 640 0196 2169     		ldr	r1, [r4, #16]
 641 0198 43EAC103 		orr	r3, r3, r1, lsl #3
 642 019c 1360     		str	r3, [r2]
 643 019e DCE7     		b	.L44
 644              	.LVL43:
 645              	.L48:
 473:Drivers/STM32F7xx_HAL_Driver/Src/stm32f7xx_hal_rcc.c **** 
 646              		.loc 1 473 9 view .LVU207
 647 01a0 444A     		ldr	r2, .L117
 648 01a2 1368     		ldr	r3, [r2]
 649 01a4 23F00103 		bic	r3, r3, #1
 650 01a8 1360     		str	r3, [r2]
 476:Drivers/STM32F7xx_HAL_Driver/Src/stm32f7xx_hal_rcc.c **** 
 651              		.loc 1 476 9 view .LVU208
 476:Drivers/STM32F7xx_HAL_Driver/Src/stm32f7xx_hal_rcc.c **** 
 652              		.loc 1 476 21 is_stmt 0 view .LVU209
 653 01aa FFF7FEFF 		bl	HAL_GetTick
 654              	.LVL44:
 655 01ae 0546     		mov	r5, r0
 656              	.LVL45:
 479:Drivers/STM32F7xx_HAL_Driver/Src/stm32f7xx_hal_rcc.c ****         {
 657              		.loc 1 479 9 is_stmt 1 view .LVU210
 658              	.L51:
 479:Drivers/STM32F7xx_HAL_Driver/Src/stm32f7xx_hal_rcc.c ****         {
 659              		.loc 1 479 14 view .LVU211
 479:Drivers/STM32F7xx_HAL_Driver/Src/stm32f7xx_hal_rcc.c ****         {
 660              		.loc 1 479 15 is_stmt 0 view .LVU212
 661 01b0 404B     		ldr	r3, .L117
 662 01b2 1B68     		ldr	r3, [r3]
 479:Drivers/STM32F7xx_HAL_Driver/Src/stm32f7xx_hal_rcc.c ****         {
 663              		.loc 1 479 14 view .LVU213
 664 01b4 13F0020F 		tst	r3, #2
 665 01b8 CFD0     		beq	.L44
 481:Drivers/STM32F7xx_HAL_Driver/Src/stm32f7xx_hal_rcc.c ****           {
 666              		.loc 1 481 11 is_stmt 1 view .LVU214
 481:Drivers/STM32F7xx_HAL_Driver/Src/stm32f7xx_hal_rcc.c ****           {
 667              		.loc 1 481 15 is_stmt 0 view .LVU215
 668 01ba FFF7FEFF 		bl	HAL_GetTick
ARM GAS  C:\Users\Nina\AppData\Local\Temp\ccnJIoBd.s 			page 24


 669              	.LVL46:
 481:Drivers/STM32F7xx_HAL_Driver/Src/stm32f7xx_hal_rcc.c ****           {
 670              		.loc 1 481 29 view .LVU216
 671 01be 401B     		subs	r0, r0, r5
 481:Drivers/STM32F7xx_HAL_Driver/Src/stm32f7xx_hal_rcc.c ****           {
 672              		.loc 1 481 13 view .LVU217
 673 01c0 0228     		cmp	r0, #2
 674 01c2 F5D9     		bls	.L51
 483:Drivers/STM32F7xx_HAL_Driver/Src/stm32f7xx_hal_rcc.c ****           }
 675              		.loc 1 483 20 view .LVU218
 676 01c4 0320     		movs	r0, #3
 677 01c6 FEE0     		b	.L31
 678              	.LVL47:
 679              	.L54:
 510:Drivers/STM32F7xx_HAL_Driver/Src/stm32f7xx_hal_rcc.c ****         }
 511:Drivers/STM32F7xx_HAL_Driver/Src/stm32f7xx_hal_rcc.c ****       }
 512:Drivers/STM32F7xx_HAL_Driver/Src/stm32f7xx_hal_rcc.c ****     }
 513:Drivers/STM32F7xx_HAL_Driver/Src/stm32f7xx_hal_rcc.c ****     else
 514:Drivers/STM32F7xx_HAL_Driver/Src/stm32f7xx_hal_rcc.c ****     {
 515:Drivers/STM32F7xx_HAL_Driver/Src/stm32f7xx_hal_rcc.c ****       /* Disable the Internal Low Speed oscillator (LSI). */
 516:Drivers/STM32F7xx_HAL_Driver/Src/stm32f7xx_hal_rcc.c ****       __HAL_RCC_LSI_DISABLE();
 680              		.loc 1 516 7 is_stmt 1 view .LVU219
 681 01c8 3A4A     		ldr	r2, .L117
 682 01ca 536F     		ldr	r3, [r2, #116]
 683 01cc 23F00103 		bic	r3, r3, #1
 684 01d0 5367     		str	r3, [r2, #116]
 517:Drivers/STM32F7xx_HAL_Driver/Src/stm32f7xx_hal_rcc.c **** 
 518:Drivers/STM32F7xx_HAL_Driver/Src/stm32f7xx_hal_rcc.c ****       /* Get Start Tick*/
 519:Drivers/STM32F7xx_HAL_Driver/Src/stm32f7xx_hal_rcc.c ****       tickstart = HAL_GetTick();
 685              		.loc 1 519 7 view .LVU220
 686              		.loc 1 519 19 is_stmt 0 view .LVU221
 687 01d2 FFF7FEFF 		bl	HAL_GetTick
 688              	.LVL48:
 689 01d6 0546     		mov	r5, r0
 690              	.LVL49:
 520:Drivers/STM32F7xx_HAL_Driver/Src/stm32f7xx_hal_rcc.c **** 
 521:Drivers/STM32F7xx_HAL_Driver/Src/stm32f7xx_hal_rcc.c ****       /* Wait till LSI is ready */
 522:Drivers/STM32F7xx_HAL_Driver/Src/stm32f7xx_hal_rcc.c ****       while(__HAL_RCC_GET_FLAG(RCC_FLAG_LSIRDY) != RESET)
 691              		.loc 1 522 7 is_stmt 1 view .LVU222
 692              	.L57:
 693              		.loc 1 522 12 view .LVU223
 694              		.loc 1 522 13 is_stmt 0 view .LVU224
 695 01d8 364B     		ldr	r3, .L117
 696 01da 5B6F     		ldr	r3, [r3, #116]
 697              		.loc 1 522 12 view .LVU225
 698 01dc 13F0020F 		tst	r3, #2
 699 01e0 06D0     		beq	.L53
 523:Drivers/STM32F7xx_HAL_Driver/Src/stm32f7xx_hal_rcc.c ****       {
 524:Drivers/STM32F7xx_HAL_Driver/Src/stm32f7xx_hal_rcc.c ****         if((HAL_GetTick() - tickstart ) > LSI_TIMEOUT_VALUE)
 700              		.loc 1 524 9 is_stmt 1 view .LVU226
 701              		.loc 1 524 13 is_stmt 0 view .LVU227
 702 01e2 FFF7FEFF 		bl	HAL_GetTick
 703              	.LVL50:
 704              		.loc 1 524 27 view .LVU228
 705 01e6 401B     		subs	r0, r0, r5
 706              		.loc 1 524 11 view .LVU229
 707 01e8 0228     		cmp	r0, #2
ARM GAS  C:\Users\Nina\AppData\Local\Temp\ccnJIoBd.s 			page 25


 708 01ea F5D9     		bls	.L57
 525:Drivers/STM32F7xx_HAL_Driver/Src/stm32f7xx_hal_rcc.c ****         {
 526:Drivers/STM32F7xx_HAL_Driver/Src/stm32f7xx_hal_rcc.c ****           return HAL_TIMEOUT;
 709              		.loc 1 526 18 view .LVU230
 710 01ec 0320     		movs	r0, #3
 711 01ee EAE0     		b	.L31
 712              	.LVL51:
 713              	.L53:
 527:Drivers/STM32F7xx_HAL_Driver/Src/stm32f7xx_hal_rcc.c ****         }
 528:Drivers/STM32F7xx_HAL_Driver/Src/stm32f7xx_hal_rcc.c ****       }
 529:Drivers/STM32F7xx_HAL_Driver/Src/stm32f7xx_hal_rcc.c ****     }
 530:Drivers/STM32F7xx_HAL_Driver/Src/stm32f7xx_hal_rcc.c ****   }
 531:Drivers/STM32F7xx_HAL_Driver/Src/stm32f7xx_hal_rcc.c ****   /*------------------------------ LSE Configuration -------------------------*/
 532:Drivers/STM32F7xx_HAL_Driver/Src/stm32f7xx_hal_rcc.c ****   if(((RCC_OscInitStruct->OscillatorType) & RCC_OSCILLATORTYPE_LSE) == RCC_OSCILLATORTYPE_LSE)
 714              		.loc 1 532 3 is_stmt 1 view .LVU231
 715              		.loc 1 532 25 is_stmt 0 view .LVU232
 716 01f0 2368     		ldr	r3, [r4]
 717              		.loc 1 532 5 view .LVU233
 718 01f2 13F0040F 		tst	r3, #4
 719 01f6 7DD0     		beq	.L59
 533:Drivers/STM32F7xx_HAL_Driver/Src/stm32f7xx_hal_rcc.c ****   {
 534:Drivers/STM32F7xx_HAL_Driver/Src/stm32f7xx_hal_rcc.c ****     /* Check the parameters */
 535:Drivers/STM32F7xx_HAL_Driver/Src/stm32f7xx_hal_rcc.c ****     assert_param(IS_RCC_LSE(RCC_OscInitStruct->LSEState));
 720              		.loc 1 535 5 is_stmt 1 view .LVU234
 536:Drivers/STM32F7xx_HAL_Driver/Src/stm32f7xx_hal_rcc.c **** 
 537:Drivers/STM32F7xx_HAL_Driver/Src/stm32f7xx_hal_rcc.c ****     /* Update LSE configuration in Backup Domain control register    */
 538:Drivers/STM32F7xx_HAL_Driver/Src/stm32f7xx_hal_rcc.c ****     /* Requires to enable write access to Backup Domain of necessary */
 539:Drivers/STM32F7xx_HAL_Driver/Src/stm32f7xx_hal_rcc.c ****     if(__HAL_RCC_PWR_IS_CLK_DISABLED())
 721              		.loc 1 539 5 view .LVU235
 722              		.loc 1 539 8 is_stmt 0 view .LVU236
 723 01f8 2E4B     		ldr	r3, .L117
 724 01fa 1B6C     		ldr	r3, [r3, #64]
 725              		.loc 1 539 7 view .LVU237
 726 01fc 13F0805F 		tst	r3, #268435456
 727 0200 0BD1     		bne	.L90
 540:Drivers/STM32F7xx_HAL_Driver/Src/stm32f7xx_hal_rcc.c ****     {
 541:Drivers/STM32F7xx_HAL_Driver/Src/stm32f7xx_hal_rcc.c ****       /* Enable Power Clock*/
 542:Drivers/STM32F7xx_HAL_Driver/Src/stm32f7xx_hal_rcc.c ****       __HAL_RCC_PWR_CLK_ENABLE();
 728              		.loc 1 542 7 is_stmt 1 view .LVU238
 729              	.LBB2:
 730              		.loc 1 542 7 view .LVU239
 731              		.loc 1 542 7 view .LVU240
 732 0202 2C4B     		ldr	r3, .L117
 733 0204 1A6C     		ldr	r2, [r3, #64]
 734 0206 42F08052 		orr	r2, r2, #268435456
 735 020a 1A64     		str	r2, [r3, #64]
 736              		.loc 1 542 7 view .LVU241
 737 020c 1B6C     		ldr	r3, [r3, #64]
 738 020e 03F08053 		and	r3, r3, #268435456
 739 0212 0193     		str	r3, [sp, #4]
 740              		.loc 1 542 7 view .LVU242
 741 0214 019B     		ldr	r3, [sp, #4]
 742              	.LBE2:
 743              		.loc 1 542 7 view .LVU243
 543:Drivers/STM32F7xx_HAL_Driver/Src/stm32f7xx_hal_rcc.c ****       pwrclkchanged = SET;
 744              		.loc 1 543 7 view .LVU244
 745              	.LVL52:
ARM GAS  C:\Users\Nina\AppData\Local\Temp\ccnJIoBd.s 			page 26


 746              		.loc 1 543 21 is_stmt 0 view .LVU245
 747 0216 0125     		movs	r5, #1
 748 0218 00E0     		b	.L60
 749              	.LVL53:
 750              	.L90:
 363:Drivers/STM32F7xx_HAL_Driver/Src/stm32f7xx_hal_rcc.c **** 
 751              		.loc 1 363 14 view .LVU246
 752 021a 0025     		movs	r5, #0
 753              	.LVL54:
 754              	.L60:
 544:Drivers/STM32F7xx_HAL_Driver/Src/stm32f7xx_hal_rcc.c ****     }
 545:Drivers/STM32F7xx_HAL_Driver/Src/stm32f7xx_hal_rcc.c **** 
 546:Drivers/STM32F7xx_HAL_Driver/Src/stm32f7xx_hal_rcc.c ****     if(HAL_IS_BIT_CLR(PWR->CR1, PWR_CR1_DBP))
 755              		.loc 1 546 5 is_stmt 1 view .LVU247
 756              		.loc 1 546 8 is_stmt 0 view .LVU248
 757 021c 264B     		ldr	r3, .L117+4
 758 021e 1B68     		ldr	r3, [r3]
 759              		.loc 1 546 7 view .LVU249
 760 0220 13F4807F 		tst	r3, #256
 761 0224 0ED0     		beq	.L109
 762              	.L61:
 547:Drivers/STM32F7xx_HAL_Driver/Src/stm32f7xx_hal_rcc.c ****     {
 548:Drivers/STM32F7xx_HAL_Driver/Src/stm32f7xx_hal_rcc.c ****       /* Enable write access to Backup domain */
 549:Drivers/STM32F7xx_HAL_Driver/Src/stm32f7xx_hal_rcc.c ****       PWR->CR1 |= PWR_CR1_DBP;
 550:Drivers/STM32F7xx_HAL_Driver/Src/stm32f7xx_hal_rcc.c **** 
 551:Drivers/STM32F7xx_HAL_Driver/Src/stm32f7xx_hal_rcc.c ****       /* Wait for Backup domain Write protection disable */
 552:Drivers/STM32F7xx_HAL_Driver/Src/stm32f7xx_hal_rcc.c ****       tickstart = HAL_GetTick();
 553:Drivers/STM32F7xx_HAL_Driver/Src/stm32f7xx_hal_rcc.c **** 
 554:Drivers/STM32F7xx_HAL_Driver/Src/stm32f7xx_hal_rcc.c ****       while(HAL_IS_BIT_CLR(PWR->CR1, PWR_CR1_DBP))
 555:Drivers/STM32F7xx_HAL_Driver/Src/stm32f7xx_hal_rcc.c ****       {
 556:Drivers/STM32F7xx_HAL_Driver/Src/stm32f7xx_hal_rcc.c ****         if((HAL_GetTick() - tickstart ) > RCC_DBP_TIMEOUT_VALUE)
 557:Drivers/STM32F7xx_HAL_Driver/Src/stm32f7xx_hal_rcc.c ****         {
 558:Drivers/STM32F7xx_HAL_Driver/Src/stm32f7xx_hal_rcc.c ****           return HAL_TIMEOUT;
 559:Drivers/STM32F7xx_HAL_Driver/Src/stm32f7xx_hal_rcc.c ****         }
 560:Drivers/STM32F7xx_HAL_Driver/Src/stm32f7xx_hal_rcc.c ****       }
 561:Drivers/STM32F7xx_HAL_Driver/Src/stm32f7xx_hal_rcc.c ****     }
 562:Drivers/STM32F7xx_HAL_Driver/Src/stm32f7xx_hal_rcc.c **** 
 563:Drivers/STM32F7xx_HAL_Driver/Src/stm32f7xx_hal_rcc.c ****     /* Set the new LSE configuration -----------------------------------------*/
 564:Drivers/STM32F7xx_HAL_Driver/Src/stm32f7xx_hal_rcc.c ****     __HAL_RCC_LSE_CONFIG(RCC_OscInitStruct->LSEState);
 763              		.loc 1 564 5 is_stmt 1 view .LVU250
 764              		.loc 1 564 5 view .LVU251
 765 0226 A368     		ldr	r3, [r4, #8]
 766 0228 012B     		cmp	r3, #1
 767 022a 1FD0     		beq	.L110
 768              		.loc 1 564 5 discriminator 2 view .LVU252
 769 022c 002B     		cmp	r3, #0
 770 022e 35D1     		bne	.L66
 771              		.loc 1 564 5 discriminator 4 view .LVU253
 772 0230 204B     		ldr	r3, .L117
 773 0232 1A6F     		ldr	r2, [r3, #112]
 774 0234 22F00102 		bic	r2, r2, #1
 775 0238 1A67     		str	r2, [r3, #112]
 776              		.loc 1 564 5 discriminator 4 view .LVU254
 777 023a 1A6F     		ldr	r2, [r3, #112]
 778 023c 22F00402 		bic	r2, r2, #4
 779 0240 1A67     		str	r2, [r3, #112]
 780 0242 18E0     		b	.L65
ARM GAS  C:\Users\Nina\AppData\Local\Temp\ccnJIoBd.s 			page 27


 781              	.L109:
 549:Drivers/STM32F7xx_HAL_Driver/Src/stm32f7xx_hal_rcc.c **** 
 782              		.loc 1 549 7 view .LVU255
 549:Drivers/STM32F7xx_HAL_Driver/Src/stm32f7xx_hal_rcc.c **** 
 783              		.loc 1 549 16 is_stmt 0 view .LVU256
 784 0244 1C4A     		ldr	r2, .L117+4
 785 0246 1368     		ldr	r3, [r2]
 786 0248 43F48073 		orr	r3, r3, #256
 787 024c 1360     		str	r3, [r2]
 552:Drivers/STM32F7xx_HAL_Driver/Src/stm32f7xx_hal_rcc.c **** 
 788              		.loc 1 552 7 is_stmt 1 view .LVU257
 552:Drivers/STM32F7xx_HAL_Driver/Src/stm32f7xx_hal_rcc.c **** 
 789              		.loc 1 552 19 is_stmt 0 view .LVU258
 790 024e FFF7FEFF 		bl	HAL_GetTick
 791              	.LVL55:
 792 0252 0646     		mov	r6, r0
 793              	.LVL56:
 554:Drivers/STM32F7xx_HAL_Driver/Src/stm32f7xx_hal_rcc.c ****       {
 794              		.loc 1 554 7 is_stmt 1 view .LVU259
 795              	.L62:
 554:Drivers/STM32F7xx_HAL_Driver/Src/stm32f7xx_hal_rcc.c ****       {
 796              		.loc 1 554 12 view .LVU260
 554:Drivers/STM32F7xx_HAL_Driver/Src/stm32f7xx_hal_rcc.c ****       {
 797              		.loc 1 554 13 is_stmt 0 view .LVU261
 798 0254 184B     		ldr	r3, .L117+4
 799 0256 1B68     		ldr	r3, [r3]
 554:Drivers/STM32F7xx_HAL_Driver/Src/stm32f7xx_hal_rcc.c ****       {
 800              		.loc 1 554 12 view .LVU262
 801 0258 13F4807F 		tst	r3, #256
 802 025c E3D1     		bne	.L61
 556:Drivers/STM32F7xx_HAL_Driver/Src/stm32f7xx_hal_rcc.c ****         {
 803              		.loc 1 556 9 is_stmt 1 view .LVU263
 556:Drivers/STM32F7xx_HAL_Driver/Src/stm32f7xx_hal_rcc.c ****         {
 804              		.loc 1 556 13 is_stmt 0 view .LVU264
 805 025e FFF7FEFF 		bl	HAL_GetTick
 806              	.LVL57:
 556:Drivers/STM32F7xx_HAL_Driver/Src/stm32f7xx_hal_rcc.c ****         {
 807              		.loc 1 556 27 view .LVU265
 808 0262 801B     		subs	r0, r0, r6
 556:Drivers/STM32F7xx_HAL_Driver/Src/stm32f7xx_hal_rcc.c ****         {
 809              		.loc 1 556 11 view .LVU266
 810 0264 6428     		cmp	r0, #100
 811 0266 F5D9     		bls	.L62
 558:Drivers/STM32F7xx_HAL_Driver/Src/stm32f7xx_hal_rcc.c ****         }
 812              		.loc 1 558 18 view .LVU267
 813 0268 0320     		movs	r0, #3
 814 026a ACE0     		b	.L31
 815              	.LVL58:
 816              	.L110:
 817              		.loc 1 564 5 is_stmt 1 discriminator 1 view .LVU268
 818 026c 114A     		ldr	r2, .L117
 819 026e 136F     		ldr	r3, [r2, #112]
 820 0270 43F00103 		orr	r3, r3, #1
 821 0274 1367     		str	r3, [r2, #112]
 822              	.L65:
 823              		.loc 1 564 5 discriminator 10 view .LVU269
 565:Drivers/STM32F7xx_HAL_Driver/Src/stm32f7xx_hal_rcc.c ****     /* Check the LSE State */
ARM GAS  C:\Users\Nina\AppData\Local\Temp\ccnJIoBd.s 			page 28


 566:Drivers/STM32F7xx_HAL_Driver/Src/stm32f7xx_hal_rcc.c ****     if((RCC_OscInitStruct->LSEState) != RCC_LSE_OFF)
 824              		.loc 1 566 5 discriminator 10 view .LVU270
 825              		.loc 1 566 26 is_stmt 0 discriminator 10 view .LVU271
 826 0276 A368     		ldr	r3, [r4, #8]
 827              		.loc 1 566 7 discriminator 10 view .LVU272
 828 0278 53B3     		cbz	r3, .L68
 567:Drivers/STM32F7xx_HAL_Driver/Src/stm32f7xx_hal_rcc.c ****     {
 568:Drivers/STM32F7xx_HAL_Driver/Src/stm32f7xx_hal_rcc.c ****       /* Get Start Tick*/
 569:Drivers/STM32F7xx_HAL_Driver/Src/stm32f7xx_hal_rcc.c ****       tickstart = HAL_GetTick();
 829              		.loc 1 569 7 is_stmt 1 view .LVU273
 830              		.loc 1 569 19 is_stmt 0 view .LVU274
 831 027a FFF7FEFF 		bl	HAL_GetTick
 832              	.LVL59:
 833 027e 0646     		mov	r6, r0
 834              	.LVL60:
 570:Drivers/STM32F7xx_HAL_Driver/Src/stm32f7xx_hal_rcc.c **** 
 571:Drivers/STM32F7xx_HAL_Driver/Src/stm32f7xx_hal_rcc.c ****       /* Wait till LSE is ready */
 572:Drivers/STM32F7xx_HAL_Driver/Src/stm32f7xx_hal_rcc.c ****       while(__HAL_RCC_GET_FLAG(RCC_FLAG_LSERDY) == RESET)
 835              		.loc 1 572 7 is_stmt 1 view .LVU275
 836              	.L69:
 837              		.loc 1 572 12 view .LVU276
 838              		.loc 1 572 13 is_stmt 0 view .LVU277
 839 0280 0C4B     		ldr	r3, .L117
 840 0282 1B6F     		ldr	r3, [r3, #112]
 841              		.loc 1 572 12 view .LVU278
 842 0284 13F0020F 		tst	r3, #2
 843 0288 33D1     		bne	.L71
 573:Drivers/STM32F7xx_HAL_Driver/Src/stm32f7xx_hal_rcc.c ****       {
 574:Drivers/STM32F7xx_HAL_Driver/Src/stm32f7xx_hal_rcc.c ****         if((HAL_GetTick() - tickstart ) > RCC_LSE_TIMEOUT_VALUE)
 844              		.loc 1 574 9 is_stmt 1 view .LVU279
 845              		.loc 1 574 13 is_stmt 0 view .LVU280
 846 028a FFF7FEFF 		bl	HAL_GetTick
 847              	.LVL61:
 848              		.loc 1 574 27 view .LVU281
 849 028e 801B     		subs	r0, r0, r6
 850              		.loc 1 574 11 view .LVU282
 851 0290 41F28833 		movw	r3, #5000
 852 0294 9842     		cmp	r0, r3
 853 0296 F3D9     		bls	.L69
 575:Drivers/STM32F7xx_HAL_Driver/Src/stm32f7xx_hal_rcc.c ****         {
 576:Drivers/STM32F7xx_HAL_Driver/Src/stm32f7xx_hal_rcc.c ****           return HAL_TIMEOUT;
 854              		.loc 1 576 18 view .LVU283
 855 0298 0320     		movs	r0, #3
 856 029a 94E0     		b	.L31
 857              	.LVL62:
 858              	.L66:
 564:Drivers/STM32F7xx_HAL_Driver/Src/stm32f7xx_hal_rcc.c ****     /* Check the LSE State */
 859              		.loc 1 564 5 is_stmt 1 discriminator 5 view .LVU284
 860 029c 052B     		cmp	r3, #5
 861 029e 0DD0     		beq	.L111
 564:Drivers/STM32F7xx_HAL_Driver/Src/stm32f7xx_hal_rcc.c ****     /* Check the LSE State */
 862              		.loc 1 564 5 discriminator 8 view .LVU285
 863 02a0 044B     		ldr	r3, .L117
 864 02a2 1A6F     		ldr	r2, [r3, #112]
 865 02a4 22F00102 		bic	r2, r2, #1
 866 02a8 1A67     		str	r2, [r3, #112]
 564:Drivers/STM32F7xx_HAL_Driver/Src/stm32f7xx_hal_rcc.c ****     /* Check the LSE State */
ARM GAS  C:\Users\Nina\AppData\Local\Temp\ccnJIoBd.s 			page 29


 867              		.loc 1 564 5 discriminator 8 view .LVU286
 868 02aa 1A6F     		ldr	r2, [r3, #112]
 869 02ac 22F00402 		bic	r2, r2, #4
 870 02b0 1A67     		str	r2, [r3, #112]
 871 02b2 E0E7     		b	.L65
 872              	.L118:
 873              		.align	2
 874              	.L117:
 875 02b4 00380240 		.word	1073887232
 876 02b8 00700040 		.word	1073770496
 877              	.L111:
 564:Drivers/STM32F7xx_HAL_Driver/Src/stm32f7xx_hal_rcc.c ****     /* Check the LSE State */
 878              		.loc 1 564 5 discriminator 7 view .LVU287
 879 02bc 444B     		ldr	r3, .L119
 880 02be 1A6F     		ldr	r2, [r3, #112]
 881 02c0 42F00402 		orr	r2, r2, #4
 882 02c4 1A67     		str	r2, [r3, #112]
 564:Drivers/STM32F7xx_HAL_Driver/Src/stm32f7xx_hal_rcc.c ****     /* Check the LSE State */
 883              		.loc 1 564 5 discriminator 7 view .LVU288
 884 02c6 1A6F     		ldr	r2, [r3, #112]
 885 02c8 42F00102 		orr	r2, r2, #1
 886 02cc 1A67     		str	r2, [r3, #112]
 887 02ce D2E7     		b	.L65
 888              	.L68:
 577:Drivers/STM32F7xx_HAL_Driver/Src/stm32f7xx_hal_rcc.c ****         }
 578:Drivers/STM32F7xx_HAL_Driver/Src/stm32f7xx_hal_rcc.c ****       }
 579:Drivers/STM32F7xx_HAL_Driver/Src/stm32f7xx_hal_rcc.c ****     }
 580:Drivers/STM32F7xx_HAL_Driver/Src/stm32f7xx_hal_rcc.c ****     else
 581:Drivers/STM32F7xx_HAL_Driver/Src/stm32f7xx_hal_rcc.c ****     {
 582:Drivers/STM32F7xx_HAL_Driver/Src/stm32f7xx_hal_rcc.c ****       /* Get Start Tick*/
 583:Drivers/STM32F7xx_HAL_Driver/Src/stm32f7xx_hal_rcc.c ****       tickstart = HAL_GetTick();
 889              		.loc 1 583 7 view .LVU289
 890              		.loc 1 583 19 is_stmt 0 view .LVU290
 891 02d0 FFF7FEFF 		bl	HAL_GetTick
 892              	.LVL63:
 893 02d4 0646     		mov	r6, r0
 894              	.LVL64:
 584:Drivers/STM32F7xx_HAL_Driver/Src/stm32f7xx_hal_rcc.c **** 
 585:Drivers/STM32F7xx_HAL_Driver/Src/stm32f7xx_hal_rcc.c ****       /* Wait till LSE is ready */
 586:Drivers/STM32F7xx_HAL_Driver/Src/stm32f7xx_hal_rcc.c ****       while(__HAL_RCC_GET_FLAG(RCC_FLAG_LSERDY) != RESET)
 895              		.loc 1 586 7 is_stmt 1 view .LVU291
 896              	.L72:
 897              		.loc 1 586 12 view .LVU292
 898              		.loc 1 586 13 is_stmt 0 view .LVU293
 899 02d6 3E4B     		ldr	r3, .L119
 900 02d8 1B6F     		ldr	r3, [r3, #112]
 901              		.loc 1 586 12 view .LVU294
 902 02da 13F0020F 		tst	r3, #2
 903 02de 08D0     		beq	.L71
 587:Drivers/STM32F7xx_HAL_Driver/Src/stm32f7xx_hal_rcc.c ****       {
 588:Drivers/STM32F7xx_HAL_Driver/Src/stm32f7xx_hal_rcc.c ****         if((HAL_GetTick() - tickstart ) > RCC_LSE_TIMEOUT_VALUE)
 904              		.loc 1 588 9 is_stmt 1 view .LVU295
 905              		.loc 1 588 13 is_stmt 0 view .LVU296
 906 02e0 FFF7FEFF 		bl	HAL_GetTick
 907              	.LVL65:
 908              		.loc 1 588 27 view .LVU297
 909 02e4 801B     		subs	r0, r0, r6
ARM GAS  C:\Users\Nina\AppData\Local\Temp\ccnJIoBd.s 			page 30


 910              		.loc 1 588 11 view .LVU298
 911 02e6 41F28833 		movw	r3, #5000
 912 02ea 9842     		cmp	r0, r3
 913 02ec F3D9     		bls	.L72
 589:Drivers/STM32F7xx_HAL_Driver/Src/stm32f7xx_hal_rcc.c ****         {
 590:Drivers/STM32F7xx_HAL_Driver/Src/stm32f7xx_hal_rcc.c ****           return HAL_TIMEOUT;
 914              		.loc 1 590 18 view .LVU299
 915 02ee 0320     		movs	r0, #3
 916 02f0 69E0     		b	.L31
 917              	.L71:
 591:Drivers/STM32F7xx_HAL_Driver/Src/stm32f7xx_hal_rcc.c ****         }
 592:Drivers/STM32F7xx_HAL_Driver/Src/stm32f7xx_hal_rcc.c ****       }
 593:Drivers/STM32F7xx_HAL_Driver/Src/stm32f7xx_hal_rcc.c ****     }
 594:Drivers/STM32F7xx_HAL_Driver/Src/stm32f7xx_hal_rcc.c **** 
 595:Drivers/STM32F7xx_HAL_Driver/Src/stm32f7xx_hal_rcc.c ****     /* Restore clock configuration if changed */
 596:Drivers/STM32F7xx_HAL_Driver/Src/stm32f7xx_hal_rcc.c ****     if(pwrclkchanged == SET)
 918              		.loc 1 596 5 is_stmt 1 view .LVU300
 919              		.loc 1 596 7 is_stmt 0 view .LVU301
 920 02f2 F5B9     		cbnz	r5, .L112
 921              	.LVL66:
 922              	.L59:
 597:Drivers/STM32F7xx_HAL_Driver/Src/stm32f7xx_hal_rcc.c ****     {
 598:Drivers/STM32F7xx_HAL_Driver/Src/stm32f7xx_hal_rcc.c ****       __HAL_RCC_PWR_CLK_DISABLE();
 599:Drivers/STM32F7xx_HAL_Driver/Src/stm32f7xx_hal_rcc.c ****     }
 600:Drivers/STM32F7xx_HAL_Driver/Src/stm32f7xx_hal_rcc.c ****   }
 601:Drivers/STM32F7xx_HAL_Driver/Src/stm32f7xx_hal_rcc.c ****   /*-------------------------------- PLL Configuration -----------------------*/
 602:Drivers/STM32F7xx_HAL_Driver/Src/stm32f7xx_hal_rcc.c ****   /* Check the parameters */
 603:Drivers/STM32F7xx_HAL_Driver/Src/stm32f7xx_hal_rcc.c ****   assert_param(IS_RCC_PLL(RCC_OscInitStruct->PLL.PLLState));
 923              		.loc 1 603 3 is_stmt 1 view .LVU302
 604:Drivers/STM32F7xx_HAL_Driver/Src/stm32f7xx_hal_rcc.c ****   if ((RCC_OscInitStruct->PLL.PLLState) != RCC_PLL_NONE)
 924              		.loc 1 604 3 view .LVU303
 925              		.loc 1 604 30 is_stmt 0 view .LVU304
 926 02f4 A369     		ldr	r3, [r4, #24]
 927              		.loc 1 604 6 view .LVU305
 928 02f6 002B     		cmp	r3, #0
 929 02f8 64D0     		beq	.L94
 605:Drivers/STM32F7xx_HAL_Driver/Src/stm32f7xx_hal_rcc.c ****   {
 606:Drivers/STM32F7xx_HAL_Driver/Src/stm32f7xx_hal_rcc.c ****     /* Check if the PLL is used as system clock or not */
 607:Drivers/STM32F7xx_HAL_Driver/Src/stm32f7xx_hal_rcc.c ****     if(__HAL_RCC_GET_SYSCLK_SOURCE() != RCC_SYSCLKSOURCE_STATUS_PLLCLK)
 930              		.loc 1 607 5 is_stmt 1 view .LVU306
 931              		.loc 1 607 8 is_stmt 0 view .LVU307
 932 02fa 354A     		ldr	r2, .L119
 933 02fc 9268     		ldr	r2, [r2, #8]
 934 02fe 02F00C02 		and	r2, r2, #12
 935              		.loc 1 607 7 view .LVU308
 936 0302 082A     		cmp	r2, #8
 937 0304 61D0     		beq	.L95
 608:Drivers/STM32F7xx_HAL_Driver/Src/stm32f7xx_hal_rcc.c ****     {
 609:Drivers/STM32F7xx_HAL_Driver/Src/stm32f7xx_hal_rcc.c ****       if((RCC_OscInitStruct->PLL.PLLState) == RCC_PLL_ON)
 938              		.loc 1 609 7 is_stmt 1 view .LVU309
 939              		.loc 1 609 9 is_stmt 0 view .LVU310
 940 0306 022B     		cmp	r3, #2
 941 0308 19D0     		beq	.L113
 610:Drivers/STM32F7xx_HAL_Driver/Src/stm32f7xx_hal_rcc.c ****       {
 611:Drivers/STM32F7xx_HAL_Driver/Src/stm32f7xx_hal_rcc.c ****         /* Check the parameters */
 612:Drivers/STM32F7xx_HAL_Driver/Src/stm32f7xx_hal_rcc.c ****         assert_param(IS_RCC_PLLSOURCE(RCC_OscInitStruct->PLL.PLLSource));
 613:Drivers/STM32F7xx_HAL_Driver/Src/stm32f7xx_hal_rcc.c ****         assert_param(IS_RCC_PLLM_VALUE(RCC_OscInitStruct->PLL.PLLM));
ARM GAS  C:\Users\Nina\AppData\Local\Temp\ccnJIoBd.s 			page 31


 614:Drivers/STM32F7xx_HAL_Driver/Src/stm32f7xx_hal_rcc.c ****         assert_param(IS_RCC_PLLN_VALUE(RCC_OscInitStruct->PLL.PLLN));
 615:Drivers/STM32F7xx_HAL_Driver/Src/stm32f7xx_hal_rcc.c ****         assert_param(IS_RCC_PLLP_VALUE(RCC_OscInitStruct->PLL.PLLP));
 616:Drivers/STM32F7xx_HAL_Driver/Src/stm32f7xx_hal_rcc.c ****         assert_param(IS_RCC_PLLQ_VALUE(RCC_OscInitStruct->PLL.PLLQ));
 617:Drivers/STM32F7xx_HAL_Driver/Src/stm32f7xx_hal_rcc.c **** #if defined (RCC_PLLCFGR_PLLR)
 618:Drivers/STM32F7xx_HAL_Driver/Src/stm32f7xx_hal_rcc.c ****         assert_param(IS_RCC_PLLR_VALUE(RCC_OscInitStruct->PLL.PLLR));
 619:Drivers/STM32F7xx_HAL_Driver/Src/stm32f7xx_hal_rcc.c **** #endif
 620:Drivers/STM32F7xx_HAL_Driver/Src/stm32f7xx_hal_rcc.c **** 
 621:Drivers/STM32F7xx_HAL_Driver/Src/stm32f7xx_hal_rcc.c ****         /* Disable the main PLL. */
 622:Drivers/STM32F7xx_HAL_Driver/Src/stm32f7xx_hal_rcc.c ****         __HAL_RCC_PLL_DISABLE();
 623:Drivers/STM32F7xx_HAL_Driver/Src/stm32f7xx_hal_rcc.c **** 
 624:Drivers/STM32F7xx_HAL_Driver/Src/stm32f7xx_hal_rcc.c ****         /* Get Start Tick*/
 625:Drivers/STM32F7xx_HAL_Driver/Src/stm32f7xx_hal_rcc.c ****         tickstart = HAL_GetTick();
 626:Drivers/STM32F7xx_HAL_Driver/Src/stm32f7xx_hal_rcc.c **** 
 627:Drivers/STM32F7xx_HAL_Driver/Src/stm32f7xx_hal_rcc.c ****         /* Wait till PLL is ready */
 628:Drivers/STM32F7xx_HAL_Driver/Src/stm32f7xx_hal_rcc.c ****         while(__HAL_RCC_GET_FLAG(RCC_FLAG_PLLRDY) != RESET)
 629:Drivers/STM32F7xx_HAL_Driver/Src/stm32f7xx_hal_rcc.c ****         {
 630:Drivers/STM32F7xx_HAL_Driver/Src/stm32f7xx_hal_rcc.c ****           if((HAL_GetTick() - tickstart ) > PLL_TIMEOUT_VALUE)
 631:Drivers/STM32F7xx_HAL_Driver/Src/stm32f7xx_hal_rcc.c ****           {
 632:Drivers/STM32F7xx_HAL_Driver/Src/stm32f7xx_hal_rcc.c ****             return HAL_TIMEOUT;
 633:Drivers/STM32F7xx_HAL_Driver/Src/stm32f7xx_hal_rcc.c ****           }
 634:Drivers/STM32F7xx_HAL_Driver/Src/stm32f7xx_hal_rcc.c ****         }
 635:Drivers/STM32F7xx_HAL_Driver/Src/stm32f7xx_hal_rcc.c **** 
 636:Drivers/STM32F7xx_HAL_Driver/Src/stm32f7xx_hal_rcc.c ****         /* Configure the main PLL clock source, multiplication and division factors. */
 637:Drivers/STM32F7xx_HAL_Driver/Src/stm32f7xx_hal_rcc.c **** #if defined (RCC_PLLCFGR_PLLR)
 638:Drivers/STM32F7xx_HAL_Driver/Src/stm32f7xx_hal_rcc.c ****         __HAL_RCC_PLL_CONFIG(RCC_OscInitStruct->PLL.PLLSource,
 639:Drivers/STM32F7xx_HAL_Driver/Src/stm32f7xx_hal_rcc.c ****                              RCC_OscInitStruct->PLL.PLLM,
 640:Drivers/STM32F7xx_HAL_Driver/Src/stm32f7xx_hal_rcc.c ****                              RCC_OscInitStruct->PLL.PLLN,
 641:Drivers/STM32F7xx_HAL_Driver/Src/stm32f7xx_hal_rcc.c ****                              RCC_OscInitStruct->PLL.PLLP,
 642:Drivers/STM32F7xx_HAL_Driver/Src/stm32f7xx_hal_rcc.c ****                              RCC_OscInitStruct->PLL.PLLQ,
 643:Drivers/STM32F7xx_HAL_Driver/Src/stm32f7xx_hal_rcc.c ****                              RCC_OscInitStruct->PLL.PLLR);
 644:Drivers/STM32F7xx_HAL_Driver/Src/stm32f7xx_hal_rcc.c **** #else
 645:Drivers/STM32F7xx_HAL_Driver/Src/stm32f7xx_hal_rcc.c ****         __HAL_RCC_PLL_CONFIG(RCC_OscInitStruct->PLL.PLLSource,
 646:Drivers/STM32F7xx_HAL_Driver/Src/stm32f7xx_hal_rcc.c ****                              RCC_OscInitStruct->PLL.PLLM,
 647:Drivers/STM32F7xx_HAL_Driver/Src/stm32f7xx_hal_rcc.c ****                              RCC_OscInitStruct->PLL.PLLN,
 648:Drivers/STM32F7xx_HAL_Driver/Src/stm32f7xx_hal_rcc.c ****                              RCC_OscInitStruct->PLL.PLLP,
 649:Drivers/STM32F7xx_HAL_Driver/Src/stm32f7xx_hal_rcc.c ****                              RCC_OscInitStruct->PLL.PLLQ);
 650:Drivers/STM32F7xx_HAL_Driver/Src/stm32f7xx_hal_rcc.c **** #endif
 651:Drivers/STM32F7xx_HAL_Driver/Src/stm32f7xx_hal_rcc.c **** 
 652:Drivers/STM32F7xx_HAL_Driver/Src/stm32f7xx_hal_rcc.c ****         /* Enable the main PLL. */
 653:Drivers/STM32F7xx_HAL_Driver/Src/stm32f7xx_hal_rcc.c ****         __HAL_RCC_PLL_ENABLE();
 654:Drivers/STM32F7xx_HAL_Driver/Src/stm32f7xx_hal_rcc.c **** 
 655:Drivers/STM32F7xx_HAL_Driver/Src/stm32f7xx_hal_rcc.c ****         /* Get Start Tick*/
 656:Drivers/STM32F7xx_HAL_Driver/Src/stm32f7xx_hal_rcc.c ****         tickstart = HAL_GetTick();
 657:Drivers/STM32F7xx_HAL_Driver/Src/stm32f7xx_hal_rcc.c **** 
 658:Drivers/STM32F7xx_HAL_Driver/Src/stm32f7xx_hal_rcc.c ****         /* Wait till PLL is ready */
 659:Drivers/STM32F7xx_HAL_Driver/Src/stm32f7xx_hal_rcc.c ****         while(__HAL_RCC_GET_FLAG(RCC_FLAG_PLLRDY) == RESET)
 660:Drivers/STM32F7xx_HAL_Driver/Src/stm32f7xx_hal_rcc.c ****         {
 661:Drivers/STM32F7xx_HAL_Driver/Src/stm32f7xx_hal_rcc.c ****           if((HAL_GetTick() - tickstart ) > PLL_TIMEOUT_VALUE)
 662:Drivers/STM32F7xx_HAL_Driver/Src/stm32f7xx_hal_rcc.c ****           {
 663:Drivers/STM32F7xx_HAL_Driver/Src/stm32f7xx_hal_rcc.c ****             return HAL_TIMEOUT;
 664:Drivers/STM32F7xx_HAL_Driver/Src/stm32f7xx_hal_rcc.c ****           }
 665:Drivers/STM32F7xx_HAL_Driver/Src/stm32f7xx_hal_rcc.c ****         }
 666:Drivers/STM32F7xx_HAL_Driver/Src/stm32f7xx_hal_rcc.c ****       }
 667:Drivers/STM32F7xx_HAL_Driver/Src/stm32f7xx_hal_rcc.c ****       else
 668:Drivers/STM32F7xx_HAL_Driver/Src/stm32f7xx_hal_rcc.c ****       {
 669:Drivers/STM32F7xx_HAL_Driver/Src/stm32f7xx_hal_rcc.c ****         /* Disable the main PLL. */
 670:Drivers/STM32F7xx_HAL_Driver/Src/stm32f7xx_hal_rcc.c ****         __HAL_RCC_PLL_DISABLE();
ARM GAS  C:\Users\Nina\AppData\Local\Temp\ccnJIoBd.s 			page 32


 942              		.loc 1 670 9 is_stmt 1 view .LVU311
 943 030a 314A     		ldr	r2, .L119
 944 030c 1368     		ldr	r3, [r2]
 945 030e 23F08073 		bic	r3, r3, #16777216
 946 0312 1360     		str	r3, [r2]
 671:Drivers/STM32F7xx_HAL_Driver/Src/stm32f7xx_hal_rcc.c **** 
 672:Drivers/STM32F7xx_HAL_Driver/Src/stm32f7xx_hal_rcc.c ****         /* Get Start Tick*/
 673:Drivers/STM32F7xx_HAL_Driver/Src/stm32f7xx_hal_rcc.c ****         tickstart = HAL_GetTick();
 947              		.loc 1 673 9 view .LVU312
 948              		.loc 1 673 21 is_stmt 0 view .LVU313
 949 0314 FFF7FEFF 		bl	HAL_GetTick
 950              	.LVL67:
 951 0318 0446     		mov	r4, r0
 952              	.LVL68:
 674:Drivers/STM32F7xx_HAL_Driver/Src/stm32f7xx_hal_rcc.c **** 
 675:Drivers/STM32F7xx_HAL_Driver/Src/stm32f7xx_hal_rcc.c ****         /* Wait till PLL is ready */
 676:Drivers/STM32F7xx_HAL_Driver/Src/stm32f7xx_hal_rcc.c ****         while(__HAL_RCC_GET_FLAG(RCC_FLAG_PLLRDY) != RESET)
 953              		.loc 1 676 9 is_stmt 1 view .LVU314
 954              	.L79:
 955              		.loc 1 676 14 view .LVU315
 956              		.loc 1 676 15 is_stmt 0 view .LVU316
 957 031a 2D4B     		ldr	r3, .L119
 958 031c 1B68     		ldr	r3, [r3]
 959              		.loc 1 676 14 view .LVU317
 960 031e 13F0007F 		tst	r3, #33554432
 961 0322 47D0     		beq	.L114
 677:Drivers/STM32F7xx_HAL_Driver/Src/stm32f7xx_hal_rcc.c ****         {
 678:Drivers/STM32F7xx_HAL_Driver/Src/stm32f7xx_hal_rcc.c ****           if((HAL_GetTick() - tickstart ) > PLL_TIMEOUT_VALUE)
 962              		.loc 1 678 11 is_stmt 1 view .LVU318
 963              		.loc 1 678 15 is_stmt 0 view .LVU319
 964 0324 FFF7FEFF 		bl	HAL_GetTick
 965              	.LVL69:
 966              		.loc 1 678 29 view .LVU320
 967 0328 001B     		subs	r0, r0, r4
 968              		.loc 1 678 13 view .LVU321
 969 032a 0228     		cmp	r0, #2
 970 032c F5D9     		bls	.L79
 679:Drivers/STM32F7xx_HAL_Driver/Src/stm32f7xx_hal_rcc.c ****           {
 680:Drivers/STM32F7xx_HAL_Driver/Src/stm32f7xx_hal_rcc.c ****             return HAL_TIMEOUT;
 971              		.loc 1 680 20 view .LVU322
 972 032e 0320     		movs	r0, #3
 973 0330 49E0     		b	.L31
 974              	.LVL70:
 975              	.L112:
 598:Drivers/STM32F7xx_HAL_Driver/Src/stm32f7xx_hal_rcc.c ****     }
 976              		.loc 1 598 7 is_stmt 1 view .LVU323
 977 0332 274A     		ldr	r2, .L119
 978 0334 136C     		ldr	r3, [r2, #64]
 979 0336 23F08053 		bic	r3, r3, #268435456
 980 033a 1364     		str	r3, [r2, #64]
 981 033c DAE7     		b	.L59
 982              	.LVL71:
 983              	.L113:
 612:Drivers/STM32F7xx_HAL_Driver/Src/stm32f7xx_hal_rcc.c ****         assert_param(IS_RCC_PLLM_VALUE(RCC_OscInitStruct->PLL.PLLM));
 984              		.loc 1 612 9 view .LVU324
 613:Drivers/STM32F7xx_HAL_Driver/Src/stm32f7xx_hal_rcc.c ****         assert_param(IS_RCC_PLLN_VALUE(RCC_OscInitStruct->PLL.PLLN));
 985              		.loc 1 613 9 view .LVU325
ARM GAS  C:\Users\Nina\AppData\Local\Temp\ccnJIoBd.s 			page 33


 614:Drivers/STM32F7xx_HAL_Driver/Src/stm32f7xx_hal_rcc.c ****         assert_param(IS_RCC_PLLP_VALUE(RCC_OscInitStruct->PLL.PLLP));
 986              		.loc 1 614 9 view .LVU326
 615:Drivers/STM32F7xx_HAL_Driver/Src/stm32f7xx_hal_rcc.c ****         assert_param(IS_RCC_PLLQ_VALUE(RCC_OscInitStruct->PLL.PLLQ));
 987              		.loc 1 615 9 view .LVU327
 616:Drivers/STM32F7xx_HAL_Driver/Src/stm32f7xx_hal_rcc.c **** #if defined (RCC_PLLCFGR_PLLR)
 988              		.loc 1 616 9 view .LVU328
 622:Drivers/STM32F7xx_HAL_Driver/Src/stm32f7xx_hal_rcc.c **** 
 989              		.loc 1 622 9 view .LVU329
 990 033e 244A     		ldr	r2, .L119
 991 0340 1368     		ldr	r3, [r2]
 992 0342 23F08073 		bic	r3, r3, #16777216
 993 0346 1360     		str	r3, [r2]
 625:Drivers/STM32F7xx_HAL_Driver/Src/stm32f7xx_hal_rcc.c **** 
 994              		.loc 1 625 9 view .LVU330
 625:Drivers/STM32F7xx_HAL_Driver/Src/stm32f7xx_hal_rcc.c **** 
 995              		.loc 1 625 21 is_stmt 0 view .LVU331
 996 0348 FFF7FEFF 		bl	HAL_GetTick
 997              	.LVL72:
 998 034c 0546     		mov	r5, r0
 999              	.LVL73:
 628:Drivers/STM32F7xx_HAL_Driver/Src/stm32f7xx_hal_rcc.c ****         {
 1000              		.loc 1 628 9 is_stmt 1 view .LVU332
 1001              	.L75:
 628:Drivers/STM32F7xx_HAL_Driver/Src/stm32f7xx_hal_rcc.c ****         {
 1002              		.loc 1 628 14 view .LVU333
 628:Drivers/STM32F7xx_HAL_Driver/Src/stm32f7xx_hal_rcc.c ****         {
 1003              		.loc 1 628 15 is_stmt 0 view .LVU334
 1004 034e 204B     		ldr	r3, .L119
 1005 0350 1B68     		ldr	r3, [r3]
 628:Drivers/STM32F7xx_HAL_Driver/Src/stm32f7xx_hal_rcc.c ****         {
 1006              		.loc 1 628 14 view .LVU335
 1007 0352 13F0007F 		tst	r3, #33554432
 1008 0356 06D0     		beq	.L115
 630:Drivers/STM32F7xx_HAL_Driver/Src/stm32f7xx_hal_rcc.c ****           {
 1009              		.loc 1 630 11 is_stmt 1 view .LVU336
 630:Drivers/STM32F7xx_HAL_Driver/Src/stm32f7xx_hal_rcc.c ****           {
 1010              		.loc 1 630 15 is_stmt 0 view .LVU337
 1011 0358 FFF7FEFF 		bl	HAL_GetTick
 1012              	.LVL74:
 630:Drivers/STM32F7xx_HAL_Driver/Src/stm32f7xx_hal_rcc.c ****           {
 1013              		.loc 1 630 29 view .LVU338
 1014 035c 401B     		subs	r0, r0, r5
 630:Drivers/STM32F7xx_HAL_Driver/Src/stm32f7xx_hal_rcc.c ****           {
 1015              		.loc 1 630 13 view .LVU339
 1016 035e 0228     		cmp	r0, #2
 1017 0360 F5D9     		bls	.L75
 632:Drivers/STM32F7xx_HAL_Driver/Src/stm32f7xx_hal_rcc.c ****           }
 1018              		.loc 1 632 20 view .LVU340
 1019 0362 0320     		movs	r0, #3
 1020 0364 2FE0     		b	.L31
 1021              	.L115:
 645:Drivers/STM32F7xx_HAL_Driver/Src/stm32f7xx_hal_rcc.c ****                              RCC_OscInitStruct->PLL.PLLM,
 1022              		.loc 1 645 9 is_stmt 1 view .LVU341
 1023 0366 E369     		ldr	r3, [r4, #28]
 1024 0368 226A     		ldr	r2, [r4, #32]
 1025 036a 1343     		orrs	r3, r3, r2
 1026 036c 626A     		ldr	r2, [r4, #36]
ARM GAS  C:\Users\Nina\AppData\Local\Temp\ccnJIoBd.s 			page 34


 1027 036e 43EA8213 		orr	r3, r3, r2, lsl #6
 1028 0372 A26A     		ldr	r2, [r4, #40]
 1029 0374 5208     		lsrs	r2, r2, #1
 1030 0376 013A     		subs	r2, r2, #1
 1031 0378 43EA0243 		orr	r3, r3, r2, lsl #16
 1032 037c E26A     		ldr	r2, [r4, #44]
 1033 037e 43EA0263 		orr	r3, r3, r2, lsl #24
 1034 0382 43F00053 		orr	r3, r3, #536870912
 1035 0386 124A     		ldr	r2, .L119
 1036 0388 5360     		str	r3, [r2, #4]
 653:Drivers/STM32F7xx_HAL_Driver/Src/stm32f7xx_hal_rcc.c **** 
 1037              		.loc 1 653 9 view .LVU342
 1038 038a 1368     		ldr	r3, [r2]
 1039 038c 43F08073 		orr	r3, r3, #16777216
 1040 0390 1360     		str	r3, [r2]
 656:Drivers/STM32F7xx_HAL_Driver/Src/stm32f7xx_hal_rcc.c **** 
 1041              		.loc 1 656 9 view .LVU343
 656:Drivers/STM32F7xx_HAL_Driver/Src/stm32f7xx_hal_rcc.c **** 
 1042              		.loc 1 656 21 is_stmt 0 view .LVU344
 1043 0392 FFF7FEFF 		bl	HAL_GetTick
 1044              	.LVL75:
 1045 0396 0446     		mov	r4, r0
 1046              	.LVL76:
 659:Drivers/STM32F7xx_HAL_Driver/Src/stm32f7xx_hal_rcc.c ****         {
 1047              		.loc 1 659 9 is_stmt 1 view .LVU345
 1048              	.L77:
 659:Drivers/STM32F7xx_HAL_Driver/Src/stm32f7xx_hal_rcc.c ****         {
 1049              		.loc 1 659 14 view .LVU346
 659:Drivers/STM32F7xx_HAL_Driver/Src/stm32f7xx_hal_rcc.c ****         {
 1050              		.loc 1 659 15 is_stmt 0 view .LVU347
 1051 0398 0D4B     		ldr	r3, .L119
 1052 039a 1B68     		ldr	r3, [r3]
 659:Drivers/STM32F7xx_HAL_Driver/Src/stm32f7xx_hal_rcc.c ****         {
 1053              		.loc 1 659 14 view .LVU348
 1054 039c 13F0007F 		tst	r3, #33554432
 1055 03a0 06D1     		bne	.L116
 661:Drivers/STM32F7xx_HAL_Driver/Src/stm32f7xx_hal_rcc.c ****           {
 1056              		.loc 1 661 11 is_stmt 1 view .LVU349
 661:Drivers/STM32F7xx_HAL_Driver/Src/stm32f7xx_hal_rcc.c ****           {
 1057              		.loc 1 661 15 is_stmt 0 view .LVU350
 1058 03a2 FFF7FEFF 		bl	HAL_GetTick
 1059              	.LVL77:
 661:Drivers/STM32F7xx_HAL_Driver/Src/stm32f7xx_hal_rcc.c ****           {
 1060              		.loc 1 661 29 view .LVU351
 1061 03a6 001B     		subs	r0, r0, r4
 661:Drivers/STM32F7xx_HAL_Driver/Src/stm32f7xx_hal_rcc.c ****           {
 1062              		.loc 1 661 13 view .LVU352
 1063 03a8 0228     		cmp	r0, #2
 1064 03aa F5D9     		bls	.L77
 663:Drivers/STM32F7xx_HAL_Driver/Src/stm32f7xx_hal_rcc.c ****           }
 1065              		.loc 1 663 20 view .LVU353
 1066 03ac 0320     		movs	r0, #3
 1067 03ae 0AE0     		b	.L31
 1068              	.L116:
 681:Drivers/STM32F7xx_HAL_Driver/Src/stm32f7xx_hal_rcc.c ****           }
 682:Drivers/STM32F7xx_HAL_Driver/Src/stm32f7xx_hal_rcc.c ****         }
 683:Drivers/STM32F7xx_HAL_Driver/Src/stm32f7xx_hal_rcc.c ****       }
ARM GAS  C:\Users\Nina\AppData\Local\Temp\ccnJIoBd.s 			page 35


 684:Drivers/STM32F7xx_HAL_Driver/Src/stm32f7xx_hal_rcc.c ****     }
 685:Drivers/STM32F7xx_HAL_Driver/Src/stm32f7xx_hal_rcc.c ****     else
 686:Drivers/STM32F7xx_HAL_Driver/Src/stm32f7xx_hal_rcc.c ****     {
 687:Drivers/STM32F7xx_HAL_Driver/Src/stm32f7xx_hal_rcc.c ****       return HAL_ERROR;
 688:Drivers/STM32F7xx_HAL_Driver/Src/stm32f7xx_hal_rcc.c ****     }
 689:Drivers/STM32F7xx_HAL_Driver/Src/stm32f7xx_hal_rcc.c ****   }
 690:Drivers/STM32F7xx_HAL_Driver/Src/stm32f7xx_hal_rcc.c ****   return HAL_OK;
 1069              		.loc 1 690 10 view .LVU354
 1070 03b0 0020     		movs	r0, #0
 1071 03b2 08E0     		b	.L31
 1072              	.L114:
 1073              		.loc 1 690 10 view .LVU355
 1074 03b4 0020     		movs	r0, #0
 1075 03b6 06E0     		b	.L31
 1076              	.LVL78:
 1077              	.L81:
 1078              	.LCFI3:
 1079              		.cfi_def_cfa_offset 0
 1080              		.cfi_restore 4
 1081              		.cfi_restore 5
 1082              		.cfi_restore 6
 1083              		.cfi_restore 14
 368:Drivers/STM32F7xx_HAL_Driver/Src/stm32f7xx_hal_rcc.c ****   }
 1084              		.loc 1 368 12 view .LVU356
 1085 03b8 0120     		movs	r0, #1
 1086              	.LVL79:
 691:Drivers/STM32F7xx_HAL_Driver/Src/stm32f7xx_hal_rcc.c **** }
 1087              		.loc 1 691 1 view .LVU357
 1088 03ba 7047     		bx	lr
 1089              	.LVL80:
 1090              	.L105:
 1091              	.LCFI4:
 1092              		.cfi_def_cfa_offset 24
 1093              		.cfi_offset 4, -16
 1094              		.cfi_offset 5, -12
 1095              		.cfi_offset 6, -8
 1096              		.cfi_offset 14, -4
 385:Drivers/STM32F7xx_HAL_Driver/Src/stm32f7xx_hal_rcc.c ****       }
 1097              		.loc 1 385 16 view .LVU358
 1098 03bc 0120     		movs	r0, #1
 1099              	.LVL81:
 385:Drivers/STM32F7xx_HAL_Driver/Src/stm32f7xx_hal_rcc.c ****       }
 1100              		.loc 1 385 16 view .LVU359
 1101 03be 02E0     		b	.L31
 1102              	.L85:
 438:Drivers/STM32F7xx_HAL_Driver/Src/stm32f7xx_hal_rcc.c ****       }
 1103              		.loc 1 438 16 view .LVU360
 1104 03c0 0120     		movs	r0, #1
 1105 03c2 00E0     		b	.L31
 1106              	.LVL82:
 1107              	.L94:
 690:Drivers/STM32F7xx_HAL_Driver/Src/stm32f7xx_hal_rcc.c **** }
 1108              		.loc 1 690 10 view .LVU361
 1109 03c4 0020     		movs	r0, #0
 1110              	.LVL83:
 1111              	.L31:
 1112              		.loc 1 691 1 view .LVU362
ARM GAS  C:\Users\Nina\AppData\Local\Temp\ccnJIoBd.s 			page 36


 1113 03c6 02B0     		add	sp, sp, #8
 1114              	.LCFI5:
 1115              		.cfi_remember_state
 1116              		.cfi_def_cfa_offset 16
 1117              		@ sp needed
 1118 03c8 70BD     		pop	{r4, r5, r6, pc}
 1119              	.LVL84:
 1120              	.L95:
 1121              	.LCFI6:
 1122              		.cfi_restore_state
 687:Drivers/STM32F7xx_HAL_Driver/Src/stm32f7xx_hal_rcc.c ****     }
 1123              		.loc 1 687 14 view .LVU363
 1124 03ca 0120     		movs	r0, #1
 1125 03cc FBE7     		b	.L31
 1126              	.L120:
 1127 03ce 00BF     		.align	2
 1128              	.L119:
 1129 03d0 00380240 		.word	1073887232
 1130              		.cfi_endproc
 1131              	.LFE139:
 1133              		.section	.text.HAL_RCC_MCOConfig,"ax",%progbits
 1134              		.align	1
 1135              		.global	HAL_RCC_MCOConfig
 1136              		.syntax unified
 1137              		.thumb
 1138              		.thumb_func
 1139              		.fpu fpv5-sp-d16
 1141              	HAL_RCC_MCOConfig:
 1142              	.LVL85:
 1143              	.LFB141:
 692:Drivers/STM32F7xx_HAL_Driver/Src/stm32f7xx_hal_rcc.c **** 
 693:Drivers/STM32F7xx_HAL_Driver/Src/stm32f7xx_hal_rcc.c **** /**
 694:Drivers/STM32F7xx_HAL_Driver/Src/stm32f7xx_hal_rcc.c ****   * @brief  Initializes the CPU, AHB and APB busses clocks according to the specified
 695:Drivers/STM32F7xx_HAL_Driver/Src/stm32f7xx_hal_rcc.c ****   *         parameters in the RCC_ClkInitStruct.
 696:Drivers/STM32F7xx_HAL_Driver/Src/stm32f7xx_hal_rcc.c ****   * @param  RCC_ClkInitStruct pointer to an RCC_OscInitTypeDef structure that
 697:Drivers/STM32F7xx_HAL_Driver/Src/stm32f7xx_hal_rcc.c ****   *         contains the configuration information for the RCC peripheral.
 698:Drivers/STM32F7xx_HAL_Driver/Src/stm32f7xx_hal_rcc.c ****   * @param  FLatency FLASH Latency, this parameter depend on device selected
 699:Drivers/STM32F7xx_HAL_Driver/Src/stm32f7xx_hal_rcc.c ****   *
 700:Drivers/STM32F7xx_HAL_Driver/Src/stm32f7xx_hal_rcc.c ****   * @note   The SystemCoreClock CMSIS variable is used to store System Clock Frequency
 701:Drivers/STM32F7xx_HAL_Driver/Src/stm32f7xx_hal_rcc.c ****   *         and updated by HAL_RCC_GetHCLKFreq() function called within this function
 702:Drivers/STM32F7xx_HAL_Driver/Src/stm32f7xx_hal_rcc.c ****   *
 703:Drivers/STM32F7xx_HAL_Driver/Src/stm32f7xx_hal_rcc.c ****   * @note   The HSI is used (enabled by hardware) as system clock source after
 704:Drivers/STM32F7xx_HAL_Driver/Src/stm32f7xx_hal_rcc.c ****   *         startup from Reset, wake-up from STOP and STANDBY mode, or in case
 705:Drivers/STM32F7xx_HAL_Driver/Src/stm32f7xx_hal_rcc.c ****   *         of failure of the HSE used directly or indirectly as system clock
 706:Drivers/STM32F7xx_HAL_Driver/Src/stm32f7xx_hal_rcc.c ****   *         (if the Clock Security System CSS is enabled).
 707:Drivers/STM32F7xx_HAL_Driver/Src/stm32f7xx_hal_rcc.c ****   *
 708:Drivers/STM32F7xx_HAL_Driver/Src/stm32f7xx_hal_rcc.c ****   * @note   A switch from one clock source to another occurs only if the target
 709:Drivers/STM32F7xx_HAL_Driver/Src/stm32f7xx_hal_rcc.c ****   *         clock source is ready (clock stable after startup delay or PLL locked).
 710:Drivers/STM32F7xx_HAL_Driver/Src/stm32f7xx_hal_rcc.c ****   *         If a clock source which is not yet ready is selected, the switch will
 711:Drivers/STM32F7xx_HAL_Driver/Src/stm32f7xx_hal_rcc.c ****   *         occur when the clock source will be ready.
 712:Drivers/STM32F7xx_HAL_Driver/Src/stm32f7xx_hal_rcc.c ****   *         You can use HAL_RCC_GetClockConfig() function to know which clock is
 713:Drivers/STM32F7xx_HAL_Driver/Src/stm32f7xx_hal_rcc.c ****   *         currently used as system clock source.
 714:Drivers/STM32F7xx_HAL_Driver/Src/stm32f7xx_hal_rcc.c ****   * @note   Depending on the device voltage range, the software has to set correctly
 715:Drivers/STM32F7xx_HAL_Driver/Src/stm32f7xx_hal_rcc.c ****   *         HPRE[3:0] bits to ensure that HCLK not exceed the maximum allowed frequency
 716:Drivers/STM32F7xx_HAL_Driver/Src/stm32f7xx_hal_rcc.c ****   *         (for more details refer to section above "Initialization/de-initialization functions")
 717:Drivers/STM32F7xx_HAL_Driver/Src/stm32f7xx_hal_rcc.c ****   * @retval None
 718:Drivers/STM32F7xx_HAL_Driver/Src/stm32f7xx_hal_rcc.c ****   */
ARM GAS  C:\Users\Nina\AppData\Local\Temp\ccnJIoBd.s 			page 37


 719:Drivers/STM32F7xx_HAL_Driver/Src/stm32f7xx_hal_rcc.c **** HAL_StatusTypeDef HAL_RCC_ClockConfig(RCC_ClkInitTypeDef  *RCC_ClkInitStruct, uint32_t FLatency)
 720:Drivers/STM32F7xx_HAL_Driver/Src/stm32f7xx_hal_rcc.c **** {
 721:Drivers/STM32F7xx_HAL_Driver/Src/stm32f7xx_hal_rcc.c ****   uint32_t tickstart = 0;
 722:Drivers/STM32F7xx_HAL_Driver/Src/stm32f7xx_hal_rcc.c **** 
 723:Drivers/STM32F7xx_HAL_Driver/Src/stm32f7xx_hal_rcc.c ****   /* Check Null pointer */
 724:Drivers/STM32F7xx_HAL_Driver/Src/stm32f7xx_hal_rcc.c ****   if(RCC_ClkInitStruct == NULL)
 725:Drivers/STM32F7xx_HAL_Driver/Src/stm32f7xx_hal_rcc.c ****   {
 726:Drivers/STM32F7xx_HAL_Driver/Src/stm32f7xx_hal_rcc.c ****     return HAL_ERROR;
 727:Drivers/STM32F7xx_HAL_Driver/Src/stm32f7xx_hal_rcc.c ****   }
 728:Drivers/STM32F7xx_HAL_Driver/Src/stm32f7xx_hal_rcc.c **** 
 729:Drivers/STM32F7xx_HAL_Driver/Src/stm32f7xx_hal_rcc.c ****   /* Check the parameters */
 730:Drivers/STM32F7xx_HAL_Driver/Src/stm32f7xx_hal_rcc.c ****   assert_param(IS_RCC_CLOCKTYPE(RCC_ClkInitStruct->ClockType));
 731:Drivers/STM32F7xx_HAL_Driver/Src/stm32f7xx_hal_rcc.c ****   assert_param(IS_FLASH_LATENCY(FLatency));
 732:Drivers/STM32F7xx_HAL_Driver/Src/stm32f7xx_hal_rcc.c **** 
 733:Drivers/STM32F7xx_HAL_Driver/Src/stm32f7xx_hal_rcc.c ****   /* To correctly read data from FLASH memory, the number of wait states (LATENCY)
 734:Drivers/STM32F7xx_HAL_Driver/Src/stm32f7xx_hal_rcc.c ****      must be correctly programmed according to the frequency of the CPU clock
 735:Drivers/STM32F7xx_HAL_Driver/Src/stm32f7xx_hal_rcc.c ****      (HCLK) and the supply voltage of the device. */
 736:Drivers/STM32F7xx_HAL_Driver/Src/stm32f7xx_hal_rcc.c **** 
 737:Drivers/STM32F7xx_HAL_Driver/Src/stm32f7xx_hal_rcc.c ****   /* Increasing the CPU frequency */
 738:Drivers/STM32F7xx_HAL_Driver/Src/stm32f7xx_hal_rcc.c ****   if(FLatency > __HAL_FLASH_GET_LATENCY())
 739:Drivers/STM32F7xx_HAL_Driver/Src/stm32f7xx_hal_rcc.c ****   {
 740:Drivers/STM32F7xx_HAL_Driver/Src/stm32f7xx_hal_rcc.c ****     /* Program the new number of wait states to the LATENCY bits in the FLASH_ACR register */
 741:Drivers/STM32F7xx_HAL_Driver/Src/stm32f7xx_hal_rcc.c ****     __HAL_FLASH_SET_LATENCY(FLatency);
 742:Drivers/STM32F7xx_HAL_Driver/Src/stm32f7xx_hal_rcc.c **** 
 743:Drivers/STM32F7xx_HAL_Driver/Src/stm32f7xx_hal_rcc.c ****     /* Check that the new number of wait states is taken into account to access the Flash
 744:Drivers/STM32F7xx_HAL_Driver/Src/stm32f7xx_hal_rcc.c ****     memory by reading the FLASH_ACR register */
 745:Drivers/STM32F7xx_HAL_Driver/Src/stm32f7xx_hal_rcc.c ****     if(__HAL_FLASH_GET_LATENCY() != FLatency)
 746:Drivers/STM32F7xx_HAL_Driver/Src/stm32f7xx_hal_rcc.c ****     {
 747:Drivers/STM32F7xx_HAL_Driver/Src/stm32f7xx_hal_rcc.c ****       return HAL_ERROR;
 748:Drivers/STM32F7xx_HAL_Driver/Src/stm32f7xx_hal_rcc.c ****     }
 749:Drivers/STM32F7xx_HAL_Driver/Src/stm32f7xx_hal_rcc.c ****   }
 750:Drivers/STM32F7xx_HAL_Driver/Src/stm32f7xx_hal_rcc.c **** 
 751:Drivers/STM32F7xx_HAL_Driver/Src/stm32f7xx_hal_rcc.c ****   /*-------------------------- HCLK Configuration --------------------------*/
 752:Drivers/STM32F7xx_HAL_Driver/Src/stm32f7xx_hal_rcc.c ****   if(((RCC_ClkInitStruct->ClockType) & RCC_CLOCKTYPE_HCLK) == RCC_CLOCKTYPE_HCLK)
 753:Drivers/STM32F7xx_HAL_Driver/Src/stm32f7xx_hal_rcc.c ****   {
 754:Drivers/STM32F7xx_HAL_Driver/Src/stm32f7xx_hal_rcc.c ****     /* Set the highest APBx dividers in order to ensure that we do not go through
 755:Drivers/STM32F7xx_HAL_Driver/Src/stm32f7xx_hal_rcc.c ****        a non-spec phase whatever we decrease or increase HCLK. */
 756:Drivers/STM32F7xx_HAL_Driver/Src/stm32f7xx_hal_rcc.c ****     if(((RCC_ClkInitStruct->ClockType) & RCC_CLOCKTYPE_PCLK1) == RCC_CLOCKTYPE_PCLK1)
 757:Drivers/STM32F7xx_HAL_Driver/Src/stm32f7xx_hal_rcc.c ****     {
 758:Drivers/STM32F7xx_HAL_Driver/Src/stm32f7xx_hal_rcc.c ****       MODIFY_REG(RCC->CFGR, RCC_CFGR_PPRE1, RCC_HCLK_DIV16);
 759:Drivers/STM32F7xx_HAL_Driver/Src/stm32f7xx_hal_rcc.c ****     }
 760:Drivers/STM32F7xx_HAL_Driver/Src/stm32f7xx_hal_rcc.c **** 
 761:Drivers/STM32F7xx_HAL_Driver/Src/stm32f7xx_hal_rcc.c ****     if(((RCC_ClkInitStruct->ClockType) & RCC_CLOCKTYPE_PCLK2) == RCC_CLOCKTYPE_PCLK2)
 762:Drivers/STM32F7xx_HAL_Driver/Src/stm32f7xx_hal_rcc.c ****     {
 763:Drivers/STM32F7xx_HAL_Driver/Src/stm32f7xx_hal_rcc.c ****       MODIFY_REG(RCC->CFGR, RCC_CFGR_PPRE2, (RCC_HCLK_DIV16 << 3));
 764:Drivers/STM32F7xx_HAL_Driver/Src/stm32f7xx_hal_rcc.c ****     }
 765:Drivers/STM32F7xx_HAL_Driver/Src/stm32f7xx_hal_rcc.c **** 
 766:Drivers/STM32F7xx_HAL_Driver/Src/stm32f7xx_hal_rcc.c ****     /* Set the new HCLK clock divider */
 767:Drivers/STM32F7xx_HAL_Driver/Src/stm32f7xx_hal_rcc.c ****     assert_param(IS_RCC_HCLK(RCC_ClkInitStruct->AHBCLKDivider));
 768:Drivers/STM32F7xx_HAL_Driver/Src/stm32f7xx_hal_rcc.c ****     MODIFY_REG(RCC->CFGR, RCC_CFGR_HPRE, RCC_ClkInitStruct->AHBCLKDivider);
 769:Drivers/STM32F7xx_HAL_Driver/Src/stm32f7xx_hal_rcc.c ****   }
 770:Drivers/STM32F7xx_HAL_Driver/Src/stm32f7xx_hal_rcc.c **** 
 771:Drivers/STM32F7xx_HAL_Driver/Src/stm32f7xx_hal_rcc.c ****   /*------------------------- SYSCLK Configuration ---------------------------*/
 772:Drivers/STM32F7xx_HAL_Driver/Src/stm32f7xx_hal_rcc.c ****   if(((RCC_ClkInitStruct->ClockType) & RCC_CLOCKTYPE_SYSCLK) == RCC_CLOCKTYPE_SYSCLK)
 773:Drivers/STM32F7xx_HAL_Driver/Src/stm32f7xx_hal_rcc.c ****   {
 774:Drivers/STM32F7xx_HAL_Driver/Src/stm32f7xx_hal_rcc.c ****     assert_param(IS_RCC_SYSCLKSOURCE(RCC_ClkInitStruct->SYSCLKSource));
 775:Drivers/STM32F7xx_HAL_Driver/Src/stm32f7xx_hal_rcc.c **** 
ARM GAS  C:\Users\Nina\AppData\Local\Temp\ccnJIoBd.s 			page 38


 776:Drivers/STM32F7xx_HAL_Driver/Src/stm32f7xx_hal_rcc.c ****     /* HSE is selected as System Clock Source */
 777:Drivers/STM32F7xx_HAL_Driver/Src/stm32f7xx_hal_rcc.c ****     if(RCC_ClkInitStruct->SYSCLKSource == RCC_SYSCLKSOURCE_HSE)
 778:Drivers/STM32F7xx_HAL_Driver/Src/stm32f7xx_hal_rcc.c ****     {
 779:Drivers/STM32F7xx_HAL_Driver/Src/stm32f7xx_hal_rcc.c ****       /* Check the HSE ready flag */
 780:Drivers/STM32F7xx_HAL_Driver/Src/stm32f7xx_hal_rcc.c ****       if(__HAL_RCC_GET_FLAG(RCC_FLAG_HSERDY) == RESET)
 781:Drivers/STM32F7xx_HAL_Driver/Src/stm32f7xx_hal_rcc.c ****       {
 782:Drivers/STM32F7xx_HAL_Driver/Src/stm32f7xx_hal_rcc.c ****         return HAL_ERROR;
 783:Drivers/STM32F7xx_HAL_Driver/Src/stm32f7xx_hal_rcc.c ****       }
 784:Drivers/STM32F7xx_HAL_Driver/Src/stm32f7xx_hal_rcc.c ****     }
 785:Drivers/STM32F7xx_HAL_Driver/Src/stm32f7xx_hal_rcc.c ****     /* PLL is selected as System Clock Source */
 786:Drivers/STM32F7xx_HAL_Driver/Src/stm32f7xx_hal_rcc.c ****     else if(RCC_ClkInitStruct->SYSCLKSource == RCC_SYSCLKSOURCE_PLLCLK)
 787:Drivers/STM32F7xx_HAL_Driver/Src/stm32f7xx_hal_rcc.c ****     {
 788:Drivers/STM32F7xx_HAL_Driver/Src/stm32f7xx_hal_rcc.c ****       /* Check the PLL ready flag */
 789:Drivers/STM32F7xx_HAL_Driver/Src/stm32f7xx_hal_rcc.c ****       if(__HAL_RCC_GET_FLAG(RCC_FLAG_PLLRDY) == RESET)
 790:Drivers/STM32F7xx_HAL_Driver/Src/stm32f7xx_hal_rcc.c ****       {
 791:Drivers/STM32F7xx_HAL_Driver/Src/stm32f7xx_hal_rcc.c ****         return HAL_ERROR;
 792:Drivers/STM32F7xx_HAL_Driver/Src/stm32f7xx_hal_rcc.c ****       }
 793:Drivers/STM32F7xx_HAL_Driver/Src/stm32f7xx_hal_rcc.c ****     }
 794:Drivers/STM32F7xx_HAL_Driver/Src/stm32f7xx_hal_rcc.c ****     /* HSI is selected as System Clock Source */
 795:Drivers/STM32F7xx_HAL_Driver/Src/stm32f7xx_hal_rcc.c ****     else
 796:Drivers/STM32F7xx_HAL_Driver/Src/stm32f7xx_hal_rcc.c ****     {
 797:Drivers/STM32F7xx_HAL_Driver/Src/stm32f7xx_hal_rcc.c ****       /* Check the HSI ready flag */
 798:Drivers/STM32F7xx_HAL_Driver/Src/stm32f7xx_hal_rcc.c ****       if(__HAL_RCC_GET_FLAG(RCC_FLAG_HSIRDY) == RESET)
 799:Drivers/STM32F7xx_HAL_Driver/Src/stm32f7xx_hal_rcc.c ****       {
 800:Drivers/STM32F7xx_HAL_Driver/Src/stm32f7xx_hal_rcc.c ****         return HAL_ERROR;
 801:Drivers/STM32F7xx_HAL_Driver/Src/stm32f7xx_hal_rcc.c ****       }
 802:Drivers/STM32F7xx_HAL_Driver/Src/stm32f7xx_hal_rcc.c ****     }
 803:Drivers/STM32F7xx_HAL_Driver/Src/stm32f7xx_hal_rcc.c **** 
 804:Drivers/STM32F7xx_HAL_Driver/Src/stm32f7xx_hal_rcc.c ****     __HAL_RCC_SYSCLK_CONFIG(RCC_ClkInitStruct->SYSCLKSource);
 805:Drivers/STM32F7xx_HAL_Driver/Src/stm32f7xx_hal_rcc.c **** 
 806:Drivers/STM32F7xx_HAL_Driver/Src/stm32f7xx_hal_rcc.c ****     /* Get Start Tick*/
 807:Drivers/STM32F7xx_HAL_Driver/Src/stm32f7xx_hal_rcc.c ****     tickstart = HAL_GetTick();
 808:Drivers/STM32F7xx_HAL_Driver/Src/stm32f7xx_hal_rcc.c **** 
 809:Drivers/STM32F7xx_HAL_Driver/Src/stm32f7xx_hal_rcc.c ****     while (__HAL_RCC_GET_SYSCLK_SOURCE() != (RCC_ClkInitStruct->SYSCLKSource << RCC_CFGR_SWS_Pos))
 810:Drivers/STM32F7xx_HAL_Driver/Src/stm32f7xx_hal_rcc.c ****     {
 811:Drivers/STM32F7xx_HAL_Driver/Src/stm32f7xx_hal_rcc.c ****       if ((HAL_GetTick() - tickstart) > CLOCKSWITCH_TIMEOUT_VALUE)
 812:Drivers/STM32F7xx_HAL_Driver/Src/stm32f7xx_hal_rcc.c ****       {
 813:Drivers/STM32F7xx_HAL_Driver/Src/stm32f7xx_hal_rcc.c ****         return HAL_TIMEOUT;
 814:Drivers/STM32F7xx_HAL_Driver/Src/stm32f7xx_hal_rcc.c ****       }
 815:Drivers/STM32F7xx_HAL_Driver/Src/stm32f7xx_hal_rcc.c ****     }
 816:Drivers/STM32F7xx_HAL_Driver/Src/stm32f7xx_hal_rcc.c ****   }
 817:Drivers/STM32F7xx_HAL_Driver/Src/stm32f7xx_hal_rcc.c **** 
 818:Drivers/STM32F7xx_HAL_Driver/Src/stm32f7xx_hal_rcc.c ****   /* Decreasing the number of wait states because of lower CPU frequency */
 819:Drivers/STM32F7xx_HAL_Driver/Src/stm32f7xx_hal_rcc.c ****   if(FLatency < __HAL_FLASH_GET_LATENCY())
 820:Drivers/STM32F7xx_HAL_Driver/Src/stm32f7xx_hal_rcc.c ****   {
 821:Drivers/STM32F7xx_HAL_Driver/Src/stm32f7xx_hal_rcc.c ****     /* Program the new number of wait states to the LATENCY bits in the FLASH_ACR register */
 822:Drivers/STM32F7xx_HAL_Driver/Src/stm32f7xx_hal_rcc.c ****     __HAL_FLASH_SET_LATENCY(FLatency);
 823:Drivers/STM32F7xx_HAL_Driver/Src/stm32f7xx_hal_rcc.c **** 
 824:Drivers/STM32F7xx_HAL_Driver/Src/stm32f7xx_hal_rcc.c ****     /* Check that the new number of wait states is taken into account to access the Flash
 825:Drivers/STM32F7xx_HAL_Driver/Src/stm32f7xx_hal_rcc.c ****     memory by reading the FLASH_ACR register */
 826:Drivers/STM32F7xx_HAL_Driver/Src/stm32f7xx_hal_rcc.c ****     if(__HAL_FLASH_GET_LATENCY() != FLatency)
 827:Drivers/STM32F7xx_HAL_Driver/Src/stm32f7xx_hal_rcc.c ****     {
 828:Drivers/STM32F7xx_HAL_Driver/Src/stm32f7xx_hal_rcc.c ****       return HAL_ERROR;
 829:Drivers/STM32F7xx_HAL_Driver/Src/stm32f7xx_hal_rcc.c ****     }
 830:Drivers/STM32F7xx_HAL_Driver/Src/stm32f7xx_hal_rcc.c ****   }
 831:Drivers/STM32F7xx_HAL_Driver/Src/stm32f7xx_hal_rcc.c **** 
 832:Drivers/STM32F7xx_HAL_Driver/Src/stm32f7xx_hal_rcc.c ****   /*-------------------------- PCLK1 Configuration ---------------------------*/
ARM GAS  C:\Users\Nina\AppData\Local\Temp\ccnJIoBd.s 			page 39


 833:Drivers/STM32F7xx_HAL_Driver/Src/stm32f7xx_hal_rcc.c ****   if(((RCC_ClkInitStruct->ClockType) & RCC_CLOCKTYPE_PCLK1) == RCC_CLOCKTYPE_PCLK1)
 834:Drivers/STM32F7xx_HAL_Driver/Src/stm32f7xx_hal_rcc.c ****   {
 835:Drivers/STM32F7xx_HAL_Driver/Src/stm32f7xx_hal_rcc.c ****     assert_param(IS_RCC_PCLK(RCC_ClkInitStruct->APB1CLKDivider));
 836:Drivers/STM32F7xx_HAL_Driver/Src/stm32f7xx_hal_rcc.c ****     MODIFY_REG(RCC->CFGR, RCC_CFGR_PPRE1, RCC_ClkInitStruct->APB1CLKDivider);
 837:Drivers/STM32F7xx_HAL_Driver/Src/stm32f7xx_hal_rcc.c ****   }
 838:Drivers/STM32F7xx_HAL_Driver/Src/stm32f7xx_hal_rcc.c **** 
 839:Drivers/STM32F7xx_HAL_Driver/Src/stm32f7xx_hal_rcc.c ****   /*-------------------------- PCLK2 Configuration ---------------------------*/
 840:Drivers/STM32F7xx_HAL_Driver/Src/stm32f7xx_hal_rcc.c ****   if(((RCC_ClkInitStruct->ClockType) & RCC_CLOCKTYPE_PCLK2) == RCC_CLOCKTYPE_PCLK2)
 841:Drivers/STM32F7xx_HAL_Driver/Src/stm32f7xx_hal_rcc.c ****   {
 842:Drivers/STM32F7xx_HAL_Driver/Src/stm32f7xx_hal_rcc.c ****     assert_param(IS_RCC_PCLK(RCC_ClkInitStruct->APB2CLKDivider));
 843:Drivers/STM32F7xx_HAL_Driver/Src/stm32f7xx_hal_rcc.c ****     MODIFY_REG(RCC->CFGR, RCC_CFGR_PPRE2, ((RCC_ClkInitStruct->APB2CLKDivider) << 3));
 844:Drivers/STM32F7xx_HAL_Driver/Src/stm32f7xx_hal_rcc.c ****   }
 845:Drivers/STM32F7xx_HAL_Driver/Src/stm32f7xx_hal_rcc.c **** 
 846:Drivers/STM32F7xx_HAL_Driver/Src/stm32f7xx_hal_rcc.c ****   /* Update the SystemCoreClock global variable */
 847:Drivers/STM32F7xx_HAL_Driver/Src/stm32f7xx_hal_rcc.c ****   SystemCoreClock = HAL_RCC_GetSysClockFreq() >> AHBPrescTable[(RCC->CFGR & RCC_CFGR_HPRE)>> RCC_CF
 848:Drivers/STM32F7xx_HAL_Driver/Src/stm32f7xx_hal_rcc.c **** 
 849:Drivers/STM32F7xx_HAL_Driver/Src/stm32f7xx_hal_rcc.c ****   /* Configure the source of time base considering new system clocks settings*/
 850:Drivers/STM32F7xx_HAL_Driver/Src/stm32f7xx_hal_rcc.c ****   HAL_InitTick (TICK_INT_PRIORITY);
 851:Drivers/STM32F7xx_HAL_Driver/Src/stm32f7xx_hal_rcc.c **** 
 852:Drivers/STM32F7xx_HAL_Driver/Src/stm32f7xx_hal_rcc.c ****   return HAL_OK;
 853:Drivers/STM32F7xx_HAL_Driver/Src/stm32f7xx_hal_rcc.c **** }
 854:Drivers/STM32F7xx_HAL_Driver/Src/stm32f7xx_hal_rcc.c **** 
 855:Drivers/STM32F7xx_HAL_Driver/Src/stm32f7xx_hal_rcc.c **** /**
 856:Drivers/STM32F7xx_HAL_Driver/Src/stm32f7xx_hal_rcc.c ****   * @}
 857:Drivers/STM32F7xx_HAL_Driver/Src/stm32f7xx_hal_rcc.c ****   */
 858:Drivers/STM32F7xx_HAL_Driver/Src/stm32f7xx_hal_rcc.c **** 
 859:Drivers/STM32F7xx_HAL_Driver/Src/stm32f7xx_hal_rcc.c **** /** @defgroup RCC_Exported_Functions_Group2 Peripheral Control functions
 860:Drivers/STM32F7xx_HAL_Driver/Src/stm32f7xx_hal_rcc.c ****   *  @brief   RCC clocks control functions
 861:Drivers/STM32F7xx_HAL_Driver/Src/stm32f7xx_hal_rcc.c ****   *
 862:Drivers/STM32F7xx_HAL_Driver/Src/stm32f7xx_hal_rcc.c ****   @verbatim
 863:Drivers/STM32F7xx_HAL_Driver/Src/stm32f7xx_hal_rcc.c ****   ===============================================================================
 864:Drivers/STM32F7xx_HAL_Driver/Src/stm32f7xx_hal_rcc.c ****                   ##### Peripheral Control functions #####
 865:Drivers/STM32F7xx_HAL_Driver/Src/stm32f7xx_hal_rcc.c ****   ===============================================================================
 866:Drivers/STM32F7xx_HAL_Driver/Src/stm32f7xx_hal_rcc.c ****     [..]
 867:Drivers/STM32F7xx_HAL_Driver/Src/stm32f7xx_hal_rcc.c ****     This subsection provides a set of functions allowing to control the RCC Clocks
 868:Drivers/STM32F7xx_HAL_Driver/Src/stm32f7xx_hal_rcc.c ****     frequencies.
 869:Drivers/STM32F7xx_HAL_Driver/Src/stm32f7xx_hal_rcc.c **** 
 870:Drivers/STM32F7xx_HAL_Driver/Src/stm32f7xx_hal_rcc.c **** @endverbatim
 871:Drivers/STM32F7xx_HAL_Driver/Src/stm32f7xx_hal_rcc.c ****   * @{
 872:Drivers/STM32F7xx_HAL_Driver/Src/stm32f7xx_hal_rcc.c ****   */
 873:Drivers/STM32F7xx_HAL_Driver/Src/stm32f7xx_hal_rcc.c **** 
 874:Drivers/STM32F7xx_HAL_Driver/Src/stm32f7xx_hal_rcc.c **** /**
 875:Drivers/STM32F7xx_HAL_Driver/Src/stm32f7xx_hal_rcc.c ****   * @brief  Selects the clock source to output on MCO1 pin(PA8) or on MCO2 pin(PC9).
 876:Drivers/STM32F7xx_HAL_Driver/Src/stm32f7xx_hal_rcc.c ****   * @note   PA8/PC9 should be configured in alternate function mode.
 877:Drivers/STM32F7xx_HAL_Driver/Src/stm32f7xx_hal_rcc.c ****   * @param  RCC_MCOx specifies the output direction for the clock source.
 878:Drivers/STM32F7xx_HAL_Driver/Src/stm32f7xx_hal_rcc.c ****   *          This parameter can be one of the following values:
 879:Drivers/STM32F7xx_HAL_Driver/Src/stm32f7xx_hal_rcc.c ****   *            @arg RCC_MCO1: Clock source to output on MCO1 pin(PA8).
 880:Drivers/STM32F7xx_HAL_Driver/Src/stm32f7xx_hal_rcc.c ****   *            @arg RCC_MCO2: Clock source to output on MCO2 pin(PC9).
 881:Drivers/STM32F7xx_HAL_Driver/Src/stm32f7xx_hal_rcc.c ****   * @param  RCC_MCOSource specifies the clock source to output.
 882:Drivers/STM32F7xx_HAL_Driver/Src/stm32f7xx_hal_rcc.c ****   *          This parameter can be one of the following values:
 883:Drivers/STM32F7xx_HAL_Driver/Src/stm32f7xx_hal_rcc.c ****   *            @arg RCC_MCO1SOURCE_HSI: HSI clock selected as MCO1 source
 884:Drivers/STM32F7xx_HAL_Driver/Src/stm32f7xx_hal_rcc.c ****   *            @arg RCC_MCO1SOURCE_LSE: LSE clock selected as MCO1 source
 885:Drivers/STM32F7xx_HAL_Driver/Src/stm32f7xx_hal_rcc.c ****   *            @arg RCC_MCO1SOURCE_HSE: HSE clock selected as MCO1 source
 886:Drivers/STM32F7xx_HAL_Driver/Src/stm32f7xx_hal_rcc.c ****   *            @arg RCC_MCO1SOURCE_PLLCLK: main PLL clock selected as MCO1 source
 887:Drivers/STM32F7xx_HAL_Driver/Src/stm32f7xx_hal_rcc.c ****   *            @arg RCC_MCO2SOURCE_SYSCLK: System clock (SYSCLK) selected as MCO2 source
 888:Drivers/STM32F7xx_HAL_Driver/Src/stm32f7xx_hal_rcc.c ****   *            @arg RCC_MCO2SOURCE_PLLI2SCLK: PLLI2S clock selected as MCO2 source
 889:Drivers/STM32F7xx_HAL_Driver/Src/stm32f7xx_hal_rcc.c ****   *            @arg RCC_MCO2SOURCE_HSE: HSE clock selected as MCO2 source
ARM GAS  C:\Users\Nina\AppData\Local\Temp\ccnJIoBd.s 			page 40


 890:Drivers/STM32F7xx_HAL_Driver/Src/stm32f7xx_hal_rcc.c ****   *            @arg RCC_MCO2SOURCE_PLLCLK: main PLL clock selected as MCO2 source
 891:Drivers/STM32F7xx_HAL_Driver/Src/stm32f7xx_hal_rcc.c ****   * @param  RCC_MCODiv specifies the MCOx prescaler.
 892:Drivers/STM32F7xx_HAL_Driver/Src/stm32f7xx_hal_rcc.c ****   *          This parameter can be one of the following values:
 893:Drivers/STM32F7xx_HAL_Driver/Src/stm32f7xx_hal_rcc.c ****   *            @arg RCC_MCODIV_1: no division applied to MCOx clock
 894:Drivers/STM32F7xx_HAL_Driver/Src/stm32f7xx_hal_rcc.c ****   *            @arg RCC_MCODIV_2: division by 2 applied to MCOx clock
 895:Drivers/STM32F7xx_HAL_Driver/Src/stm32f7xx_hal_rcc.c ****   *            @arg RCC_MCODIV_3: division by 3 applied to MCOx clock
 896:Drivers/STM32F7xx_HAL_Driver/Src/stm32f7xx_hal_rcc.c ****   *            @arg RCC_MCODIV_4: division by 4 applied to MCOx clock
 897:Drivers/STM32F7xx_HAL_Driver/Src/stm32f7xx_hal_rcc.c ****   *            @arg RCC_MCODIV_5: division by 5 applied to MCOx clock
 898:Drivers/STM32F7xx_HAL_Driver/Src/stm32f7xx_hal_rcc.c ****   * @retval None
 899:Drivers/STM32F7xx_HAL_Driver/Src/stm32f7xx_hal_rcc.c ****   */
 900:Drivers/STM32F7xx_HAL_Driver/Src/stm32f7xx_hal_rcc.c **** void HAL_RCC_MCOConfig(uint32_t RCC_MCOx, uint32_t RCC_MCOSource, uint32_t RCC_MCODiv)
 901:Drivers/STM32F7xx_HAL_Driver/Src/stm32f7xx_hal_rcc.c **** {
 1144              		.loc 1 901 1 is_stmt 1 view -0
 1145              		.cfi_startproc
 1146              		@ args = 0, pretend = 0, frame = 32
 1147              		@ frame_needed = 0, uses_anonymous_args = 0
 1148              		.loc 1 901 1 is_stmt 0 view .LVU365
 1149 0000 70B5     		push	{r4, r5, r6, lr}
 1150              	.LCFI7:
 1151              		.cfi_def_cfa_offset 16
 1152              		.cfi_offset 4, -16
 1153              		.cfi_offset 5, -12
 1154              		.cfi_offset 6, -8
 1155              		.cfi_offset 14, -4
 1156 0002 88B0     		sub	sp, sp, #32
 1157              	.LCFI8:
 1158              		.cfi_def_cfa_offset 48
 1159 0004 0C46     		mov	r4, r1
 1160 0006 1546     		mov	r5, r2
 902:Drivers/STM32F7xx_HAL_Driver/Src/stm32f7xx_hal_rcc.c ****   GPIO_InitTypeDef GPIO_InitStruct;
 1161              		.loc 1 902 3 is_stmt 1 view .LVU366
 903:Drivers/STM32F7xx_HAL_Driver/Src/stm32f7xx_hal_rcc.c ****   /* Check the parameters */
 904:Drivers/STM32F7xx_HAL_Driver/Src/stm32f7xx_hal_rcc.c ****   assert_param(IS_RCC_MCO(RCC_MCOx));
 1162              		.loc 1 904 3 view .LVU367
 905:Drivers/STM32F7xx_HAL_Driver/Src/stm32f7xx_hal_rcc.c ****   assert_param(IS_RCC_MCODIV(RCC_MCODiv));
 1163              		.loc 1 905 3 view .LVU368
 906:Drivers/STM32F7xx_HAL_Driver/Src/stm32f7xx_hal_rcc.c ****   /* RCC_MCO1 */
 907:Drivers/STM32F7xx_HAL_Driver/Src/stm32f7xx_hal_rcc.c ****   if(RCC_MCOx == RCC_MCO1)
 1164              		.loc 1 907 3 view .LVU369
 1165              		.loc 1 907 5 is_stmt 0 view .LVU370
 1166 0008 F8B9     		cbnz	r0, .L122
 908:Drivers/STM32F7xx_HAL_Driver/Src/stm32f7xx_hal_rcc.c ****   {
 909:Drivers/STM32F7xx_HAL_Driver/Src/stm32f7xx_hal_rcc.c ****     assert_param(IS_RCC_MCO1SOURCE(RCC_MCOSource));
 1167              		.loc 1 909 5 is_stmt 1 view .LVU371
 910:Drivers/STM32F7xx_HAL_Driver/Src/stm32f7xx_hal_rcc.c **** 
 911:Drivers/STM32F7xx_HAL_Driver/Src/stm32f7xx_hal_rcc.c ****     /* MCO1 Clock Enable */
 912:Drivers/STM32F7xx_HAL_Driver/Src/stm32f7xx_hal_rcc.c ****     MCO1_CLK_ENABLE();
 1168              		.loc 1 912 5 view .LVU372
 1169              	.LBB3:
 1170              		.loc 1 912 5 view .LVU373
 1171              		.loc 1 912 5 view .LVU374
 1172 000a 204E     		ldr	r6, .L125
 1173 000c 336B     		ldr	r3, [r6, #48]
 1174 000e 43F00103 		orr	r3, r3, #1
 1175 0012 3363     		str	r3, [r6, #48]
 1176              		.loc 1 912 5 view .LVU375
 1177 0014 336B     		ldr	r3, [r6, #48]
ARM GAS  C:\Users\Nina\AppData\Local\Temp\ccnJIoBd.s 			page 41


 1178 0016 03F00103 		and	r3, r3, #1
 1179 001a 0193     		str	r3, [sp, #4]
 1180              		.loc 1 912 5 view .LVU376
 1181 001c 019B     		ldr	r3, [sp, #4]
 1182              	.LBE3:
 1183              		.loc 1 912 5 view .LVU377
 913:Drivers/STM32F7xx_HAL_Driver/Src/stm32f7xx_hal_rcc.c **** 
 914:Drivers/STM32F7xx_HAL_Driver/Src/stm32f7xx_hal_rcc.c ****     /* Configure the MCO1 pin in alternate function mode */
 915:Drivers/STM32F7xx_HAL_Driver/Src/stm32f7xx_hal_rcc.c ****     GPIO_InitStruct.Pin = MCO1_PIN;
 1184              		.loc 1 915 5 view .LVU378
 1185              		.loc 1 915 25 is_stmt 0 view .LVU379
 1186 001e 4FF48073 		mov	r3, #256
 1187 0022 0393     		str	r3, [sp, #12]
 916:Drivers/STM32F7xx_HAL_Driver/Src/stm32f7xx_hal_rcc.c ****     GPIO_InitStruct.Mode = GPIO_MODE_AF_PP;
 1188              		.loc 1 916 5 is_stmt 1 view .LVU380
 1189              		.loc 1 916 26 is_stmt 0 view .LVU381
 1190 0024 0223     		movs	r3, #2
 1191 0026 0493     		str	r3, [sp, #16]
 917:Drivers/STM32F7xx_HAL_Driver/Src/stm32f7xx_hal_rcc.c ****     GPIO_InitStruct.Speed = GPIO_SPEED_HIGH;
 1192              		.loc 1 917 5 is_stmt 1 view .LVU382
 1193              		.loc 1 917 27 is_stmt 0 view .LVU383
 1194 0028 0323     		movs	r3, #3
 1195 002a 0693     		str	r3, [sp, #24]
 918:Drivers/STM32F7xx_HAL_Driver/Src/stm32f7xx_hal_rcc.c ****     GPIO_InitStruct.Pull = GPIO_NOPULL;
 1196              		.loc 1 918 5 is_stmt 1 view .LVU384
 1197              		.loc 1 918 26 is_stmt 0 view .LVU385
 1198 002c 0023     		movs	r3, #0
 1199 002e 0593     		str	r3, [sp, #20]
 919:Drivers/STM32F7xx_HAL_Driver/Src/stm32f7xx_hal_rcc.c ****     GPIO_InitStruct.Alternate = GPIO_AF0_MCO;
 1200              		.loc 1 919 5 is_stmt 1 view .LVU386
 1201              		.loc 1 919 31 is_stmt 0 view .LVU387
 1202 0030 0793     		str	r3, [sp, #28]
 920:Drivers/STM32F7xx_HAL_Driver/Src/stm32f7xx_hal_rcc.c ****     HAL_GPIO_Init(MCO1_GPIO_PORT, &GPIO_InitStruct);
 1203              		.loc 1 920 5 is_stmt 1 view .LVU388
 1204 0032 03A9     		add	r1, sp, #12
 1205              	.LVL86:
 1206              		.loc 1 920 5 is_stmt 0 view .LVU389
 1207 0034 1648     		ldr	r0, .L125+4
 1208              	.LVL87:
 1209              		.loc 1 920 5 view .LVU390
 1210 0036 FFF7FEFF 		bl	HAL_GPIO_Init
 1211              	.LVL88:
 921:Drivers/STM32F7xx_HAL_Driver/Src/stm32f7xx_hal_rcc.c **** 
 922:Drivers/STM32F7xx_HAL_Driver/Src/stm32f7xx_hal_rcc.c ****     /* Mask MCO1 and MCO1PRE[2:0] bits then Select MCO1 clock source and prescaler */
 923:Drivers/STM32F7xx_HAL_Driver/Src/stm32f7xx_hal_rcc.c ****     MODIFY_REG(RCC->CFGR, (RCC_CFGR_MCO1 | RCC_CFGR_MCO1PRE), (RCC_MCOSource | RCC_MCODiv));
 1212              		.loc 1 923 5 is_stmt 1 view .LVU391
 1213 003a B368     		ldr	r3, [r6, #8]
 1214 003c 23F0EC63 		bic	r3, r3, #123731968
 1215 0040 2C43     		orrs	r4, r4, r5
 1216              	.LVL89:
 1217              		.loc 1 923 5 is_stmt 0 view .LVU392
 1218 0042 1C43     		orrs	r4, r4, r3
 1219 0044 B460     		str	r4, [r6, #8]
 1220              	.L121:
 924:Drivers/STM32F7xx_HAL_Driver/Src/stm32f7xx_hal_rcc.c ****   }
 925:Drivers/STM32F7xx_HAL_Driver/Src/stm32f7xx_hal_rcc.c ****   else
 926:Drivers/STM32F7xx_HAL_Driver/Src/stm32f7xx_hal_rcc.c ****   {
ARM GAS  C:\Users\Nina\AppData\Local\Temp\ccnJIoBd.s 			page 42


 927:Drivers/STM32F7xx_HAL_Driver/Src/stm32f7xx_hal_rcc.c ****     assert_param(IS_RCC_MCO2SOURCE(RCC_MCOSource));
 928:Drivers/STM32F7xx_HAL_Driver/Src/stm32f7xx_hal_rcc.c **** 
 929:Drivers/STM32F7xx_HAL_Driver/Src/stm32f7xx_hal_rcc.c ****     /* MCO2 Clock Enable */
 930:Drivers/STM32F7xx_HAL_Driver/Src/stm32f7xx_hal_rcc.c ****     MCO2_CLK_ENABLE();
 931:Drivers/STM32F7xx_HAL_Driver/Src/stm32f7xx_hal_rcc.c **** 
 932:Drivers/STM32F7xx_HAL_Driver/Src/stm32f7xx_hal_rcc.c ****     /* Configure the MCO2 pin in alternate function mode */
 933:Drivers/STM32F7xx_HAL_Driver/Src/stm32f7xx_hal_rcc.c ****     GPIO_InitStruct.Pin = MCO2_PIN;
 934:Drivers/STM32F7xx_HAL_Driver/Src/stm32f7xx_hal_rcc.c ****     GPIO_InitStruct.Mode = GPIO_MODE_AF_PP;
 935:Drivers/STM32F7xx_HAL_Driver/Src/stm32f7xx_hal_rcc.c ****     GPIO_InitStruct.Speed = GPIO_SPEED_HIGH;
 936:Drivers/STM32F7xx_HAL_Driver/Src/stm32f7xx_hal_rcc.c ****     GPIO_InitStruct.Pull = GPIO_NOPULL;
 937:Drivers/STM32F7xx_HAL_Driver/Src/stm32f7xx_hal_rcc.c ****     GPIO_InitStruct.Alternate = GPIO_AF0_MCO;
 938:Drivers/STM32F7xx_HAL_Driver/Src/stm32f7xx_hal_rcc.c ****     HAL_GPIO_Init(MCO2_GPIO_PORT, &GPIO_InitStruct);
 939:Drivers/STM32F7xx_HAL_Driver/Src/stm32f7xx_hal_rcc.c **** 
 940:Drivers/STM32F7xx_HAL_Driver/Src/stm32f7xx_hal_rcc.c ****     /* Mask MCO2 and MCO2PRE[2:0] bits then Select MCO2 clock source and prescaler */
 941:Drivers/STM32F7xx_HAL_Driver/Src/stm32f7xx_hal_rcc.c ****     MODIFY_REG(RCC->CFGR, (RCC_CFGR_MCO2 | RCC_CFGR_MCO2PRE), (RCC_MCOSource | (RCC_MCODiv << 3)));
 942:Drivers/STM32F7xx_HAL_Driver/Src/stm32f7xx_hal_rcc.c ****   }
 943:Drivers/STM32F7xx_HAL_Driver/Src/stm32f7xx_hal_rcc.c **** }
 1221              		.loc 1 943 1 view .LVU393
 1222 0046 08B0     		add	sp, sp, #32
 1223              	.LCFI9:
 1224              		.cfi_remember_state
 1225              		.cfi_def_cfa_offset 16
 1226              		@ sp needed
 1227 0048 70BD     		pop	{r4, r5, r6, pc}
 1228              	.LVL90:
 1229              	.L122:
 1230              	.LCFI10:
 1231              		.cfi_restore_state
 927:Drivers/STM32F7xx_HAL_Driver/Src/stm32f7xx_hal_rcc.c **** 
 1232              		.loc 1 927 5 is_stmt 1 view .LVU394
 930:Drivers/STM32F7xx_HAL_Driver/Src/stm32f7xx_hal_rcc.c **** 
 1233              		.loc 1 930 5 view .LVU395
 1234              	.LBB4:
 930:Drivers/STM32F7xx_HAL_Driver/Src/stm32f7xx_hal_rcc.c **** 
 1235              		.loc 1 930 5 view .LVU396
 930:Drivers/STM32F7xx_HAL_Driver/Src/stm32f7xx_hal_rcc.c **** 
 1236              		.loc 1 930 5 view .LVU397
 1237 004a 104E     		ldr	r6, .L125
 1238 004c 336B     		ldr	r3, [r6, #48]
 1239 004e 43F00403 		orr	r3, r3, #4
 1240 0052 3363     		str	r3, [r6, #48]
 930:Drivers/STM32F7xx_HAL_Driver/Src/stm32f7xx_hal_rcc.c **** 
 1241              		.loc 1 930 5 view .LVU398
 1242 0054 336B     		ldr	r3, [r6, #48]
 1243 0056 03F00403 		and	r3, r3, #4
 1244 005a 0293     		str	r3, [sp, #8]
 930:Drivers/STM32F7xx_HAL_Driver/Src/stm32f7xx_hal_rcc.c **** 
 1245              		.loc 1 930 5 view .LVU399
 1246 005c 029B     		ldr	r3, [sp, #8]
 1247              	.LBE4:
 930:Drivers/STM32F7xx_HAL_Driver/Src/stm32f7xx_hal_rcc.c **** 
 1248              		.loc 1 930 5 view .LVU400
 933:Drivers/STM32F7xx_HAL_Driver/Src/stm32f7xx_hal_rcc.c ****     GPIO_InitStruct.Mode = GPIO_MODE_AF_PP;
 1249              		.loc 1 933 5 view .LVU401
 933:Drivers/STM32F7xx_HAL_Driver/Src/stm32f7xx_hal_rcc.c ****     GPIO_InitStruct.Mode = GPIO_MODE_AF_PP;
 1250              		.loc 1 933 25 is_stmt 0 view .LVU402
 1251 005e 4FF40073 		mov	r3, #512
ARM GAS  C:\Users\Nina\AppData\Local\Temp\ccnJIoBd.s 			page 43


 1252 0062 0393     		str	r3, [sp, #12]
 934:Drivers/STM32F7xx_HAL_Driver/Src/stm32f7xx_hal_rcc.c ****     GPIO_InitStruct.Speed = GPIO_SPEED_HIGH;
 1253              		.loc 1 934 5 is_stmt 1 view .LVU403
 934:Drivers/STM32F7xx_HAL_Driver/Src/stm32f7xx_hal_rcc.c ****     GPIO_InitStruct.Speed = GPIO_SPEED_HIGH;
 1254              		.loc 1 934 26 is_stmt 0 view .LVU404
 1255 0064 0223     		movs	r3, #2
 1256 0066 0493     		str	r3, [sp, #16]
 935:Drivers/STM32F7xx_HAL_Driver/Src/stm32f7xx_hal_rcc.c ****     GPIO_InitStruct.Pull = GPIO_NOPULL;
 1257              		.loc 1 935 5 is_stmt 1 view .LVU405
 935:Drivers/STM32F7xx_HAL_Driver/Src/stm32f7xx_hal_rcc.c ****     GPIO_InitStruct.Pull = GPIO_NOPULL;
 1258              		.loc 1 935 27 is_stmt 0 view .LVU406
 1259 0068 0323     		movs	r3, #3
 1260 006a 0693     		str	r3, [sp, #24]
 936:Drivers/STM32F7xx_HAL_Driver/Src/stm32f7xx_hal_rcc.c ****     GPIO_InitStruct.Alternate = GPIO_AF0_MCO;
 1261              		.loc 1 936 5 is_stmt 1 view .LVU407
 936:Drivers/STM32F7xx_HAL_Driver/Src/stm32f7xx_hal_rcc.c ****     GPIO_InitStruct.Alternate = GPIO_AF0_MCO;
 1262              		.loc 1 936 26 is_stmt 0 view .LVU408
 1263 006c 0023     		movs	r3, #0
 1264 006e 0593     		str	r3, [sp, #20]
 937:Drivers/STM32F7xx_HAL_Driver/Src/stm32f7xx_hal_rcc.c ****     HAL_GPIO_Init(MCO2_GPIO_PORT, &GPIO_InitStruct);
 1265              		.loc 1 937 5 is_stmt 1 view .LVU409
 937:Drivers/STM32F7xx_HAL_Driver/Src/stm32f7xx_hal_rcc.c ****     HAL_GPIO_Init(MCO2_GPIO_PORT, &GPIO_InitStruct);
 1266              		.loc 1 937 31 is_stmt 0 view .LVU410
 1267 0070 0793     		str	r3, [sp, #28]
 938:Drivers/STM32F7xx_HAL_Driver/Src/stm32f7xx_hal_rcc.c **** 
 1268              		.loc 1 938 5 is_stmt 1 view .LVU411
 1269 0072 03A9     		add	r1, sp, #12
 1270              	.LVL91:
 938:Drivers/STM32F7xx_HAL_Driver/Src/stm32f7xx_hal_rcc.c **** 
 1271              		.loc 1 938 5 is_stmt 0 view .LVU412
 1272 0074 0748     		ldr	r0, .L125+8
 1273              	.LVL92:
 938:Drivers/STM32F7xx_HAL_Driver/Src/stm32f7xx_hal_rcc.c **** 
 1274              		.loc 1 938 5 view .LVU413
 1275 0076 FFF7FEFF 		bl	HAL_GPIO_Init
 1276              	.LVL93:
 941:Drivers/STM32F7xx_HAL_Driver/Src/stm32f7xx_hal_rcc.c ****   }
 1277              		.loc 1 941 5 is_stmt 1 view .LVU414
 1278 007a B368     		ldr	r3, [r6, #8]
 1279 007c 23F07843 		bic	r3, r3, #-134217728
 1280 0080 44EAC504 		orr	r4, r4, r5, lsl #3
 1281              	.LVL94:
 941:Drivers/STM32F7xx_HAL_Driver/Src/stm32f7xx_hal_rcc.c ****   }
 1282              		.loc 1 941 5 is_stmt 0 view .LVU415
 1283 0084 1C43     		orrs	r4, r4, r3
 1284 0086 B460     		str	r4, [r6, #8]
 1285              		.loc 1 943 1 view .LVU416
 1286 0088 DDE7     		b	.L121
 1287              	.L126:
 1288 008a 00BF     		.align	2
 1289              	.L125:
 1290 008c 00380240 		.word	1073887232
 1291 0090 00000240 		.word	1073872896
 1292 0094 00080240 		.word	1073874944
 1293              		.cfi_endproc
 1294              	.LFE141:
 1296              		.section	.text.HAL_RCC_EnableCSS,"ax",%progbits
ARM GAS  C:\Users\Nina\AppData\Local\Temp\ccnJIoBd.s 			page 44


 1297              		.align	1
 1298              		.global	HAL_RCC_EnableCSS
 1299              		.syntax unified
 1300              		.thumb
 1301              		.thumb_func
 1302              		.fpu fpv5-sp-d16
 1304              	HAL_RCC_EnableCSS:
 1305              	.LFB142:
 944:Drivers/STM32F7xx_HAL_Driver/Src/stm32f7xx_hal_rcc.c **** 
 945:Drivers/STM32F7xx_HAL_Driver/Src/stm32f7xx_hal_rcc.c **** /**
 946:Drivers/STM32F7xx_HAL_Driver/Src/stm32f7xx_hal_rcc.c ****   * @brief  Enables the Clock Security System.
 947:Drivers/STM32F7xx_HAL_Driver/Src/stm32f7xx_hal_rcc.c ****   * @note   If a failure is detected on the HSE oscillator clock, this oscillator
 948:Drivers/STM32F7xx_HAL_Driver/Src/stm32f7xx_hal_rcc.c ****   *         is automatically disabled and an interrupt is generated to inform the
 949:Drivers/STM32F7xx_HAL_Driver/Src/stm32f7xx_hal_rcc.c ****   *         software about the failure (Clock Security System Interrupt, CSSI),
 950:Drivers/STM32F7xx_HAL_Driver/Src/stm32f7xx_hal_rcc.c ****   *         allowing the MCU to perform rescue operations. The CSSI is linked to
 951:Drivers/STM32F7xx_HAL_Driver/Src/stm32f7xx_hal_rcc.c ****   *         the Cortex-M7 NMI (Non-Maskable Interrupt) exception vector.
 952:Drivers/STM32F7xx_HAL_Driver/Src/stm32f7xx_hal_rcc.c ****   * @retval None
 953:Drivers/STM32F7xx_HAL_Driver/Src/stm32f7xx_hal_rcc.c ****   */
 954:Drivers/STM32F7xx_HAL_Driver/Src/stm32f7xx_hal_rcc.c **** void HAL_RCC_EnableCSS(void)
 955:Drivers/STM32F7xx_HAL_Driver/Src/stm32f7xx_hal_rcc.c **** {
 1306              		.loc 1 955 1 is_stmt 1 view -0
 1307              		.cfi_startproc
 1308              		@ args = 0, pretend = 0, frame = 0
 1309              		@ frame_needed = 0, uses_anonymous_args = 0
 1310              		@ link register save eliminated.
 956:Drivers/STM32F7xx_HAL_Driver/Src/stm32f7xx_hal_rcc.c ****   SET_BIT(RCC->CR, RCC_CR_CSSON);
 1311              		.loc 1 956 3 view .LVU418
 1312 0000 024A     		ldr	r2, .L128
 1313 0002 1368     		ldr	r3, [r2]
 1314 0004 43F40023 		orr	r3, r3, #524288
 1315 0008 1360     		str	r3, [r2]
 957:Drivers/STM32F7xx_HAL_Driver/Src/stm32f7xx_hal_rcc.c **** }
 1316              		.loc 1 957 1 is_stmt 0 view .LVU419
 1317 000a 7047     		bx	lr
 1318              	.L129:
 1319              		.align	2
 1320              	.L128:
 1321 000c 00380240 		.word	1073887232
 1322              		.cfi_endproc
 1323              	.LFE142:
 1325              		.section	.text.HAL_RCC_DisableCSS,"ax",%progbits
 1326              		.align	1
 1327              		.global	HAL_RCC_DisableCSS
 1328              		.syntax unified
 1329              		.thumb
 1330              		.thumb_func
 1331              		.fpu fpv5-sp-d16
 1333              	HAL_RCC_DisableCSS:
 1334              	.LFB143:
 958:Drivers/STM32F7xx_HAL_Driver/Src/stm32f7xx_hal_rcc.c **** 
 959:Drivers/STM32F7xx_HAL_Driver/Src/stm32f7xx_hal_rcc.c **** /**
 960:Drivers/STM32F7xx_HAL_Driver/Src/stm32f7xx_hal_rcc.c ****   * @brief  Disables the Clock Security System.
 961:Drivers/STM32F7xx_HAL_Driver/Src/stm32f7xx_hal_rcc.c ****   * @retval None
 962:Drivers/STM32F7xx_HAL_Driver/Src/stm32f7xx_hal_rcc.c ****   */
 963:Drivers/STM32F7xx_HAL_Driver/Src/stm32f7xx_hal_rcc.c **** void HAL_RCC_DisableCSS(void)
 964:Drivers/STM32F7xx_HAL_Driver/Src/stm32f7xx_hal_rcc.c **** {
 1335              		.loc 1 964 1 is_stmt 1 view -0
ARM GAS  C:\Users\Nina\AppData\Local\Temp\ccnJIoBd.s 			page 45


 1336              		.cfi_startproc
 1337              		@ args = 0, pretend = 0, frame = 0
 1338              		@ frame_needed = 0, uses_anonymous_args = 0
 1339              		@ link register save eliminated.
 965:Drivers/STM32F7xx_HAL_Driver/Src/stm32f7xx_hal_rcc.c ****   CLEAR_BIT(RCC->CR, RCC_CR_CSSON);
 1340              		.loc 1 965 3 view .LVU421
 1341 0000 024A     		ldr	r2, .L131
 1342 0002 1368     		ldr	r3, [r2]
 1343 0004 23F40023 		bic	r3, r3, #524288
 1344 0008 1360     		str	r3, [r2]
 966:Drivers/STM32F7xx_HAL_Driver/Src/stm32f7xx_hal_rcc.c **** }
 1345              		.loc 1 966 1 is_stmt 0 view .LVU422
 1346 000a 7047     		bx	lr
 1347              	.L132:
 1348              		.align	2
 1349              	.L131:
 1350 000c 00380240 		.word	1073887232
 1351              		.cfi_endproc
 1352              	.LFE143:
 1354              		.global	__aeabi_uldivmod
 1355              		.section	.text.HAL_RCC_GetSysClockFreq,"ax",%progbits
 1356              		.align	1
 1357              		.global	HAL_RCC_GetSysClockFreq
 1358              		.syntax unified
 1359              		.thumb
 1360              		.thumb_func
 1361              		.fpu fpv5-sp-d16
 1363              	HAL_RCC_GetSysClockFreq:
 1364              	.LFB144:
 967:Drivers/STM32F7xx_HAL_Driver/Src/stm32f7xx_hal_rcc.c **** 
 968:Drivers/STM32F7xx_HAL_Driver/Src/stm32f7xx_hal_rcc.c **** /**
 969:Drivers/STM32F7xx_HAL_Driver/Src/stm32f7xx_hal_rcc.c ****   * @brief  Returns the SYSCLK frequency
 970:Drivers/STM32F7xx_HAL_Driver/Src/stm32f7xx_hal_rcc.c ****   *
 971:Drivers/STM32F7xx_HAL_Driver/Src/stm32f7xx_hal_rcc.c ****   * @note   The system frequency computed by this function is not the real
 972:Drivers/STM32F7xx_HAL_Driver/Src/stm32f7xx_hal_rcc.c ****   *         frequency in the chip. It is calculated based on the predefined
 973:Drivers/STM32F7xx_HAL_Driver/Src/stm32f7xx_hal_rcc.c ****   *         constant and the selected clock source:
 974:Drivers/STM32F7xx_HAL_Driver/Src/stm32f7xx_hal_rcc.c ****   * @note     If SYSCLK source is HSI, function returns values based on HSI_VALUE(*)
 975:Drivers/STM32F7xx_HAL_Driver/Src/stm32f7xx_hal_rcc.c ****   * @note     If SYSCLK source is HSE, function returns values based on HSE_VALUE(**)
 976:Drivers/STM32F7xx_HAL_Driver/Src/stm32f7xx_hal_rcc.c ****   * @note     If SYSCLK source is PLL, function returns values based on HSE_VALUE(**)
 977:Drivers/STM32F7xx_HAL_Driver/Src/stm32f7xx_hal_rcc.c ****   *           or HSI_VALUE(*) multiplied/divided by the PLL factors.
 978:Drivers/STM32F7xx_HAL_Driver/Src/stm32f7xx_hal_rcc.c ****   * @note     (*) HSI_VALUE is a constant defined in stm32f7xx_hal_conf.h file (default value
 979:Drivers/STM32F7xx_HAL_Driver/Src/stm32f7xx_hal_rcc.c ****   *               16 MHz) but the real value may vary depending on the variations
 980:Drivers/STM32F7xx_HAL_Driver/Src/stm32f7xx_hal_rcc.c ****   *               in voltage and temperature.
 981:Drivers/STM32F7xx_HAL_Driver/Src/stm32f7xx_hal_rcc.c ****   * @note     (**) HSE_VALUE is a constant defined in stm32f7xx_hal_conf.h file (default value
 982:Drivers/STM32F7xx_HAL_Driver/Src/stm32f7xx_hal_rcc.c ****   *                25 MHz), user has to ensure that HSE_VALUE is same as the real
 983:Drivers/STM32F7xx_HAL_Driver/Src/stm32f7xx_hal_rcc.c ****   *                frequency of the crystal used. Otherwise, this function may
 984:Drivers/STM32F7xx_HAL_Driver/Src/stm32f7xx_hal_rcc.c ****   *                have wrong result.
 985:Drivers/STM32F7xx_HAL_Driver/Src/stm32f7xx_hal_rcc.c ****   *
 986:Drivers/STM32F7xx_HAL_Driver/Src/stm32f7xx_hal_rcc.c ****   * @note   The result of this function could be not correct when using fractional
 987:Drivers/STM32F7xx_HAL_Driver/Src/stm32f7xx_hal_rcc.c ****   *         value for HSE crystal.
 988:Drivers/STM32F7xx_HAL_Driver/Src/stm32f7xx_hal_rcc.c ****   *
 989:Drivers/STM32F7xx_HAL_Driver/Src/stm32f7xx_hal_rcc.c ****   * @note   This function can be used by the user application to compute the
 990:Drivers/STM32F7xx_HAL_Driver/Src/stm32f7xx_hal_rcc.c ****   *         baudrate for the communication peripherals or configure other parameters.
 991:Drivers/STM32F7xx_HAL_Driver/Src/stm32f7xx_hal_rcc.c ****   *
 992:Drivers/STM32F7xx_HAL_Driver/Src/stm32f7xx_hal_rcc.c ****   * @note   Each time SYSCLK changes, this function must be called to update the
 993:Drivers/STM32F7xx_HAL_Driver/Src/stm32f7xx_hal_rcc.c ****   *         right SYSCLK value. Otherwise, any configuration based on this function will be incorre
 994:Drivers/STM32F7xx_HAL_Driver/Src/stm32f7xx_hal_rcc.c ****   *
ARM GAS  C:\Users\Nina\AppData\Local\Temp\ccnJIoBd.s 			page 46


 995:Drivers/STM32F7xx_HAL_Driver/Src/stm32f7xx_hal_rcc.c ****   *
 996:Drivers/STM32F7xx_HAL_Driver/Src/stm32f7xx_hal_rcc.c ****   * @retval SYSCLK frequency
 997:Drivers/STM32F7xx_HAL_Driver/Src/stm32f7xx_hal_rcc.c ****   */
 998:Drivers/STM32F7xx_HAL_Driver/Src/stm32f7xx_hal_rcc.c **** uint32_t HAL_RCC_GetSysClockFreq(void)
 999:Drivers/STM32F7xx_HAL_Driver/Src/stm32f7xx_hal_rcc.c **** {
 1365              		.loc 1 999 1 is_stmt 1 view -0
 1366              		.cfi_startproc
 1367              		@ args = 0, pretend = 0, frame = 0
 1368              		@ frame_needed = 0, uses_anonymous_args = 0
 1369 0000 F8B5     		push	{r3, r4, r5, r6, r7, lr}
 1370              	.LCFI11:
 1371              		.cfi_def_cfa_offset 24
 1372              		.cfi_offset 3, -24
 1373              		.cfi_offset 4, -20
 1374              		.cfi_offset 5, -16
 1375              		.cfi_offset 6, -12
 1376              		.cfi_offset 7, -8
 1377              		.cfi_offset 14, -4
1000:Drivers/STM32F7xx_HAL_Driver/Src/stm32f7xx_hal_rcc.c ****   uint32_t pllm = 0, pllvco = 0, pllp = 0;
 1378              		.loc 1 1000 3 view .LVU424
 1379              	.LVL95:
1001:Drivers/STM32F7xx_HAL_Driver/Src/stm32f7xx_hal_rcc.c ****   uint32_t sysclockfreq = 0;
 1380              		.loc 1 1001 3 view .LVU425
1002:Drivers/STM32F7xx_HAL_Driver/Src/stm32f7xx_hal_rcc.c **** 
1003:Drivers/STM32F7xx_HAL_Driver/Src/stm32f7xx_hal_rcc.c ****   /* Get SYSCLK source -------------------------------------------------------*/
1004:Drivers/STM32F7xx_HAL_Driver/Src/stm32f7xx_hal_rcc.c ****   switch (RCC->CFGR & RCC_CFGR_SWS)
 1381              		.loc 1 1004 3 view .LVU426
 1382              		.loc 1 1004 14 is_stmt 0 view .LVU427
 1383 0002 244B     		ldr	r3, .L140
 1384 0004 9B68     		ldr	r3, [r3, #8]
 1385              		.loc 1 1004 21 view .LVU428
 1386 0006 03F00C03 		and	r3, r3, #12
 1387              		.loc 1 1004 3 view .LVU429
 1388 000a 042B     		cmp	r3, #4
 1389 000c 3DD0     		beq	.L137
 1390 000e 082B     		cmp	r3, #8
 1391 0010 3DD1     		bne	.L138
1005:Drivers/STM32F7xx_HAL_Driver/Src/stm32f7xx_hal_rcc.c ****   {
1006:Drivers/STM32F7xx_HAL_Driver/Src/stm32f7xx_hal_rcc.c ****     case RCC_SYSCLKSOURCE_STATUS_HSI:  /* HSI used as system clock source */
1007:Drivers/STM32F7xx_HAL_Driver/Src/stm32f7xx_hal_rcc.c ****     {
1008:Drivers/STM32F7xx_HAL_Driver/Src/stm32f7xx_hal_rcc.c ****       sysclockfreq = HSI_VALUE;
1009:Drivers/STM32F7xx_HAL_Driver/Src/stm32f7xx_hal_rcc.c ****        break;
1010:Drivers/STM32F7xx_HAL_Driver/Src/stm32f7xx_hal_rcc.c ****     }
1011:Drivers/STM32F7xx_HAL_Driver/Src/stm32f7xx_hal_rcc.c ****     case RCC_SYSCLKSOURCE_STATUS_HSE:  /* HSE used as system clock  source */
1012:Drivers/STM32F7xx_HAL_Driver/Src/stm32f7xx_hal_rcc.c ****     {
1013:Drivers/STM32F7xx_HAL_Driver/Src/stm32f7xx_hal_rcc.c ****       sysclockfreq = HSE_VALUE;
1014:Drivers/STM32F7xx_HAL_Driver/Src/stm32f7xx_hal_rcc.c ****       break;
1015:Drivers/STM32F7xx_HAL_Driver/Src/stm32f7xx_hal_rcc.c ****     }
1016:Drivers/STM32F7xx_HAL_Driver/Src/stm32f7xx_hal_rcc.c ****     case RCC_SYSCLKSOURCE_STATUS_PLLCLK:  /* PLL used as system clock  source */
1017:Drivers/STM32F7xx_HAL_Driver/Src/stm32f7xx_hal_rcc.c ****     {
1018:Drivers/STM32F7xx_HAL_Driver/Src/stm32f7xx_hal_rcc.c ****       /* PLL_VCO = (HSE_VALUE or HSI_VALUE / PLLM) * PLLN
1019:Drivers/STM32F7xx_HAL_Driver/Src/stm32f7xx_hal_rcc.c ****       SYSCLK = PLL_VCO / PLLP */
1020:Drivers/STM32F7xx_HAL_Driver/Src/stm32f7xx_hal_rcc.c ****       pllm = RCC->PLLCFGR & RCC_PLLCFGR_PLLM;
 1392              		.loc 1 1020 7 is_stmt 1 view .LVU430
 1393              		.loc 1 1020 17 is_stmt 0 view .LVU431
 1394 0012 204B     		ldr	r3, .L140
 1395 0014 5A68     		ldr	r2, [r3, #4]
ARM GAS  C:\Users\Nina\AppData\Local\Temp\ccnJIoBd.s 			page 47


 1396              		.loc 1 1020 12 view .LVU432
 1397 0016 02F03F02 		and	r2, r2, #63
 1398              	.LVL96:
1021:Drivers/STM32F7xx_HAL_Driver/Src/stm32f7xx_hal_rcc.c ****       if (__HAL_RCC_GET_PLL_OSCSOURCE() != RCC_PLLCFGR_PLLSRC_HSI)
 1399              		.loc 1 1021 7 is_stmt 1 view .LVU433
 1400              		.loc 1 1021 11 is_stmt 0 view .LVU434
 1401 001a 5B68     		ldr	r3, [r3, #4]
 1402              		.loc 1 1021 10 view .LVU435
 1403 001c 13F4800F 		tst	r3, #4194304
 1404 0020 12D0     		beq	.L135
1022:Drivers/STM32F7xx_HAL_Driver/Src/stm32f7xx_hal_rcc.c ****       {
1023:Drivers/STM32F7xx_HAL_Driver/Src/stm32f7xx_hal_rcc.c ****         /* HSE used as PLL clock source */
1024:Drivers/STM32F7xx_HAL_Driver/Src/stm32f7xx_hal_rcc.c ****         pllvco = (uint32_t) ((((uint64_t) HSE_VALUE * ((uint64_t) ((RCC->PLLCFGR & RCC_PLLCFGR_PLLN
 1405              		.loc 1 1024 9 is_stmt 1 view .LVU436
 1406              		.loc 1 1024 72 is_stmt 0 view .LVU437
 1407 0022 1C4B     		ldr	r3, .L140
 1408 0024 5968     		ldr	r1, [r3, #4]
 1409              		.loc 1 1024 56 view .LVU438
 1410 0026 C1F38811 		ubfx	r1, r1, #6, #9
 1411              		.loc 1 1024 130 view .LVU439
 1412 002a 0023     		movs	r3, #0
 1413 002c 1A48     		ldr	r0, .L140+4
 1414 002e A1FB0001 		umull	r0, r1, r1, r0
 1415 0032 FFF7FEFF 		bl	__aeabi_uldivmod
 1416              	.LVL97:
 1417              	.L136:
1025:Drivers/STM32F7xx_HAL_Driver/Src/stm32f7xx_hal_rcc.c ****       }
1026:Drivers/STM32F7xx_HAL_Driver/Src/stm32f7xx_hal_rcc.c ****       else
1027:Drivers/STM32F7xx_HAL_Driver/Src/stm32f7xx_hal_rcc.c ****       {
1028:Drivers/STM32F7xx_HAL_Driver/Src/stm32f7xx_hal_rcc.c ****         /* HSI used as PLL clock source */
1029:Drivers/STM32F7xx_HAL_Driver/Src/stm32f7xx_hal_rcc.c ****         pllvco = (uint32_t) ((((uint64_t) HSI_VALUE * ((uint64_t) ((RCC->PLLCFGR & RCC_PLLCFGR_PLLN
1030:Drivers/STM32F7xx_HAL_Driver/Src/stm32f7xx_hal_rcc.c ****       }
1031:Drivers/STM32F7xx_HAL_Driver/Src/stm32f7xx_hal_rcc.c ****       pllp = ((((RCC->PLLCFGR & RCC_PLLCFGR_PLLP) >> RCC_PLLCFGR_PLLP_Pos) + 1 ) *2);
 1418              		.loc 1 1031 7 is_stmt 1 view .LVU440
 1419              		.loc 1 1031 21 is_stmt 0 view .LVU441
 1420 0036 174B     		ldr	r3, .L140
 1421 0038 5B68     		ldr	r3, [r3, #4]
 1422              		.loc 1 1031 51 view .LVU442
 1423 003a C3F30143 		ubfx	r3, r3, #16, #2
 1424              		.loc 1 1031 76 view .LVU443
 1425 003e 0133     		adds	r3, r3, #1
 1426              		.loc 1 1031 12 view .LVU444
 1427 0040 5B00     		lsls	r3, r3, #1
 1428              	.LVL98:
1032:Drivers/STM32F7xx_HAL_Driver/Src/stm32f7xx_hal_rcc.c **** 
1033:Drivers/STM32F7xx_HAL_Driver/Src/stm32f7xx_hal_rcc.c ****       sysclockfreq = pllvco/pllp;
 1429              		.loc 1 1033 7 is_stmt 1 view .LVU445
 1430              		.loc 1 1033 20 is_stmt 0 view .LVU446
 1431 0042 B0FBF3F0 		udiv	r0, r0, r3
 1432              	.LVL99:
1034:Drivers/STM32F7xx_HAL_Driver/Src/stm32f7xx_hal_rcc.c ****       break;
 1433              		.loc 1 1034 7 is_stmt 1 view .LVU447
 1434 0046 23E0     		b	.L133
 1435              	.LVL100:
 1436              	.L135:
1029:Drivers/STM32F7xx_HAL_Driver/Src/stm32f7xx_hal_rcc.c ****       }
 1437              		.loc 1 1029 9 view .LVU448
ARM GAS  C:\Users\Nina\AppData\Local\Temp\ccnJIoBd.s 			page 48


1029:Drivers/STM32F7xx_HAL_Driver/Src/stm32f7xx_hal_rcc.c ****       }
 1438              		.loc 1 1029 72 is_stmt 0 view .LVU449
 1439 0048 124B     		ldr	r3, .L140
 1440 004a 5B68     		ldr	r3, [r3, #4]
1029:Drivers/STM32F7xx_HAL_Driver/Src/stm32f7xx_hal_rcc.c ****       }
 1441              		.loc 1 1029 56 view .LVU450
 1442 004c C3F38813 		ubfx	r3, r3, #6, #9
1029:Drivers/STM32F7xx_HAL_Driver/Src/stm32f7xx_hal_rcc.c ****       }
 1443              		.loc 1 1029 53 view .LVU451
 1444 0050 5C01     		lsls	r4, r3, #5
 1445 0052 0025     		movs	r5, #0
 1446 0054 E41A     		subs	r4, r4, r3
 1447 0056 65F10005 		sbc	r5, r5, #0
 1448 005a AE01     		lsls	r6, r5, #6
 1449 005c 46EA9466 		orr	r6, r6, r4, lsr #26
 1450 0060 A701     		lsls	r7, r4, #6
 1451 0062 381B     		subs	r0, r7, r4
 1452 0064 66EB0501 		sbc	r1, r6, r5
 1453 0068 CC00     		lsls	r4, r1, #3
 1454 006a 44EA5074 		orr	r4, r4, r0, lsr #29
 1455 006e C500     		lsls	r5, r0, #3
 1456 0070 E818     		adds	r0, r5, r3
 1457 0072 44F10001 		adc	r1, r4, #0
 1458 0076 8B02     		lsls	r3, r1, #10
 1459 0078 43EA9053 		orr	r3, r3, r0, lsr #22
 1460 007c 8402     		lsls	r4, r0, #10
 1461 007e 2046     		mov	r0, r4
 1462 0080 1946     		mov	r1, r3
1029:Drivers/STM32F7xx_HAL_Driver/Src/stm32f7xx_hal_rcc.c ****       }
 1463              		.loc 1 1029 130 view .LVU452
 1464 0082 0023     		movs	r3, #0
 1465 0084 FFF7FEFF 		bl	__aeabi_uldivmod
 1466              	.LVL101:
1029:Drivers/STM32F7xx_HAL_Driver/Src/stm32f7xx_hal_rcc.c ****       }
 1467              		.loc 1 1029 130 view .LVU453
 1468 0088 D5E7     		b	.L136
 1469              	.LVL102:
 1470              	.L137:
1013:Drivers/STM32F7xx_HAL_Driver/Src/stm32f7xx_hal_rcc.c ****       break;
 1471              		.loc 1 1013 20 view .LVU454
 1472 008a 0348     		ldr	r0, .L140+4
 1473 008c 00E0     		b	.L133
 1474              	.L138:
1004:Drivers/STM32F7xx_HAL_Driver/Src/stm32f7xx_hal_rcc.c ****   {
 1475              		.loc 1 1004 3 view .LVU455
 1476 008e 0348     		ldr	r0, .L140+8
 1477              	.LVL103:
1035:Drivers/STM32F7xx_HAL_Driver/Src/stm32f7xx_hal_rcc.c ****     }
1036:Drivers/STM32F7xx_HAL_Driver/Src/stm32f7xx_hal_rcc.c ****     default:
1037:Drivers/STM32F7xx_HAL_Driver/Src/stm32f7xx_hal_rcc.c ****     {
1038:Drivers/STM32F7xx_HAL_Driver/Src/stm32f7xx_hal_rcc.c ****       sysclockfreq = HSI_VALUE;
1039:Drivers/STM32F7xx_HAL_Driver/Src/stm32f7xx_hal_rcc.c ****       break;
1040:Drivers/STM32F7xx_HAL_Driver/Src/stm32f7xx_hal_rcc.c ****     }
1041:Drivers/STM32F7xx_HAL_Driver/Src/stm32f7xx_hal_rcc.c ****   }
1042:Drivers/STM32F7xx_HAL_Driver/Src/stm32f7xx_hal_rcc.c ****   return sysclockfreq;
 1478              		.loc 1 1042 3 is_stmt 1 view .LVU456
 1479              	.L133:
ARM GAS  C:\Users\Nina\AppData\Local\Temp\ccnJIoBd.s 			page 49


1043:Drivers/STM32F7xx_HAL_Driver/Src/stm32f7xx_hal_rcc.c **** }
 1480              		.loc 1 1043 1 is_stmt 0 view .LVU457
 1481 0090 F8BD     		pop	{r3, r4, r5, r6, r7, pc}
 1482              	.L141:
 1483 0092 00BF     		.align	2
 1484              	.L140:
 1485 0094 00380240 		.word	1073887232
 1486 0098 40787D01 		.word	25000000
 1487 009c 0024F400 		.word	16000000
 1488              		.cfi_endproc
 1489              	.LFE144:
 1491              		.section	.text.HAL_RCC_ClockConfig,"ax",%progbits
 1492              		.align	1
 1493              		.global	HAL_RCC_ClockConfig
 1494              		.syntax unified
 1495              		.thumb
 1496              		.thumb_func
 1497              		.fpu fpv5-sp-d16
 1499              	HAL_RCC_ClockConfig:
 1500              	.LVL104:
 1501              	.LFB140:
 720:Drivers/STM32F7xx_HAL_Driver/Src/stm32f7xx_hal_rcc.c ****   uint32_t tickstart = 0;
 1502              		.loc 1 720 1 is_stmt 1 view -0
 1503              		.cfi_startproc
 1504              		@ args = 0, pretend = 0, frame = 0
 1505              		@ frame_needed = 0, uses_anonymous_args = 0
 721:Drivers/STM32F7xx_HAL_Driver/Src/stm32f7xx_hal_rcc.c **** 
 1506              		.loc 1 721 3 view .LVU459
 724:Drivers/STM32F7xx_HAL_Driver/Src/stm32f7xx_hal_rcc.c ****   {
 1507              		.loc 1 724 3 view .LVU460
 724:Drivers/STM32F7xx_HAL_Driver/Src/stm32f7xx_hal_rcc.c ****   {
 1508              		.loc 1 724 5 is_stmt 0 view .LVU461
 1509 0000 0028     		cmp	r0, #0
 1510 0002 00F09F80 		beq	.L157
 720:Drivers/STM32F7xx_HAL_Driver/Src/stm32f7xx_hal_rcc.c ****   uint32_t tickstart = 0;
 1511              		.loc 1 720 1 view .LVU462
 1512 0006 70B5     		push	{r4, r5, r6, lr}
 1513              	.LCFI12:
 1514              		.cfi_def_cfa_offset 16
 1515              		.cfi_offset 4, -16
 1516              		.cfi_offset 5, -12
 1517              		.cfi_offset 6, -8
 1518              		.cfi_offset 14, -4
 1519 0008 0D46     		mov	r5, r1
 1520 000a 0446     		mov	r4, r0
 730:Drivers/STM32F7xx_HAL_Driver/Src/stm32f7xx_hal_rcc.c ****   assert_param(IS_FLASH_LATENCY(FLatency));
 1521              		.loc 1 730 3 is_stmt 1 view .LVU463
 731:Drivers/STM32F7xx_HAL_Driver/Src/stm32f7xx_hal_rcc.c **** 
 1522              		.loc 1 731 3 view .LVU464
 738:Drivers/STM32F7xx_HAL_Driver/Src/stm32f7xx_hal_rcc.c ****   {
 1523              		.loc 1 738 3 view .LVU465
 738:Drivers/STM32F7xx_HAL_Driver/Src/stm32f7xx_hal_rcc.c ****   {
 1524              		.loc 1 738 17 is_stmt 0 view .LVU466
 1525 000c 514B     		ldr	r3, .L170
 1526 000e 1B68     		ldr	r3, [r3]
 1527 0010 03F00F03 		and	r3, r3, #15
 738:Drivers/STM32F7xx_HAL_Driver/Src/stm32f7xx_hal_rcc.c ****   {
ARM GAS  C:\Users\Nina\AppData\Local\Temp\ccnJIoBd.s 			page 50


 1528              		.loc 1 738 5 view .LVU467
 1529 0014 8B42     		cmp	r3, r1
 1530 0016 0BD2     		bcs	.L144
 741:Drivers/STM32F7xx_HAL_Driver/Src/stm32f7xx_hal_rcc.c **** 
 1531              		.loc 1 741 5 is_stmt 1 view .LVU468
 1532 0018 4E4A     		ldr	r2, .L170
 1533 001a 1368     		ldr	r3, [r2]
 1534 001c 23F00F03 		bic	r3, r3, #15
 1535 0020 0B43     		orrs	r3, r3, r1
 1536 0022 1360     		str	r3, [r2]
 745:Drivers/STM32F7xx_HAL_Driver/Src/stm32f7xx_hal_rcc.c ****     {
 1537              		.loc 1 745 5 view .LVU469
 745:Drivers/STM32F7xx_HAL_Driver/Src/stm32f7xx_hal_rcc.c ****     {
 1538              		.loc 1 745 8 is_stmt 0 view .LVU470
 1539 0024 1368     		ldr	r3, [r2]
 1540 0026 03F00F03 		and	r3, r3, #15
 745:Drivers/STM32F7xx_HAL_Driver/Src/stm32f7xx_hal_rcc.c ****     {
 1541              		.loc 1 745 7 view .LVU471
 1542 002a 8B42     		cmp	r3, r1
 1543 002c 40F08C80 		bne	.L158
 1544              	.L144:
 752:Drivers/STM32F7xx_HAL_Driver/Src/stm32f7xx_hal_rcc.c ****   {
 1545              		.loc 1 752 3 is_stmt 1 view .LVU472
 752:Drivers/STM32F7xx_HAL_Driver/Src/stm32f7xx_hal_rcc.c ****   {
 1546              		.loc 1 752 25 is_stmt 0 view .LVU473
 1547 0030 2368     		ldr	r3, [r4]
 752:Drivers/STM32F7xx_HAL_Driver/Src/stm32f7xx_hal_rcc.c ****   {
 1548              		.loc 1 752 5 view .LVU474
 1549 0032 13F0020F 		tst	r3, #2
 1550 0036 17D0     		beq	.L145
 756:Drivers/STM32F7xx_HAL_Driver/Src/stm32f7xx_hal_rcc.c ****     {
 1551              		.loc 1 756 5 is_stmt 1 view .LVU475
 756:Drivers/STM32F7xx_HAL_Driver/Src/stm32f7xx_hal_rcc.c ****     {
 1552              		.loc 1 756 7 is_stmt 0 view .LVU476
 1553 0038 13F0040F 		tst	r3, #4
 1554 003c 04D0     		beq	.L146
 758:Drivers/STM32F7xx_HAL_Driver/Src/stm32f7xx_hal_rcc.c ****     }
 1555              		.loc 1 758 7 is_stmt 1 view .LVU477
 1556 003e 464A     		ldr	r2, .L170+4
 1557 0040 9368     		ldr	r3, [r2, #8]
 1558 0042 43F4E053 		orr	r3, r3, #7168
 1559 0046 9360     		str	r3, [r2, #8]
 1560              	.L146:
 761:Drivers/STM32F7xx_HAL_Driver/Src/stm32f7xx_hal_rcc.c ****     {
 1561              		.loc 1 761 5 view .LVU478
 761:Drivers/STM32F7xx_HAL_Driver/Src/stm32f7xx_hal_rcc.c ****     {
 1562              		.loc 1 761 27 is_stmt 0 view .LVU479
 1563 0048 2368     		ldr	r3, [r4]
 761:Drivers/STM32F7xx_HAL_Driver/Src/stm32f7xx_hal_rcc.c ****     {
 1564              		.loc 1 761 7 view .LVU480
 1565 004a 13F0080F 		tst	r3, #8
 1566 004e 04D0     		beq	.L147
 763:Drivers/STM32F7xx_HAL_Driver/Src/stm32f7xx_hal_rcc.c ****     }
 1567              		.loc 1 763 7 is_stmt 1 view .LVU481
 1568 0050 414A     		ldr	r2, .L170+4
 1569 0052 9368     		ldr	r3, [r2, #8]
 1570 0054 43F46043 		orr	r3, r3, #57344
ARM GAS  C:\Users\Nina\AppData\Local\Temp\ccnJIoBd.s 			page 51


 1571 0058 9360     		str	r3, [r2, #8]
 1572              	.L147:
 767:Drivers/STM32F7xx_HAL_Driver/Src/stm32f7xx_hal_rcc.c ****     MODIFY_REG(RCC->CFGR, RCC_CFGR_HPRE, RCC_ClkInitStruct->AHBCLKDivider);
 1573              		.loc 1 767 5 view .LVU482
 768:Drivers/STM32F7xx_HAL_Driver/Src/stm32f7xx_hal_rcc.c ****   }
 1574              		.loc 1 768 5 view .LVU483
 1575 005a 3F4A     		ldr	r2, .L170+4
 1576 005c 9368     		ldr	r3, [r2, #8]
 1577 005e 23F0F003 		bic	r3, r3, #240
 1578 0062 A168     		ldr	r1, [r4, #8]
 1579              	.LVL105:
 768:Drivers/STM32F7xx_HAL_Driver/Src/stm32f7xx_hal_rcc.c ****   }
 1580              		.loc 1 768 5 is_stmt 0 view .LVU484
 1581 0064 0B43     		orrs	r3, r3, r1
 1582 0066 9360     		str	r3, [r2, #8]
 1583              	.L145:
 772:Drivers/STM32F7xx_HAL_Driver/Src/stm32f7xx_hal_rcc.c ****   {
 1584              		.loc 1 772 3 is_stmt 1 view .LVU485
 772:Drivers/STM32F7xx_HAL_Driver/Src/stm32f7xx_hal_rcc.c ****   {
 1585              		.loc 1 772 25 is_stmt 0 view .LVU486
 1586 0068 2368     		ldr	r3, [r4]
 772:Drivers/STM32F7xx_HAL_Driver/Src/stm32f7xx_hal_rcc.c ****   {
 1587              		.loc 1 772 5 view .LVU487
 1588 006a 13F0010F 		tst	r3, #1
 1589 006e 31D0     		beq	.L148
 774:Drivers/STM32F7xx_HAL_Driver/Src/stm32f7xx_hal_rcc.c **** 
 1590              		.loc 1 774 5 is_stmt 1 view .LVU488
 777:Drivers/STM32F7xx_HAL_Driver/Src/stm32f7xx_hal_rcc.c ****     {
 1591              		.loc 1 777 5 view .LVU489
 777:Drivers/STM32F7xx_HAL_Driver/Src/stm32f7xx_hal_rcc.c ****     {
 1592              		.loc 1 777 25 is_stmt 0 view .LVU490
 1593 0070 6368     		ldr	r3, [r4, #4]
 777:Drivers/STM32F7xx_HAL_Driver/Src/stm32f7xx_hal_rcc.c ****     {
 1594              		.loc 1 777 7 view .LVU491
 1595 0072 012B     		cmp	r3, #1
 1596 0074 20D0     		beq	.L168
 786:Drivers/STM32F7xx_HAL_Driver/Src/stm32f7xx_hal_rcc.c ****     {
 1597              		.loc 1 786 10 is_stmt 1 view .LVU492
 786:Drivers/STM32F7xx_HAL_Driver/Src/stm32f7xx_hal_rcc.c ****     {
 1598              		.loc 1 786 12 is_stmt 0 view .LVU493
 1599 0076 022B     		cmp	r3, #2
 1600 0078 25D0     		beq	.L169
 798:Drivers/STM32F7xx_HAL_Driver/Src/stm32f7xx_hal_rcc.c ****       {
 1601              		.loc 1 798 7 is_stmt 1 view .LVU494
 798:Drivers/STM32F7xx_HAL_Driver/Src/stm32f7xx_hal_rcc.c ****       {
 1602              		.loc 1 798 10 is_stmt 0 view .LVU495
 1603 007a 374A     		ldr	r2, .L170+4
 1604 007c 1268     		ldr	r2, [r2]
 798:Drivers/STM32F7xx_HAL_Driver/Src/stm32f7xx_hal_rcc.c ****       {
 1605              		.loc 1 798 9 view .LVU496
 1606 007e 12F0020F 		tst	r2, #2
 1607 0082 63D0     		beq	.L161
 1608              	.L150:
 804:Drivers/STM32F7xx_HAL_Driver/Src/stm32f7xx_hal_rcc.c **** 
 1609              		.loc 1 804 5 is_stmt 1 view .LVU497
 1610 0084 3449     		ldr	r1, .L170+4
 1611 0086 8A68     		ldr	r2, [r1, #8]
ARM GAS  C:\Users\Nina\AppData\Local\Temp\ccnJIoBd.s 			page 52


 1612 0088 22F00302 		bic	r2, r2, #3
 1613 008c 1343     		orrs	r3, r3, r2
 1614 008e 8B60     		str	r3, [r1, #8]
 807:Drivers/STM32F7xx_HAL_Driver/Src/stm32f7xx_hal_rcc.c **** 
 1615              		.loc 1 807 5 view .LVU498
 807:Drivers/STM32F7xx_HAL_Driver/Src/stm32f7xx_hal_rcc.c **** 
 1616              		.loc 1 807 17 is_stmt 0 view .LVU499
 1617 0090 FFF7FEFF 		bl	HAL_GetTick
 1618              	.LVL106:
 807:Drivers/STM32F7xx_HAL_Driver/Src/stm32f7xx_hal_rcc.c **** 
 1619              		.loc 1 807 17 view .LVU500
 1620 0094 0646     		mov	r6, r0
 1621              	.LVL107:
 809:Drivers/STM32F7xx_HAL_Driver/Src/stm32f7xx_hal_rcc.c ****     {
 1622              		.loc 1 809 5 is_stmt 1 view .LVU501
 1623              	.L152:
 809:Drivers/STM32F7xx_HAL_Driver/Src/stm32f7xx_hal_rcc.c ****     {
 1624              		.loc 1 809 11 view .LVU502
 809:Drivers/STM32F7xx_HAL_Driver/Src/stm32f7xx_hal_rcc.c ****     {
 1625              		.loc 1 809 12 is_stmt 0 view .LVU503
 1626 0096 304B     		ldr	r3, .L170+4
 1627 0098 9B68     		ldr	r3, [r3, #8]
 1628 009a 03F00C03 		and	r3, r3, #12
 809:Drivers/STM32F7xx_HAL_Driver/Src/stm32f7xx_hal_rcc.c ****     {
 1629              		.loc 1 809 63 view .LVU504
 1630 009e 6268     		ldr	r2, [r4, #4]
 809:Drivers/STM32F7xx_HAL_Driver/Src/stm32f7xx_hal_rcc.c ****     {
 1631              		.loc 1 809 11 view .LVU505
 1632 00a0 B3EB820F 		cmp	r3, r2, lsl #2
 1633 00a4 16D0     		beq	.L148
 811:Drivers/STM32F7xx_HAL_Driver/Src/stm32f7xx_hal_rcc.c ****       {
 1634              		.loc 1 811 7 is_stmt 1 view .LVU506
 811:Drivers/STM32F7xx_HAL_Driver/Src/stm32f7xx_hal_rcc.c ****       {
 1635              		.loc 1 811 12 is_stmt 0 view .LVU507
 1636 00a6 FFF7FEFF 		bl	HAL_GetTick
 1637              	.LVL108:
 811:Drivers/STM32F7xx_HAL_Driver/Src/stm32f7xx_hal_rcc.c ****       {
 1638              		.loc 1 811 26 view .LVU508
 1639 00aa 801B     		subs	r0, r0, r6
 811:Drivers/STM32F7xx_HAL_Driver/Src/stm32f7xx_hal_rcc.c ****       {
 1640              		.loc 1 811 10 view .LVU509
 1641 00ac 41F28833 		movw	r3, #5000
 1642 00b0 9842     		cmp	r0, r3
 1643 00b2 F0D9     		bls	.L152
 813:Drivers/STM32F7xx_HAL_Driver/Src/stm32f7xx_hal_rcc.c ****       }
 1644              		.loc 1 813 16 view .LVU510
 1645 00b4 0320     		movs	r0, #3
 1646 00b6 44E0     		b	.L143
 1647              	.LVL109:
 1648              	.L168:
 780:Drivers/STM32F7xx_HAL_Driver/Src/stm32f7xx_hal_rcc.c ****       {
 1649              		.loc 1 780 7 is_stmt 1 view .LVU511
 780:Drivers/STM32F7xx_HAL_Driver/Src/stm32f7xx_hal_rcc.c ****       {
 1650              		.loc 1 780 10 is_stmt 0 view .LVU512
 1651 00b8 274A     		ldr	r2, .L170+4
 1652 00ba 1268     		ldr	r2, [r2]
 780:Drivers/STM32F7xx_HAL_Driver/Src/stm32f7xx_hal_rcc.c ****       {
ARM GAS  C:\Users\Nina\AppData\Local\Temp\ccnJIoBd.s 			page 53


 1653              		.loc 1 780 9 view .LVU513
 1654 00bc 12F4003F 		tst	r2, #131072
 1655 00c0 E0D1     		bne	.L150
 782:Drivers/STM32F7xx_HAL_Driver/Src/stm32f7xx_hal_rcc.c ****       }
 1656              		.loc 1 782 16 view .LVU514
 1657 00c2 0120     		movs	r0, #1
 1658              	.LVL110:
 782:Drivers/STM32F7xx_HAL_Driver/Src/stm32f7xx_hal_rcc.c ****       }
 1659              		.loc 1 782 16 view .LVU515
 1660 00c4 3DE0     		b	.L143
 1661              	.LVL111:
 1662              	.L169:
 789:Drivers/STM32F7xx_HAL_Driver/Src/stm32f7xx_hal_rcc.c ****       {
 1663              		.loc 1 789 7 is_stmt 1 view .LVU516
 789:Drivers/STM32F7xx_HAL_Driver/Src/stm32f7xx_hal_rcc.c ****       {
 1664              		.loc 1 789 10 is_stmt 0 view .LVU517
 1665 00c6 244A     		ldr	r2, .L170+4
 1666 00c8 1268     		ldr	r2, [r2]
 789:Drivers/STM32F7xx_HAL_Driver/Src/stm32f7xx_hal_rcc.c ****       {
 1667              		.loc 1 789 9 view .LVU518
 1668 00ca 12F0007F 		tst	r2, #33554432
 1669 00ce D9D1     		bne	.L150
 791:Drivers/STM32F7xx_HAL_Driver/Src/stm32f7xx_hal_rcc.c ****       }
 1670              		.loc 1 791 16 view .LVU519
 1671 00d0 0120     		movs	r0, #1
 1672              	.LVL112:
 791:Drivers/STM32F7xx_HAL_Driver/Src/stm32f7xx_hal_rcc.c ****       }
 1673              		.loc 1 791 16 view .LVU520
 1674 00d2 36E0     		b	.L143
 1675              	.LVL113:
 1676              	.L148:
 819:Drivers/STM32F7xx_HAL_Driver/Src/stm32f7xx_hal_rcc.c ****   {
 1677              		.loc 1 819 3 is_stmt 1 view .LVU521
 819:Drivers/STM32F7xx_HAL_Driver/Src/stm32f7xx_hal_rcc.c ****   {
 1678              		.loc 1 819 17 is_stmt 0 view .LVU522
 1679 00d4 1F4B     		ldr	r3, .L170
 1680 00d6 1B68     		ldr	r3, [r3]
 1681 00d8 03F00F03 		and	r3, r3, #15
 819:Drivers/STM32F7xx_HAL_Driver/Src/stm32f7xx_hal_rcc.c ****   {
 1682              		.loc 1 819 5 view .LVU523
 1683 00dc AB42     		cmp	r3, r5
 1684 00de 0AD9     		bls	.L154
 822:Drivers/STM32F7xx_HAL_Driver/Src/stm32f7xx_hal_rcc.c **** 
 1685              		.loc 1 822 5 is_stmt 1 view .LVU524
 1686 00e0 1C4A     		ldr	r2, .L170
 1687 00e2 1368     		ldr	r3, [r2]
 1688 00e4 23F00F03 		bic	r3, r3, #15
 1689 00e8 2B43     		orrs	r3, r3, r5
 1690 00ea 1360     		str	r3, [r2]
 826:Drivers/STM32F7xx_HAL_Driver/Src/stm32f7xx_hal_rcc.c ****     {
 1691              		.loc 1 826 5 view .LVU525
 826:Drivers/STM32F7xx_HAL_Driver/Src/stm32f7xx_hal_rcc.c ****     {
 1692              		.loc 1 826 8 is_stmt 0 view .LVU526
 1693 00ec 1368     		ldr	r3, [r2]
 1694 00ee 03F00F03 		and	r3, r3, #15
 826:Drivers/STM32F7xx_HAL_Driver/Src/stm32f7xx_hal_rcc.c ****     {
 1695              		.loc 1 826 7 view .LVU527
ARM GAS  C:\Users\Nina\AppData\Local\Temp\ccnJIoBd.s 			page 54


 1696 00f2 AB42     		cmp	r3, r5
 1697 00f4 2CD1     		bne	.L163
 1698              	.L154:
 833:Drivers/STM32F7xx_HAL_Driver/Src/stm32f7xx_hal_rcc.c ****   {
 1699              		.loc 1 833 3 is_stmt 1 view .LVU528
 833:Drivers/STM32F7xx_HAL_Driver/Src/stm32f7xx_hal_rcc.c ****   {
 1700              		.loc 1 833 25 is_stmt 0 view .LVU529
 1701 00f6 2368     		ldr	r3, [r4]
 833:Drivers/STM32F7xx_HAL_Driver/Src/stm32f7xx_hal_rcc.c ****   {
 1702              		.loc 1 833 5 view .LVU530
 1703 00f8 13F0040F 		tst	r3, #4
 1704 00fc 06D0     		beq	.L155
 835:Drivers/STM32F7xx_HAL_Driver/Src/stm32f7xx_hal_rcc.c ****     MODIFY_REG(RCC->CFGR, RCC_CFGR_PPRE1, RCC_ClkInitStruct->APB1CLKDivider);
 1705              		.loc 1 835 5 is_stmt 1 view .LVU531
 836:Drivers/STM32F7xx_HAL_Driver/Src/stm32f7xx_hal_rcc.c ****   }
 1706              		.loc 1 836 5 view .LVU532
 1707 00fe 164A     		ldr	r2, .L170+4
 1708 0100 9368     		ldr	r3, [r2, #8]
 1709 0102 23F4E053 		bic	r3, r3, #7168
 1710 0106 E168     		ldr	r1, [r4, #12]
 1711 0108 0B43     		orrs	r3, r3, r1
 1712 010a 9360     		str	r3, [r2, #8]
 1713              	.L155:
 840:Drivers/STM32F7xx_HAL_Driver/Src/stm32f7xx_hal_rcc.c ****   {
 1714              		.loc 1 840 3 view .LVU533
 840:Drivers/STM32F7xx_HAL_Driver/Src/stm32f7xx_hal_rcc.c ****   {
 1715              		.loc 1 840 25 is_stmt 0 view .LVU534
 1716 010c 2368     		ldr	r3, [r4]
 840:Drivers/STM32F7xx_HAL_Driver/Src/stm32f7xx_hal_rcc.c ****   {
 1717              		.loc 1 840 5 view .LVU535
 1718 010e 13F0080F 		tst	r3, #8
 1719 0112 07D0     		beq	.L156
 842:Drivers/STM32F7xx_HAL_Driver/Src/stm32f7xx_hal_rcc.c ****     MODIFY_REG(RCC->CFGR, RCC_CFGR_PPRE2, ((RCC_ClkInitStruct->APB2CLKDivider) << 3));
 1720              		.loc 1 842 5 is_stmt 1 view .LVU536
 843:Drivers/STM32F7xx_HAL_Driver/Src/stm32f7xx_hal_rcc.c ****   }
 1721              		.loc 1 843 5 view .LVU537
 1722 0114 104A     		ldr	r2, .L170+4
 1723 0116 9368     		ldr	r3, [r2, #8]
 1724 0118 23F46043 		bic	r3, r3, #57344
 1725 011c 2169     		ldr	r1, [r4, #16]
 1726 011e 43EAC103 		orr	r3, r3, r1, lsl #3
 1727 0122 9360     		str	r3, [r2, #8]
 1728              	.L156:
 847:Drivers/STM32F7xx_HAL_Driver/Src/stm32f7xx_hal_rcc.c **** 
 1729              		.loc 1 847 3 view .LVU538
 847:Drivers/STM32F7xx_HAL_Driver/Src/stm32f7xx_hal_rcc.c **** 
 1730              		.loc 1 847 21 is_stmt 0 view .LVU539
 1731 0124 FFF7FEFF 		bl	HAL_RCC_GetSysClockFreq
 1732              	.LVL114:
 847:Drivers/STM32F7xx_HAL_Driver/Src/stm32f7xx_hal_rcc.c **** 
 1733              		.loc 1 847 68 view .LVU540
 1734 0128 0B4B     		ldr	r3, .L170+4
 1735 012a 9B68     		ldr	r3, [r3, #8]
 847:Drivers/STM32F7xx_HAL_Driver/Src/stm32f7xx_hal_rcc.c **** 
 1736              		.loc 1 847 91 view .LVU541
 1737 012c C3F30313 		ubfx	r3, r3, #4, #4
 847:Drivers/STM32F7xx_HAL_Driver/Src/stm32f7xx_hal_rcc.c **** 
ARM GAS  C:\Users\Nina\AppData\Local\Temp\ccnJIoBd.s 			page 55


 1738              		.loc 1 847 63 view .LVU542
 1739 0130 0A4A     		ldr	r2, .L170+8
 1740 0132 D35C     		ldrb	r3, [r2, r3]	@ zero_extendqisi2
 847:Drivers/STM32F7xx_HAL_Driver/Src/stm32f7xx_hal_rcc.c **** 
 1741              		.loc 1 847 47 view .LVU543
 1742 0134 D840     		lsrs	r0, r0, r3
 847:Drivers/STM32F7xx_HAL_Driver/Src/stm32f7xx_hal_rcc.c **** 
 1743              		.loc 1 847 19 view .LVU544
 1744 0136 0A4B     		ldr	r3, .L170+12
 1745 0138 1860     		str	r0, [r3]
 850:Drivers/STM32F7xx_HAL_Driver/Src/stm32f7xx_hal_rcc.c **** 
 1746              		.loc 1 850 3 is_stmt 1 view .LVU545
 1747 013a 0020     		movs	r0, #0
 1748 013c FFF7FEFF 		bl	HAL_InitTick
 1749              	.LVL115:
 852:Drivers/STM32F7xx_HAL_Driver/Src/stm32f7xx_hal_rcc.c **** }
 1750              		.loc 1 852 3 view .LVU546
 852:Drivers/STM32F7xx_HAL_Driver/Src/stm32f7xx_hal_rcc.c **** }
 1751              		.loc 1 852 10 is_stmt 0 view .LVU547
 1752 0140 0020     		movs	r0, #0
 1753              	.L143:
 853:Drivers/STM32F7xx_HAL_Driver/Src/stm32f7xx_hal_rcc.c **** 
 1754              		.loc 1 853 1 view .LVU548
 1755 0142 70BD     		pop	{r4, r5, r6, pc}
 1756              	.LVL116:
 1757              	.L157:
 1758              	.LCFI13:
 1759              		.cfi_def_cfa_offset 0
 1760              		.cfi_restore 4
 1761              		.cfi_restore 5
 1762              		.cfi_restore 6
 1763              		.cfi_restore 14
 726:Drivers/STM32F7xx_HAL_Driver/Src/stm32f7xx_hal_rcc.c ****   }
 1764              		.loc 1 726 12 view .LVU549
 1765 0144 0120     		movs	r0, #1
 1766              	.LVL117:
 853:Drivers/STM32F7xx_HAL_Driver/Src/stm32f7xx_hal_rcc.c **** 
 1767              		.loc 1 853 1 view .LVU550
 1768 0146 7047     		bx	lr
 1769              	.LVL118:
 1770              	.L158:
 1771              	.LCFI14:
 1772              		.cfi_def_cfa_offset 16
 1773              		.cfi_offset 4, -16
 1774              		.cfi_offset 5, -12
 1775              		.cfi_offset 6, -8
 1776              		.cfi_offset 14, -4
 747:Drivers/STM32F7xx_HAL_Driver/Src/stm32f7xx_hal_rcc.c ****     }
 1777              		.loc 1 747 14 view .LVU551
 1778 0148 0120     		movs	r0, #1
 1779              	.LVL119:
 747:Drivers/STM32F7xx_HAL_Driver/Src/stm32f7xx_hal_rcc.c ****     }
 1780              		.loc 1 747 14 view .LVU552
 1781 014a FAE7     		b	.L143
 1782              	.LVL120:
 1783              	.L161:
 800:Drivers/STM32F7xx_HAL_Driver/Src/stm32f7xx_hal_rcc.c ****       }
ARM GAS  C:\Users\Nina\AppData\Local\Temp\ccnJIoBd.s 			page 56


 1784              		.loc 1 800 16 view .LVU553
 1785 014c 0120     		movs	r0, #1
 1786              	.LVL121:
 800:Drivers/STM32F7xx_HAL_Driver/Src/stm32f7xx_hal_rcc.c ****       }
 1787              		.loc 1 800 16 view .LVU554
 1788 014e F8E7     		b	.L143
 1789              	.LVL122:
 1790              	.L163:
 828:Drivers/STM32F7xx_HAL_Driver/Src/stm32f7xx_hal_rcc.c ****     }
 1791              		.loc 1 828 14 view .LVU555
 1792 0150 0120     		movs	r0, #1
 1793 0152 F6E7     		b	.L143
 1794              	.L171:
 1795              		.align	2
 1796              	.L170:
 1797 0154 003C0240 		.word	1073888256
 1798 0158 00380240 		.word	1073887232
 1799 015c 00000000 		.word	AHBPrescTable
 1800 0160 00000000 		.word	SystemCoreClock
 1801              		.cfi_endproc
 1802              	.LFE140:
 1804              		.section	.text.HAL_RCC_GetHCLKFreq,"ax",%progbits
 1805              		.align	1
 1806              		.global	HAL_RCC_GetHCLKFreq
 1807              		.syntax unified
 1808              		.thumb
 1809              		.thumb_func
 1810              		.fpu fpv5-sp-d16
 1812              	HAL_RCC_GetHCLKFreq:
 1813              	.LFB145:
1044:Drivers/STM32F7xx_HAL_Driver/Src/stm32f7xx_hal_rcc.c **** 
1045:Drivers/STM32F7xx_HAL_Driver/Src/stm32f7xx_hal_rcc.c **** /**
1046:Drivers/STM32F7xx_HAL_Driver/Src/stm32f7xx_hal_rcc.c ****   * @brief  Returns the HCLK frequency
1047:Drivers/STM32F7xx_HAL_Driver/Src/stm32f7xx_hal_rcc.c ****   * @note   Each time HCLK changes, this function must be called to update the
1048:Drivers/STM32F7xx_HAL_Driver/Src/stm32f7xx_hal_rcc.c ****   *         right HCLK value. Otherwise, any configuration based on this function will be incorrect
1049:Drivers/STM32F7xx_HAL_Driver/Src/stm32f7xx_hal_rcc.c ****   * @note   The SystemCoreClock CMSIS variable is used to store System Clock Frequency.
1050:Drivers/STM32F7xx_HAL_Driver/Src/stm32f7xx_hal_rcc.c ****   * @retval HCLK frequency
1051:Drivers/STM32F7xx_HAL_Driver/Src/stm32f7xx_hal_rcc.c ****   */
1052:Drivers/STM32F7xx_HAL_Driver/Src/stm32f7xx_hal_rcc.c **** uint32_t HAL_RCC_GetHCLKFreq(void)
1053:Drivers/STM32F7xx_HAL_Driver/Src/stm32f7xx_hal_rcc.c **** {
 1814              		.loc 1 1053 1 is_stmt 1 view -0
 1815              		.cfi_startproc
 1816              		@ args = 0, pretend = 0, frame = 0
 1817              		@ frame_needed = 0, uses_anonymous_args = 0
 1818              		@ link register save eliminated.
1054:Drivers/STM32F7xx_HAL_Driver/Src/stm32f7xx_hal_rcc.c ****   return SystemCoreClock;
 1819              		.loc 1 1054 3 view .LVU557
1055:Drivers/STM32F7xx_HAL_Driver/Src/stm32f7xx_hal_rcc.c **** }
 1820              		.loc 1 1055 1 is_stmt 0 view .LVU558
 1821 0000 014B     		ldr	r3, .L173
 1822 0002 1868     		ldr	r0, [r3]
 1823 0004 7047     		bx	lr
 1824              	.L174:
 1825 0006 00BF     		.align	2
 1826              	.L173:
 1827 0008 00000000 		.word	SystemCoreClock
 1828              		.cfi_endproc
ARM GAS  C:\Users\Nina\AppData\Local\Temp\ccnJIoBd.s 			page 57


 1829              	.LFE145:
 1831              		.section	.text.HAL_RCC_GetPCLK1Freq,"ax",%progbits
 1832              		.align	1
 1833              		.global	HAL_RCC_GetPCLK1Freq
 1834              		.syntax unified
 1835              		.thumb
 1836              		.thumb_func
 1837              		.fpu fpv5-sp-d16
 1839              	HAL_RCC_GetPCLK1Freq:
 1840              	.LFB146:
1056:Drivers/STM32F7xx_HAL_Driver/Src/stm32f7xx_hal_rcc.c **** 
1057:Drivers/STM32F7xx_HAL_Driver/Src/stm32f7xx_hal_rcc.c **** /**
1058:Drivers/STM32F7xx_HAL_Driver/Src/stm32f7xx_hal_rcc.c ****   * @brief  Returns the PCLK1 frequency
1059:Drivers/STM32F7xx_HAL_Driver/Src/stm32f7xx_hal_rcc.c ****   * @note   Each time PCLK1 changes, this function must be called to update the
1060:Drivers/STM32F7xx_HAL_Driver/Src/stm32f7xx_hal_rcc.c ****   *         right PCLK1 value. Otherwise, any configuration based on this function will be incorrec
1061:Drivers/STM32F7xx_HAL_Driver/Src/stm32f7xx_hal_rcc.c ****   * @retval PCLK1 frequency
1062:Drivers/STM32F7xx_HAL_Driver/Src/stm32f7xx_hal_rcc.c ****   */
1063:Drivers/STM32F7xx_HAL_Driver/Src/stm32f7xx_hal_rcc.c **** uint32_t HAL_RCC_GetPCLK1Freq(void)
1064:Drivers/STM32F7xx_HAL_Driver/Src/stm32f7xx_hal_rcc.c **** {
 1841              		.loc 1 1064 1 is_stmt 1 view -0
 1842              		.cfi_startproc
 1843              		@ args = 0, pretend = 0, frame = 0
 1844              		@ frame_needed = 0, uses_anonymous_args = 0
 1845 0000 08B5     		push	{r3, lr}
 1846              	.LCFI15:
 1847              		.cfi_def_cfa_offset 8
 1848              		.cfi_offset 3, -8
 1849              		.cfi_offset 14, -4
1065:Drivers/STM32F7xx_HAL_Driver/Src/stm32f7xx_hal_rcc.c ****   /* Get HCLK source and Compute PCLK1 frequency ---------------------------*/
1066:Drivers/STM32F7xx_HAL_Driver/Src/stm32f7xx_hal_rcc.c ****   return (HAL_RCC_GetHCLKFreq() >> APBPrescTable[(RCC->CFGR & RCC_CFGR_PPRE1)>> RCC_CFGR_PPRE1_Pos]
 1850              		.loc 1 1066 3 view .LVU560
 1851              		.loc 1 1066 11 is_stmt 0 view .LVU561
 1852 0002 FFF7FEFF 		bl	HAL_RCC_GetHCLKFreq
 1853              	.LVL123:
 1854              		.loc 1 1066 54 view .LVU562
 1855 0006 044B     		ldr	r3, .L177
 1856 0008 9B68     		ldr	r3, [r3, #8]
 1857              		.loc 1 1066 78 view .LVU563
 1858 000a C3F38223 		ubfx	r3, r3, #10, #3
 1859              		.loc 1 1066 49 view .LVU564
 1860 000e 034A     		ldr	r2, .L177+4
 1861 0010 D35C     		ldrb	r3, [r2, r3]	@ zero_extendqisi2
1067:Drivers/STM32F7xx_HAL_Driver/Src/stm32f7xx_hal_rcc.c **** }
 1862              		.loc 1 1067 1 view .LVU565
 1863 0012 D840     		lsrs	r0, r0, r3
 1864 0014 08BD     		pop	{r3, pc}
 1865              	.L178:
 1866 0016 00BF     		.align	2
 1867              	.L177:
 1868 0018 00380240 		.word	1073887232
 1869 001c 00000000 		.word	APBPrescTable
 1870              		.cfi_endproc
 1871              	.LFE146:
 1873              		.section	.text.HAL_RCC_GetPCLK2Freq,"ax",%progbits
 1874              		.align	1
 1875              		.global	HAL_RCC_GetPCLK2Freq
 1876              		.syntax unified
ARM GAS  C:\Users\Nina\AppData\Local\Temp\ccnJIoBd.s 			page 58


 1877              		.thumb
 1878              		.thumb_func
 1879              		.fpu fpv5-sp-d16
 1881              	HAL_RCC_GetPCLK2Freq:
 1882              	.LFB147:
1068:Drivers/STM32F7xx_HAL_Driver/Src/stm32f7xx_hal_rcc.c **** 
1069:Drivers/STM32F7xx_HAL_Driver/Src/stm32f7xx_hal_rcc.c **** /**
1070:Drivers/STM32F7xx_HAL_Driver/Src/stm32f7xx_hal_rcc.c ****   * @brief  Returns the PCLK2 frequency
1071:Drivers/STM32F7xx_HAL_Driver/Src/stm32f7xx_hal_rcc.c ****   * @note   Each time PCLK2 changes, this function must be called to update the
1072:Drivers/STM32F7xx_HAL_Driver/Src/stm32f7xx_hal_rcc.c ****   *         right PCLK2 value. Otherwise, any configuration based on this function will be incorrec
1073:Drivers/STM32F7xx_HAL_Driver/Src/stm32f7xx_hal_rcc.c ****   * @retval PCLK2 frequency
1074:Drivers/STM32F7xx_HAL_Driver/Src/stm32f7xx_hal_rcc.c ****   */
1075:Drivers/STM32F7xx_HAL_Driver/Src/stm32f7xx_hal_rcc.c **** uint32_t HAL_RCC_GetPCLK2Freq(void)
1076:Drivers/STM32F7xx_HAL_Driver/Src/stm32f7xx_hal_rcc.c **** {
 1883              		.loc 1 1076 1 is_stmt 1 view -0
 1884              		.cfi_startproc
 1885              		@ args = 0, pretend = 0, frame = 0
 1886              		@ frame_needed = 0, uses_anonymous_args = 0
 1887 0000 08B5     		push	{r3, lr}
 1888              	.LCFI16:
 1889              		.cfi_def_cfa_offset 8
 1890              		.cfi_offset 3, -8
 1891              		.cfi_offset 14, -4
1077:Drivers/STM32F7xx_HAL_Driver/Src/stm32f7xx_hal_rcc.c ****   /* Get HCLK source and Compute PCLK2 frequency ---------------------------*/
1078:Drivers/STM32F7xx_HAL_Driver/Src/stm32f7xx_hal_rcc.c ****   return (HAL_RCC_GetHCLKFreq()>> APBPrescTable[(RCC->CFGR & RCC_CFGR_PPRE2)>> RCC_CFGR_PPRE2_Pos])
 1892              		.loc 1 1078 3 view .LVU567
 1893              		.loc 1 1078 11 is_stmt 0 view .LVU568
 1894 0002 FFF7FEFF 		bl	HAL_RCC_GetHCLKFreq
 1895              	.LVL124:
 1896              		.loc 1 1078 53 view .LVU569
 1897 0006 044B     		ldr	r3, .L181
 1898 0008 9B68     		ldr	r3, [r3, #8]
 1899              		.loc 1 1078 77 view .LVU570
 1900 000a C3F34233 		ubfx	r3, r3, #13, #3
 1901              		.loc 1 1078 48 view .LVU571
 1902 000e 034A     		ldr	r2, .L181+4
 1903 0010 D35C     		ldrb	r3, [r2, r3]	@ zero_extendqisi2
1079:Drivers/STM32F7xx_HAL_Driver/Src/stm32f7xx_hal_rcc.c **** }
 1904              		.loc 1 1079 1 view .LVU572
 1905 0012 D840     		lsrs	r0, r0, r3
 1906 0014 08BD     		pop	{r3, pc}
 1907              	.L182:
 1908 0016 00BF     		.align	2
 1909              	.L181:
 1910 0018 00380240 		.word	1073887232
 1911 001c 00000000 		.word	APBPrescTable
 1912              		.cfi_endproc
 1913              	.LFE147:
 1915              		.section	.text.HAL_RCC_GetOscConfig,"ax",%progbits
 1916              		.align	1
 1917              		.global	HAL_RCC_GetOscConfig
 1918              		.syntax unified
 1919              		.thumb
 1920              		.thumb_func
 1921              		.fpu fpv5-sp-d16
 1923              	HAL_RCC_GetOscConfig:
 1924              	.LVL125:
ARM GAS  C:\Users\Nina\AppData\Local\Temp\ccnJIoBd.s 			page 59


 1925              	.LFB148:
1080:Drivers/STM32F7xx_HAL_Driver/Src/stm32f7xx_hal_rcc.c **** 
1081:Drivers/STM32F7xx_HAL_Driver/Src/stm32f7xx_hal_rcc.c **** /**
1082:Drivers/STM32F7xx_HAL_Driver/Src/stm32f7xx_hal_rcc.c ****   * @brief  Configures the RCC_OscInitStruct according to the internal
1083:Drivers/STM32F7xx_HAL_Driver/Src/stm32f7xx_hal_rcc.c ****   * RCC configuration registers.
1084:Drivers/STM32F7xx_HAL_Driver/Src/stm32f7xx_hal_rcc.c ****   * @param  RCC_OscInitStruct pointer to an RCC_OscInitTypeDef structure that
1085:Drivers/STM32F7xx_HAL_Driver/Src/stm32f7xx_hal_rcc.c ****   * will be configured.
1086:Drivers/STM32F7xx_HAL_Driver/Src/stm32f7xx_hal_rcc.c ****   * @retval None
1087:Drivers/STM32F7xx_HAL_Driver/Src/stm32f7xx_hal_rcc.c ****   */
1088:Drivers/STM32F7xx_HAL_Driver/Src/stm32f7xx_hal_rcc.c **** void HAL_RCC_GetOscConfig(RCC_OscInitTypeDef  *RCC_OscInitStruct)
1089:Drivers/STM32F7xx_HAL_Driver/Src/stm32f7xx_hal_rcc.c **** {
 1926              		.loc 1 1089 1 is_stmt 1 view -0
 1927              		.cfi_startproc
 1928              		@ args = 0, pretend = 0, frame = 0
 1929              		@ frame_needed = 0, uses_anonymous_args = 0
 1930              		@ link register save eliminated.
1090:Drivers/STM32F7xx_HAL_Driver/Src/stm32f7xx_hal_rcc.c ****   /* Set all possible values for the Oscillator type parameter ---------------*/
1091:Drivers/STM32F7xx_HAL_Driver/Src/stm32f7xx_hal_rcc.c ****   RCC_OscInitStruct->OscillatorType = RCC_OSCILLATORTYPE_HSE | RCC_OSCILLATORTYPE_HSI | RCC_OSCILLA
 1931              		.loc 1 1091 3 view .LVU574
 1932              		.loc 1 1091 37 is_stmt 0 view .LVU575
 1933 0000 0F23     		movs	r3, #15
 1934 0002 0360     		str	r3, [r0]
1092:Drivers/STM32F7xx_HAL_Driver/Src/stm32f7xx_hal_rcc.c **** 
1093:Drivers/STM32F7xx_HAL_Driver/Src/stm32f7xx_hal_rcc.c ****   /* Get the HSE configuration -----------------------------------------------*/
1094:Drivers/STM32F7xx_HAL_Driver/Src/stm32f7xx_hal_rcc.c ****   if((RCC->CR &RCC_CR_HSEBYP) == RCC_CR_HSEBYP)
 1935              		.loc 1 1094 3 is_stmt 1 view .LVU576
 1936              		.loc 1 1094 10 is_stmt 0 view .LVU577
 1937 0004 304B     		ldr	r3, .L196
 1938 0006 1B68     		ldr	r3, [r3]
 1939              		.loc 1 1094 5 view .LVU578
 1940 0008 13F4802F 		tst	r3, #262144
 1941 000c 3BD0     		beq	.L184
1095:Drivers/STM32F7xx_HAL_Driver/Src/stm32f7xx_hal_rcc.c ****   {
1096:Drivers/STM32F7xx_HAL_Driver/Src/stm32f7xx_hal_rcc.c ****     RCC_OscInitStruct->HSEState = RCC_HSE_BYPASS;
 1942              		.loc 1 1096 5 is_stmt 1 view .LVU579
 1943              		.loc 1 1096 33 is_stmt 0 view .LVU580
 1944 000e 4FF4A023 		mov	r3, #327680
 1945 0012 4360     		str	r3, [r0, #4]
 1946              	.L185:
1097:Drivers/STM32F7xx_HAL_Driver/Src/stm32f7xx_hal_rcc.c ****   }
1098:Drivers/STM32F7xx_HAL_Driver/Src/stm32f7xx_hal_rcc.c ****   else if((RCC->CR &RCC_CR_HSEON) == RCC_CR_HSEON)
1099:Drivers/STM32F7xx_HAL_Driver/Src/stm32f7xx_hal_rcc.c ****   {
1100:Drivers/STM32F7xx_HAL_Driver/Src/stm32f7xx_hal_rcc.c ****     RCC_OscInitStruct->HSEState = RCC_HSE_ON;
1101:Drivers/STM32F7xx_HAL_Driver/Src/stm32f7xx_hal_rcc.c ****   }
1102:Drivers/STM32F7xx_HAL_Driver/Src/stm32f7xx_hal_rcc.c ****   else
1103:Drivers/STM32F7xx_HAL_Driver/Src/stm32f7xx_hal_rcc.c ****   {
1104:Drivers/STM32F7xx_HAL_Driver/Src/stm32f7xx_hal_rcc.c ****     RCC_OscInitStruct->HSEState = RCC_HSE_OFF;
1105:Drivers/STM32F7xx_HAL_Driver/Src/stm32f7xx_hal_rcc.c ****   }
1106:Drivers/STM32F7xx_HAL_Driver/Src/stm32f7xx_hal_rcc.c **** 
1107:Drivers/STM32F7xx_HAL_Driver/Src/stm32f7xx_hal_rcc.c ****   /* Get the HSI configuration -----------------------------------------------*/
1108:Drivers/STM32F7xx_HAL_Driver/Src/stm32f7xx_hal_rcc.c ****   if((RCC->CR &RCC_CR_HSION) == RCC_CR_HSION)
 1947              		.loc 1 1108 3 is_stmt 1 view .LVU581
 1948              		.loc 1 1108 10 is_stmt 0 view .LVU582
 1949 0014 2C4B     		ldr	r3, .L196
 1950 0016 1B68     		ldr	r3, [r3]
 1951              		.loc 1 1108 5 view .LVU583
 1952 0018 13F0010F 		tst	r3, #1
ARM GAS  C:\Users\Nina\AppData\Local\Temp\ccnJIoBd.s 			page 60


 1953 001c 3FD0     		beq	.L187
1109:Drivers/STM32F7xx_HAL_Driver/Src/stm32f7xx_hal_rcc.c ****   {
1110:Drivers/STM32F7xx_HAL_Driver/Src/stm32f7xx_hal_rcc.c ****     RCC_OscInitStruct->HSIState = RCC_HSI_ON;
 1954              		.loc 1 1110 5 is_stmt 1 view .LVU584
 1955              		.loc 1 1110 33 is_stmt 0 view .LVU585
 1956 001e 0123     		movs	r3, #1
 1957 0020 C360     		str	r3, [r0, #12]
 1958              	.L188:
1111:Drivers/STM32F7xx_HAL_Driver/Src/stm32f7xx_hal_rcc.c ****   }
1112:Drivers/STM32F7xx_HAL_Driver/Src/stm32f7xx_hal_rcc.c ****   else
1113:Drivers/STM32F7xx_HAL_Driver/Src/stm32f7xx_hal_rcc.c ****   {
1114:Drivers/STM32F7xx_HAL_Driver/Src/stm32f7xx_hal_rcc.c ****     RCC_OscInitStruct->HSIState = RCC_HSI_OFF;
1115:Drivers/STM32F7xx_HAL_Driver/Src/stm32f7xx_hal_rcc.c ****   }
1116:Drivers/STM32F7xx_HAL_Driver/Src/stm32f7xx_hal_rcc.c **** 
1117:Drivers/STM32F7xx_HAL_Driver/Src/stm32f7xx_hal_rcc.c ****   RCC_OscInitStruct->HSICalibrationValue = (uint32_t)((RCC->CR &RCC_CR_HSITRIM) >> RCC_CR_HSITRIM_P
 1959              		.loc 1 1117 3 is_stmt 1 view .LVU586
 1960              		.loc 1 1117 59 is_stmt 0 view .LVU587
 1961 0022 294A     		ldr	r2, .L196
 1962 0024 1368     		ldr	r3, [r2]
 1963              		.loc 1 1117 44 view .LVU588
 1964 0026 C3F3C403 		ubfx	r3, r3, #3, #5
 1965              		.loc 1 1117 42 view .LVU589
 1966 002a 0361     		str	r3, [r0, #16]
1118:Drivers/STM32F7xx_HAL_Driver/Src/stm32f7xx_hal_rcc.c **** 
1119:Drivers/STM32F7xx_HAL_Driver/Src/stm32f7xx_hal_rcc.c ****   /* Get the LSE configuration -----------------------------------------------*/
1120:Drivers/STM32F7xx_HAL_Driver/Src/stm32f7xx_hal_rcc.c ****   if((RCC->BDCR &RCC_BDCR_LSEBYP) == RCC_BDCR_LSEBYP)
 1967              		.loc 1 1120 3 is_stmt 1 view .LVU590
 1968              		.loc 1 1120 10 is_stmt 0 view .LVU591
 1969 002c 136F     		ldr	r3, [r2, #112]
 1970              		.loc 1 1120 5 view .LVU592
 1971 002e 13F0040F 		tst	r3, #4
 1972 0032 37D0     		beq	.L189
1121:Drivers/STM32F7xx_HAL_Driver/Src/stm32f7xx_hal_rcc.c ****   {
1122:Drivers/STM32F7xx_HAL_Driver/Src/stm32f7xx_hal_rcc.c ****     RCC_OscInitStruct->LSEState = RCC_LSE_BYPASS;
 1973              		.loc 1 1122 5 is_stmt 1 view .LVU593
 1974              		.loc 1 1122 33 is_stmt 0 view .LVU594
 1975 0034 0523     		movs	r3, #5
 1976 0036 8360     		str	r3, [r0, #8]
 1977              	.L190:
1123:Drivers/STM32F7xx_HAL_Driver/Src/stm32f7xx_hal_rcc.c ****   }
1124:Drivers/STM32F7xx_HAL_Driver/Src/stm32f7xx_hal_rcc.c ****   else if((RCC->BDCR &RCC_BDCR_LSEON) == RCC_BDCR_LSEON)
1125:Drivers/STM32F7xx_HAL_Driver/Src/stm32f7xx_hal_rcc.c ****   {
1126:Drivers/STM32F7xx_HAL_Driver/Src/stm32f7xx_hal_rcc.c ****     RCC_OscInitStruct->LSEState = RCC_LSE_ON;
1127:Drivers/STM32F7xx_HAL_Driver/Src/stm32f7xx_hal_rcc.c ****   }
1128:Drivers/STM32F7xx_HAL_Driver/Src/stm32f7xx_hal_rcc.c ****   else
1129:Drivers/STM32F7xx_HAL_Driver/Src/stm32f7xx_hal_rcc.c ****   {
1130:Drivers/STM32F7xx_HAL_Driver/Src/stm32f7xx_hal_rcc.c ****     RCC_OscInitStruct->LSEState = RCC_LSE_OFF;
1131:Drivers/STM32F7xx_HAL_Driver/Src/stm32f7xx_hal_rcc.c ****   }
1132:Drivers/STM32F7xx_HAL_Driver/Src/stm32f7xx_hal_rcc.c **** 
1133:Drivers/STM32F7xx_HAL_Driver/Src/stm32f7xx_hal_rcc.c ****   /* Get the LSI configuration -----------------------------------------------*/
1134:Drivers/STM32F7xx_HAL_Driver/Src/stm32f7xx_hal_rcc.c ****   if((RCC->CSR &RCC_CSR_LSION) == RCC_CSR_LSION)
 1978              		.loc 1 1134 3 is_stmt 1 view .LVU595
 1979              		.loc 1 1134 10 is_stmt 0 view .LVU596
 1980 0038 234B     		ldr	r3, .L196
 1981 003a 5B6F     		ldr	r3, [r3, #116]
 1982              		.loc 1 1134 5 view .LVU597
 1983 003c 13F0010F 		tst	r3, #1
ARM GAS  C:\Users\Nina\AppData\Local\Temp\ccnJIoBd.s 			page 61


 1984 0040 3BD0     		beq	.L192
1135:Drivers/STM32F7xx_HAL_Driver/Src/stm32f7xx_hal_rcc.c ****   {
1136:Drivers/STM32F7xx_HAL_Driver/Src/stm32f7xx_hal_rcc.c ****     RCC_OscInitStruct->LSIState = RCC_LSI_ON;
 1985              		.loc 1 1136 5 is_stmt 1 view .LVU598
 1986              		.loc 1 1136 33 is_stmt 0 view .LVU599
 1987 0042 0123     		movs	r3, #1
 1988 0044 4361     		str	r3, [r0, #20]
 1989              	.L193:
1137:Drivers/STM32F7xx_HAL_Driver/Src/stm32f7xx_hal_rcc.c ****   }
1138:Drivers/STM32F7xx_HAL_Driver/Src/stm32f7xx_hal_rcc.c ****   else
1139:Drivers/STM32F7xx_HAL_Driver/Src/stm32f7xx_hal_rcc.c ****   {
1140:Drivers/STM32F7xx_HAL_Driver/Src/stm32f7xx_hal_rcc.c ****     RCC_OscInitStruct->LSIState = RCC_LSI_OFF;
1141:Drivers/STM32F7xx_HAL_Driver/Src/stm32f7xx_hal_rcc.c ****   }
1142:Drivers/STM32F7xx_HAL_Driver/Src/stm32f7xx_hal_rcc.c **** 
1143:Drivers/STM32F7xx_HAL_Driver/Src/stm32f7xx_hal_rcc.c ****   /* Get the PLL configuration -----------------------------------------------*/
1144:Drivers/STM32F7xx_HAL_Driver/Src/stm32f7xx_hal_rcc.c ****   if((RCC->CR &RCC_CR_PLLON) == RCC_CR_PLLON)
 1990              		.loc 1 1144 3 is_stmt 1 view .LVU600
 1991              		.loc 1 1144 10 is_stmt 0 view .LVU601
 1992 0046 204B     		ldr	r3, .L196
 1993 0048 1B68     		ldr	r3, [r3]
 1994              		.loc 1 1144 5 view .LVU602
 1995 004a 13F0807F 		tst	r3, #16777216
 1996 004e 37D0     		beq	.L194
1145:Drivers/STM32F7xx_HAL_Driver/Src/stm32f7xx_hal_rcc.c ****   {
1146:Drivers/STM32F7xx_HAL_Driver/Src/stm32f7xx_hal_rcc.c ****     RCC_OscInitStruct->PLL.PLLState = RCC_PLL_ON;
 1997              		.loc 1 1146 5 is_stmt 1 view .LVU603
 1998              		.loc 1 1146 37 is_stmt 0 view .LVU604
 1999 0050 0223     		movs	r3, #2
 2000 0052 8361     		str	r3, [r0, #24]
 2001              	.L195:
1147:Drivers/STM32F7xx_HAL_Driver/Src/stm32f7xx_hal_rcc.c ****   }
1148:Drivers/STM32F7xx_HAL_Driver/Src/stm32f7xx_hal_rcc.c ****   else
1149:Drivers/STM32F7xx_HAL_Driver/Src/stm32f7xx_hal_rcc.c ****   {
1150:Drivers/STM32F7xx_HAL_Driver/Src/stm32f7xx_hal_rcc.c ****     RCC_OscInitStruct->PLL.PLLState = RCC_PLL_OFF;
1151:Drivers/STM32F7xx_HAL_Driver/Src/stm32f7xx_hal_rcc.c ****   }
1152:Drivers/STM32F7xx_HAL_Driver/Src/stm32f7xx_hal_rcc.c ****   RCC_OscInitStruct->PLL.PLLSource = (uint32_t)(RCC->PLLCFGR & RCC_PLLCFGR_PLLSRC);
 2002              		.loc 1 1152 3 is_stmt 1 view .LVU605
 2003              		.loc 1 1152 52 is_stmt 0 view .LVU606
 2004 0054 1C4A     		ldr	r2, .L196
 2005 0056 5368     		ldr	r3, [r2, #4]
 2006              		.loc 1 1152 38 view .LVU607
 2007 0058 03F48003 		and	r3, r3, #4194304
 2008              		.loc 1 1152 36 view .LVU608
 2009 005c C361     		str	r3, [r0, #28]
1153:Drivers/STM32F7xx_HAL_Driver/Src/stm32f7xx_hal_rcc.c ****   RCC_OscInitStruct->PLL.PLLM = (uint32_t)(RCC->PLLCFGR & RCC_PLLCFGR_PLLM);
 2010              		.loc 1 1153 3 is_stmt 1 view .LVU609
 2011              		.loc 1 1153 47 is_stmt 0 view .LVU610
 2012 005e 5368     		ldr	r3, [r2, #4]
 2013              		.loc 1 1153 33 view .LVU611
 2014 0060 03F03F03 		and	r3, r3, #63
 2015              		.loc 1 1153 31 view .LVU612
 2016 0064 0362     		str	r3, [r0, #32]
1154:Drivers/STM32F7xx_HAL_Driver/Src/stm32f7xx_hal_rcc.c ****   RCC_OscInitStruct->PLL.PLLN = (uint32_t)((RCC->PLLCFGR & RCC_PLLCFGR_PLLN) >> RCC_PLLCFGR_PLLN_Po
 2017              		.loc 1 1154 3 is_stmt 1 view .LVU613
 2018              		.loc 1 1154 48 is_stmt 0 view .LVU614
 2019 0066 5368     		ldr	r3, [r2, #4]
 2020              		.loc 1 1154 33 view .LVU615
ARM GAS  C:\Users\Nina\AppData\Local\Temp\ccnJIoBd.s 			page 62


 2021 0068 C3F38813 		ubfx	r3, r3, #6, #9
 2022              		.loc 1 1154 31 view .LVU616
 2023 006c 4362     		str	r3, [r0, #36]
1155:Drivers/STM32F7xx_HAL_Driver/Src/stm32f7xx_hal_rcc.c ****   RCC_OscInitStruct->PLL.PLLP = (uint32_t)((((RCC->PLLCFGR & RCC_PLLCFGR_PLLP) + RCC_PLLCFGR_PLLP_0
 2024              		.loc 1 1155 3 is_stmt 1 view .LVU617
 2025              		.loc 1 1155 50 is_stmt 0 view .LVU618
 2026 006e 5368     		ldr	r3, [r2, #4]
 2027              		.loc 1 1155 60 view .LVU619
 2028 0070 03F44033 		and	r3, r3, #196608
 2029              		.loc 1 1155 80 view .LVU620
 2030 0074 03F58033 		add	r3, r3, #65536
 2031              		.loc 1 1155 33 view .LVU621
 2032 0078 DB0B     		lsrs	r3, r3, #15
 2033              		.loc 1 1155 31 view .LVU622
 2034 007a 8362     		str	r3, [r0, #40]
1156:Drivers/STM32F7xx_HAL_Driver/Src/stm32f7xx_hal_rcc.c ****   RCC_OscInitStruct->PLL.PLLQ = (uint32_t)((RCC->PLLCFGR & RCC_PLLCFGR_PLLQ) >> RCC_PLLCFGR_PLLQ_Po
 2035              		.loc 1 1156 3 is_stmt 1 view .LVU623
 2036              		.loc 1 1156 48 is_stmt 0 view .LVU624
 2037 007c 5368     		ldr	r3, [r2, #4]
 2038              		.loc 1 1156 33 view .LVU625
 2039 007e C3F30363 		ubfx	r3, r3, #24, #4
 2040              		.loc 1 1156 31 view .LVU626
 2041 0082 C362     		str	r3, [r0, #44]
1157:Drivers/STM32F7xx_HAL_Driver/Src/stm32f7xx_hal_rcc.c **** #if defined (RCC_PLLCFGR_PLLR)
1158:Drivers/STM32F7xx_HAL_Driver/Src/stm32f7xx_hal_rcc.c ****   RCC_OscInitStruct->PLL.PLLR = (uint32_t)((RCC->PLLCFGR & RCC_PLLCFGR_PLLR) >> POSITION_VAL(RCC_PL
1159:Drivers/STM32F7xx_HAL_Driver/Src/stm32f7xx_hal_rcc.c **** #endif
1160:Drivers/STM32F7xx_HAL_Driver/Src/stm32f7xx_hal_rcc.c **** }
 2042              		.loc 1 1160 1 view .LVU627
 2043 0084 7047     		bx	lr
 2044              	.L184:
1098:Drivers/STM32F7xx_HAL_Driver/Src/stm32f7xx_hal_rcc.c ****   {
 2045              		.loc 1 1098 8 is_stmt 1 view .LVU628
1098:Drivers/STM32F7xx_HAL_Driver/Src/stm32f7xx_hal_rcc.c ****   {
 2046              		.loc 1 1098 15 is_stmt 0 view .LVU629
 2047 0086 104B     		ldr	r3, .L196
 2048 0088 1B68     		ldr	r3, [r3]
1098:Drivers/STM32F7xx_HAL_Driver/Src/stm32f7xx_hal_rcc.c ****   {
 2049              		.loc 1 1098 10 view .LVU630
 2050 008a 13F4803F 		tst	r3, #65536
 2051 008e 03D0     		beq	.L186
1100:Drivers/STM32F7xx_HAL_Driver/Src/stm32f7xx_hal_rcc.c ****   }
 2052              		.loc 1 1100 5 is_stmt 1 view .LVU631
1100:Drivers/STM32F7xx_HAL_Driver/Src/stm32f7xx_hal_rcc.c ****   }
 2053              		.loc 1 1100 33 is_stmt 0 view .LVU632
 2054 0090 4FF48033 		mov	r3, #65536
 2055 0094 4360     		str	r3, [r0, #4]
 2056 0096 BDE7     		b	.L185
 2057              	.L186:
1104:Drivers/STM32F7xx_HAL_Driver/Src/stm32f7xx_hal_rcc.c ****   }
 2058              		.loc 1 1104 5 is_stmt 1 view .LVU633
1104:Drivers/STM32F7xx_HAL_Driver/Src/stm32f7xx_hal_rcc.c ****   }
 2059              		.loc 1 1104 33 is_stmt 0 view .LVU634
 2060 0098 0023     		movs	r3, #0
 2061 009a 4360     		str	r3, [r0, #4]
 2062 009c BAE7     		b	.L185
 2063              	.L187:
1114:Drivers/STM32F7xx_HAL_Driver/Src/stm32f7xx_hal_rcc.c ****   }
ARM GAS  C:\Users\Nina\AppData\Local\Temp\ccnJIoBd.s 			page 63


 2064              		.loc 1 1114 5 is_stmt 1 view .LVU635
1114:Drivers/STM32F7xx_HAL_Driver/Src/stm32f7xx_hal_rcc.c ****   }
 2065              		.loc 1 1114 33 is_stmt 0 view .LVU636
 2066 009e 0023     		movs	r3, #0
 2067 00a0 C360     		str	r3, [r0, #12]
 2068 00a2 BEE7     		b	.L188
 2069              	.L189:
1124:Drivers/STM32F7xx_HAL_Driver/Src/stm32f7xx_hal_rcc.c ****   {
 2070              		.loc 1 1124 8 is_stmt 1 view .LVU637
1124:Drivers/STM32F7xx_HAL_Driver/Src/stm32f7xx_hal_rcc.c ****   {
 2071              		.loc 1 1124 15 is_stmt 0 view .LVU638
 2072 00a4 084B     		ldr	r3, .L196
 2073 00a6 1B6F     		ldr	r3, [r3, #112]
1124:Drivers/STM32F7xx_HAL_Driver/Src/stm32f7xx_hal_rcc.c ****   {
 2074              		.loc 1 1124 10 view .LVU639
 2075 00a8 13F0010F 		tst	r3, #1
 2076 00ac 02D0     		beq	.L191
1126:Drivers/STM32F7xx_HAL_Driver/Src/stm32f7xx_hal_rcc.c ****   }
 2077              		.loc 1 1126 5 is_stmt 1 view .LVU640
1126:Drivers/STM32F7xx_HAL_Driver/Src/stm32f7xx_hal_rcc.c ****   }
 2078              		.loc 1 1126 33 is_stmt 0 view .LVU641
 2079 00ae 0123     		movs	r3, #1
 2080 00b0 8360     		str	r3, [r0, #8]
 2081 00b2 C1E7     		b	.L190
 2082              	.L191:
1130:Drivers/STM32F7xx_HAL_Driver/Src/stm32f7xx_hal_rcc.c ****   }
 2083              		.loc 1 1130 5 is_stmt 1 view .LVU642
1130:Drivers/STM32F7xx_HAL_Driver/Src/stm32f7xx_hal_rcc.c ****   }
 2084              		.loc 1 1130 33 is_stmt 0 view .LVU643
 2085 00b4 0023     		movs	r3, #0
 2086 00b6 8360     		str	r3, [r0, #8]
 2087 00b8 BEE7     		b	.L190
 2088              	.L192:
1140:Drivers/STM32F7xx_HAL_Driver/Src/stm32f7xx_hal_rcc.c ****   }
 2089              		.loc 1 1140 5 is_stmt 1 view .LVU644
1140:Drivers/STM32F7xx_HAL_Driver/Src/stm32f7xx_hal_rcc.c ****   }
 2090              		.loc 1 1140 33 is_stmt 0 view .LVU645
 2091 00ba 0023     		movs	r3, #0
 2092 00bc 4361     		str	r3, [r0, #20]
 2093 00be C2E7     		b	.L193
 2094              	.L194:
1150:Drivers/STM32F7xx_HAL_Driver/Src/stm32f7xx_hal_rcc.c ****   }
 2095              		.loc 1 1150 5 is_stmt 1 view .LVU646
1150:Drivers/STM32F7xx_HAL_Driver/Src/stm32f7xx_hal_rcc.c ****   }
 2096              		.loc 1 1150 37 is_stmt 0 view .LVU647
 2097 00c0 0123     		movs	r3, #1
 2098 00c2 8361     		str	r3, [r0, #24]
 2099 00c4 C6E7     		b	.L195
 2100              	.L197:
 2101 00c6 00BF     		.align	2
 2102              	.L196:
 2103 00c8 00380240 		.word	1073887232
 2104              		.cfi_endproc
 2105              	.LFE148:
 2107              		.section	.text.HAL_RCC_GetClockConfig,"ax",%progbits
 2108              		.align	1
 2109              		.global	HAL_RCC_GetClockConfig
ARM GAS  C:\Users\Nina\AppData\Local\Temp\ccnJIoBd.s 			page 64


 2110              		.syntax unified
 2111              		.thumb
 2112              		.thumb_func
 2113              		.fpu fpv5-sp-d16
 2115              	HAL_RCC_GetClockConfig:
 2116              	.LVL126:
 2117              	.LFB149:
1161:Drivers/STM32F7xx_HAL_Driver/Src/stm32f7xx_hal_rcc.c **** 
1162:Drivers/STM32F7xx_HAL_Driver/Src/stm32f7xx_hal_rcc.c **** /**
1163:Drivers/STM32F7xx_HAL_Driver/Src/stm32f7xx_hal_rcc.c ****   * @brief  Configures the RCC_ClkInitStruct according to the internal
1164:Drivers/STM32F7xx_HAL_Driver/Src/stm32f7xx_hal_rcc.c ****   * RCC configuration registers.
1165:Drivers/STM32F7xx_HAL_Driver/Src/stm32f7xx_hal_rcc.c ****   * @param  RCC_ClkInitStruct pointer to an RCC_ClkInitTypeDef structure that
1166:Drivers/STM32F7xx_HAL_Driver/Src/stm32f7xx_hal_rcc.c ****   * will be configured.
1167:Drivers/STM32F7xx_HAL_Driver/Src/stm32f7xx_hal_rcc.c ****   * @param  pFLatency Pointer on the Flash Latency.
1168:Drivers/STM32F7xx_HAL_Driver/Src/stm32f7xx_hal_rcc.c ****   * @retval None
1169:Drivers/STM32F7xx_HAL_Driver/Src/stm32f7xx_hal_rcc.c ****   */
1170:Drivers/STM32F7xx_HAL_Driver/Src/stm32f7xx_hal_rcc.c **** void HAL_RCC_GetClockConfig(RCC_ClkInitTypeDef  *RCC_ClkInitStruct, uint32_t *pFLatency)
1171:Drivers/STM32F7xx_HAL_Driver/Src/stm32f7xx_hal_rcc.c **** {
 2118              		.loc 1 1171 1 is_stmt 1 view -0
 2119              		.cfi_startproc
 2120              		@ args = 0, pretend = 0, frame = 0
 2121              		@ frame_needed = 0, uses_anonymous_args = 0
 2122              		@ link register save eliminated.
1172:Drivers/STM32F7xx_HAL_Driver/Src/stm32f7xx_hal_rcc.c ****   /* Set all possible values for the Clock type parameter --------------------*/
1173:Drivers/STM32F7xx_HAL_Driver/Src/stm32f7xx_hal_rcc.c ****   RCC_ClkInitStruct->ClockType = RCC_CLOCKTYPE_SYSCLK | RCC_CLOCKTYPE_HCLK | RCC_CLOCKTYPE_PCLK1 | 
 2123              		.loc 1 1173 3 view .LVU649
 2124              		.loc 1 1173 32 is_stmt 0 view .LVU650
 2125 0000 0F23     		movs	r3, #15
 2126 0002 0360     		str	r3, [r0]
1174:Drivers/STM32F7xx_HAL_Driver/Src/stm32f7xx_hal_rcc.c **** 
1175:Drivers/STM32F7xx_HAL_Driver/Src/stm32f7xx_hal_rcc.c ****   /* Get the SYSCLK configuration --------------------------------------------*/
1176:Drivers/STM32F7xx_HAL_Driver/Src/stm32f7xx_hal_rcc.c ****   RCC_ClkInitStruct->SYSCLKSource = (uint32_t)(RCC->CFGR & RCC_CFGR_SW);
 2127              		.loc 1 1176 3 is_stmt 1 view .LVU651
 2128              		.loc 1 1176 51 is_stmt 0 view .LVU652
 2129 0004 0B4B     		ldr	r3, .L199
 2130 0006 9A68     		ldr	r2, [r3, #8]
 2131              		.loc 1 1176 37 view .LVU653
 2132 0008 02F00302 		and	r2, r2, #3
 2133              		.loc 1 1176 35 view .LVU654
 2134 000c 4260     		str	r2, [r0, #4]
1177:Drivers/STM32F7xx_HAL_Driver/Src/stm32f7xx_hal_rcc.c **** 
1178:Drivers/STM32F7xx_HAL_Driver/Src/stm32f7xx_hal_rcc.c ****   /* Get the HCLK configuration ----------------------------------------------*/
1179:Drivers/STM32F7xx_HAL_Driver/Src/stm32f7xx_hal_rcc.c ****   RCC_ClkInitStruct->AHBCLKDivider = (uint32_t)(RCC->CFGR & RCC_CFGR_HPRE);
 2135              		.loc 1 1179 3 is_stmt 1 view .LVU655
 2136              		.loc 1 1179 52 is_stmt 0 view .LVU656
 2137 000e 9A68     		ldr	r2, [r3, #8]
 2138              		.loc 1 1179 38 view .LVU657
 2139 0010 02F0F002 		and	r2, r2, #240
 2140              		.loc 1 1179 36 view .LVU658
 2141 0014 8260     		str	r2, [r0, #8]
1180:Drivers/STM32F7xx_HAL_Driver/Src/stm32f7xx_hal_rcc.c **** 
1181:Drivers/STM32F7xx_HAL_Driver/Src/stm32f7xx_hal_rcc.c ****   /* Get the APB1 configuration ----------------------------------------------*/
1182:Drivers/STM32F7xx_HAL_Driver/Src/stm32f7xx_hal_rcc.c ****   RCC_ClkInitStruct->APB1CLKDivider = (uint32_t)(RCC->CFGR & RCC_CFGR_PPRE1);
 2142              		.loc 1 1182 3 is_stmt 1 view .LVU659
 2143              		.loc 1 1182 53 is_stmt 0 view .LVU660
 2144 0016 9A68     		ldr	r2, [r3, #8]
 2145              		.loc 1 1182 39 view .LVU661
ARM GAS  C:\Users\Nina\AppData\Local\Temp\ccnJIoBd.s 			page 65


 2146 0018 02F4E052 		and	r2, r2, #7168
 2147              		.loc 1 1182 37 view .LVU662
 2148 001c C260     		str	r2, [r0, #12]
1183:Drivers/STM32F7xx_HAL_Driver/Src/stm32f7xx_hal_rcc.c **** 
1184:Drivers/STM32F7xx_HAL_Driver/Src/stm32f7xx_hal_rcc.c ****   /* Get the APB2 configuration ----------------------------------------------*/
1185:Drivers/STM32F7xx_HAL_Driver/Src/stm32f7xx_hal_rcc.c ****   RCC_ClkInitStruct->APB2CLKDivider = (uint32_t)((RCC->CFGR & RCC_CFGR_PPRE2) >> 3);
 2149              		.loc 1 1185 3 is_stmt 1 view .LVU663
 2150              		.loc 1 1185 54 is_stmt 0 view .LVU664
 2151 001e 9B68     		ldr	r3, [r3, #8]
 2152              		.loc 1 1185 39 view .LVU665
 2153 0020 DB08     		lsrs	r3, r3, #3
 2154 0022 03F4E053 		and	r3, r3, #7168
 2155              		.loc 1 1185 37 view .LVU666
 2156 0026 0361     		str	r3, [r0, #16]
1186:Drivers/STM32F7xx_HAL_Driver/Src/stm32f7xx_hal_rcc.c **** 
1187:Drivers/STM32F7xx_HAL_Driver/Src/stm32f7xx_hal_rcc.c ****   /* Get the Flash Wait State (Latency) configuration ------------------------*/
1188:Drivers/STM32F7xx_HAL_Driver/Src/stm32f7xx_hal_rcc.c ****   *pFLatency = (uint32_t)(FLASH->ACR & FLASH_ACR_LATENCY);
 2157              		.loc 1 1188 3 is_stmt 1 view .LVU667
 2158              		.loc 1 1188 32 is_stmt 0 view .LVU668
 2159 0028 034B     		ldr	r3, .L199+4
 2160 002a 1B68     		ldr	r3, [r3]
 2161              		.loc 1 1188 16 view .LVU669
 2162 002c 03F00F03 		and	r3, r3, #15
 2163              		.loc 1 1188 14 view .LVU670
 2164 0030 0B60     		str	r3, [r1]
1189:Drivers/STM32F7xx_HAL_Driver/Src/stm32f7xx_hal_rcc.c **** }
 2165              		.loc 1 1189 1 view .LVU671
 2166 0032 7047     		bx	lr
 2167              	.L200:
 2168              		.align	2
 2169              	.L199:
 2170 0034 00380240 		.word	1073887232
 2171 0038 003C0240 		.word	1073888256
 2172              		.cfi_endproc
 2173              	.LFE149:
 2175              		.section	.text.HAL_RCC_CSSCallback,"ax",%progbits
 2176              		.align	1
 2177              		.weak	HAL_RCC_CSSCallback
 2178              		.syntax unified
 2179              		.thumb
 2180              		.thumb_func
 2181              		.fpu fpv5-sp-d16
 2183              	HAL_RCC_CSSCallback:
 2184              	.LFB151:
1190:Drivers/STM32F7xx_HAL_Driver/Src/stm32f7xx_hal_rcc.c **** 
1191:Drivers/STM32F7xx_HAL_Driver/Src/stm32f7xx_hal_rcc.c **** /**
1192:Drivers/STM32F7xx_HAL_Driver/Src/stm32f7xx_hal_rcc.c ****   * @brief This function handles the RCC CSS interrupt request.
1193:Drivers/STM32F7xx_HAL_Driver/Src/stm32f7xx_hal_rcc.c ****   * @note This API should be called under the NMI_Handler().
1194:Drivers/STM32F7xx_HAL_Driver/Src/stm32f7xx_hal_rcc.c ****   * @retval None
1195:Drivers/STM32F7xx_HAL_Driver/Src/stm32f7xx_hal_rcc.c ****   */
1196:Drivers/STM32F7xx_HAL_Driver/Src/stm32f7xx_hal_rcc.c **** void HAL_RCC_NMI_IRQHandler(void)
1197:Drivers/STM32F7xx_HAL_Driver/Src/stm32f7xx_hal_rcc.c **** {
1198:Drivers/STM32F7xx_HAL_Driver/Src/stm32f7xx_hal_rcc.c ****   /* Check RCC CSSF flag  */
1199:Drivers/STM32F7xx_HAL_Driver/Src/stm32f7xx_hal_rcc.c ****   if(__HAL_RCC_GET_IT(RCC_IT_CSS))
1200:Drivers/STM32F7xx_HAL_Driver/Src/stm32f7xx_hal_rcc.c ****   {
1201:Drivers/STM32F7xx_HAL_Driver/Src/stm32f7xx_hal_rcc.c ****     /* RCC Clock Security System interrupt user callback */
1202:Drivers/STM32F7xx_HAL_Driver/Src/stm32f7xx_hal_rcc.c ****     HAL_RCC_CSSCallback();
ARM GAS  C:\Users\Nina\AppData\Local\Temp\ccnJIoBd.s 			page 66


1203:Drivers/STM32F7xx_HAL_Driver/Src/stm32f7xx_hal_rcc.c **** 
1204:Drivers/STM32F7xx_HAL_Driver/Src/stm32f7xx_hal_rcc.c ****     /* Clear RCC CSS pending bit */
1205:Drivers/STM32F7xx_HAL_Driver/Src/stm32f7xx_hal_rcc.c ****     __HAL_RCC_CLEAR_IT(RCC_IT_CSS);
1206:Drivers/STM32F7xx_HAL_Driver/Src/stm32f7xx_hal_rcc.c ****   }
1207:Drivers/STM32F7xx_HAL_Driver/Src/stm32f7xx_hal_rcc.c **** }
1208:Drivers/STM32F7xx_HAL_Driver/Src/stm32f7xx_hal_rcc.c **** 
1209:Drivers/STM32F7xx_HAL_Driver/Src/stm32f7xx_hal_rcc.c **** /**
1210:Drivers/STM32F7xx_HAL_Driver/Src/stm32f7xx_hal_rcc.c ****   * @brief  RCC Clock Security System interrupt callback
1211:Drivers/STM32F7xx_HAL_Driver/Src/stm32f7xx_hal_rcc.c ****   * @retval None
1212:Drivers/STM32F7xx_HAL_Driver/Src/stm32f7xx_hal_rcc.c ****   */
1213:Drivers/STM32F7xx_HAL_Driver/Src/stm32f7xx_hal_rcc.c **** __weak void HAL_RCC_CSSCallback(void)
1214:Drivers/STM32F7xx_HAL_Driver/Src/stm32f7xx_hal_rcc.c **** {
 2185              		.loc 1 1214 1 is_stmt 1 view -0
 2186              		.cfi_startproc
 2187              		@ args = 0, pretend = 0, frame = 0
 2188              		@ frame_needed = 0, uses_anonymous_args = 0
 2189              		@ link register save eliminated.
1215:Drivers/STM32F7xx_HAL_Driver/Src/stm32f7xx_hal_rcc.c ****   /* NOTE : This function Should not be modified, when the callback is needed,
1216:Drivers/STM32F7xx_HAL_Driver/Src/stm32f7xx_hal_rcc.c ****             the HAL_RCC_CSSCallback could be implemented in the user file
1217:Drivers/STM32F7xx_HAL_Driver/Src/stm32f7xx_hal_rcc.c ****    */
1218:Drivers/STM32F7xx_HAL_Driver/Src/stm32f7xx_hal_rcc.c **** }
 2190              		.loc 1 1218 1 view .LVU673
 2191 0000 7047     		bx	lr
 2192              		.cfi_endproc
 2193              	.LFE151:
 2195              		.section	.text.HAL_RCC_NMI_IRQHandler,"ax",%progbits
 2196              		.align	1
 2197              		.global	HAL_RCC_NMI_IRQHandler
 2198              		.syntax unified
 2199              		.thumb
 2200              		.thumb_func
 2201              		.fpu fpv5-sp-d16
 2203              	HAL_RCC_NMI_IRQHandler:
 2204              	.LFB150:
1197:Drivers/STM32F7xx_HAL_Driver/Src/stm32f7xx_hal_rcc.c ****   /* Check RCC CSSF flag  */
 2205              		.loc 1 1197 1 view -0
 2206              		.cfi_startproc
 2207              		@ args = 0, pretend = 0, frame = 0
 2208              		@ frame_needed = 0, uses_anonymous_args = 0
 2209 0000 08B5     		push	{r3, lr}
 2210              	.LCFI17:
 2211              		.cfi_def_cfa_offset 8
 2212              		.cfi_offset 3, -8
 2213              		.cfi_offset 14, -4
1199:Drivers/STM32F7xx_HAL_Driver/Src/stm32f7xx_hal_rcc.c ****   {
 2214              		.loc 1 1199 3 view .LVU675
1199:Drivers/STM32F7xx_HAL_Driver/Src/stm32f7xx_hal_rcc.c ****   {
 2215              		.loc 1 1199 6 is_stmt 0 view .LVU676
 2216 0002 064B     		ldr	r3, .L206
 2217 0004 DB68     		ldr	r3, [r3, #12]
1199:Drivers/STM32F7xx_HAL_Driver/Src/stm32f7xx_hal_rcc.c ****   {
 2218              		.loc 1 1199 5 view .LVU677
 2219 0006 13F0800F 		tst	r3, #128
 2220 000a 00D1     		bne	.L205
 2221              	.L202:
1207:Drivers/STM32F7xx_HAL_Driver/Src/stm32f7xx_hal_rcc.c **** 
 2222              		.loc 1 1207 1 view .LVU678
ARM GAS  C:\Users\Nina\AppData\Local\Temp\ccnJIoBd.s 			page 67


 2223 000c 08BD     		pop	{r3, pc}
 2224              	.L205:
1202:Drivers/STM32F7xx_HAL_Driver/Src/stm32f7xx_hal_rcc.c **** 
 2225              		.loc 1 1202 5 is_stmt 1 view .LVU679
 2226 000e FFF7FEFF 		bl	HAL_RCC_CSSCallback
 2227              	.LVL127:
1205:Drivers/STM32F7xx_HAL_Driver/Src/stm32f7xx_hal_rcc.c ****   }
 2228              		.loc 1 1205 5 view .LVU680
 2229 0012 034B     		ldr	r3, .L206+4
 2230 0014 8022     		movs	r2, #128
 2231 0016 1A70     		strb	r2, [r3]
1207:Drivers/STM32F7xx_HAL_Driver/Src/stm32f7xx_hal_rcc.c **** 
 2232              		.loc 1 1207 1 is_stmt 0 view .LVU681
 2233 0018 F8E7     		b	.L202
 2234              	.L207:
 2235 001a 00BF     		.align	2
 2236              	.L206:
 2237 001c 00380240 		.word	1073887232
 2238 0020 0E380240 		.word	1073887246
 2239              		.cfi_endproc
 2240              	.LFE150:
 2242              		.text
 2243              	.Letext0:
 2244              		.file 2 "c:\\program files (x86)\\gnu tools arm embedded\\9 2019-q4-major\\arm-none-eabi\\include\
 2245              		.file 3 "c:\\program files (x86)\\gnu tools arm embedded\\9 2019-q4-major\\arm-none-eabi\\include\
 2246              		.file 4 "Drivers/CMSIS/Include/core_cm7.h"
 2247              		.file 5 "Drivers/CMSIS/Device/ST/STM32F7xx/Include/system_stm32f7xx.h"
 2248              		.file 6 "Drivers/CMSIS/Device/ST/STM32F7xx/Include/stm32f746xx.h"
 2249              		.file 7 "Drivers/CMSIS/Device/ST/STM32F7xx/Include/stm32f7xx.h"
 2250              		.file 8 "c:\\program files (x86)\\gnu tools arm embedded\\9 2019-q4-major\\arm-none-eabi\\include\
 2251              		.file 9 "c:\\program files (x86)\\gnu tools arm embedded\\9 2019-q4-major\\arm-none-eabi\\include\
 2252              		.file 10 "c:\\program files (x86)\\gnu tools arm embedded\\9 2019-q4-major\\lib\\gcc\\arm-none-eab
 2253              		.file 11 "c:\\program files (x86)\\gnu tools arm embedded\\9 2019-q4-major\\arm-none-eabi\\include
 2254              		.file 12 "Drivers/STM32F7xx_HAL_Driver/Inc/stm32f7xx_hal_def.h"
 2255              		.file 13 "Drivers/STM32F7xx_HAL_Driver/Inc/stm32f7xx_hal_rcc_ex.h"
 2256              		.file 14 "Drivers/STM32F7xx_HAL_Driver/Inc/stm32f7xx_hal_rcc.h"
 2257              		.file 15 "Drivers/STM32F7xx_HAL_Driver/Inc/stm32f7xx_hal_gpio.h"
 2258              		.file 16 "Drivers/STM32F7xx_HAL_Driver/Inc/stm32f7xx_hal.h"
ARM GAS  C:\Users\Nina\AppData\Local\Temp\ccnJIoBd.s 			page 68

