ARM GAS  C:\Users\Nina\AppData\Local\Temp\ccfkNb9x.s 			page 1


   1              		.cpu cortex-m7
   2              		.eabi_attribute 27, 1
   3              		.eabi_attribute 28, 1
   4              		.eabi_attribute 20, 1
   5              		.eabi_attribute 21, 1
   6              		.eabi_attribute 23, 3
   7              		.eabi_attribute 24, 1
   8              		.eabi_attribute 25, 1
   9              		.eabi_attribute 26, 1
  10              		.eabi_attribute 30, 1
  11              		.eabi_attribute 34, 1
  12              		.eabi_attribute 18, 4
  13              		.file	"stm32f7xx_hal_spdifrx.c"
  14              		.text
  15              	.Ltext0:
  16              		.cfi_sections	.debug_frame
  17              		.section	.text.SPDIFRX_WaitOnFlagUntilTimeout,"ax",%progbits
  18              		.align	1
  19              		.arch armv7e-m
  20              		.syntax unified
  21              		.thumb
  22              		.thumb_func
  23              		.fpu fpv5-sp-d16
  25              	SPDIFRX_WaitOnFlagUntilTimeout:
  26              	.LVL0:
  27              	.LFB165:
  28              		.file 1 "Drivers/STM32F7xx_HAL_Driver/Src/stm32f7xx_hal_spdifrx.c"
   1:Drivers/STM32F7xx_HAL_Driver/Src/stm32f7xx_hal_spdifrx.c **** /**
   2:Drivers/STM32F7xx_HAL_Driver/Src/stm32f7xx_hal_spdifrx.c ****   ******************************************************************************
   3:Drivers/STM32F7xx_HAL_Driver/Src/stm32f7xx_hal_spdifrx.c ****   * @file    stm32f7xx_hal_spdifrx.c
   4:Drivers/STM32F7xx_HAL_Driver/Src/stm32f7xx_hal_spdifrx.c ****   * @author  MCD Application Team
   5:Drivers/STM32F7xx_HAL_Driver/Src/stm32f7xx_hal_spdifrx.c ****   * @brief   This file provides firmware functions to manage the following 
   6:Drivers/STM32F7xx_HAL_Driver/Src/stm32f7xx_hal_spdifrx.c ****   *          functionalities of the SPDIFRX audio interface:
   7:Drivers/STM32F7xx_HAL_Driver/Src/stm32f7xx_hal_spdifrx.c ****   *           + Initialization and Configuration
   8:Drivers/STM32F7xx_HAL_Driver/Src/stm32f7xx_hal_spdifrx.c ****   *           + Data transfers functions
   9:Drivers/STM32F7xx_HAL_Driver/Src/stm32f7xx_hal_spdifrx.c ****   *           + DMA transfers management
  10:Drivers/STM32F7xx_HAL_Driver/Src/stm32f7xx_hal_spdifrx.c ****   *           + Interrupts and flags management 
  11:Drivers/STM32F7xx_HAL_Driver/Src/stm32f7xx_hal_spdifrx.c ****   @verbatim
  12:Drivers/STM32F7xx_HAL_Driver/Src/stm32f7xx_hal_spdifrx.c ****  ===============================================================================
  13:Drivers/STM32F7xx_HAL_Driver/Src/stm32f7xx_hal_spdifrx.c ****                   ##### How to use this driver #####
  14:Drivers/STM32F7xx_HAL_Driver/Src/stm32f7xx_hal_spdifrx.c ****  ===============================================================================
  15:Drivers/STM32F7xx_HAL_Driver/Src/stm32f7xx_hal_spdifrx.c ****  [..]
  16:Drivers/STM32F7xx_HAL_Driver/Src/stm32f7xx_hal_spdifrx.c ****     The SPDIFRX HAL driver can be used as follow:
  17:Drivers/STM32F7xx_HAL_Driver/Src/stm32f7xx_hal_spdifrx.c ****     
  18:Drivers/STM32F7xx_HAL_Driver/Src/stm32f7xx_hal_spdifrx.c ****     (#) Declare SPDIFRX_HandleTypeDef handle structure.
  19:Drivers/STM32F7xx_HAL_Driver/Src/stm32f7xx_hal_spdifrx.c ****     (#) Initialize the SPDIFRX low level resources by implement the HAL_SPDIFRX_MspInit() API:
  20:Drivers/STM32F7xx_HAL_Driver/Src/stm32f7xx_hal_spdifrx.c ****         (##) Enable the SPDIFRX interface clock.                      
  21:Drivers/STM32F7xx_HAL_Driver/Src/stm32f7xx_hal_spdifrx.c ****         (##) SPDIFRX pins configuration:
  22:Drivers/STM32F7xx_HAL_Driver/Src/stm32f7xx_hal_spdifrx.c ****             (+++) Enable the clock for the SPDIFRX GPIOs.
  23:Drivers/STM32F7xx_HAL_Driver/Src/stm32f7xx_hal_spdifrx.c ****             (+++) Configure these SPDIFRX pins as alternate function pull-up.
  24:Drivers/STM32F7xx_HAL_Driver/Src/stm32f7xx_hal_spdifrx.c ****         (##) NVIC configuration if you need to use interrupt process (HAL_SPDIFRX_ReceiveControlFlo
  25:Drivers/STM32F7xx_HAL_Driver/Src/stm32f7xx_hal_spdifrx.c ****             (+++) Configure the SPDIFRX interrupt priority.
  26:Drivers/STM32F7xx_HAL_Driver/Src/stm32f7xx_hal_spdifrx.c ****             (+++) Enable the NVIC SPDIFRX IRQ handle.
  27:Drivers/STM32F7xx_HAL_Driver/Src/stm32f7xx_hal_spdifrx.c ****         (##) DMA Configuration if you need to use DMA process (HAL_SPDIFRX_ReceiveDataFlow_DMA() an
  28:Drivers/STM32F7xx_HAL_Driver/Src/stm32f7xx_hal_spdifrx.c ****             (+++) Declare a DMA handle structure for the reception of the Data Flow channel.
  29:Drivers/STM32F7xx_HAL_Driver/Src/stm32f7xx_hal_spdifrx.c ****             (+++) Declare a DMA handle structure for the reception of the Control Flow channel.
  30:Drivers/STM32F7xx_HAL_Driver/Src/stm32f7xx_hal_spdifrx.c ****             (+++) Enable the DMAx interface clock.
ARM GAS  C:\Users\Nina\AppData\Local\Temp\ccfkNb9x.s 			page 2


  31:Drivers/STM32F7xx_HAL_Driver/Src/stm32f7xx_hal_spdifrx.c ****             (+++) Configure the declared DMA handle structure CtrlRx/DataRx with the required param
  32:Drivers/STM32F7xx_HAL_Driver/Src/stm32f7xx_hal_spdifrx.c ****             (+++) Configure the DMA Channel.
  33:Drivers/STM32F7xx_HAL_Driver/Src/stm32f7xx_hal_spdifrx.c ****             (+++) Associate the initialized DMA handle to the SPDIFRX DMA CtrlRx/DataRx handle.
  34:Drivers/STM32F7xx_HAL_Driver/Src/stm32f7xx_hal_spdifrx.c ****             (+++) Configure the priority and enable the NVIC for the transfer complete interrupt on
  35:Drivers/STM32F7xx_HAL_Driver/Src/stm32f7xx_hal_spdifrx.c ****                 DMA CtrlRx/DataRx channel.
  36:Drivers/STM32F7xx_HAL_Driver/Src/stm32f7xx_hal_spdifrx.c ****   
  37:Drivers/STM32F7xx_HAL_Driver/Src/stm32f7xx_hal_spdifrx.c ****    (#) Program the input selection, re-tries number, wait for activity, channel status selection, d
  38:Drivers/STM32F7xx_HAL_Driver/Src/stm32f7xx_hal_spdifrx.c ****        using HAL_SPDIFRX_Init() function.
  39:Drivers/STM32F7xx_HAL_Driver/Src/stm32f7xx_hal_spdifrx.c **** 
  40:Drivers/STM32F7xx_HAL_Driver/Src/stm32f7xx_hal_spdifrx.c ****    -@- The specific SPDIFRX interrupts (RXNE/CSRNE and Error Interrupts) will be managed using the 
  41:Drivers/STM32F7xx_HAL_Driver/Src/stm32f7xx_hal_spdifrx.c ****        __SPDIFRX_ENABLE_IT() and __SPDIFRX_DISABLE_IT() inside the receive process.
  42:Drivers/STM32F7xx_HAL_Driver/Src/stm32f7xx_hal_spdifrx.c ****    -@- Make sure that ck_spdif clock is configured. 
  43:Drivers/STM32F7xx_HAL_Driver/Src/stm32f7xx_hal_spdifrx.c ****    
  44:Drivers/STM32F7xx_HAL_Driver/Src/stm32f7xx_hal_spdifrx.c ****    (#) Three operation modes are available within this driver :
  45:Drivers/STM32F7xx_HAL_Driver/Src/stm32f7xx_hal_spdifrx.c ****   
  46:Drivers/STM32F7xx_HAL_Driver/Src/stm32f7xx_hal_spdifrx.c ****    *** Polling mode for reception operation (for debug purpose) ***
  47:Drivers/STM32F7xx_HAL_Driver/Src/stm32f7xx_hal_spdifrx.c ****    ================================================================
  48:Drivers/STM32F7xx_HAL_Driver/Src/stm32f7xx_hal_spdifrx.c ****    [..]    
  49:Drivers/STM32F7xx_HAL_Driver/Src/stm32f7xx_hal_spdifrx.c ****      (+) Receive data flow in blocking mode using HAL_SPDIFRX_ReceiveDataFlow()
  50:Drivers/STM32F7xx_HAL_Driver/Src/stm32f7xx_hal_spdifrx.c ****          (+) Receive control flow of data in blocking mode using HAL_SPDIFRX_ReceiveControlFlow()
  51:Drivers/STM32F7xx_HAL_Driver/Src/stm32f7xx_hal_spdifrx.c ****    
  52:Drivers/STM32F7xx_HAL_Driver/Src/stm32f7xx_hal_spdifrx.c ****    *** Interrupt mode for reception operation ***
  53:Drivers/STM32F7xx_HAL_Driver/Src/stm32f7xx_hal_spdifrx.c ****    =========================================
  54:Drivers/STM32F7xx_HAL_Driver/Src/stm32f7xx_hal_spdifrx.c ****    [..]    
  55:Drivers/STM32F7xx_HAL_Driver/Src/stm32f7xx_hal_spdifrx.c ****      (+) Receive an amount of data (Data Flow) in non blocking mode using HAL_SPDIFRX_ReceiveDataFl
  56:Drivers/STM32F7xx_HAL_Driver/Src/stm32f7xx_hal_spdifrx.c ****          (+) Receive an amount of data (Control Flow) in non blocking mode using HAL_SPDIFRX_Receiv
  57:Drivers/STM32F7xx_HAL_Driver/Src/stm32f7xx_hal_spdifrx.c ****      (+) At reception end of half transfer HAL_SPDIFRX_RxHalfCpltCallback is executed and user can 
  58:Drivers/STM32F7xx_HAL_Driver/Src/stm32f7xx_hal_spdifrx.c ****          add his own code by customization of function pointer HAL_SPDIFRX_RxHalfCpltCallback 
  59:Drivers/STM32F7xx_HAL_Driver/Src/stm32f7xx_hal_spdifrx.c ****      (+) At reception end of transfer HAL_SPDIFRX_RxCpltCallback is executed and user can 
  60:Drivers/STM32F7xx_HAL_Driver/Src/stm32f7xx_hal_spdifrx.c ****          add his own code by customization of function pointer HAL_SPDIFRX_RxCpltCallback
  61:Drivers/STM32F7xx_HAL_Driver/Src/stm32f7xx_hal_spdifrx.c ****      (+) In case of transfer Error, HAL_SPDIFRX_ErrorCallback() function is executed and user can 
  62:Drivers/STM32F7xx_HAL_Driver/Src/stm32f7xx_hal_spdifrx.c ****          add his own code by customization of function pointer HAL_SPDIFRX_ErrorCallback
  63:Drivers/STM32F7xx_HAL_Driver/Src/stm32f7xx_hal_spdifrx.c **** 
  64:Drivers/STM32F7xx_HAL_Driver/Src/stm32f7xx_hal_spdifrx.c ****    *** DMA mode for reception operation ***
  65:Drivers/STM32F7xx_HAL_Driver/Src/stm32f7xx_hal_spdifrx.c ****    ========================================
  66:Drivers/STM32F7xx_HAL_Driver/Src/stm32f7xx_hal_spdifrx.c ****    [..] 
  67:Drivers/STM32F7xx_HAL_Driver/Src/stm32f7xx_hal_spdifrx.c ****      (+) Receive an amount of data (Data Flow) in non blocking mode (DMA) using HAL_SPDIFRX_Receive
  68:Drivers/STM32F7xx_HAL_Driver/Src/stm32f7xx_hal_spdifrx.c ****          (+) Receive an amount of data (Control Flow) in non blocking mode (DMA) using HAL_SPDIFRX_
  69:Drivers/STM32F7xx_HAL_Driver/Src/stm32f7xx_hal_spdifrx.c ****      (+) At reception end of half transfer HAL_SPDIFRX_RxHalfCpltCallback is executed and user can 
  70:Drivers/STM32F7xx_HAL_Driver/Src/stm32f7xx_hal_spdifrx.c ****          add his own code by customization of function pointer HAL_SPDIFRX_RxHalfCpltCallback 
  71:Drivers/STM32F7xx_HAL_Driver/Src/stm32f7xx_hal_spdifrx.c ****      (+) At reception end of transfer HAL_SPDIFRX_RxCpltCallback is executed and user can 
  72:Drivers/STM32F7xx_HAL_Driver/Src/stm32f7xx_hal_spdifrx.c ****          add his own code by customization of function pointer HAL_SPDIFRX_RxCpltCallback
  73:Drivers/STM32F7xx_HAL_Driver/Src/stm32f7xx_hal_spdifrx.c ****      (+) In case of transfer Error, HAL_SPDIFRX_ErrorCallback() function is executed and user can 
  74:Drivers/STM32F7xx_HAL_Driver/Src/stm32f7xx_hal_spdifrx.c ****          add his own code by customization of function pointer HAL_SPDIFRX_ErrorCallback
  75:Drivers/STM32F7xx_HAL_Driver/Src/stm32f7xx_hal_spdifrx.c ****      (+) Stop the DMA Transfer using HAL_SPDIFRX_DMAStop()
  76:Drivers/STM32F7xx_HAL_Driver/Src/stm32f7xx_hal_spdifrx.c **** 
  77:Drivers/STM32F7xx_HAL_Driver/Src/stm32f7xx_hal_spdifrx.c ****    *** SPDIFRX HAL driver macros list ***
  78:Drivers/STM32F7xx_HAL_Driver/Src/stm32f7xx_hal_spdifrx.c ****    =============================================
  79:Drivers/STM32F7xx_HAL_Driver/Src/stm32f7xx_hal_spdifrx.c ****    [..]
  80:Drivers/STM32F7xx_HAL_Driver/Src/stm32f7xx_hal_spdifrx.c ****      Below the list of most used macros in USART HAL driver.
  81:Drivers/STM32F7xx_HAL_Driver/Src/stm32f7xx_hal_spdifrx.c ****       (+) __HAL_SPDIFRX_IDLE: Disable the specified SPDIFRX peripheral (IDEL State)
  82:Drivers/STM32F7xx_HAL_Driver/Src/stm32f7xx_hal_spdifrx.c ****       (+) __HAL_SPDIFRX_SYNC: Enable the synchronization state of the specified SPDIFRX peripheral 
  83:Drivers/STM32F7xx_HAL_Driver/Src/stm32f7xx_hal_spdifrx.c ****       (+) __HAL_SPDIFRX_RCV: Enable the receive state of the specified SPDIFRX peripheral (RCV Stat
  84:Drivers/STM32F7xx_HAL_Driver/Src/stm32f7xx_hal_spdifrx.c ****       (+) __HAL_SPDIFRX_ENABLE_IT : Enable the specified SPDIFRX interrupts
  85:Drivers/STM32F7xx_HAL_Driver/Src/stm32f7xx_hal_spdifrx.c ****       (+) __HAL_SPDIFRX_DISABLE_IT : Disable the specified SPDIFRX interrupts
  86:Drivers/STM32F7xx_HAL_Driver/Src/stm32f7xx_hal_spdifrx.c ****       (+) __HAL_SPDIFRX_GET_FLAG: Check whether the specified SPDIFRX flag is set or not.
  87:Drivers/STM32F7xx_HAL_Driver/Src/stm32f7xx_hal_spdifrx.c **** 
ARM GAS  C:\Users\Nina\AppData\Local\Temp\ccfkNb9x.s 			page 3


  88:Drivers/STM32F7xx_HAL_Driver/Src/stm32f7xx_hal_spdifrx.c ****     [..]
  89:Drivers/STM32F7xx_HAL_Driver/Src/stm32f7xx_hal_spdifrx.c ****       (@) You can refer to the SPDIFRX HAL driver header file for more useful macros
  90:Drivers/STM32F7xx_HAL_Driver/Src/stm32f7xx_hal_spdifrx.c **** 
  91:Drivers/STM32F7xx_HAL_Driver/Src/stm32f7xx_hal_spdifrx.c ****   @endverbatim
  92:Drivers/STM32F7xx_HAL_Driver/Src/stm32f7xx_hal_spdifrx.c ****   ******************************************************************************
  93:Drivers/STM32F7xx_HAL_Driver/Src/stm32f7xx_hal_spdifrx.c ****   * @attention
  94:Drivers/STM32F7xx_HAL_Driver/Src/stm32f7xx_hal_spdifrx.c ****   *
  95:Drivers/STM32F7xx_HAL_Driver/Src/stm32f7xx_hal_spdifrx.c ****   * <h2><center>&copy; COPYRIGHT(c) 2017 STMicroelectronics</center></h2>
  96:Drivers/STM32F7xx_HAL_Driver/Src/stm32f7xx_hal_spdifrx.c ****   *
  97:Drivers/STM32F7xx_HAL_Driver/Src/stm32f7xx_hal_spdifrx.c ****   * Redistribution and use in source and binary forms, with or without modification,
  98:Drivers/STM32F7xx_HAL_Driver/Src/stm32f7xx_hal_spdifrx.c ****   * are permitted provided that the following conditions are met:
  99:Drivers/STM32F7xx_HAL_Driver/Src/stm32f7xx_hal_spdifrx.c ****   *   1. Redistributions of source code must retain the above copyright notice,
 100:Drivers/STM32F7xx_HAL_Driver/Src/stm32f7xx_hal_spdifrx.c ****   *      this list of conditions and the following disclaimer.
 101:Drivers/STM32F7xx_HAL_Driver/Src/stm32f7xx_hal_spdifrx.c ****   *   2. Redistributions in binary form must reproduce the above copyright notice,
 102:Drivers/STM32F7xx_HAL_Driver/Src/stm32f7xx_hal_spdifrx.c ****   *      this list of conditions and the following disclaimer in the documentation
 103:Drivers/STM32F7xx_HAL_Driver/Src/stm32f7xx_hal_spdifrx.c ****   *      and/or other materials provided with the distribution.
 104:Drivers/STM32F7xx_HAL_Driver/Src/stm32f7xx_hal_spdifrx.c ****   *   3. Neither the name of STMicroelectronics nor the names of its contributors
 105:Drivers/STM32F7xx_HAL_Driver/Src/stm32f7xx_hal_spdifrx.c ****   *      may be used to endorse or promote products derived from this software
 106:Drivers/STM32F7xx_HAL_Driver/Src/stm32f7xx_hal_spdifrx.c ****   *      without specific prior written permission.
 107:Drivers/STM32F7xx_HAL_Driver/Src/stm32f7xx_hal_spdifrx.c ****   *
 108:Drivers/STM32F7xx_HAL_Driver/Src/stm32f7xx_hal_spdifrx.c ****   * THIS SOFTWARE IS PROVIDED BY THE COPYRIGHT HOLDERS AND CONTRIBUTORS "AS IS"
 109:Drivers/STM32F7xx_HAL_Driver/Src/stm32f7xx_hal_spdifrx.c ****   * AND ANY EXPRESS OR IMPLIED WARRANTIES, INCLUDING, BUT NOT LIMITED TO, THE
 110:Drivers/STM32F7xx_HAL_Driver/Src/stm32f7xx_hal_spdifrx.c ****   * IMPLIED WARRANTIES OF MERCHANTABILITY AND FITNESS FOR A PARTICULAR PURPOSE ARE
 111:Drivers/STM32F7xx_HAL_Driver/Src/stm32f7xx_hal_spdifrx.c ****   * DISCLAIMED. IN NO EVENT SHALL THE COPYRIGHT HOLDER OR CONTRIBUTORS BE LIABLE
 112:Drivers/STM32F7xx_HAL_Driver/Src/stm32f7xx_hal_spdifrx.c ****   * FOR ANY DIRECT, INDIRECT, INCIDENTAL, SPECIAL, EXEMPLARY, OR CONSEQUENTIAL
 113:Drivers/STM32F7xx_HAL_Driver/Src/stm32f7xx_hal_spdifrx.c ****   * DAMAGES (INCLUDING, BUT NOT LIMITED TO, PROCUREMENT OF SUBSTITUTE GOODS OR
 114:Drivers/STM32F7xx_HAL_Driver/Src/stm32f7xx_hal_spdifrx.c ****   * SERVICES; LOSS OF USE, DATA, OR PROFITS; OR BUSINESS INTERRUPTION) HOWEVER
 115:Drivers/STM32F7xx_HAL_Driver/Src/stm32f7xx_hal_spdifrx.c ****   * CAUSED AND ON ANY THEORY OF LIABILITY, WHETHER IN CONTRACT, STRICT LIABILITY,
 116:Drivers/STM32F7xx_HAL_Driver/Src/stm32f7xx_hal_spdifrx.c ****   * OR TORT (INCLUDING NEGLIGENCE OR OTHERWISE) ARISING IN ANY WAY OUT OF THE USE
 117:Drivers/STM32F7xx_HAL_Driver/Src/stm32f7xx_hal_spdifrx.c ****   * OF THIS SOFTWARE, EVEN IF ADVISED OF THE POSSIBILITY OF SUCH DAMAGE.
 118:Drivers/STM32F7xx_HAL_Driver/Src/stm32f7xx_hal_spdifrx.c ****   *
 119:Drivers/STM32F7xx_HAL_Driver/Src/stm32f7xx_hal_spdifrx.c ****   ******************************************************************************
 120:Drivers/STM32F7xx_HAL_Driver/Src/stm32f7xx_hal_spdifrx.c ****   */ 
 121:Drivers/STM32F7xx_HAL_Driver/Src/stm32f7xx_hal_spdifrx.c **** 
 122:Drivers/STM32F7xx_HAL_Driver/Src/stm32f7xx_hal_spdifrx.c **** /* Includes ------------------------------------------------------------------*/
 123:Drivers/STM32F7xx_HAL_Driver/Src/stm32f7xx_hal_spdifrx.c **** #include "stm32f7xx_hal.h"
 124:Drivers/STM32F7xx_HAL_Driver/Src/stm32f7xx_hal_spdifrx.c **** 
 125:Drivers/STM32F7xx_HAL_Driver/Src/stm32f7xx_hal_spdifrx.c **** /** @addtogroup STM32F7xx_HAL_Driver
 126:Drivers/STM32F7xx_HAL_Driver/Src/stm32f7xx_hal_spdifrx.c ****   * @{
 127:Drivers/STM32F7xx_HAL_Driver/Src/stm32f7xx_hal_spdifrx.c ****   */
 128:Drivers/STM32F7xx_HAL_Driver/Src/stm32f7xx_hal_spdifrx.c **** /** @defgroup SPDIFRX SPDIFRX
 129:Drivers/STM32F7xx_HAL_Driver/Src/stm32f7xx_hal_spdifrx.c **** * @brief SPDIFRX HAL module driver
 130:Drivers/STM32F7xx_HAL_Driver/Src/stm32f7xx_hal_spdifrx.c **** * @{
 131:Drivers/STM32F7xx_HAL_Driver/Src/stm32f7xx_hal_spdifrx.c **** */
 132:Drivers/STM32F7xx_HAL_Driver/Src/stm32f7xx_hal_spdifrx.c **** 
 133:Drivers/STM32F7xx_HAL_Driver/Src/stm32f7xx_hal_spdifrx.c **** #ifdef HAL_SPDIFRX_MODULE_ENABLED
 134:Drivers/STM32F7xx_HAL_Driver/Src/stm32f7xx_hal_spdifrx.c **** #if defined (SPDIFRX)
 135:Drivers/STM32F7xx_HAL_Driver/Src/stm32f7xx_hal_spdifrx.c **** 
 136:Drivers/STM32F7xx_HAL_Driver/Src/stm32f7xx_hal_spdifrx.c **** /* Private typedef -----------------------------------------------------------*/
 137:Drivers/STM32F7xx_HAL_Driver/Src/stm32f7xx_hal_spdifrx.c **** /* Private define ------------------------------------------------------------*/
 138:Drivers/STM32F7xx_HAL_Driver/Src/stm32f7xx_hal_spdifrx.c **** #define SPDIFRX_TIMEOUT_VALUE  0xFFFF
 139:Drivers/STM32F7xx_HAL_Driver/Src/stm32f7xx_hal_spdifrx.c **** 
 140:Drivers/STM32F7xx_HAL_Driver/Src/stm32f7xx_hal_spdifrx.c **** /* Private macro -------------------------------------------------------------*/
 141:Drivers/STM32F7xx_HAL_Driver/Src/stm32f7xx_hal_spdifrx.c **** /* Private variables ---------------------------------------------------------*/
 142:Drivers/STM32F7xx_HAL_Driver/Src/stm32f7xx_hal_spdifrx.c **** /* Private function prototypes -----------------------------------------------*/
 143:Drivers/STM32F7xx_HAL_Driver/Src/stm32f7xx_hal_spdifrx.c **** /** @addtogroup SPDIFRX_Private_Functions
 144:Drivers/STM32F7xx_HAL_Driver/Src/stm32f7xx_hal_spdifrx.c ****   * @{
ARM GAS  C:\Users\Nina\AppData\Local\Temp\ccfkNb9x.s 			page 4


 145:Drivers/STM32F7xx_HAL_Driver/Src/stm32f7xx_hal_spdifrx.c ****   */
 146:Drivers/STM32F7xx_HAL_Driver/Src/stm32f7xx_hal_spdifrx.c **** static void  SPDIFRX_DMARxCplt(DMA_HandleTypeDef *hdma);
 147:Drivers/STM32F7xx_HAL_Driver/Src/stm32f7xx_hal_spdifrx.c **** static void  SPDIFRX_DMARxHalfCplt(DMA_HandleTypeDef *hdma);
 148:Drivers/STM32F7xx_HAL_Driver/Src/stm32f7xx_hal_spdifrx.c **** static void  SPDIFRX_DMACxCplt(DMA_HandleTypeDef *hdma);
 149:Drivers/STM32F7xx_HAL_Driver/Src/stm32f7xx_hal_spdifrx.c **** static void  SPDIFRX_DMACxHalfCplt(DMA_HandleTypeDef *hdma);
 150:Drivers/STM32F7xx_HAL_Driver/Src/stm32f7xx_hal_spdifrx.c **** static void  SPDIFRX_DMAError(DMA_HandleTypeDef *hdma);
 151:Drivers/STM32F7xx_HAL_Driver/Src/stm32f7xx_hal_spdifrx.c **** static void  SPDIFRX_ReceiveControlFlow_IT(SPDIFRX_HandleTypeDef *hspdif);
 152:Drivers/STM32F7xx_HAL_Driver/Src/stm32f7xx_hal_spdifrx.c **** static void  SPDIFRX_ReceiveDataFlow_IT(SPDIFRX_HandleTypeDef *hspdif);
 153:Drivers/STM32F7xx_HAL_Driver/Src/stm32f7xx_hal_spdifrx.c **** static HAL_StatusTypeDef  SPDIFRX_WaitOnFlagUntilTimeout(SPDIFRX_HandleTypeDef *hspdif, uint32_t Fl
 154:Drivers/STM32F7xx_HAL_Driver/Src/stm32f7xx_hal_spdifrx.c **** /**
 155:Drivers/STM32F7xx_HAL_Driver/Src/stm32f7xx_hal_spdifrx.c ****   * @}
 156:Drivers/STM32F7xx_HAL_Driver/Src/stm32f7xx_hal_spdifrx.c ****   */
 157:Drivers/STM32F7xx_HAL_Driver/Src/stm32f7xx_hal_spdifrx.c **** /* Exported functions ---------------------------------------------------------*/
 158:Drivers/STM32F7xx_HAL_Driver/Src/stm32f7xx_hal_spdifrx.c **** 
 159:Drivers/STM32F7xx_HAL_Driver/Src/stm32f7xx_hal_spdifrx.c **** /** @defgroup SPDIFRX_Exported_Functions SPDIFRX Exported Functions
 160:Drivers/STM32F7xx_HAL_Driver/Src/stm32f7xx_hal_spdifrx.c ****   * @{
 161:Drivers/STM32F7xx_HAL_Driver/Src/stm32f7xx_hal_spdifrx.c ****   */
 162:Drivers/STM32F7xx_HAL_Driver/Src/stm32f7xx_hal_spdifrx.c **** 
 163:Drivers/STM32F7xx_HAL_Driver/Src/stm32f7xx_hal_spdifrx.c **** /** @defgroup  SPDIFRX_Exported_Functions_Group1 Initialization and de-initialization functions 
 164:Drivers/STM32F7xx_HAL_Driver/Src/stm32f7xx_hal_spdifrx.c ****   *  @brief    Initialization and Configuration functions 
 165:Drivers/STM32F7xx_HAL_Driver/Src/stm32f7xx_hal_spdifrx.c ****   *
 166:Drivers/STM32F7xx_HAL_Driver/Src/stm32f7xx_hal_spdifrx.c ****   @verbatim    
 167:Drivers/STM32F7xx_HAL_Driver/Src/stm32f7xx_hal_spdifrx.c ****   ===============================================================================
 168:Drivers/STM32F7xx_HAL_Driver/Src/stm32f7xx_hal_spdifrx.c ****   ##### Initialization and de-initialization functions #####
 169:Drivers/STM32F7xx_HAL_Driver/Src/stm32f7xx_hal_spdifrx.c ****   ===============================================================================
 170:Drivers/STM32F7xx_HAL_Driver/Src/stm32f7xx_hal_spdifrx.c ****   [..]  This subsection provides a set of functions allowing to initialize and 
 171:Drivers/STM32F7xx_HAL_Driver/Src/stm32f7xx_hal_spdifrx.c ****   de-initialize the SPDIFRX peripheral:
 172:Drivers/STM32F7xx_HAL_Driver/Src/stm32f7xx_hal_spdifrx.c ****   
 173:Drivers/STM32F7xx_HAL_Driver/Src/stm32f7xx_hal_spdifrx.c ****   (+) User must Implement HAL_SPDIFRX_MspInit() function in which he configures 
 174:Drivers/STM32F7xx_HAL_Driver/Src/stm32f7xx_hal_spdifrx.c ****   all related peripherals resources (CLOCK, GPIO, DMA, IT and NVIC ).
 175:Drivers/STM32F7xx_HAL_Driver/Src/stm32f7xx_hal_spdifrx.c ****   
 176:Drivers/STM32F7xx_HAL_Driver/Src/stm32f7xx_hal_spdifrx.c ****   (+) Call the function HAL_SPDIFRX_Init() to configure the SPDIFRX peripheral with 
 177:Drivers/STM32F7xx_HAL_Driver/Src/stm32f7xx_hal_spdifrx.c ****   the selected configuration:
 178:Drivers/STM32F7xx_HAL_Driver/Src/stm32f7xx_hal_spdifrx.c ****   (++) Input Selection (IN0, IN1,...)
 179:Drivers/STM32F7xx_HAL_Driver/Src/stm32f7xx_hal_spdifrx.c ****   (++) Maximum allowed re-tries during synchronization phase
 180:Drivers/STM32F7xx_HAL_Driver/Src/stm32f7xx_hal_spdifrx.c ****   (++) Wait for activity on SPDIF selected input
 181:Drivers/STM32F7xx_HAL_Driver/Src/stm32f7xx_hal_spdifrx.c ****   (++) Channel status selection (from channel A or B)
 182:Drivers/STM32F7xx_HAL_Driver/Src/stm32f7xx_hal_spdifrx.c ****   (++) Data format (LSB, MSB, ...)
 183:Drivers/STM32F7xx_HAL_Driver/Src/stm32f7xx_hal_spdifrx.c ****   (++) Stereo mode
 184:Drivers/STM32F7xx_HAL_Driver/Src/stm32f7xx_hal_spdifrx.c ****   (++) User bits masking (PT,C,U,V,...)
 185:Drivers/STM32F7xx_HAL_Driver/Src/stm32f7xx_hal_spdifrx.c ****   
 186:Drivers/STM32F7xx_HAL_Driver/Src/stm32f7xx_hal_spdifrx.c ****   (+) Call the function HAL_SPDIFRX_DeInit() to restore the default configuration 
 187:Drivers/STM32F7xx_HAL_Driver/Src/stm32f7xx_hal_spdifrx.c ****   of the selected SPDIFRXx peripheral. 
 188:Drivers/STM32F7xx_HAL_Driver/Src/stm32f7xx_hal_spdifrx.c ****   @endverbatim
 189:Drivers/STM32F7xx_HAL_Driver/Src/stm32f7xx_hal_spdifrx.c ****   * @{
 190:Drivers/STM32F7xx_HAL_Driver/Src/stm32f7xx_hal_spdifrx.c ****   */
 191:Drivers/STM32F7xx_HAL_Driver/Src/stm32f7xx_hal_spdifrx.c **** 
 192:Drivers/STM32F7xx_HAL_Driver/Src/stm32f7xx_hal_spdifrx.c **** /**
 193:Drivers/STM32F7xx_HAL_Driver/Src/stm32f7xx_hal_spdifrx.c ****   * @brief Initializes the SPDIFRX according to the specified parameters 
 194:Drivers/STM32F7xx_HAL_Driver/Src/stm32f7xx_hal_spdifrx.c ****   *        in the SPDIFRX_InitTypeDef and create the associated handle.
 195:Drivers/STM32F7xx_HAL_Driver/Src/stm32f7xx_hal_spdifrx.c ****   * @param hspdif SPDIFRX handle
 196:Drivers/STM32F7xx_HAL_Driver/Src/stm32f7xx_hal_spdifrx.c ****   * @retval HAL status
 197:Drivers/STM32F7xx_HAL_Driver/Src/stm32f7xx_hal_spdifrx.c ****   */
 198:Drivers/STM32F7xx_HAL_Driver/Src/stm32f7xx_hal_spdifrx.c **** HAL_StatusTypeDef HAL_SPDIFRX_Init(SPDIFRX_HandleTypeDef *hspdif)
 199:Drivers/STM32F7xx_HAL_Driver/Src/stm32f7xx_hal_spdifrx.c **** {
 200:Drivers/STM32F7xx_HAL_Driver/Src/stm32f7xx_hal_spdifrx.c ****   uint32_t tmpreg = 0;
 201:Drivers/STM32F7xx_HAL_Driver/Src/stm32f7xx_hal_spdifrx.c ****   
ARM GAS  C:\Users\Nina\AppData\Local\Temp\ccfkNb9x.s 			page 5


 202:Drivers/STM32F7xx_HAL_Driver/Src/stm32f7xx_hal_spdifrx.c ****   /* Check the SPDIFRX handle allocation */
 203:Drivers/STM32F7xx_HAL_Driver/Src/stm32f7xx_hal_spdifrx.c ****   if(hspdif == NULL)
 204:Drivers/STM32F7xx_HAL_Driver/Src/stm32f7xx_hal_spdifrx.c ****   {
 205:Drivers/STM32F7xx_HAL_Driver/Src/stm32f7xx_hal_spdifrx.c ****     return HAL_ERROR;
 206:Drivers/STM32F7xx_HAL_Driver/Src/stm32f7xx_hal_spdifrx.c ****   }
 207:Drivers/STM32F7xx_HAL_Driver/Src/stm32f7xx_hal_spdifrx.c ****   
 208:Drivers/STM32F7xx_HAL_Driver/Src/stm32f7xx_hal_spdifrx.c ****   /* Check the SPDIFRX parameters */
 209:Drivers/STM32F7xx_HAL_Driver/Src/stm32f7xx_hal_spdifrx.c ****   assert_param(IS_STEREO_MODE(hspdif->Init.StereoMode));
 210:Drivers/STM32F7xx_HAL_Driver/Src/stm32f7xx_hal_spdifrx.c ****   assert_param(IS_SPDIFRX_INPUT_SELECT(hspdif->Init.InputSelection));
 211:Drivers/STM32F7xx_HAL_Driver/Src/stm32f7xx_hal_spdifrx.c ****   assert_param(IS_SPDIFRX_MAX_RETRIES(hspdif->Init.Retries));
 212:Drivers/STM32F7xx_HAL_Driver/Src/stm32f7xx_hal_spdifrx.c ****   assert_param(IS_SPDIFRX_WAIT_FOR_ACTIVITY(hspdif->Init.WaitForActivity));
 213:Drivers/STM32F7xx_HAL_Driver/Src/stm32f7xx_hal_spdifrx.c ****   assert_param(IS_SPDIFRX_CHANNEL(hspdif->Init.ChannelSelection));
 214:Drivers/STM32F7xx_HAL_Driver/Src/stm32f7xx_hal_spdifrx.c ****   assert_param(IS_SPDIFRX_DATA_FORMAT(hspdif->Init.DataFormat));
 215:Drivers/STM32F7xx_HAL_Driver/Src/stm32f7xx_hal_spdifrx.c ****   assert_param(IS_PREAMBLE_TYPE_MASK(hspdif->Init.PreambleTypeMask));
 216:Drivers/STM32F7xx_HAL_Driver/Src/stm32f7xx_hal_spdifrx.c ****   assert_param(IS_CHANNEL_STATUS_MASK(hspdif->Init.ChannelStatusMask));
 217:Drivers/STM32F7xx_HAL_Driver/Src/stm32f7xx_hal_spdifrx.c ****   assert_param(IS_VALIDITY_MASK(hspdif->Init.ValidityBitMask));
 218:Drivers/STM32F7xx_HAL_Driver/Src/stm32f7xx_hal_spdifrx.c ****   assert_param(IS_PARITY_ERROR_MASK(hspdif->Init.ParityErrorMask));
 219:Drivers/STM32F7xx_HAL_Driver/Src/stm32f7xx_hal_spdifrx.c ****   
 220:Drivers/STM32F7xx_HAL_Driver/Src/stm32f7xx_hal_spdifrx.c ****   if(hspdif->State == HAL_SPDIFRX_STATE_RESET)
 221:Drivers/STM32F7xx_HAL_Driver/Src/stm32f7xx_hal_spdifrx.c ****   {
 222:Drivers/STM32F7xx_HAL_Driver/Src/stm32f7xx_hal_spdifrx.c ****     /* Allocate lock resource and initialize it */
 223:Drivers/STM32F7xx_HAL_Driver/Src/stm32f7xx_hal_spdifrx.c ****     hspdif->Lock = HAL_UNLOCKED;
 224:Drivers/STM32F7xx_HAL_Driver/Src/stm32f7xx_hal_spdifrx.c ****     /* Init the low level hardware : GPIO, CLOCK, CORTEX...etc */
 225:Drivers/STM32F7xx_HAL_Driver/Src/stm32f7xx_hal_spdifrx.c ****     HAL_SPDIFRX_MspInit(hspdif);
 226:Drivers/STM32F7xx_HAL_Driver/Src/stm32f7xx_hal_spdifrx.c ****   }
 227:Drivers/STM32F7xx_HAL_Driver/Src/stm32f7xx_hal_spdifrx.c ****   
 228:Drivers/STM32F7xx_HAL_Driver/Src/stm32f7xx_hal_spdifrx.c ****   /* SPDIFRX peripheral state is BUSY*/
 229:Drivers/STM32F7xx_HAL_Driver/Src/stm32f7xx_hal_spdifrx.c ****   hspdif->State = HAL_SPDIFRX_STATE_BUSY;  
 230:Drivers/STM32F7xx_HAL_Driver/Src/stm32f7xx_hal_spdifrx.c ****   
 231:Drivers/STM32F7xx_HAL_Driver/Src/stm32f7xx_hal_spdifrx.c ****   /* Disable SPDIFRX interface (IDLE State) */
 232:Drivers/STM32F7xx_HAL_Driver/Src/stm32f7xx_hal_spdifrx.c ****   __HAL_SPDIFRX_IDLE(hspdif);
 233:Drivers/STM32F7xx_HAL_Driver/Src/stm32f7xx_hal_spdifrx.c ****   
 234:Drivers/STM32F7xx_HAL_Driver/Src/stm32f7xx_hal_spdifrx.c ****   /* Reset the old SPDIFRX CR configuration */
 235:Drivers/STM32F7xx_HAL_Driver/Src/stm32f7xx_hal_spdifrx.c ****   tmpreg = hspdif->Instance->CR;
 236:Drivers/STM32F7xx_HAL_Driver/Src/stm32f7xx_hal_spdifrx.c ****   
 237:Drivers/STM32F7xx_HAL_Driver/Src/stm32f7xx_hal_spdifrx.c ****   tmpreg &= ~((uint16_t) SPDIFRX_CR_RXSTEO  | SPDIFRX_CR_DRFMT  | SPDIFRX_CR_PMSK |
 238:Drivers/STM32F7xx_HAL_Driver/Src/stm32f7xx_hal_spdifrx.c ****               SPDIFRX_CR_VMSK | SPDIFRX_CR_CUMSK | SPDIFRX_CR_PTMSK  |
 239:Drivers/STM32F7xx_HAL_Driver/Src/stm32f7xx_hal_spdifrx.c ****               SPDIFRX_CR_CHSEL | SPDIFRX_CR_NBTR | SPDIFRX_CR_WFA | SPDIFRX_CR_INSEL); 
 240:Drivers/STM32F7xx_HAL_Driver/Src/stm32f7xx_hal_spdifrx.c ****   
 241:Drivers/STM32F7xx_HAL_Driver/Src/stm32f7xx_hal_spdifrx.c ****   /* Sets the new configuration of the SPDIFRX peripheral */
 242:Drivers/STM32F7xx_HAL_Driver/Src/stm32f7xx_hal_spdifrx.c ****   tmpreg |= ((uint16_t) hspdif->Init.StereoMode |
 243:Drivers/STM32F7xx_HAL_Driver/Src/stm32f7xx_hal_spdifrx.c ****              hspdif->Init.InputSelection |
 244:Drivers/STM32F7xx_HAL_Driver/Src/stm32f7xx_hal_spdifrx.c ****              hspdif->Init.Retries |
 245:Drivers/STM32F7xx_HAL_Driver/Src/stm32f7xx_hal_spdifrx.c ****              hspdif->Init.WaitForActivity |
 246:Drivers/STM32F7xx_HAL_Driver/Src/stm32f7xx_hal_spdifrx.c ****              hspdif->Init.ChannelSelection |
 247:Drivers/STM32F7xx_HAL_Driver/Src/stm32f7xx_hal_spdifrx.c ****              hspdif->Init.DataFormat |
 248:Drivers/STM32F7xx_HAL_Driver/Src/stm32f7xx_hal_spdifrx.c ****              hspdif->Init.PreambleTypeMask |
 249:Drivers/STM32F7xx_HAL_Driver/Src/stm32f7xx_hal_spdifrx.c ****              hspdif->Init.ChannelStatusMask |
 250:Drivers/STM32F7xx_HAL_Driver/Src/stm32f7xx_hal_spdifrx.c ****              hspdif->Init.ValidityBitMask |
 251:Drivers/STM32F7xx_HAL_Driver/Src/stm32f7xx_hal_spdifrx.c ****              hspdif->Init.ParityErrorMask);
 252:Drivers/STM32F7xx_HAL_Driver/Src/stm32f7xx_hal_spdifrx.c ****   
 253:Drivers/STM32F7xx_HAL_Driver/Src/stm32f7xx_hal_spdifrx.c ****   hspdif->Instance->CR = tmpreg;  
 254:Drivers/STM32F7xx_HAL_Driver/Src/stm32f7xx_hal_spdifrx.c ****   
 255:Drivers/STM32F7xx_HAL_Driver/Src/stm32f7xx_hal_spdifrx.c ****   hspdif->ErrorCode = HAL_SPDIFRX_ERROR_NONE;
 256:Drivers/STM32F7xx_HAL_Driver/Src/stm32f7xx_hal_spdifrx.c ****   
 257:Drivers/STM32F7xx_HAL_Driver/Src/stm32f7xx_hal_spdifrx.c ****   /* SPDIFRX peripheral state is READY*/
 258:Drivers/STM32F7xx_HAL_Driver/Src/stm32f7xx_hal_spdifrx.c ****   hspdif->State = HAL_SPDIFRX_STATE_READY;
ARM GAS  C:\Users\Nina\AppData\Local\Temp\ccfkNb9x.s 			page 6


 259:Drivers/STM32F7xx_HAL_Driver/Src/stm32f7xx_hal_spdifrx.c ****   
 260:Drivers/STM32F7xx_HAL_Driver/Src/stm32f7xx_hal_spdifrx.c ****   return HAL_OK;
 261:Drivers/STM32F7xx_HAL_Driver/Src/stm32f7xx_hal_spdifrx.c **** }
 262:Drivers/STM32F7xx_HAL_Driver/Src/stm32f7xx_hal_spdifrx.c **** 
 263:Drivers/STM32F7xx_HAL_Driver/Src/stm32f7xx_hal_spdifrx.c **** /**
 264:Drivers/STM32F7xx_HAL_Driver/Src/stm32f7xx_hal_spdifrx.c ****   * @brief DeInitializes the SPDIFRX peripheral 
 265:Drivers/STM32F7xx_HAL_Driver/Src/stm32f7xx_hal_spdifrx.c ****   * @param hspdif SPDIFRX handle
 266:Drivers/STM32F7xx_HAL_Driver/Src/stm32f7xx_hal_spdifrx.c ****   * @retval HAL status
 267:Drivers/STM32F7xx_HAL_Driver/Src/stm32f7xx_hal_spdifrx.c ****   */
 268:Drivers/STM32F7xx_HAL_Driver/Src/stm32f7xx_hal_spdifrx.c **** HAL_StatusTypeDef HAL_SPDIFRX_DeInit(SPDIFRX_HandleTypeDef *hspdif)
 269:Drivers/STM32F7xx_HAL_Driver/Src/stm32f7xx_hal_spdifrx.c **** {
 270:Drivers/STM32F7xx_HAL_Driver/Src/stm32f7xx_hal_spdifrx.c ****   /* Check the SPDIFRX handle allocation */
 271:Drivers/STM32F7xx_HAL_Driver/Src/stm32f7xx_hal_spdifrx.c ****   if(hspdif == NULL)
 272:Drivers/STM32F7xx_HAL_Driver/Src/stm32f7xx_hal_spdifrx.c ****   {
 273:Drivers/STM32F7xx_HAL_Driver/Src/stm32f7xx_hal_spdifrx.c ****     return HAL_ERROR;
 274:Drivers/STM32F7xx_HAL_Driver/Src/stm32f7xx_hal_spdifrx.c ****   }
 275:Drivers/STM32F7xx_HAL_Driver/Src/stm32f7xx_hal_spdifrx.c ****   
 276:Drivers/STM32F7xx_HAL_Driver/Src/stm32f7xx_hal_spdifrx.c ****   /* Check the parameters */
 277:Drivers/STM32F7xx_HAL_Driver/Src/stm32f7xx_hal_spdifrx.c ****   assert_param(IS_SPDIFRX_ALL_INSTANCE(hspdif->Instance));
 278:Drivers/STM32F7xx_HAL_Driver/Src/stm32f7xx_hal_spdifrx.c ****   
 279:Drivers/STM32F7xx_HAL_Driver/Src/stm32f7xx_hal_spdifrx.c ****   hspdif->State = HAL_SPDIFRX_STATE_BUSY;
 280:Drivers/STM32F7xx_HAL_Driver/Src/stm32f7xx_hal_spdifrx.c ****   
 281:Drivers/STM32F7xx_HAL_Driver/Src/stm32f7xx_hal_spdifrx.c ****   /* Disable SPDIFRX interface (IDLE state) */
 282:Drivers/STM32F7xx_HAL_Driver/Src/stm32f7xx_hal_spdifrx.c ****   __HAL_SPDIFRX_IDLE(hspdif);
 283:Drivers/STM32F7xx_HAL_Driver/Src/stm32f7xx_hal_spdifrx.c ****   
 284:Drivers/STM32F7xx_HAL_Driver/Src/stm32f7xx_hal_spdifrx.c ****   /* DeInit the low level hardware: GPIO, CLOCK, NVIC... */
 285:Drivers/STM32F7xx_HAL_Driver/Src/stm32f7xx_hal_spdifrx.c ****   HAL_SPDIFRX_MspDeInit(hspdif);
 286:Drivers/STM32F7xx_HAL_Driver/Src/stm32f7xx_hal_spdifrx.c ****   
 287:Drivers/STM32F7xx_HAL_Driver/Src/stm32f7xx_hal_spdifrx.c ****   hspdif->ErrorCode = HAL_SPDIFRX_ERROR_NONE;
 288:Drivers/STM32F7xx_HAL_Driver/Src/stm32f7xx_hal_spdifrx.c ****   
 289:Drivers/STM32F7xx_HAL_Driver/Src/stm32f7xx_hal_spdifrx.c ****   /* SPDIFRX peripheral state is RESET*/
 290:Drivers/STM32F7xx_HAL_Driver/Src/stm32f7xx_hal_spdifrx.c ****   hspdif->State = HAL_SPDIFRX_STATE_RESET;
 291:Drivers/STM32F7xx_HAL_Driver/Src/stm32f7xx_hal_spdifrx.c ****   
 292:Drivers/STM32F7xx_HAL_Driver/Src/stm32f7xx_hal_spdifrx.c ****   /* Release Lock */
 293:Drivers/STM32F7xx_HAL_Driver/Src/stm32f7xx_hal_spdifrx.c ****   __HAL_UNLOCK(hspdif);
 294:Drivers/STM32F7xx_HAL_Driver/Src/stm32f7xx_hal_spdifrx.c ****   
 295:Drivers/STM32F7xx_HAL_Driver/Src/stm32f7xx_hal_spdifrx.c ****   return HAL_OK;
 296:Drivers/STM32F7xx_HAL_Driver/Src/stm32f7xx_hal_spdifrx.c **** }
 297:Drivers/STM32F7xx_HAL_Driver/Src/stm32f7xx_hal_spdifrx.c **** 
 298:Drivers/STM32F7xx_HAL_Driver/Src/stm32f7xx_hal_spdifrx.c **** /**
 299:Drivers/STM32F7xx_HAL_Driver/Src/stm32f7xx_hal_spdifrx.c ****   * @brief SPDIFRX MSP Init
 300:Drivers/STM32F7xx_HAL_Driver/Src/stm32f7xx_hal_spdifrx.c ****   * @param hspdif SPDIFRX handle
 301:Drivers/STM32F7xx_HAL_Driver/Src/stm32f7xx_hal_spdifrx.c ****   * @retval None
 302:Drivers/STM32F7xx_HAL_Driver/Src/stm32f7xx_hal_spdifrx.c ****   */
 303:Drivers/STM32F7xx_HAL_Driver/Src/stm32f7xx_hal_spdifrx.c **** __weak void HAL_SPDIFRX_MspInit(SPDIFRX_HandleTypeDef *hspdif)
 304:Drivers/STM32F7xx_HAL_Driver/Src/stm32f7xx_hal_spdifrx.c **** {
 305:Drivers/STM32F7xx_HAL_Driver/Src/stm32f7xx_hal_spdifrx.c ****   /* Prevent unused argument(s) compilation warning */
 306:Drivers/STM32F7xx_HAL_Driver/Src/stm32f7xx_hal_spdifrx.c ****   UNUSED(hspdif);
 307:Drivers/STM32F7xx_HAL_Driver/Src/stm32f7xx_hal_spdifrx.c ****   
 308:Drivers/STM32F7xx_HAL_Driver/Src/stm32f7xx_hal_spdifrx.c ****   /* NOTE : This function Should not be modified, when the callback is needed,
 309:Drivers/STM32F7xx_HAL_Driver/Src/stm32f7xx_hal_spdifrx.c ****   the HAL_SPDIFRX_MspInit could be implemented in the user file
 310:Drivers/STM32F7xx_HAL_Driver/Src/stm32f7xx_hal_spdifrx.c ****   */ 
 311:Drivers/STM32F7xx_HAL_Driver/Src/stm32f7xx_hal_spdifrx.c **** }
 312:Drivers/STM32F7xx_HAL_Driver/Src/stm32f7xx_hal_spdifrx.c **** 
 313:Drivers/STM32F7xx_HAL_Driver/Src/stm32f7xx_hal_spdifrx.c **** /**
 314:Drivers/STM32F7xx_HAL_Driver/Src/stm32f7xx_hal_spdifrx.c ****   * @brief SPDIFRX MSP DeInit
 315:Drivers/STM32F7xx_HAL_Driver/Src/stm32f7xx_hal_spdifrx.c ****   * @param hspdif SPDIFRX handle
ARM GAS  C:\Users\Nina\AppData\Local\Temp\ccfkNb9x.s 			page 7


 316:Drivers/STM32F7xx_HAL_Driver/Src/stm32f7xx_hal_spdifrx.c ****   * @retval None
 317:Drivers/STM32F7xx_HAL_Driver/Src/stm32f7xx_hal_spdifrx.c ****   */
 318:Drivers/STM32F7xx_HAL_Driver/Src/stm32f7xx_hal_spdifrx.c **** __weak void HAL_SPDIFRX_MspDeInit(SPDIFRX_HandleTypeDef *hspdif)
 319:Drivers/STM32F7xx_HAL_Driver/Src/stm32f7xx_hal_spdifrx.c **** {
 320:Drivers/STM32F7xx_HAL_Driver/Src/stm32f7xx_hal_spdifrx.c ****   /* Prevent unused argument(s) compilation warning */
 321:Drivers/STM32F7xx_HAL_Driver/Src/stm32f7xx_hal_spdifrx.c ****   UNUSED(hspdif);
 322:Drivers/STM32F7xx_HAL_Driver/Src/stm32f7xx_hal_spdifrx.c ****   
 323:Drivers/STM32F7xx_HAL_Driver/Src/stm32f7xx_hal_spdifrx.c ****   /* NOTE : This function Should not be modified, when the callback is needed,
 324:Drivers/STM32F7xx_HAL_Driver/Src/stm32f7xx_hal_spdifrx.c ****   the HAL_SPDIFRX_MspDeInit could be implemented in the user file
 325:Drivers/STM32F7xx_HAL_Driver/Src/stm32f7xx_hal_spdifrx.c ****   */ 
 326:Drivers/STM32F7xx_HAL_Driver/Src/stm32f7xx_hal_spdifrx.c **** }
 327:Drivers/STM32F7xx_HAL_Driver/Src/stm32f7xx_hal_spdifrx.c **** 
 328:Drivers/STM32F7xx_HAL_Driver/Src/stm32f7xx_hal_spdifrx.c **** /**
 329:Drivers/STM32F7xx_HAL_Driver/Src/stm32f7xx_hal_spdifrx.c ****   * @brief Sets the SPDIFRX  dtat format according to the specified parameters 
 330:Drivers/STM32F7xx_HAL_Driver/Src/stm32f7xx_hal_spdifrx.c ****   *        in the SPDIFRX_InitTypeDef.
 331:Drivers/STM32F7xx_HAL_Driver/Src/stm32f7xx_hal_spdifrx.c ****   * @param hspdif SPDIFRX handle
 332:Drivers/STM32F7xx_HAL_Driver/Src/stm32f7xx_hal_spdifrx.c ****   * @param sDataFormat SPDIFRX data format
 333:Drivers/STM32F7xx_HAL_Driver/Src/stm32f7xx_hal_spdifrx.c ****   * @retval HAL status
 334:Drivers/STM32F7xx_HAL_Driver/Src/stm32f7xx_hal_spdifrx.c ****   */
 335:Drivers/STM32F7xx_HAL_Driver/Src/stm32f7xx_hal_spdifrx.c **** HAL_StatusTypeDef HAL_SPDIFRX_SetDataFormat(SPDIFRX_HandleTypeDef *hspdif, SPDIFRX_SetDataFormatTyp
 336:Drivers/STM32F7xx_HAL_Driver/Src/stm32f7xx_hal_spdifrx.c **** {
 337:Drivers/STM32F7xx_HAL_Driver/Src/stm32f7xx_hal_spdifrx.c ****   uint32_t tmpreg = 0;
 338:Drivers/STM32F7xx_HAL_Driver/Src/stm32f7xx_hal_spdifrx.c ****   
 339:Drivers/STM32F7xx_HAL_Driver/Src/stm32f7xx_hal_spdifrx.c ****   /* Check the SPDIFRX handle allocation */
 340:Drivers/STM32F7xx_HAL_Driver/Src/stm32f7xx_hal_spdifrx.c ****   if(hspdif == NULL)
 341:Drivers/STM32F7xx_HAL_Driver/Src/stm32f7xx_hal_spdifrx.c ****   {
 342:Drivers/STM32F7xx_HAL_Driver/Src/stm32f7xx_hal_spdifrx.c ****     return HAL_ERROR;
 343:Drivers/STM32F7xx_HAL_Driver/Src/stm32f7xx_hal_spdifrx.c ****   }
 344:Drivers/STM32F7xx_HAL_Driver/Src/stm32f7xx_hal_spdifrx.c ****   
 345:Drivers/STM32F7xx_HAL_Driver/Src/stm32f7xx_hal_spdifrx.c ****   /* Check the SPDIFRX parameters */
 346:Drivers/STM32F7xx_HAL_Driver/Src/stm32f7xx_hal_spdifrx.c ****   assert_param(IS_STEREO_MODE(sDataFormat.StereoMode));
 347:Drivers/STM32F7xx_HAL_Driver/Src/stm32f7xx_hal_spdifrx.c ****   assert_param(IS_SPDIFRX_DATA_FORMAT(sDataFormat.DataFormat));
 348:Drivers/STM32F7xx_HAL_Driver/Src/stm32f7xx_hal_spdifrx.c ****   assert_param(IS_PREAMBLE_TYPE_MASK(sDataFormat.PreambleTypeMask));
 349:Drivers/STM32F7xx_HAL_Driver/Src/stm32f7xx_hal_spdifrx.c ****   assert_param(IS_CHANNEL_STATUS_MASK(sDataFormat.ChannelStatusMask));
 350:Drivers/STM32F7xx_HAL_Driver/Src/stm32f7xx_hal_spdifrx.c ****   assert_param(IS_VALIDITY_MASK(sDataFormat.ValidityBitMask));
 351:Drivers/STM32F7xx_HAL_Driver/Src/stm32f7xx_hal_spdifrx.c ****   assert_param(IS_PARITY_ERROR_MASK(sDataFormat.ParityErrorMask));
 352:Drivers/STM32F7xx_HAL_Driver/Src/stm32f7xx_hal_spdifrx.c ****   
 353:Drivers/STM32F7xx_HAL_Driver/Src/stm32f7xx_hal_spdifrx.c ****   /* Reset the old SPDIFRX CR configuration */
 354:Drivers/STM32F7xx_HAL_Driver/Src/stm32f7xx_hal_spdifrx.c ****   tmpreg = hspdif->Instance->CR;
 355:Drivers/STM32F7xx_HAL_Driver/Src/stm32f7xx_hal_spdifrx.c ****   
 356:Drivers/STM32F7xx_HAL_Driver/Src/stm32f7xx_hal_spdifrx.c ****   if(((tmpreg & SPDIFRX_STATE_RCV) == SPDIFRX_STATE_RCV) &&
 357:Drivers/STM32F7xx_HAL_Driver/Src/stm32f7xx_hal_spdifrx.c ****      (((tmpreg & SPDIFRX_CR_DRFMT) != sDataFormat.DataFormat) ||
 358:Drivers/STM32F7xx_HAL_Driver/Src/stm32f7xx_hal_spdifrx.c ****       ((tmpreg & SPDIFRX_CR_RXSTEO) != sDataFormat.StereoMode)))  
 359:Drivers/STM32F7xx_HAL_Driver/Src/stm32f7xx_hal_spdifrx.c ****   {
 360:Drivers/STM32F7xx_HAL_Driver/Src/stm32f7xx_hal_spdifrx.c ****     return HAL_ERROR;    
 361:Drivers/STM32F7xx_HAL_Driver/Src/stm32f7xx_hal_spdifrx.c ****   }  
 362:Drivers/STM32F7xx_HAL_Driver/Src/stm32f7xx_hal_spdifrx.c ****   
 363:Drivers/STM32F7xx_HAL_Driver/Src/stm32f7xx_hal_spdifrx.c ****   tmpreg &= ~((uint16_t) SPDIFRX_CR_RXSTEO  | SPDIFRX_CR_DRFMT  | SPDIFRX_CR_PMSK |
 364:Drivers/STM32F7xx_HAL_Driver/Src/stm32f7xx_hal_spdifrx.c ****               SPDIFRX_CR_VMSK | SPDIFRX_CR_CUMSK | SPDIFRX_CR_PTMSK);   
 365:Drivers/STM32F7xx_HAL_Driver/Src/stm32f7xx_hal_spdifrx.c ****   
 366:Drivers/STM32F7xx_HAL_Driver/Src/stm32f7xx_hal_spdifrx.c ****   /* Sets the new configuration of the SPDIFRX peripheral */
 367:Drivers/STM32F7xx_HAL_Driver/Src/stm32f7xx_hal_spdifrx.c ****   tmpreg |= ((uint16_t) sDataFormat.StereoMode |
 368:Drivers/STM32F7xx_HAL_Driver/Src/stm32f7xx_hal_spdifrx.c ****              sDataFormat.DataFormat |
 369:Drivers/STM32F7xx_HAL_Driver/Src/stm32f7xx_hal_spdifrx.c ****              sDataFormat.PreambleTypeMask |
 370:Drivers/STM32F7xx_HAL_Driver/Src/stm32f7xx_hal_spdifrx.c ****              sDataFormat.ChannelStatusMask |
 371:Drivers/STM32F7xx_HAL_Driver/Src/stm32f7xx_hal_spdifrx.c ****              sDataFormat.ValidityBitMask |
 372:Drivers/STM32F7xx_HAL_Driver/Src/stm32f7xx_hal_spdifrx.c ****              sDataFormat.ParityErrorMask);
ARM GAS  C:\Users\Nina\AppData\Local\Temp\ccfkNb9x.s 			page 8


 373:Drivers/STM32F7xx_HAL_Driver/Src/stm32f7xx_hal_spdifrx.c ****   
 374:Drivers/STM32F7xx_HAL_Driver/Src/stm32f7xx_hal_spdifrx.c ****   hspdif->Instance->CR = tmpreg;  
 375:Drivers/STM32F7xx_HAL_Driver/Src/stm32f7xx_hal_spdifrx.c ****   
 376:Drivers/STM32F7xx_HAL_Driver/Src/stm32f7xx_hal_spdifrx.c ****   return HAL_OK;
 377:Drivers/STM32F7xx_HAL_Driver/Src/stm32f7xx_hal_spdifrx.c **** }
 378:Drivers/STM32F7xx_HAL_Driver/Src/stm32f7xx_hal_spdifrx.c **** 
 379:Drivers/STM32F7xx_HAL_Driver/Src/stm32f7xx_hal_spdifrx.c **** /**
 380:Drivers/STM32F7xx_HAL_Driver/Src/stm32f7xx_hal_spdifrx.c ****   * @}
 381:Drivers/STM32F7xx_HAL_Driver/Src/stm32f7xx_hal_spdifrx.c ****   */
 382:Drivers/STM32F7xx_HAL_Driver/Src/stm32f7xx_hal_spdifrx.c **** 
 383:Drivers/STM32F7xx_HAL_Driver/Src/stm32f7xx_hal_spdifrx.c **** /** @defgroup SPDIFRX_Exported_Functions_Group2 IO operation functions 
 384:Drivers/STM32F7xx_HAL_Driver/Src/stm32f7xx_hal_spdifrx.c ****   *  @brief Data transfers functions 
 385:Drivers/STM32F7xx_HAL_Driver/Src/stm32f7xx_hal_spdifrx.c ****   *
 386:Drivers/STM32F7xx_HAL_Driver/Src/stm32f7xx_hal_spdifrx.c **** @verbatim   
 387:Drivers/STM32F7xx_HAL_Driver/Src/stm32f7xx_hal_spdifrx.c **** ===============================================================================
 388:Drivers/STM32F7xx_HAL_Driver/Src/stm32f7xx_hal_spdifrx.c ****                      ##### IO operation functions #####
 389:Drivers/STM32F7xx_HAL_Driver/Src/stm32f7xx_hal_spdifrx.c **** ===============================================================================  
 390:Drivers/STM32F7xx_HAL_Driver/Src/stm32f7xx_hal_spdifrx.c ****     [..]
 391:Drivers/STM32F7xx_HAL_Driver/Src/stm32f7xx_hal_spdifrx.c ****     This subsection provides a set of functions allowing to manage the SPDIFRX data 
 392:Drivers/STM32F7xx_HAL_Driver/Src/stm32f7xx_hal_spdifrx.c ****     transfers.
 393:Drivers/STM32F7xx_HAL_Driver/Src/stm32f7xx_hal_spdifrx.c **** 
 394:Drivers/STM32F7xx_HAL_Driver/Src/stm32f7xx_hal_spdifrx.c ****     (#) There is two mode of transfer:
 395:Drivers/STM32F7xx_HAL_Driver/Src/stm32f7xx_hal_spdifrx.c ****         (++) Blocking mode : The communication is performed in the polling mode. 
 396:Drivers/STM32F7xx_HAL_Driver/Src/stm32f7xx_hal_spdifrx.c ****              The status of all data processing is returned by the same function 
 397:Drivers/STM32F7xx_HAL_Driver/Src/stm32f7xx_hal_spdifrx.c ****              after finishing transfer.  
 398:Drivers/STM32F7xx_HAL_Driver/Src/stm32f7xx_hal_spdifrx.c ****         (++) No-Blocking mode : The communication is performed using Interrupts 
 399:Drivers/STM32F7xx_HAL_Driver/Src/stm32f7xx_hal_spdifrx.c ****              or DMA. These functions return the status of the transfer start-up.
 400:Drivers/STM32F7xx_HAL_Driver/Src/stm32f7xx_hal_spdifrx.c ****              The end of the data processing will be indicated through the 
 401:Drivers/STM32F7xx_HAL_Driver/Src/stm32f7xx_hal_spdifrx.c ****              dedicated SPDIFRX IRQ when using Interrupt mode or the DMA IRQ when 
 402:Drivers/STM32F7xx_HAL_Driver/Src/stm32f7xx_hal_spdifrx.c ****              using DMA mode.
 403:Drivers/STM32F7xx_HAL_Driver/Src/stm32f7xx_hal_spdifrx.c **** 
 404:Drivers/STM32F7xx_HAL_Driver/Src/stm32f7xx_hal_spdifrx.c ****     (#) Blocking mode functions are :
 405:Drivers/STM32F7xx_HAL_Driver/Src/stm32f7xx_hal_spdifrx.c ****         (++) HAL_SPDIFRX_ReceiveDataFlow()
 406:Drivers/STM32F7xx_HAL_Driver/Src/stm32f7xx_hal_spdifrx.c ****         (++) HAL_SPDIFRX_ReceiveControlFlow()
 407:Drivers/STM32F7xx_HAL_Driver/Src/stm32f7xx_hal_spdifrx.c ****                 (+@) Do not use blocking mode to receive both control and data flow at the same tim
 408:Drivers/STM32F7xx_HAL_Driver/Src/stm32f7xx_hal_spdifrx.c **** 
 409:Drivers/STM32F7xx_HAL_Driver/Src/stm32f7xx_hal_spdifrx.c ****     (#) No-Blocking mode functions with Interrupt are :
 410:Drivers/STM32F7xx_HAL_Driver/Src/stm32f7xx_hal_spdifrx.c ****         (++) HAL_SPDIFRX_ReceiveControlFlow_IT()
 411:Drivers/STM32F7xx_HAL_Driver/Src/stm32f7xx_hal_spdifrx.c ****         (++) HAL_SPDIFRX_ReceiveDataFlow_IT()
 412:Drivers/STM32F7xx_HAL_Driver/Src/stm32f7xx_hal_spdifrx.c **** 
 413:Drivers/STM32F7xx_HAL_Driver/Src/stm32f7xx_hal_spdifrx.c ****     (#) No-Blocking mode functions with DMA are :
 414:Drivers/STM32F7xx_HAL_Driver/Src/stm32f7xx_hal_spdifrx.c ****         (++) HAL_SPDIFRX_ReceiveControlFlow_DMA()
 415:Drivers/STM32F7xx_HAL_Driver/Src/stm32f7xx_hal_spdifrx.c ****         (++) HAL_SPDIFRX_ReceiveDataFlow_DMA()
 416:Drivers/STM32F7xx_HAL_Driver/Src/stm32f7xx_hal_spdifrx.c **** 
 417:Drivers/STM32F7xx_HAL_Driver/Src/stm32f7xx_hal_spdifrx.c ****     (#) A set of Transfer Complete Callbacks are provided in No_Blocking mode:
 418:Drivers/STM32F7xx_HAL_Driver/Src/stm32f7xx_hal_spdifrx.c ****         (++) HAL_SPDIFRX_RxCpltCallback()
 419:Drivers/STM32F7xx_HAL_Driver/Src/stm32f7xx_hal_spdifrx.c ****         (++) HAL_SPDIFRX_ErrorCallback()
 420:Drivers/STM32F7xx_HAL_Driver/Src/stm32f7xx_hal_spdifrx.c **** 
 421:Drivers/STM32F7xx_HAL_Driver/Src/stm32f7xx_hal_spdifrx.c **** @endverbatim
 422:Drivers/STM32F7xx_HAL_Driver/Src/stm32f7xx_hal_spdifrx.c **** * @{
 423:Drivers/STM32F7xx_HAL_Driver/Src/stm32f7xx_hal_spdifrx.c **** */
 424:Drivers/STM32F7xx_HAL_Driver/Src/stm32f7xx_hal_spdifrx.c **** 
 425:Drivers/STM32F7xx_HAL_Driver/Src/stm32f7xx_hal_spdifrx.c **** 
 426:Drivers/STM32F7xx_HAL_Driver/Src/stm32f7xx_hal_spdifrx.c **** /**
 427:Drivers/STM32F7xx_HAL_Driver/Src/stm32f7xx_hal_spdifrx.c ****   * @brief  Receives an amount of data (Data Flow) in blocking mode. 
 428:Drivers/STM32F7xx_HAL_Driver/Src/stm32f7xx_hal_spdifrx.c ****   * @param  hspdif pointer to SPDIFRX_HandleTypeDef structure that contains
 429:Drivers/STM32F7xx_HAL_Driver/Src/stm32f7xx_hal_spdifrx.c ****   *                 the configuration information for SPDIFRX module.
ARM GAS  C:\Users\Nina\AppData\Local\Temp\ccfkNb9x.s 			page 9


 430:Drivers/STM32F7xx_HAL_Driver/Src/stm32f7xx_hal_spdifrx.c ****   * @param  pData Pointer to data buffer
 431:Drivers/STM32F7xx_HAL_Driver/Src/stm32f7xx_hal_spdifrx.c ****   * @param  Size Amount of data to be received
 432:Drivers/STM32F7xx_HAL_Driver/Src/stm32f7xx_hal_spdifrx.c ****   * @param  Timeout Timeout duration
 433:Drivers/STM32F7xx_HAL_Driver/Src/stm32f7xx_hal_spdifrx.c ****   * @retval HAL status
 434:Drivers/STM32F7xx_HAL_Driver/Src/stm32f7xx_hal_spdifrx.c ****   */
 435:Drivers/STM32F7xx_HAL_Driver/Src/stm32f7xx_hal_spdifrx.c **** HAL_StatusTypeDef HAL_SPDIFRX_ReceiveDataFlow(SPDIFRX_HandleTypeDef *hspdif, uint32_t *pData, uint1
 436:Drivers/STM32F7xx_HAL_Driver/Src/stm32f7xx_hal_spdifrx.c **** {
 437:Drivers/STM32F7xx_HAL_Driver/Src/stm32f7xx_hal_spdifrx.c ****   uint32_t tickstart = 0U;
 438:Drivers/STM32F7xx_HAL_Driver/Src/stm32f7xx_hal_spdifrx.c ****   
 439:Drivers/STM32F7xx_HAL_Driver/Src/stm32f7xx_hal_spdifrx.c ****   if((pData == NULL ) || (Size == 0U)) 
 440:Drivers/STM32F7xx_HAL_Driver/Src/stm32f7xx_hal_spdifrx.c ****   {
 441:Drivers/STM32F7xx_HAL_Driver/Src/stm32f7xx_hal_spdifrx.c ****     return  HAL_ERROR;
 442:Drivers/STM32F7xx_HAL_Driver/Src/stm32f7xx_hal_spdifrx.c ****   }
 443:Drivers/STM32F7xx_HAL_Driver/Src/stm32f7xx_hal_spdifrx.c ****   
 444:Drivers/STM32F7xx_HAL_Driver/Src/stm32f7xx_hal_spdifrx.c ****   if(hspdif->State == HAL_SPDIFRX_STATE_READY)
 445:Drivers/STM32F7xx_HAL_Driver/Src/stm32f7xx_hal_spdifrx.c ****   { 
 446:Drivers/STM32F7xx_HAL_Driver/Src/stm32f7xx_hal_spdifrx.c ****     /* Process Locked */
 447:Drivers/STM32F7xx_HAL_Driver/Src/stm32f7xx_hal_spdifrx.c ****     __HAL_LOCK(hspdif);
 448:Drivers/STM32F7xx_HAL_Driver/Src/stm32f7xx_hal_spdifrx.c ****     
 449:Drivers/STM32F7xx_HAL_Driver/Src/stm32f7xx_hal_spdifrx.c ****     hspdif->State = HAL_SPDIFRX_STATE_BUSY;
 450:Drivers/STM32F7xx_HAL_Driver/Src/stm32f7xx_hal_spdifrx.c ****     
 451:Drivers/STM32F7xx_HAL_Driver/Src/stm32f7xx_hal_spdifrx.c ****     /* Start synchronisation */
 452:Drivers/STM32F7xx_HAL_Driver/Src/stm32f7xx_hal_spdifrx.c ****     __HAL_SPDIFRX_SYNC(hspdif);
 453:Drivers/STM32F7xx_HAL_Driver/Src/stm32f7xx_hal_spdifrx.c ****     
 454:Drivers/STM32F7xx_HAL_Driver/Src/stm32f7xx_hal_spdifrx.c ****     /* Get tick */ 
 455:Drivers/STM32F7xx_HAL_Driver/Src/stm32f7xx_hal_spdifrx.c ****     tickstart = HAL_GetTick();
 456:Drivers/STM32F7xx_HAL_Driver/Src/stm32f7xx_hal_spdifrx.c ****     
 457:Drivers/STM32F7xx_HAL_Driver/Src/stm32f7xx_hal_spdifrx.c ****     /* Wait until SYNCD flag is set */
 458:Drivers/STM32F7xx_HAL_Driver/Src/stm32f7xx_hal_spdifrx.c ****     if(SPDIFRX_WaitOnFlagUntilTimeout(hspdif, SPDIFRX_FLAG_SYNCD, RESET, Timeout, tickstart) != HAL
 459:Drivers/STM32F7xx_HAL_Driver/Src/stm32f7xx_hal_spdifrx.c ****     { 
 460:Drivers/STM32F7xx_HAL_Driver/Src/stm32f7xx_hal_spdifrx.c ****       return HAL_TIMEOUT;
 461:Drivers/STM32F7xx_HAL_Driver/Src/stm32f7xx_hal_spdifrx.c ****     }  
 462:Drivers/STM32F7xx_HAL_Driver/Src/stm32f7xx_hal_spdifrx.c ****     
 463:Drivers/STM32F7xx_HAL_Driver/Src/stm32f7xx_hal_spdifrx.c ****     /* Start reception */    
 464:Drivers/STM32F7xx_HAL_Driver/Src/stm32f7xx_hal_spdifrx.c ****     __HAL_SPDIFRX_RCV(hspdif);
 465:Drivers/STM32F7xx_HAL_Driver/Src/stm32f7xx_hal_spdifrx.c ****     
 466:Drivers/STM32F7xx_HAL_Driver/Src/stm32f7xx_hal_spdifrx.c ****     /* Receive data flow */
 467:Drivers/STM32F7xx_HAL_Driver/Src/stm32f7xx_hal_spdifrx.c ****     while(Size > 0U)
 468:Drivers/STM32F7xx_HAL_Driver/Src/stm32f7xx_hal_spdifrx.c ****     {     
 469:Drivers/STM32F7xx_HAL_Driver/Src/stm32f7xx_hal_spdifrx.c ****       /* Get tick */ 
 470:Drivers/STM32F7xx_HAL_Driver/Src/stm32f7xx_hal_spdifrx.c ****       tickstart = HAL_GetTick();
 471:Drivers/STM32F7xx_HAL_Driver/Src/stm32f7xx_hal_spdifrx.c ****       
 472:Drivers/STM32F7xx_HAL_Driver/Src/stm32f7xx_hal_spdifrx.c ****       /* Wait until RXNE flag is set */
 473:Drivers/STM32F7xx_HAL_Driver/Src/stm32f7xx_hal_spdifrx.c ****       if(SPDIFRX_WaitOnFlagUntilTimeout(hspdif, SPDIFRX_FLAG_RXNE, RESET, Timeout, tickstart) != HA
 474:Drivers/STM32F7xx_HAL_Driver/Src/stm32f7xx_hal_spdifrx.c ****       { 
 475:Drivers/STM32F7xx_HAL_Driver/Src/stm32f7xx_hal_spdifrx.c ****         return HAL_TIMEOUT;
 476:Drivers/STM32F7xx_HAL_Driver/Src/stm32f7xx_hal_spdifrx.c ****       }  
 477:Drivers/STM32F7xx_HAL_Driver/Src/stm32f7xx_hal_spdifrx.c ****       
 478:Drivers/STM32F7xx_HAL_Driver/Src/stm32f7xx_hal_spdifrx.c ****       (*pData++) = hspdif->Instance->DR;
 479:Drivers/STM32F7xx_HAL_Driver/Src/stm32f7xx_hal_spdifrx.c ****       Size--; 
 480:Drivers/STM32F7xx_HAL_Driver/Src/stm32f7xx_hal_spdifrx.c ****     }      
 481:Drivers/STM32F7xx_HAL_Driver/Src/stm32f7xx_hal_spdifrx.c ****     
 482:Drivers/STM32F7xx_HAL_Driver/Src/stm32f7xx_hal_spdifrx.c ****     /* SPDIFRX ready */
 483:Drivers/STM32F7xx_HAL_Driver/Src/stm32f7xx_hal_spdifrx.c ****     hspdif->State = HAL_SPDIFRX_STATE_READY;
 484:Drivers/STM32F7xx_HAL_Driver/Src/stm32f7xx_hal_spdifrx.c ****     
 485:Drivers/STM32F7xx_HAL_Driver/Src/stm32f7xx_hal_spdifrx.c ****     /* Process Unlocked */
 486:Drivers/STM32F7xx_HAL_Driver/Src/stm32f7xx_hal_spdifrx.c ****     __HAL_UNLOCK(hspdif);
ARM GAS  C:\Users\Nina\AppData\Local\Temp\ccfkNb9x.s 			page 10


 487:Drivers/STM32F7xx_HAL_Driver/Src/stm32f7xx_hal_spdifrx.c ****     
 488:Drivers/STM32F7xx_HAL_Driver/Src/stm32f7xx_hal_spdifrx.c ****     return HAL_OK;
 489:Drivers/STM32F7xx_HAL_Driver/Src/stm32f7xx_hal_spdifrx.c ****   }
 490:Drivers/STM32F7xx_HAL_Driver/Src/stm32f7xx_hal_spdifrx.c ****   else
 491:Drivers/STM32F7xx_HAL_Driver/Src/stm32f7xx_hal_spdifrx.c ****   {
 492:Drivers/STM32F7xx_HAL_Driver/Src/stm32f7xx_hal_spdifrx.c ****     return HAL_BUSY;
 493:Drivers/STM32F7xx_HAL_Driver/Src/stm32f7xx_hal_spdifrx.c ****   }
 494:Drivers/STM32F7xx_HAL_Driver/Src/stm32f7xx_hal_spdifrx.c **** }
 495:Drivers/STM32F7xx_HAL_Driver/Src/stm32f7xx_hal_spdifrx.c **** 
 496:Drivers/STM32F7xx_HAL_Driver/Src/stm32f7xx_hal_spdifrx.c **** /**
 497:Drivers/STM32F7xx_HAL_Driver/Src/stm32f7xx_hal_spdifrx.c ****   * @brief  Receives an amount of data (Control Flow) in blocking mode. 
 498:Drivers/STM32F7xx_HAL_Driver/Src/stm32f7xx_hal_spdifrx.c ****   * @param  hspdif pointer to a SPDIFRX_HandleTypeDef structure that contains
 499:Drivers/STM32F7xx_HAL_Driver/Src/stm32f7xx_hal_spdifrx.c ****   *                 the configuration information for SPDIFRX module.
 500:Drivers/STM32F7xx_HAL_Driver/Src/stm32f7xx_hal_spdifrx.c ****   * @param  pData Pointer to data buffer
 501:Drivers/STM32F7xx_HAL_Driver/Src/stm32f7xx_hal_spdifrx.c ****   * @param  Size Amount of data to be received
 502:Drivers/STM32F7xx_HAL_Driver/Src/stm32f7xx_hal_spdifrx.c ****   * @param  Timeout Timeout duration
 503:Drivers/STM32F7xx_HAL_Driver/Src/stm32f7xx_hal_spdifrx.c ****   * @retval HAL status
 504:Drivers/STM32F7xx_HAL_Driver/Src/stm32f7xx_hal_spdifrx.c ****   */
 505:Drivers/STM32F7xx_HAL_Driver/Src/stm32f7xx_hal_spdifrx.c **** HAL_StatusTypeDef HAL_SPDIFRX_ReceiveControlFlow(SPDIFRX_HandleTypeDef *hspdif, uint32_t *pData, ui
 506:Drivers/STM32F7xx_HAL_Driver/Src/stm32f7xx_hal_spdifrx.c **** {
 507:Drivers/STM32F7xx_HAL_Driver/Src/stm32f7xx_hal_spdifrx.c ****   uint32_t tickstart = 0U;
 508:Drivers/STM32F7xx_HAL_Driver/Src/stm32f7xx_hal_spdifrx.c ****   
 509:Drivers/STM32F7xx_HAL_Driver/Src/stm32f7xx_hal_spdifrx.c ****   if((pData == NULL ) || (Size == 0U)) 
 510:Drivers/STM32F7xx_HAL_Driver/Src/stm32f7xx_hal_spdifrx.c ****   {
 511:Drivers/STM32F7xx_HAL_Driver/Src/stm32f7xx_hal_spdifrx.c ****     return  HAL_ERROR;
 512:Drivers/STM32F7xx_HAL_Driver/Src/stm32f7xx_hal_spdifrx.c ****   }
 513:Drivers/STM32F7xx_HAL_Driver/Src/stm32f7xx_hal_spdifrx.c ****   
 514:Drivers/STM32F7xx_HAL_Driver/Src/stm32f7xx_hal_spdifrx.c ****   if(hspdif->State == HAL_SPDIFRX_STATE_READY)
 515:Drivers/STM32F7xx_HAL_Driver/Src/stm32f7xx_hal_spdifrx.c ****   { 
 516:Drivers/STM32F7xx_HAL_Driver/Src/stm32f7xx_hal_spdifrx.c ****     /* Process Locked */
 517:Drivers/STM32F7xx_HAL_Driver/Src/stm32f7xx_hal_spdifrx.c ****     __HAL_LOCK(hspdif);
 518:Drivers/STM32F7xx_HAL_Driver/Src/stm32f7xx_hal_spdifrx.c ****     
 519:Drivers/STM32F7xx_HAL_Driver/Src/stm32f7xx_hal_spdifrx.c ****     hspdif->State = HAL_SPDIFRX_STATE_BUSY;
 520:Drivers/STM32F7xx_HAL_Driver/Src/stm32f7xx_hal_spdifrx.c ****     
 521:Drivers/STM32F7xx_HAL_Driver/Src/stm32f7xx_hal_spdifrx.c ****     /* Start synchronization */
 522:Drivers/STM32F7xx_HAL_Driver/Src/stm32f7xx_hal_spdifrx.c ****     __HAL_SPDIFRX_SYNC(hspdif);
 523:Drivers/STM32F7xx_HAL_Driver/Src/stm32f7xx_hal_spdifrx.c ****     
 524:Drivers/STM32F7xx_HAL_Driver/Src/stm32f7xx_hal_spdifrx.c ****     /* Get tick */ 
 525:Drivers/STM32F7xx_HAL_Driver/Src/stm32f7xx_hal_spdifrx.c ****     tickstart = HAL_GetTick();
 526:Drivers/STM32F7xx_HAL_Driver/Src/stm32f7xx_hal_spdifrx.c ****     
 527:Drivers/STM32F7xx_HAL_Driver/Src/stm32f7xx_hal_spdifrx.c ****     /* Wait until SYNCD flag is set */
 528:Drivers/STM32F7xx_HAL_Driver/Src/stm32f7xx_hal_spdifrx.c ****     if(SPDIFRX_WaitOnFlagUntilTimeout(hspdif, SPDIFRX_FLAG_SYNCD, RESET, Timeout, tickstart) != HAL
 529:Drivers/STM32F7xx_HAL_Driver/Src/stm32f7xx_hal_spdifrx.c ****     { 
 530:Drivers/STM32F7xx_HAL_Driver/Src/stm32f7xx_hal_spdifrx.c ****       return HAL_TIMEOUT;
 531:Drivers/STM32F7xx_HAL_Driver/Src/stm32f7xx_hal_spdifrx.c ****     }  
 532:Drivers/STM32F7xx_HAL_Driver/Src/stm32f7xx_hal_spdifrx.c ****     
 533:Drivers/STM32F7xx_HAL_Driver/Src/stm32f7xx_hal_spdifrx.c ****     /* Start reception */    
 534:Drivers/STM32F7xx_HAL_Driver/Src/stm32f7xx_hal_spdifrx.c ****     __HAL_SPDIFRX_RCV(hspdif);
 535:Drivers/STM32F7xx_HAL_Driver/Src/stm32f7xx_hal_spdifrx.c ****     
 536:Drivers/STM32F7xx_HAL_Driver/Src/stm32f7xx_hal_spdifrx.c ****     /* Receive control flow */
 537:Drivers/STM32F7xx_HAL_Driver/Src/stm32f7xx_hal_spdifrx.c ****     while(Size > 0U)
 538:Drivers/STM32F7xx_HAL_Driver/Src/stm32f7xx_hal_spdifrx.c ****     {      
 539:Drivers/STM32F7xx_HAL_Driver/Src/stm32f7xx_hal_spdifrx.c ****       /* Get tick */ 
 540:Drivers/STM32F7xx_HAL_Driver/Src/stm32f7xx_hal_spdifrx.c ****       tickstart = HAL_GetTick();
 541:Drivers/STM32F7xx_HAL_Driver/Src/stm32f7xx_hal_spdifrx.c ****       
 542:Drivers/STM32F7xx_HAL_Driver/Src/stm32f7xx_hal_spdifrx.c ****       /* Wait until CSRNE flag is set */
 543:Drivers/STM32F7xx_HAL_Driver/Src/stm32f7xx_hal_spdifrx.c ****       if(SPDIFRX_WaitOnFlagUntilTimeout(hspdif, SPDIFRX_FLAG_CSRNE, RESET, Timeout, tickstart) != H
ARM GAS  C:\Users\Nina\AppData\Local\Temp\ccfkNb9x.s 			page 11


 544:Drivers/STM32F7xx_HAL_Driver/Src/stm32f7xx_hal_spdifrx.c ****       { 
 545:Drivers/STM32F7xx_HAL_Driver/Src/stm32f7xx_hal_spdifrx.c ****         return HAL_TIMEOUT;
 546:Drivers/STM32F7xx_HAL_Driver/Src/stm32f7xx_hal_spdifrx.c ****       }  
 547:Drivers/STM32F7xx_HAL_Driver/Src/stm32f7xx_hal_spdifrx.c ****       
 548:Drivers/STM32F7xx_HAL_Driver/Src/stm32f7xx_hal_spdifrx.c ****       (*pData++) = hspdif->Instance->CSR;
 549:Drivers/STM32F7xx_HAL_Driver/Src/stm32f7xx_hal_spdifrx.c ****       Size--; 
 550:Drivers/STM32F7xx_HAL_Driver/Src/stm32f7xx_hal_spdifrx.c ****     }      
 551:Drivers/STM32F7xx_HAL_Driver/Src/stm32f7xx_hal_spdifrx.c ****     
 552:Drivers/STM32F7xx_HAL_Driver/Src/stm32f7xx_hal_spdifrx.c ****     /* SPDIFRX ready */
 553:Drivers/STM32F7xx_HAL_Driver/Src/stm32f7xx_hal_spdifrx.c ****     hspdif->State = HAL_SPDIFRX_STATE_READY;
 554:Drivers/STM32F7xx_HAL_Driver/Src/stm32f7xx_hal_spdifrx.c ****     
 555:Drivers/STM32F7xx_HAL_Driver/Src/stm32f7xx_hal_spdifrx.c ****     /* Process Unlocked */
 556:Drivers/STM32F7xx_HAL_Driver/Src/stm32f7xx_hal_spdifrx.c ****     __HAL_UNLOCK(hspdif);
 557:Drivers/STM32F7xx_HAL_Driver/Src/stm32f7xx_hal_spdifrx.c ****     
 558:Drivers/STM32F7xx_HAL_Driver/Src/stm32f7xx_hal_spdifrx.c ****     return HAL_OK;
 559:Drivers/STM32F7xx_HAL_Driver/Src/stm32f7xx_hal_spdifrx.c ****   }
 560:Drivers/STM32F7xx_HAL_Driver/Src/stm32f7xx_hal_spdifrx.c ****   else
 561:Drivers/STM32F7xx_HAL_Driver/Src/stm32f7xx_hal_spdifrx.c ****   {
 562:Drivers/STM32F7xx_HAL_Driver/Src/stm32f7xx_hal_spdifrx.c ****     return HAL_BUSY;
 563:Drivers/STM32F7xx_HAL_Driver/Src/stm32f7xx_hal_spdifrx.c ****   }
 564:Drivers/STM32F7xx_HAL_Driver/Src/stm32f7xx_hal_spdifrx.c **** }
 565:Drivers/STM32F7xx_HAL_Driver/Src/stm32f7xx_hal_spdifrx.c **** 
 566:Drivers/STM32F7xx_HAL_Driver/Src/stm32f7xx_hal_spdifrx.c **** /**
 567:Drivers/STM32F7xx_HAL_Driver/Src/stm32f7xx_hal_spdifrx.c ****   * @brief Receive an amount of data (Data Flow) in non-blocking mode with Interrupt
 568:Drivers/STM32F7xx_HAL_Driver/Src/stm32f7xx_hal_spdifrx.c ****   * @param hspdif SPDIFRX handle
 569:Drivers/STM32F7xx_HAL_Driver/Src/stm32f7xx_hal_spdifrx.c ****   * @param pData a 32-bit pointer to the Receive data buffer.
 570:Drivers/STM32F7xx_HAL_Driver/Src/stm32f7xx_hal_spdifrx.c ****   * @param Size number of data sample to be received .
 571:Drivers/STM32F7xx_HAL_Driver/Src/stm32f7xx_hal_spdifrx.c ****   * @retval HAL status
 572:Drivers/STM32F7xx_HAL_Driver/Src/stm32f7xx_hal_spdifrx.c ****   */
 573:Drivers/STM32F7xx_HAL_Driver/Src/stm32f7xx_hal_spdifrx.c **** HAL_StatusTypeDef HAL_SPDIFRX_ReceiveDataFlow_IT(SPDIFRX_HandleTypeDef *hspdif, uint32_t *pData, ui
 574:Drivers/STM32F7xx_HAL_Driver/Src/stm32f7xx_hal_spdifrx.c **** {
 575:Drivers/STM32F7xx_HAL_Driver/Src/stm32f7xx_hal_spdifrx.c ****   uint32_t tickstart = 0U;
 576:Drivers/STM32F7xx_HAL_Driver/Src/stm32f7xx_hal_spdifrx.c ****   
 577:Drivers/STM32F7xx_HAL_Driver/Src/stm32f7xx_hal_spdifrx.c ****   if((hspdif->State == HAL_SPDIFRX_STATE_READY) || (hspdif->State == HAL_SPDIFRX_STATE_BUSY_CX))
 578:Drivers/STM32F7xx_HAL_Driver/Src/stm32f7xx_hal_spdifrx.c ****   {
 579:Drivers/STM32F7xx_HAL_Driver/Src/stm32f7xx_hal_spdifrx.c ****     if((pData == NULL) || (Size == 0U)) 
 580:Drivers/STM32F7xx_HAL_Driver/Src/stm32f7xx_hal_spdifrx.c ****     {
 581:Drivers/STM32F7xx_HAL_Driver/Src/stm32f7xx_hal_spdifrx.c ****       return HAL_ERROR;
 582:Drivers/STM32F7xx_HAL_Driver/Src/stm32f7xx_hal_spdifrx.c ****     }
 583:Drivers/STM32F7xx_HAL_Driver/Src/stm32f7xx_hal_spdifrx.c ****     
 584:Drivers/STM32F7xx_HAL_Driver/Src/stm32f7xx_hal_spdifrx.c ****     /* Process Locked */
 585:Drivers/STM32F7xx_HAL_Driver/Src/stm32f7xx_hal_spdifrx.c ****     __HAL_LOCK(hspdif);
 586:Drivers/STM32F7xx_HAL_Driver/Src/stm32f7xx_hal_spdifrx.c ****     
 587:Drivers/STM32F7xx_HAL_Driver/Src/stm32f7xx_hal_spdifrx.c ****     hspdif->pRxBuffPtr = pData;
 588:Drivers/STM32F7xx_HAL_Driver/Src/stm32f7xx_hal_spdifrx.c ****     hspdif->RxXferSize = Size;
 589:Drivers/STM32F7xx_HAL_Driver/Src/stm32f7xx_hal_spdifrx.c ****     hspdif->RxXferCount = Size;
 590:Drivers/STM32F7xx_HAL_Driver/Src/stm32f7xx_hal_spdifrx.c ****     
 591:Drivers/STM32F7xx_HAL_Driver/Src/stm32f7xx_hal_spdifrx.c ****     hspdif->ErrorCode = HAL_SPDIFRX_ERROR_NONE;
 592:Drivers/STM32F7xx_HAL_Driver/Src/stm32f7xx_hal_spdifrx.c ****     
 593:Drivers/STM32F7xx_HAL_Driver/Src/stm32f7xx_hal_spdifrx.c ****     /* Check if a receive process is ongoing or not */
 594:Drivers/STM32F7xx_HAL_Driver/Src/stm32f7xx_hal_spdifrx.c ****     hspdif->State = HAL_SPDIFRX_STATE_BUSY_RX;
 595:Drivers/STM32F7xx_HAL_Driver/Src/stm32f7xx_hal_spdifrx.c ****     
 596:Drivers/STM32F7xx_HAL_Driver/Src/stm32f7xx_hal_spdifrx.c ****     
 597:Drivers/STM32F7xx_HAL_Driver/Src/stm32f7xx_hal_spdifrx.c ****     /* Enable the SPDIFRX  PE Error Interrupt */
 598:Drivers/STM32F7xx_HAL_Driver/Src/stm32f7xx_hal_spdifrx.c ****     __HAL_SPDIFRX_ENABLE_IT(hspdif, SPDIFRX_IT_PERRIE);
 599:Drivers/STM32F7xx_HAL_Driver/Src/stm32f7xx_hal_spdifrx.c ****     
 600:Drivers/STM32F7xx_HAL_Driver/Src/stm32f7xx_hal_spdifrx.c ****     /* Enable the SPDIFRX  OVR Error Interrupt */
ARM GAS  C:\Users\Nina\AppData\Local\Temp\ccfkNb9x.s 			page 12


 601:Drivers/STM32F7xx_HAL_Driver/Src/stm32f7xx_hal_spdifrx.c ****     __HAL_SPDIFRX_ENABLE_IT(hspdif, SPDIFRX_IT_OVRIE);
 602:Drivers/STM32F7xx_HAL_Driver/Src/stm32f7xx_hal_spdifrx.c ****     
 603:Drivers/STM32F7xx_HAL_Driver/Src/stm32f7xx_hal_spdifrx.c ****     /* Process Unlocked */
 604:Drivers/STM32F7xx_HAL_Driver/Src/stm32f7xx_hal_spdifrx.c ****     __HAL_UNLOCK(hspdif);
 605:Drivers/STM32F7xx_HAL_Driver/Src/stm32f7xx_hal_spdifrx.c ****     
 606:Drivers/STM32F7xx_HAL_Driver/Src/stm32f7xx_hal_spdifrx.c ****     /* Enable the SPDIFRX RXNE interrupt */
 607:Drivers/STM32F7xx_HAL_Driver/Src/stm32f7xx_hal_spdifrx.c ****     __HAL_SPDIFRX_ENABLE_IT(hspdif, SPDIFRX_IT_RXNE);
 608:Drivers/STM32F7xx_HAL_Driver/Src/stm32f7xx_hal_spdifrx.c ****     
 609:Drivers/STM32F7xx_HAL_Driver/Src/stm32f7xx_hal_spdifrx.c ****     if (((SPDIFRX->CR & SPDIFRX_CR_SPDIFEN) != SPDIFRX_STATE_SYNC) || ((SPDIFRX->CR & SPDIFRX_CR_SP
 610:Drivers/STM32F7xx_HAL_Driver/Src/stm32f7xx_hal_spdifrx.c ****     {
 611:Drivers/STM32F7xx_HAL_Driver/Src/stm32f7xx_hal_spdifrx.c ****       /* Start synchronization */
 612:Drivers/STM32F7xx_HAL_Driver/Src/stm32f7xx_hal_spdifrx.c ****       __HAL_SPDIFRX_SYNC(hspdif);
 613:Drivers/STM32F7xx_HAL_Driver/Src/stm32f7xx_hal_spdifrx.c ****       
 614:Drivers/STM32F7xx_HAL_Driver/Src/stm32f7xx_hal_spdifrx.c ****       /* Get tick */ 
 615:Drivers/STM32F7xx_HAL_Driver/Src/stm32f7xx_hal_spdifrx.c ****       tickstart = HAL_GetTick();
 616:Drivers/STM32F7xx_HAL_Driver/Src/stm32f7xx_hal_spdifrx.c ****       
 617:Drivers/STM32F7xx_HAL_Driver/Src/stm32f7xx_hal_spdifrx.c ****       /* Wait until SYNCD flag is set */
 618:Drivers/STM32F7xx_HAL_Driver/Src/stm32f7xx_hal_spdifrx.c ****       if(SPDIFRX_WaitOnFlagUntilTimeout(hspdif, SPDIFRX_FLAG_SYNCD, RESET, SPDIFRX_TIMEOUT_VALUE, t
 619:Drivers/STM32F7xx_HAL_Driver/Src/stm32f7xx_hal_spdifrx.c ****       { 
 620:Drivers/STM32F7xx_HAL_Driver/Src/stm32f7xx_hal_spdifrx.c ****         return HAL_TIMEOUT;
 621:Drivers/STM32F7xx_HAL_Driver/Src/stm32f7xx_hal_spdifrx.c ****       }  
 622:Drivers/STM32F7xx_HAL_Driver/Src/stm32f7xx_hal_spdifrx.c ****       
 623:Drivers/STM32F7xx_HAL_Driver/Src/stm32f7xx_hal_spdifrx.c ****       /* Start reception */    
 624:Drivers/STM32F7xx_HAL_Driver/Src/stm32f7xx_hal_spdifrx.c ****       __HAL_SPDIFRX_RCV(hspdif);
 625:Drivers/STM32F7xx_HAL_Driver/Src/stm32f7xx_hal_spdifrx.c ****     }
 626:Drivers/STM32F7xx_HAL_Driver/Src/stm32f7xx_hal_spdifrx.c ****     
 627:Drivers/STM32F7xx_HAL_Driver/Src/stm32f7xx_hal_spdifrx.c ****     return HAL_OK;
 628:Drivers/STM32F7xx_HAL_Driver/Src/stm32f7xx_hal_spdifrx.c ****   }
 629:Drivers/STM32F7xx_HAL_Driver/Src/stm32f7xx_hal_spdifrx.c ****   else
 630:Drivers/STM32F7xx_HAL_Driver/Src/stm32f7xx_hal_spdifrx.c ****   {
 631:Drivers/STM32F7xx_HAL_Driver/Src/stm32f7xx_hal_spdifrx.c ****     return HAL_BUSY; 
 632:Drivers/STM32F7xx_HAL_Driver/Src/stm32f7xx_hal_spdifrx.c ****   }
 633:Drivers/STM32F7xx_HAL_Driver/Src/stm32f7xx_hal_spdifrx.c **** }
 634:Drivers/STM32F7xx_HAL_Driver/Src/stm32f7xx_hal_spdifrx.c **** 
 635:Drivers/STM32F7xx_HAL_Driver/Src/stm32f7xx_hal_spdifrx.c **** /**
 636:Drivers/STM32F7xx_HAL_Driver/Src/stm32f7xx_hal_spdifrx.c ****   * @brief Receive an amount of data (Control Flow) with Interrupt
 637:Drivers/STM32F7xx_HAL_Driver/Src/stm32f7xx_hal_spdifrx.c ****   * @param hspdif SPDIFRX handle
 638:Drivers/STM32F7xx_HAL_Driver/Src/stm32f7xx_hal_spdifrx.c ****   * @param pData a 32-bit pointer to the Receive data buffer.
 639:Drivers/STM32F7xx_HAL_Driver/Src/stm32f7xx_hal_spdifrx.c ****   * @param Size number of data sample (Control Flow) to be received :
 640:Drivers/STM32F7xx_HAL_Driver/Src/stm32f7xx_hal_spdifrx.c ****   * @retval HAL status
 641:Drivers/STM32F7xx_HAL_Driver/Src/stm32f7xx_hal_spdifrx.c ****   */
 642:Drivers/STM32F7xx_HAL_Driver/Src/stm32f7xx_hal_spdifrx.c **** HAL_StatusTypeDef HAL_SPDIFRX_ReceiveControlFlow_IT(SPDIFRX_HandleTypeDef *hspdif, uint32_t *pData,
 643:Drivers/STM32F7xx_HAL_Driver/Src/stm32f7xx_hal_spdifrx.c **** {
 644:Drivers/STM32F7xx_HAL_Driver/Src/stm32f7xx_hal_spdifrx.c ****   uint32_t tickstart = 0U;
 645:Drivers/STM32F7xx_HAL_Driver/Src/stm32f7xx_hal_spdifrx.c ****   
 646:Drivers/STM32F7xx_HAL_Driver/Src/stm32f7xx_hal_spdifrx.c ****   if((hspdif->State == HAL_SPDIFRX_STATE_READY) || (hspdif->State == HAL_SPDIFRX_STATE_BUSY_RX))
 647:Drivers/STM32F7xx_HAL_Driver/Src/stm32f7xx_hal_spdifrx.c ****   {
 648:Drivers/STM32F7xx_HAL_Driver/Src/stm32f7xx_hal_spdifrx.c ****     if((pData == NULL ) || (Size == 0U)) 
 649:Drivers/STM32F7xx_HAL_Driver/Src/stm32f7xx_hal_spdifrx.c ****     {
 650:Drivers/STM32F7xx_HAL_Driver/Src/stm32f7xx_hal_spdifrx.c ****       return HAL_ERROR;
 651:Drivers/STM32F7xx_HAL_Driver/Src/stm32f7xx_hal_spdifrx.c ****     }
 652:Drivers/STM32F7xx_HAL_Driver/Src/stm32f7xx_hal_spdifrx.c ****     
 653:Drivers/STM32F7xx_HAL_Driver/Src/stm32f7xx_hal_spdifrx.c ****     /* Process Locked */
 654:Drivers/STM32F7xx_HAL_Driver/Src/stm32f7xx_hal_spdifrx.c ****     __HAL_LOCK(hspdif);
 655:Drivers/STM32F7xx_HAL_Driver/Src/stm32f7xx_hal_spdifrx.c ****     
 656:Drivers/STM32F7xx_HAL_Driver/Src/stm32f7xx_hal_spdifrx.c ****     hspdif->pCsBuffPtr = pData;
 657:Drivers/STM32F7xx_HAL_Driver/Src/stm32f7xx_hal_spdifrx.c ****     hspdif->CsXferSize = Size;
ARM GAS  C:\Users\Nina\AppData\Local\Temp\ccfkNb9x.s 			page 13


 658:Drivers/STM32F7xx_HAL_Driver/Src/stm32f7xx_hal_spdifrx.c ****     hspdif->CsXferCount = Size;
 659:Drivers/STM32F7xx_HAL_Driver/Src/stm32f7xx_hal_spdifrx.c ****     
 660:Drivers/STM32F7xx_HAL_Driver/Src/stm32f7xx_hal_spdifrx.c ****     hspdif->ErrorCode = HAL_SPDIFRX_ERROR_NONE;
 661:Drivers/STM32F7xx_HAL_Driver/Src/stm32f7xx_hal_spdifrx.c ****     
 662:Drivers/STM32F7xx_HAL_Driver/Src/stm32f7xx_hal_spdifrx.c ****     /* Check if a receive process is ongoing or not */
 663:Drivers/STM32F7xx_HAL_Driver/Src/stm32f7xx_hal_spdifrx.c ****     hspdif->State = HAL_SPDIFRX_STATE_BUSY_CX;
 664:Drivers/STM32F7xx_HAL_Driver/Src/stm32f7xx_hal_spdifrx.c ****     
 665:Drivers/STM32F7xx_HAL_Driver/Src/stm32f7xx_hal_spdifrx.c ****     
 666:Drivers/STM32F7xx_HAL_Driver/Src/stm32f7xx_hal_spdifrx.c ****     /* Enable the SPDIFRX PE Error Interrupt */
 667:Drivers/STM32F7xx_HAL_Driver/Src/stm32f7xx_hal_spdifrx.c ****     __HAL_SPDIFRX_ENABLE_IT(hspdif, SPDIFRX_IT_PERRIE);
 668:Drivers/STM32F7xx_HAL_Driver/Src/stm32f7xx_hal_spdifrx.c ****     
 669:Drivers/STM32F7xx_HAL_Driver/Src/stm32f7xx_hal_spdifrx.c ****     /* Enable the SPDIFRX OVR Error Interrupt */
 670:Drivers/STM32F7xx_HAL_Driver/Src/stm32f7xx_hal_spdifrx.c ****     __HAL_SPDIFRX_ENABLE_IT(hspdif, SPDIFRX_IT_OVRIE);
 671:Drivers/STM32F7xx_HAL_Driver/Src/stm32f7xx_hal_spdifrx.c ****     
 672:Drivers/STM32F7xx_HAL_Driver/Src/stm32f7xx_hal_spdifrx.c ****     /* Process Unlocked */
 673:Drivers/STM32F7xx_HAL_Driver/Src/stm32f7xx_hal_spdifrx.c ****     __HAL_UNLOCK(hspdif);
 674:Drivers/STM32F7xx_HAL_Driver/Src/stm32f7xx_hal_spdifrx.c ****     
 675:Drivers/STM32F7xx_HAL_Driver/Src/stm32f7xx_hal_spdifrx.c ****     /* Enable the SPDIFRX CSRNE interrupt */
 676:Drivers/STM32F7xx_HAL_Driver/Src/stm32f7xx_hal_spdifrx.c ****     __HAL_SPDIFRX_ENABLE_IT(hspdif, SPDIFRX_IT_CSRNE);
 677:Drivers/STM32F7xx_HAL_Driver/Src/stm32f7xx_hal_spdifrx.c ****     
 678:Drivers/STM32F7xx_HAL_Driver/Src/stm32f7xx_hal_spdifrx.c ****     if (((SPDIFRX->CR & SPDIFRX_CR_SPDIFEN) != SPDIFRX_STATE_SYNC) || ((SPDIFRX->CR & SPDIFRX_CR_SP
 679:Drivers/STM32F7xx_HAL_Driver/Src/stm32f7xx_hal_spdifrx.c ****     {
 680:Drivers/STM32F7xx_HAL_Driver/Src/stm32f7xx_hal_spdifrx.c ****       /* Start synchronization */
 681:Drivers/STM32F7xx_HAL_Driver/Src/stm32f7xx_hal_spdifrx.c ****       __HAL_SPDIFRX_SYNC(hspdif);
 682:Drivers/STM32F7xx_HAL_Driver/Src/stm32f7xx_hal_spdifrx.c ****       
 683:Drivers/STM32F7xx_HAL_Driver/Src/stm32f7xx_hal_spdifrx.c ****       /* Get tick */ 
 684:Drivers/STM32F7xx_HAL_Driver/Src/stm32f7xx_hal_spdifrx.c ****       tickstart = HAL_GetTick();
 685:Drivers/STM32F7xx_HAL_Driver/Src/stm32f7xx_hal_spdifrx.c ****       
 686:Drivers/STM32F7xx_HAL_Driver/Src/stm32f7xx_hal_spdifrx.c ****       /* Wait until SYNCD flag is set */
 687:Drivers/STM32F7xx_HAL_Driver/Src/stm32f7xx_hal_spdifrx.c ****       if(SPDIFRX_WaitOnFlagUntilTimeout(hspdif, SPDIFRX_FLAG_SYNCD, RESET, SPDIFRX_TIMEOUT_VALUE, t
 688:Drivers/STM32F7xx_HAL_Driver/Src/stm32f7xx_hal_spdifrx.c ****       { 
 689:Drivers/STM32F7xx_HAL_Driver/Src/stm32f7xx_hal_spdifrx.c ****         return HAL_TIMEOUT;
 690:Drivers/STM32F7xx_HAL_Driver/Src/stm32f7xx_hal_spdifrx.c ****       }  
 691:Drivers/STM32F7xx_HAL_Driver/Src/stm32f7xx_hal_spdifrx.c ****       
 692:Drivers/STM32F7xx_HAL_Driver/Src/stm32f7xx_hal_spdifrx.c ****       /* Start reception */    
 693:Drivers/STM32F7xx_HAL_Driver/Src/stm32f7xx_hal_spdifrx.c ****       __HAL_SPDIFRX_RCV(hspdif);
 694:Drivers/STM32F7xx_HAL_Driver/Src/stm32f7xx_hal_spdifrx.c ****     }
 695:Drivers/STM32F7xx_HAL_Driver/Src/stm32f7xx_hal_spdifrx.c ****     
 696:Drivers/STM32F7xx_HAL_Driver/Src/stm32f7xx_hal_spdifrx.c ****     return HAL_OK;
 697:Drivers/STM32F7xx_HAL_Driver/Src/stm32f7xx_hal_spdifrx.c ****   }
 698:Drivers/STM32F7xx_HAL_Driver/Src/stm32f7xx_hal_spdifrx.c ****   else
 699:Drivers/STM32F7xx_HAL_Driver/Src/stm32f7xx_hal_spdifrx.c ****   {
 700:Drivers/STM32F7xx_HAL_Driver/Src/stm32f7xx_hal_spdifrx.c ****     return HAL_BUSY; 
 701:Drivers/STM32F7xx_HAL_Driver/Src/stm32f7xx_hal_spdifrx.c ****   }
 702:Drivers/STM32F7xx_HAL_Driver/Src/stm32f7xx_hal_spdifrx.c **** }
 703:Drivers/STM32F7xx_HAL_Driver/Src/stm32f7xx_hal_spdifrx.c **** 
 704:Drivers/STM32F7xx_HAL_Driver/Src/stm32f7xx_hal_spdifrx.c **** /**
 705:Drivers/STM32F7xx_HAL_Driver/Src/stm32f7xx_hal_spdifrx.c ****   * @brief Receive an amount of data (Data Flow) mode with DMA 
 706:Drivers/STM32F7xx_HAL_Driver/Src/stm32f7xx_hal_spdifrx.c ****   * @param hspdif SPDIFRX handle
 707:Drivers/STM32F7xx_HAL_Driver/Src/stm32f7xx_hal_spdifrx.c ****   * @param pData a 32-bit pointer to the Receive data buffer.
 708:Drivers/STM32F7xx_HAL_Driver/Src/stm32f7xx_hal_spdifrx.c ****   * @param Size number of data sample to be received :
 709:Drivers/STM32F7xx_HAL_Driver/Src/stm32f7xx_hal_spdifrx.c ****   * @retval HAL status
 710:Drivers/STM32F7xx_HAL_Driver/Src/stm32f7xx_hal_spdifrx.c ****   */
 711:Drivers/STM32F7xx_HAL_Driver/Src/stm32f7xx_hal_spdifrx.c **** HAL_StatusTypeDef HAL_SPDIFRX_ReceiveDataFlow_DMA(SPDIFRX_HandleTypeDef *hspdif, uint32_t *pData, u
 712:Drivers/STM32F7xx_HAL_Driver/Src/stm32f7xx_hal_spdifrx.c **** {
 713:Drivers/STM32F7xx_HAL_Driver/Src/stm32f7xx_hal_spdifrx.c ****   uint32_t tickstart = 0U;
 714:Drivers/STM32F7xx_HAL_Driver/Src/stm32f7xx_hal_spdifrx.c ****   
ARM GAS  C:\Users\Nina\AppData\Local\Temp\ccfkNb9x.s 			page 14


 715:Drivers/STM32F7xx_HAL_Driver/Src/stm32f7xx_hal_spdifrx.c ****   if((pData == NULL) || (Size == 0U)) 
 716:Drivers/STM32F7xx_HAL_Driver/Src/stm32f7xx_hal_spdifrx.c ****   {
 717:Drivers/STM32F7xx_HAL_Driver/Src/stm32f7xx_hal_spdifrx.c ****     return  HAL_ERROR;                                    
 718:Drivers/STM32F7xx_HAL_Driver/Src/stm32f7xx_hal_spdifrx.c ****   } 
 719:Drivers/STM32F7xx_HAL_Driver/Src/stm32f7xx_hal_spdifrx.c ****   
 720:Drivers/STM32F7xx_HAL_Driver/Src/stm32f7xx_hal_spdifrx.c ****   if((hspdif->State == HAL_SPDIFRX_STATE_READY) || (hspdif->State == HAL_SPDIFRX_STATE_BUSY_CX))
 721:Drivers/STM32F7xx_HAL_Driver/Src/stm32f7xx_hal_spdifrx.c ****   {   
 722:Drivers/STM32F7xx_HAL_Driver/Src/stm32f7xx_hal_spdifrx.c ****     hspdif->pRxBuffPtr = pData;
 723:Drivers/STM32F7xx_HAL_Driver/Src/stm32f7xx_hal_spdifrx.c ****     hspdif->RxXferSize = Size;
 724:Drivers/STM32F7xx_HAL_Driver/Src/stm32f7xx_hal_spdifrx.c ****     hspdif->RxXferCount = Size;
 725:Drivers/STM32F7xx_HAL_Driver/Src/stm32f7xx_hal_spdifrx.c ****     
 726:Drivers/STM32F7xx_HAL_Driver/Src/stm32f7xx_hal_spdifrx.c ****     /* Process Locked */
 727:Drivers/STM32F7xx_HAL_Driver/Src/stm32f7xx_hal_spdifrx.c ****     __HAL_LOCK(hspdif);
 728:Drivers/STM32F7xx_HAL_Driver/Src/stm32f7xx_hal_spdifrx.c ****     
 729:Drivers/STM32F7xx_HAL_Driver/Src/stm32f7xx_hal_spdifrx.c ****     hspdif->ErrorCode = HAL_SPDIFRX_ERROR_NONE;
 730:Drivers/STM32F7xx_HAL_Driver/Src/stm32f7xx_hal_spdifrx.c ****     hspdif->State = HAL_SPDIFRX_STATE_BUSY_RX;
 731:Drivers/STM32F7xx_HAL_Driver/Src/stm32f7xx_hal_spdifrx.c ****     
 732:Drivers/STM32F7xx_HAL_Driver/Src/stm32f7xx_hal_spdifrx.c ****     /* Set the SPDIFRX Rx DMA Half transfer complete callback */
 733:Drivers/STM32F7xx_HAL_Driver/Src/stm32f7xx_hal_spdifrx.c ****     hspdif->hdmaDrRx->XferHalfCpltCallback = SPDIFRX_DMARxHalfCplt;
 734:Drivers/STM32F7xx_HAL_Driver/Src/stm32f7xx_hal_spdifrx.c ****     
 735:Drivers/STM32F7xx_HAL_Driver/Src/stm32f7xx_hal_spdifrx.c ****     /* Set the SPDIFRX Rx DMA transfer complete callback */
 736:Drivers/STM32F7xx_HAL_Driver/Src/stm32f7xx_hal_spdifrx.c ****     hspdif->hdmaDrRx->XferCpltCallback = SPDIFRX_DMARxCplt;
 737:Drivers/STM32F7xx_HAL_Driver/Src/stm32f7xx_hal_spdifrx.c ****     
 738:Drivers/STM32F7xx_HAL_Driver/Src/stm32f7xx_hal_spdifrx.c ****     /* Set the DMA error callback */
 739:Drivers/STM32F7xx_HAL_Driver/Src/stm32f7xx_hal_spdifrx.c ****     hspdif->hdmaDrRx->XferErrorCallback = SPDIFRX_DMAError;
 740:Drivers/STM32F7xx_HAL_Driver/Src/stm32f7xx_hal_spdifrx.c ****     
 741:Drivers/STM32F7xx_HAL_Driver/Src/stm32f7xx_hal_spdifrx.c ****     /* Enable the DMA request */
 742:Drivers/STM32F7xx_HAL_Driver/Src/stm32f7xx_hal_spdifrx.c ****     HAL_DMA_Start_IT(hspdif->hdmaDrRx, (uint32_t)&hspdif->Instance->DR, (uint32_t)hspdif->pRxBuffPt
 743:Drivers/STM32F7xx_HAL_Driver/Src/stm32f7xx_hal_spdifrx.c ****     
 744:Drivers/STM32F7xx_HAL_Driver/Src/stm32f7xx_hal_spdifrx.c ****     /* Enable RXDMAEN bit in SPDIFRX CR register for data flow reception*/
 745:Drivers/STM32F7xx_HAL_Driver/Src/stm32f7xx_hal_spdifrx.c ****     hspdif->Instance->CR |= SPDIFRX_CR_RXDMAEN;
 746:Drivers/STM32F7xx_HAL_Driver/Src/stm32f7xx_hal_spdifrx.c ****     
 747:Drivers/STM32F7xx_HAL_Driver/Src/stm32f7xx_hal_spdifrx.c ****     if (((SPDIFRX->CR & SPDIFRX_CR_SPDIFEN) != SPDIFRX_STATE_SYNC) || ((SPDIFRX->CR & SPDIFRX_CR_SP
 748:Drivers/STM32F7xx_HAL_Driver/Src/stm32f7xx_hal_spdifrx.c ****     {
 749:Drivers/STM32F7xx_HAL_Driver/Src/stm32f7xx_hal_spdifrx.c ****       /* Start synchronization */
 750:Drivers/STM32F7xx_HAL_Driver/Src/stm32f7xx_hal_spdifrx.c ****       __HAL_SPDIFRX_SYNC(hspdif);
 751:Drivers/STM32F7xx_HAL_Driver/Src/stm32f7xx_hal_spdifrx.c ****       
 752:Drivers/STM32F7xx_HAL_Driver/Src/stm32f7xx_hal_spdifrx.c ****       /* Get tick */ 
 753:Drivers/STM32F7xx_HAL_Driver/Src/stm32f7xx_hal_spdifrx.c ****       tickstart = HAL_GetTick();
 754:Drivers/STM32F7xx_HAL_Driver/Src/stm32f7xx_hal_spdifrx.c ****       
 755:Drivers/STM32F7xx_HAL_Driver/Src/stm32f7xx_hal_spdifrx.c ****       /* Wait until SYNCD flag is set */
 756:Drivers/STM32F7xx_HAL_Driver/Src/stm32f7xx_hal_spdifrx.c ****       if(SPDIFRX_WaitOnFlagUntilTimeout(hspdif, SPDIFRX_FLAG_SYNCD, RESET, SPDIFRX_TIMEOUT_VALUE, t
 757:Drivers/STM32F7xx_HAL_Driver/Src/stm32f7xx_hal_spdifrx.c ****       { 
 758:Drivers/STM32F7xx_HAL_Driver/Src/stm32f7xx_hal_spdifrx.c ****         return HAL_TIMEOUT;
 759:Drivers/STM32F7xx_HAL_Driver/Src/stm32f7xx_hal_spdifrx.c ****       }  
 760:Drivers/STM32F7xx_HAL_Driver/Src/stm32f7xx_hal_spdifrx.c ****       
 761:Drivers/STM32F7xx_HAL_Driver/Src/stm32f7xx_hal_spdifrx.c ****       /* Start reception */    
 762:Drivers/STM32F7xx_HAL_Driver/Src/stm32f7xx_hal_spdifrx.c ****       __HAL_SPDIFRX_RCV(hspdif);
 763:Drivers/STM32F7xx_HAL_Driver/Src/stm32f7xx_hal_spdifrx.c ****     }
 764:Drivers/STM32F7xx_HAL_Driver/Src/stm32f7xx_hal_spdifrx.c ****     
 765:Drivers/STM32F7xx_HAL_Driver/Src/stm32f7xx_hal_spdifrx.c ****     /* Process Unlocked */
 766:Drivers/STM32F7xx_HAL_Driver/Src/stm32f7xx_hal_spdifrx.c ****     __HAL_UNLOCK(hspdif);
 767:Drivers/STM32F7xx_HAL_Driver/Src/stm32f7xx_hal_spdifrx.c ****     
 768:Drivers/STM32F7xx_HAL_Driver/Src/stm32f7xx_hal_spdifrx.c ****     return HAL_OK;
 769:Drivers/STM32F7xx_HAL_Driver/Src/stm32f7xx_hal_spdifrx.c ****   }
 770:Drivers/STM32F7xx_HAL_Driver/Src/stm32f7xx_hal_spdifrx.c ****   else
 771:Drivers/STM32F7xx_HAL_Driver/Src/stm32f7xx_hal_spdifrx.c ****   {
ARM GAS  C:\Users\Nina\AppData\Local\Temp\ccfkNb9x.s 			page 15


 772:Drivers/STM32F7xx_HAL_Driver/Src/stm32f7xx_hal_spdifrx.c ****     return HAL_BUSY; 
 773:Drivers/STM32F7xx_HAL_Driver/Src/stm32f7xx_hal_spdifrx.c ****   }
 774:Drivers/STM32F7xx_HAL_Driver/Src/stm32f7xx_hal_spdifrx.c **** }
 775:Drivers/STM32F7xx_HAL_Driver/Src/stm32f7xx_hal_spdifrx.c **** 
 776:Drivers/STM32F7xx_HAL_Driver/Src/stm32f7xx_hal_spdifrx.c **** /**
 777:Drivers/STM32F7xx_HAL_Driver/Src/stm32f7xx_hal_spdifrx.c ****   * @brief Receive an amount of data (Control Flow) with DMA 
 778:Drivers/STM32F7xx_HAL_Driver/Src/stm32f7xx_hal_spdifrx.c ****   * @param hspdif SPDIFRX handle
 779:Drivers/STM32F7xx_HAL_Driver/Src/stm32f7xx_hal_spdifrx.c ****   * @param pData a 32-bit pointer to the Receive data buffer.
 780:Drivers/STM32F7xx_HAL_Driver/Src/stm32f7xx_hal_spdifrx.c ****   * @param Size number of data (Control Flow) sample to be received :
 781:Drivers/STM32F7xx_HAL_Driver/Src/stm32f7xx_hal_spdifrx.c ****   * @retval HAL status
 782:Drivers/STM32F7xx_HAL_Driver/Src/stm32f7xx_hal_spdifrx.c ****   */
 783:Drivers/STM32F7xx_HAL_Driver/Src/stm32f7xx_hal_spdifrx.c **** HAL_StatusTypeDef HAL_SPDIFRX_ReceiveControlFlow_DMA(SPDIFRX_HandleTypeDef *hspdif, uint32_t *pData
 784:Drivers/STM32F7xx_HAL_Driver/Src/stm32f7xx_hal_spdifrx.c **** {
 785:Drivers/STM32F7xx_HAL_Driver/Src/stm32f7xx_hal_spdifrx.c ****   uint32_t tickstart = 0U;
 786:Drivers/STM32F7xx_HAL_Driver/Src/stm32f7xx_hal_spdifrx.c ****   
 787:Drivers/STM32F7xx_HAL_Driver/Src/stm32f7xx_hal_spdifrx.c ****   if((pData == NULL) || (Size == 0U)) 
 788:Drivers/STM32F7xx_HAL_Driver/Src/stm32f7xx_hal_spdifrx.c ****   {
 789:Drivers/STM32F7xx_HAL_Driver/Src/stm32f7xx_hal_spdifrx.c ****     return  HAL_ERROR;                                    
 790:Drivers/STM32F7xx_HAL_Driver/Src/stm32f7xx_hal_spdifrx.c ****   } 
 791:Drivers/STM32F7xx_HAL_Driver/Src/stm32f7xx_hal_spdifrx.c ****   
 792:Drivers/STM32F7xx_HAL_Driver/Src/stm32f7xx_hal_spdifrx.c ****   if((hspdif->State == HAL_SPDIFRX_STATE_READY) || (hspdif->State == HAL_SPDIFRX_STATE_BUSY_RX))
 793:Drivers/STM32F7xx_HAL_Driver/Src/stm32f7xx_hal_spdifrx.c ****   {    
 794:Drivers/STM32F7xx_HAL_Driver/Src/stm32f7xx_hal_spdifrx.c ****     hspdif->pCsBuffPtr = pData;
 795:Drivers/STM32F7xx_HAL_Driver/Src/stm32f7xx_hal_spdifrx.c ****     hspdif->CsXferSize = Size;
 796:Drivers/STM32F7xx_HAL_Driver/Src/stm32f7xx_hal_spdifrx.c ****     hspdif->CsXferCount = Size;
 797:Drivers/STM32F7xx_HAL_Driver/Src/stm32f7xx_hal_spdifrx.c ****     
 798:Drivers/STM32F7xx_HAL_Driver/Src/stm32f7xx_hal_spdifrx.c ****     /* Process Locked */
 799:Drivers/STM32F7xx_HAL_Driver/Src/stm32f7xx_hal_spdifrx.c ****     __HAL_LOCK(hspdif);
 800:Drivers/STM32F7xx_HAL_Driver/Src/stm32f7xx_hal_spdifrx.c ****     
 801:Drivers/STM32F7xx_HAL_Driver/Src/stm32f7xx_hal_spdifrx.c ****     hspdif->ErrorCode = HAL_SPDIFRX_ERROR_NONE;
 802:Drivers/STM32F7xx_HAL_Driver/Src/stm32f7xx_hal_spdifrx.c ****     hspdif->State = HAL_SPDIFRX_STATE_BUSY_CX;
 803:Drivers/STM32F7xx_HAL_Driver/Src/stm32f7xx_hal_spdifrx.c ****     
 804:Drivers/STM32F7xx_HAL_Driver/Src/stm32f7xx_hal_spdifrx.c ****     /* Set the SPDIFRX Rx DMA Half transfer complete callback */
 805:Drivers/STM32F7xx_HAL_Driver/Src/stm32f7xx_hal_spdifrx.c ****     hspdif->hdmaCsRx->XferHalfCpltCallback = SPDIFRX_DMACxHalfCplt;
 806:Drivers/STM32F7xx_HAL_Driver/Src/stm32f7xx_hal_spdifrx.c ****     
 807:Drivers/STM32F7xx_HAL_Driver/Src/stm32f7xx_hal_spdifrx.c ****     /* Set the SPDIFRX Rx DMA transfer complete callback */
 808:Drivers/STM32F7xx_HAL_Driver/Src/stm32f7xx_hal_spdifrx.c ****     hspdif->hdmaCsRx->XferCpltCallback = SPDIFRX_DMACxCplt;
 809:Drivers/STM32F7xx_HAL_Driver/Src/stm32f7xx_hal_spdifrx.c ****     
 810:Drivers/STM32F7xx_HAL_Driver/Src/stm32f7xx_hal_spdifrx.c ****     /* Set the DMA error callback */
 811:Drivers/STM32F7xx_HAL_Driver/Src/stm32f7xx_hal_spdifrx.c ****     hspdif->hdmaCsRx->XferErrorCallback = SPDIFRX_DMAError;
 812:Drivers/STM32F7xx_HAL_Driver/Src/stm32f7xx_hal_spdifrx.c ****     
 813:Drivers/STM32F7xx_HAL_Driver/Src/stm32f7xx_hal_spdifrx.c ****     /* Enable the DMA request */
 814:Drivers/STM32F7xx_HAL_Driver/Src/stm32f7xx_hal_spdifrx.c ****     HAL_DMA_Start_IT(hspdif->hdmaCsRx, (uint32_t)&hspdif->Instance->CSR, (uint32_t)hspdif->pCsBuffP
 815:Drivers/STM32F7xx_HAL_Driver/Src/stm32f7xx_hal_spdifrx.c ****     
 816:Drivers/STM32F7xx_HAL_Driver/Src/stm32f7xx_hal_spdifrx.c ****     /* Enable CBDMAEN bit in SPDIFRX CR register for control flow reception*/
 817:Drivers/STM32F7xx_HAL_Driver/Src/stm32f7xx_hal_spdifrx.c ****     hspdif->Instance->CR |= SPDIFRX_CR_CBDMAEN;
 818:Drivers/STM32F7xx_HAL_Driver/Src/stm32f7xx_hal_spdifrx.c ****     
 819:Drivers/STM32F7xx_HAL_Driver/Src/stm32f7xx_hal_spdifrx.c ****     if (((SPDIFRX->CR & SPDIFRX_CR_SPDIFEN) != SPDIFRX_STATE_SYNC) || ((SPDIFRX->CR & SPDIFRX_CR_SP
 820:Drivers/STM32F7xx_HAL_Driver/Src/stm32f7xx_hal_spdifrx.c ****     {
 821:Drivers/STM32F7xx_HAL_Driver/Src/stm32f7xx_hal_spdifrx.c ****       /* Start synchronization */
 822:Drivers/STM32F7xx_HAL_Driver/Src/stm32f7xx_hal_spdifrx.c ****       __HAL_SPDIFRX_SYNC(hspdif);
 823:Drivers/STM32F7xx_HAL_Driver/Src/stm32f7xx_hal_spdifrx.c ****       
 824:Drivers/STM32F7xx_HAL_Driver/Src/stm32f7xx_hal_spdifrx.c ****       /* Get tick */ 
 825:Drivers/STM32F7xx_HAL_Driver/Src/stm32f7xx_hal_spdifrx.c ****       tickstart = HAL_GetTick();
 826:Drivers/STM32F7xx_HAL_Driver/Src/stm32f7xx_hal_spdifrx.c ****       
 827:Drivers/STM32F7xx_HAL_Driver/Src/stm32f7xx_hal_spdifrx.c ****       /* Wait until SYNCD flag is set */
 828:Drivers/STM32F7xx_HAL_Driver/Src/stm32f7xx_hal_spdifrx.c ****       if(SPDIFRX_WaitOnFlagUntilTimeout(hspdif, SPDIFRX_FLAG_SYNCD, RESET, SPDIFRX_TIMEOUT_VALUE, t
ARM GAS  C:\Users\Nina\AppData\Local\Temp\ccfkNb9x.s 			page 16


 829:Drivers/STM32F7xx_HAL_Driver/Src/stm32f7xx_hal_spdifrx.c ****       { 
 830:Drivers/STM32F7xx_HAL_Driver/Src/stm32f7xx_hal_spdifrx.c ****         return HAL_TIMEOUT;
 831:Drivers/STM32F7xx_HAL_Driver/Src/stm32f7xx_hal_spdifrx.c ****       }  
 832:Drivers/STM32F7xx_HAL_Driver/Src/stm32f7xx_hal_spdifrx.c ****       
 833:Drivers/STM32F7xx_HAL_Driver/Src/stm32f7xx_hal_spdifrx.c ****       /* Start reception */    
 834:Drivers/STM32F7xx_HAL_Driver/Src/stm32f7xx_hal_spdifrx.c ****       __HAL_SPDIFRX_RCV(hspdif);
 835:Drivers/STM32F7xx_HAL_Driver/Src/stm32f7xx_hal_spdifrx.c ****     }
 836:Drivers/STM32F7xx_HAL_Driver/Src/stm32f7xx_hal_spdifrx.c ****     
 837:Drivers/STM32F7xx_HAL_Driver/Src/stm32f7xx_hal_spdifrx.c ****     /* Process Unlocked */
 838:Drivers/STM32F7xx_HAL_Driver/Src/stm32f7xx_hal_spdifrx.c ****     __HAL_UNLOCK(hspdif);
 839:Drivers/STM32F7xx_HAL_Driver/Src/stm32f7xx_hal_spdifrx.c ****     
 840:Drivers/STM32F7xx_HAL_Driver/Src/stm32f7xx_hal_spdifrx.c ****     return HAL_OK;
 841:Drivers/STM32F7xx_HAL_Driver/Src/stm32f7xx_hal_spdifrx.c ****   }
 842:Drivers/STM32F7xx_HAL_Driver/Src/stm32f7xx_hal_spdifrx.c ****   else
 843:Drivers/STM32F7xx_HAL_Driver/Src/stm32f7xx_hal_spdifrx.c ****   {
 844:Drivers/STM32F7xx_HAL_Driver/Src/stm32f7xx_hal_spdifrx.c ****     return HAL_BUSY; 
 845:Drivers/STM32F7xx_HAL_Driver/Src/stm32f7xx_hal_spdifrx.c ****   }
 846:Drivers/STM32F7xx_HAL_Driver/Src/stm32f7xx_hal_spdifrx.c **** }
 847:Drivers/STM32F7xx_HAL_Driver/Src/stm32f7xx_hal_spdifrx.c **** 
 848:Drivers/STM32F7xx_HAL_Driver/Src/stm32f7xx_hal_spdifrx.c **** /**
 849:Drivers/STM32F7xx_HAL_Driver/Src/stm32f7xx_hal_spdifrx.c ****   * @brief stop the audio stream receive from the Media.
 850:Drivers/STM32F7xx_HAL_Driver/Src/stm32f7xx_hal_spdifrx.c ****   * @param hspdif SPDIFRX handle
 851:Drivers/STM32F7xx_HAL_Driver/Src/stm32f7xx_hal_spdifrx.c ****   * @retval None
 852:Drivers/STM32F7xx_HAL_Driver/Src/stm32f7xx_hal_spdifrx.c ****   */
 853:Drivers/STM32F7xx_HAL_Driver/Src/stm32f7xx_hal_spdifrx.c **** HAL_StatusTypeDef HAL_SPDIFRX_DMAStop(SPDIFRX_HandleTypeDef *hspdif)
 854:Drivers/STM32F7xx_HAL_Driver/Src/stm32f7xx_hal_spdifrx.c **** {
 855:Drivers/STM32F7xx_HAL_Driver/Src/stm32f7xx_hal_spdifrx.c ****   /* Process Locked */
 856:Drivers/STM32F7xx_HAL_Driver/Src/stm32f7xx_hal_spdifrx.c ****   __HAL_LOCK(hspdif);
 857:Drivers/STM32F7xx_HAL_Driver/Src/stm32f7xx_hal_spdifrx.c ****   
 858:Drivers/STM32F7xx_HAL_Driver/Src/stm32f7xx_hal_spdifrx.c ****   /* Disable the SPDIFRX DMA requests */
 859:Drivers/STM32F7xx_HAL_Driver/Src/stm32f7xx_hal_spdifrx.c ****   hspdif->Instance->CR &= (uint16_t)(~SPDIFRX_CR_RXDMAEN);
 860:Drivers/STM32F7xx_HAL_Driver/Src/stm32f7xx_hal_spdifrx.c ****   hspdif->Instance->CR &= (uint16_t)(~SPDIFRX_CR_CBDMAEN);
 861:Drivers/STM32F7xx_HAL_Driver/Src/stm32f7xx_hal_spdifrx.c ****   
 862:Drivers/STM32F7xx_HAL_Driver/Src/stm32f7xx_hal_spdifrx.c ****   /* Disable the SPDIFRX DMA channel */
 863:Drivers/STM32F7xx_HAL_Driver/Src/stm32f7xx_hal_spdifrx.c ****   __HAL_DMA_DISABLE(hspdif->hdmaDrRx);
 864:Drivers/STM32F7xx_HAL_Driver/Src/stm32f7xx_hal_spdifrx.c ****   __HAL_DMA_DISABLE(hspdif->hdmaCsRx);
 865:Drivers/STM32F7xx_HAL_Driver/Src/stm32f7xx_hal_spdifrx.c ****   
 866:Drivers/STM32F7xx_HAL_Driver/Src/stm32f7xx_hal_spdifrx.c ****   /* Disable SPDIFRX peripheral */
 867:Drivers/STM32F7xx_HAL_Driver/Src/stm32f7xx_hal_spdifrx.c ****   __HAL_SPDIFRX_IDLE(hspdif);
 868:Drivers/STM32F7xx_HAL_Driver/Src/stm32f7xx_hal_spdifrx.c ****   
 869:Drivers/STM32F7xx_HAL_Driver/Src/stm32f7xx_hal_spdifrx.c ****   hspdif->State = HAL_SPDIFRX_STATE_READY;
 870:Drivers/STM32F7xx_HAL_Driver/Src/stm32f7xx_hal_spdifrx.c ****   
 871:Drivers/STM32F7xx_HAL_Driver/Src/stm32f7xx_hal_spdifrx.c ****   /* Process Unlocked */
 872:Drivers/STM32F7xx_HAL_Driver/Src/stm32f7xx_hal_spdifrx.c ****   __HAL_UNLOCK(hspdif);
 873:Drivers/STM32F7xx_HAL_Driver/Src/stm32f7xx_hal_spdifrx.c ****   
 874:Drivers/STM32F7xx_HAL_Driver/Src/stm32f7xx_hal_spdifrx.c ****   return HAL_OK;
 875:Drivers/STM32F7xx_HAL_Driver/Src/stm32f7xx_hal_spdifrx.c **** }
 876:Drivers/STM32F7xx_HAL_Driver/Src/stm32f7xx_hal_spdifrx.c **** 
 877:Drivers/STM32F7xx_HAL_Driver/Src/stm32f7xx_hal_spdifrx.c **** /**
 878:Drivers/STM32F7xx_HAL_Driver/Src/stm32f7xx_hal_spdifrx.c ****   * @brief  This function handles SPDIFRX interrupt request.
 879:Drivers/STM32F7xx_HAL_Driver/Src/stm32f7xx_hal_spdifrx.c ****   * @param  hspdif SPDIFRX handle
 880:Drivers/STM32F7xx_HAL_Driver/Src/stm32f7xx_hal_spdifrx.c ****   * @retval HAL status
 881:Drivers/STM32F7xx_HAL_Driver/Src/stm32f7xx_hal_spdifrx.c ****   */
 882:Drivers/STM32F7xx_HAL_Driver/Src/stm32f7xx_hal_spdifrx.c **** void HAL_SPDIFRX_IRQHandler(SPDIFRX_HandleTypeDef *hspdif)
 883:Drivers/STM32F7xx_HAL_Driver/Src/stm32f7xx_hal_spdifrx.c **** {  
 884:Drivers/STM32F7xx_HAL_Driver/Src/stm32f7xx_hal_spdifrx.c ****   /* SPDIFRX in mode Data Flow Reception ------------------------------------------------*/
 885:Drivers/STM32F7xx_HAL_Driver/Src/stm32f7xx_hal_spdifrx.c ****   if((__HAL_SPDIFRX_GET_FLAG(hspdif, SPDIFRX_FLAG_RXNE) != RESET) && (__HAL_SPDIFRX_GET_IT_SOURCE(h
ARM GAS  C:\Users\Nina\AppData\Local\Temp\ccfkNb9x.s 			page 17


 886:Drivers/STM32F7xx_HAL_Driver/Src/stm32f7xx_hal_spdifrx.c ****   {
 887:Drivers/STM32F7xx_HAL_Driver/Src/stm32f7xx_hal_spdifrx.c ****     __HAL_SPDIFRX_CLEAR_IT(hspdif, SPDIFRX_IT_RXNE);
 888:Drivers/STM32F7xx_HAL_Driver/Src/stm32f7xx_hal_spdifrx.c ****     SPDIFRX_ReceiveDataFlow_IT(hspdif);
 889:Drivers/STM32F7xx_HAL_Driver/Src/stm32f7xx_hal_spdifrx.c ****   }
 890:Drivers/STM32F7xx_HAL_Driver/Src/stm32f7xx_hal_spdifrx.c ****   
 891:Drivers/STM32F7xx_HAL_Driver/Src/stm32f7xx_hal_spdifrx.c ****   /* SPDIFRX in mode Control Flow Reception ------------------------------------------------*/
 892:Drivers/STM32F7xx_HAL_Driver/Src/stm32f7xx_hal_spdifrx.c ****   if((__HAL_SPDIFRX_GET_FLAG(hspdif, SPDIFRX_FLAG_CSRNE) != RESET) && (__HAL_SPDIFRX_GET_IT_SOURCE(
 893:Drivers/STM32F7xx_HAL_Driver/Src/stm32f7xx_hal_spdifrx.c ****   {
 894:Drivers/STM32F7xx_HAL_Driver/Src/stm32f7xx_hal_spdifrx.c ****     __HAL_SPDIFRX_CLEAR_IT(hspdif, SPDIFRX_IT_CSRNE);
 895:Drivers/STM32F7xx_HAL_Driver/Src/stm32f7xx_hal_spdifrx.c ****     SPDIFRX_ReceiveControlFlow_IT(hspdif);
 896:Drivers/STM32F7xx_HAL_Driver/Src/stm32f7xx_hal_spdifrx.c ****   }
 897:Drivers/STM32F7xx_HAL_Driver/Src/stm32f7xx_hal_spdifrx.c ****   
 898:Drivers/STM32F7xx_HAL_Driver/Src/stm32f7xx_hal_spdifrx.c ****   /* SPDIFRX Overrun error interrupt occurred ---------------------------------*/
 899:Drivers/STM32F7xx_HAL_Driver/Src/stm32f7xx_hal_spdifrx.c ****   if((__HAL_SPDIFRX_GET_FLAG(hspdif, SPDIFRX_FLAG_OVR) != RESET) && (__HAL_SPDIFRX_GET_IT_SOURCE(hs
 900:Drivers/STM32F7xx_HAL_Driver/Src/stm32f7xx_hal_spdifrx.c ****   {
 901:Drivers/STM32F7xx_HAL_Driver/Src/stm32f7xx_hal_spdifrx.c ****     __HAL_SPDIFRX_CLEAR_IT(hspdif, SPDIFRX_FLAG_OVR);
 902:Drivers/STM32F7xx_HAL_Driver/Src/stm32f7xx_hal_spdifrx.c ****     
 903:Drivers/STM32F7xx_HAL_Driver/Src/stm32f7xx_hal_spdifrx.c ****     /* Change the SPDIFRX error code */
 904:Drivers/STM32F7xx_HAL_Driver/Src/stm32f7xx_hal_spdifrx.c ****     hspdif->ErrorCode |= HAL_SPDIFRX_ERROR_OVR;
 905:Drivers/STM32F7xx_HAL_Driver/Src/stm32f7xx_hal_spdifrx.c ****     
 906:Drivers/STM32F7xx_HAL_Driver/Src/stm32f7xx_hal_spdifrx.c ****     /* the transfer is not stopped */
 907:Drivers/STM32F7xx_HAL_Driver/Src/stm32f7xx_hal_spdifrx.c ****     HAL_SPDIFRX_ErrorCallback(hspdif);
 908:Drivers/STM32F7xx_HAL_Driver/Src/stm32f7xx_hal_spdifrx.c ****   } 
 909:Drivers/STM32F7xx_HAL_Driver/Src/stm32f7xx_hal_spdifrx.c ****   
 910:Drivers/STM32F7xx_HAL_Driver/Src/stm32f7xx_hal_spdifrx.c ****   /* SPDIFRX Parity error interrupt occurred ---------------------------------*/
 911:Drivers/STM32F7xx_HAL_Driver/Src/stm32f7xx_hal_spdifrx.c ****   if((__HAL_SPDIFRX_GET_FLAG(hspdif, SPDIFRX_FLAG_PERR) != RESET) && (__HAL_SPDIFRX_GET_IT_SOURCE(h
 912:Drivers/STM32F7xx_HAL_Driver/Src/stm32f7xx_hal_spdifrx.c ****   {
 913:Drivers/STM32F7xx_HAL_Driver/Src/stm32f7xx_hal_spdifrx.c ****     __HAL_SPDIFRX_CLEAR_IT(hspdif, SPDIFRX_FLAG_PERR);
 914:Drivers/STM32F7xx_HAL_Driver/Src/stm32f7xx_hal_spdifrx.c ****     
 915:Drivers/STM32F7xx_HAL_Driver/Src/stm32f7xx_hal_spdifrx.c ****     /* Change the SPDIFRX error code */
 916:Drivers/STM32F7xx_HAL_Driver/Src/stm32f7xx_hal_spdifrx.c ****     hspdif->ErrorCode |= HAL_SPDIFRX_ERROR_PE;
 917:Drivers/STM32F7xx_HAL_Driver/Src/stm32f7xx_hal_spdifrx.c ****     
 918:Drivers/STM32F7xx_HAL_Driver/Src/stm32f7xx_hal_spdifrx.c ****     /* the transfer is not stopped */
 919:Drivers/STM32F7xx_HAL_Driver/Src/stm32f7xx_hal_spdifrx.c ****     HAL_SPDIFRX_ErrorCallback(hspdif);
 920:Drivers/STM32F7xx_HAL_Driver/Src/stm32f7xx_hal_spdifrx.c ****   } 
 921:Drivers/STM32F7xx_HAL_Driver/Src/stm32f7xx_hal_spdifrx.c **** }
 922:Drivers/STM32F7xx_HAL_Driver/Src/stm32f7xx_hal_spdifrx.c **** 
 923:Drivers/STM32F7xx_HAL_Driver/Src/stm32f7xx_hal_spdifrx.c **** /**
 924:Drivers/STM32F7xx_HAL_Driver/Src/stm32f7xx_hal_spdifrx.c ****   * @brief Rx Transfer (Data flow) half completed callbacks
 925:Drivers/STM32F7xx_HAL_Driver/Src/stm32f7xx_hal_spdifrx.c ****   * @param hspdif SPDIFRX handle
 926:Drivers/STM32F7xx_HAL_Driver/Src/stm32f7xx_hal_spdifrx.c ****   * @retval None
 927:Drivers/STM32F7xx_HAL_Driver/Src/stm32f7xx_hal_spdifrx.c ****   */
 928:Drivers/STM32F7xx_HAL_Driver/Src/stm32f7xx_hal_spdifrx.c **** __weak void HAL_SPDIFRX_RxHalfCpltCallback(SPDIFRX_HandleTypeDef *hspdif)
 929:Drivers/STM32F7xx_HAL_Driver/Src/stm32f7xx_hal_spdifrx.c **** {
 930:Drivers/STM32F7xx_HAL_Driver/Src/stm32f7xx_hal_spdifrx.c ****   /* Prevent unused argument(s) compilation warning */
 931:Drivers/STM32F7xx_HAL_Driver/Src/stm32f7xx_hal_spdifrx.c ****   UNUSED(hspdif);
 932:Drivers/STM32F7xx_HAL_Driver/Src/stm32f7xx_hal_spdifrx.c ****   
 933:Drivers/STM32F7xx_HAL_Driver/Src/stm32f7xx_hal_spdifrx.c ****   /* NOTE : This function Should not be modified, when the callback is needed,
 934:Drivers/STM32F7xx_HAL_Driver/Src/stm32f7xx_hal_spdifrx.c ****   the HAL_SPDIFRX_RxCpltCallback could be implemented in the user file
 935:Drivers/STM32F7xx_HAL_Driver/Src/stm32f7xx_hal_spdifrx.c ****   */
 936:Drivers/STM32F7xx_HAL_Driver/Src/stm32f7xx_hal_spdifrx.c **** }
 937:Drivers/STM32F7xx_HAL_Driver/Src/stm32f7xx_hal_spdifrx.c **** 
 938:Drivers/STM32F7xx_HAL_Driver/Src/stm32f7xx_hal_spdifrx.c **** /**
 939:Drivers/STM32F7xx_HAL_Driver/Src/stm32f7xx_hal_spdifrx.c ****   * @brief Rx Transfer (Data flow) completed callbacks
 940:Drivers/STM32F7xx_HAL_Driver/Src/stm32f7xx_hal_spdifrx.c ****   * @param hspdif SPDIFRX handle
 941:Drivers/STM32F7xx_HAL_Driver/Src/stm32f7xx_hal_spdifrx.c ****   * @retval None
 942:Drivers/STM32F7xx_HAL_Driver/Src/stm32f7xx_hal_spdifrx.c ****   */
ARM GAS  C:\Users\Nina\AppData\Local\Temp\ccfkNb9x.s 			page 18


 943:Drivers/STM32F7xx_HAL_Driver/Src/stm32f7xx_hal_spdifrx.c **** __weak void HAL_SPDIFRX_RxCpltCallback(SPDIFRX_HandleTypeDef *hspdif)
 944:Drivers/STM32F7xx_HAL_Driver/Src/stm32f7xx_hal_spdifrx.c **** {
 945:Drivers/STM32F7xx_HAL_Driver/Src/stm32f7xx_hal_spdifrx.c ****   /* Prevent unused argument(s) compilation warning */
 946:Drivers/STM32F7xx_HAL_Driver/Src/stm32f7xx_hal_spdifrx.c ****   UNUSED(hspdif);
 947:Drivers/STM32F7xx_HAL_Driver/Src/stm32f7xx_hal_spdifrx.c ****   
 948:Drivers/STM32F7xx_HAL_Driver/Src/stm32f7xx_hal_spdifrx.c ****   /* NOTE : This function Should not be modified, when the callback is needed,
 949:Drivers/STM32F7xx_HAL_Driver/Src/stm32f7xx_hal_spdifrx.c ****   the HAL_SPDIFRX_RxCpltCallback could be implemented in the user file
 950:Drivers/STM32F7xx_HAL_Driver/Src/stm32f7xx_hal_spdifrx.c ****   */
 951:Drivers/STM32F7xx_HAL_Driver/Src/stm32f7xx_hal_spdifrx.c **** }
 952:Drivers/STM32F7xx_HAL_Driver/Src/stm32f7xx_hal_spdifrx.c **** 
 953:Drivers/STM32F7xx_HAL_Driver/Src/stm32f7xx_hal_spdifrx.c **** /**
 954:Drivers/STM32F7xx_HAL_Driver/Src/stm32f7xx_hal_spdifrx.c ****   * @brief Rx (Control flow) Transfer half completed callbacks
 955:Drivers/STM32F7xx_HAL_Driver/Src/stm32f7xx_hal_spdifrx.c ****   * @param hspdif SPDIFRX handle
 956:Drivers/STM32F7xx_HAL_Driver/Src/stm32f7xx_hal_spdifrx.c ****   * @retval None
 957:Drivers/STM32F7xx_HAL_Driver/Src/stm32f7xx_hal_spdifrx.c ****   */
 958:Drivers/STM32F7xx_HAL_Driver/Src/stm32f7xx_hal_spdifrx.c **** __weak void HAL_SPDIFRX_CxHalfCpltCallback(SPDIFRX_HandleTypeDef *hspdif)
 959:Drivers/STM32F7xx_HAL_Driver/Src/stm32f7xx_hal_spdifrx.c **** {
 960:Drivers/STM32F7xx_HAL_Driver/Src/stm32f7xx_hal_spdifrx.c ****   /* Prevent unused argument(s) compilation warning */
 961:Drivers/STM32F7xx_HAL_Driver/Src/stm32f7xx_hal_spdifrx.c ****   UNUSED(hspdif);
 962:Drivers/STM32F7xx_HAL_Driver/Src/stm32f7xx_hal_spdifrx.c ****   
 963:Drivers/STM32F7xx_HAL_Driver/Src/stm32f7xx_hal_spdifrx.c ****   /* NOTE : This function Should not be modified, when the callback is needed,
 964:Drivers/STM32F7xx_HAL_Driver/Src/stm32f7xx_hal_spdifrx.c ****   the HAL_SPDIFRX_RxCpltCallback could be implemented in the user file
 965:Drivers/STM32F7xx_HAL_Driver/Src/stm32f7xx_hal_spdifrx.c ****   */
 966:Drivers/STM32F7xx_HAL_Driver/Src/stm32f7xx_hal_spdifrx.c **** }
 967:Drivers/STM32F7xx_HAL_Driver/Src/stm32f7xx_hal_spdifrx.c **** 
 968:Drivers/STM32F7xx_HAL_Driver/Src/stm32f7xx_hal_spdifrx.c **** /**
 969:Drivers/STM32F7xx_HAL_Driver/Src/stm32f7xx_hal_spdifrx.c ****   * @brief Rx Transfer (Control flow) completed callbacks
 970:Drivers/STM32F7xx_HAL_Driver/Src/stm32f7xx_hal_spdifrx.c ****   * @param hspdif SPDIFRX handle
 971:Drivers/STM32F7xx_HAL_Driver/Src/stm32f7xx_hal_spdifrx.c ****   * @retval None
 972:Drivers/STM32F7xx_HAL_Driver/Src/stm32f7xx_hal_spdifrx.c ****   */
 973:Drivers/STM32F7xx_HAL_Driver/Src/stm32f7xx_hal_spdifrx.c **** __weak void HAL_SPDIFRX_CxCpltCallback(SPDIFRX_HandleTypeDef *hspdif)
 974:Drivers/STM32F7xx_HAL_Driver/Src/stm32f7xx_hal_spdifrx.c **** {
 975:Drivers/STM32F7xx_HAL_Driver/Src/stm32f7xx_hal_spdifrx.c ****   /* Prevent unused argument(s) compilation warning */
 976:Drivers/STM32F7xx_HAL_Driver/Src/stm32f7xx_hal_spdifrx.c ****   UNUSED(hspdif);
 977:Drivers/STM32F7xx_HAL_Driver/Src/stm32f7xx_hal_spdifrx.c ****   
 978:Drivers/STM32F7xx_HAL_Driver/Src/stm32f7xx_hal_spdifrx.c ****   /* NOTE : This function Should not be modified, when the callback is needed,
 979:Drivers/STM32F7xx_HAL_Driver/Src/stm32f7xx_hal_spdifrx.c ****   the HAL_SPDIFRX_RxCpltCallback could be implemented in the user file
 980:Drivers/STM32F7xx_HAL_Driver/Src/stm32f7xx_hal_spdifrx.c ****   */
 981:Drivers/STM32F7xx_HAL_Driver/Src/stm32f7xx_hal_spdifrx.c **** }
 982:Drivers/STM32F7xx_HAL_Driver/Src/stm32f7xx_hal_spdifrx.c **** 
 983:Drivers/STM32F7xx_HAL_Driver/Src/stm32f7xx_hal_spdifrx.c **** /**
 984:Drivers/STM32F7xx_HAL_Driver/Src/stm32f7xx_hal_spdifrx.c ****   * @brief SPDIFRX error callbacks
 985:Drivers/STM32F7xx_HAL_Driver/Src/stm32f7xx_hal_spdifrx.c ****   * @param hspdif SPDIFRX handle
 986:Drivers/STM32F7xx_HAL_Driver/Src/stm32f7xx_hal_spdifrx.c ****   * @retval None
 987:Drivers/STM32F7xx_HAL_Driver/Src/stm32f7xx_hal_spdifrx.c ****   */
 988:Drivers/STM32F7xx_HAL_Driver/Src/stm32f7xx_hal_spdifrx.c **** __weak void HAL_SPDIFRX_ErrorCallback(SPDIFRX_HandleTypeDef *hspdif)
 989:Drivers/STM32F7xx_HAL_Driver/Src/stm32f7xx_hal_spdifrx.c **** {
 990:Drivers/STM32F7xx_HAL_Driver/Src/stm32f7xx_hal_spdifrx.c ****   /* Prevent unused argument(s) compilation warning */
 991:Drivers/STM32F7xx_HAL_Driver/Src/stm32f7xx_hal_spdifrx.c ****   UNUSED(hspdif);
 992:Drivers/STM32F7xx_HAL_Driver/Src/stm32f7xx_hal_spdifrx.c ****   
 993:Drivers/STM32F7xx_HAL_Driver/Src/stm32f7xx_hal_spdifrx.c ****   /* NOTE : This function Should not be modified, when the callback is needed,
 994:Drivers/STM32F7xx_HAL_Driver/Src/stm32f7xx_hal_spdifrx.c ****   the HAL_SPDIFRX_ErrorCallback could be implemented in the user file
 995:Drivers/STM32F7xx_HAL_Driver/Src/stm32f7xx_hal_spdifrx.c ****   */ 
 996:Drivers/STM32F7xx_HAL_Driver/Src/stm32f7xx_hal_spdifrx.c **** }
 997:Drivers/STM32F7xx_HAL_Driver/Src/stm32f7xx_hal_spdifrx.c **** 
 998:Drivers/STM32F7xx_HAL_Driver/Src/stm32f7xx_hal_spdifrx.c **** /**
 999:Drivers/STM32F7xx_HAL_Driver/Src/stm32f7xx_hal_spdifrx.c ****   * @}
ARM GAS  C:\Users\Nina\AppData\Local\Temp\ccfkNb9x.s 			page 19


1000:Drivers/STM32F7xx_HAL_Driver/Src/stm32f7xx_hal_spdifrx.c ****   */
1001:Drivers/STM32F7xx_HAL_Driver/Src/stm32f7xx_hal_spdifrx.c **** 
1002:Drivers/STM32F7xx_HAL_Driver/Src/stm32f7xx_hal_spdifrx.c **** /** @defgroup SPDIFRX_Exported_Functions_Group3 Peripheral State and Errors functions 
1003:Drivers/STM32F7xx_HAL_Driver/Src/stm32f7xx_hal_spdifrx.c ****   *  @brief   Peripheral State functions 
1004:Drivers/STM32F7xx_HAL_Driver/Src/stm32f7xx_hal_spdifrx.c ****   *
1005:Drivers/STM32F7xx_HAL_Driver/Src/stm32f7xx_hal_spdifrx.c **** @verbatim   
1006:Drivers/STM32F7xx_HAL_Driver/Src/stm32f7xx_hal_spdifrx.c **** ===============================================================================
1007:Drivers/STM32F7xx_HAL_Driver/Src/stm32f7xx_hal_spdifrx.c **** ##### Peripheral State and Errors functions #####
1008:Drivers/STM32F7xx_HAL_Driver/Src/stm32f7xx_hal_spdifrx.c **** ===============================================================================  
1009:Drivers/STM32F7xx_HAL_Driver/Src/stm32f7xx_hal_spdifrx.c **** [..]
1010:Drivers/STM32F7xx_HAL_Driver/Src/stm32f7xx_hal_spdifrx.c **** This subsection permit to get in run-time the status of the peripheral 
1011:Drivers/STM32F7xx_HAL_Driver/Src/stm32f7xx_hal_spdifrx.c **** and the data flow.
1012:Drivers/STM32F7xx_HAL_Driver/Src/stm32f7xx_hal_spdifrx.c **** 
1013:Drivers/STM32F7xx_HAL_Driver/Src/stm32f7xx_hal_spdifrx.c **** @endverbatim
1014:Drivers/STM32F7xx_HAL_Driver/Src/stm32f7xx_hal_spdifrx.c ****   * @{
1015:Drivers/STM32F7xx_HAL_Driver/Src/stm32f7xx_hal_spdifrx.c ****   */
1016:Drivers/STM32F7xx_HAL_Driver/Src/stm32f7xx_hal_spdifrx.c **** 
1017:Drivers/STM32F7xx_HAL_Driver/Src/stm32f7xx_hal_spdifrx.c **** /**
1018:Drivers/STM32F7xx_HAL_Driver/Src/stm32f7xx_hal_spdifrx.c ****   * @brief  Return the SPDIFRX state
1019:Drivers/STM32F7xx_HAL_Driver/Src/stm32f7xx_hal_spdifrx.c ****   * @param  hspdif  SPDIFRX handle
1020:Drivers/STM32F7xx_HAL_Driver/Src/stm32f7xx_hal_spdifrx.c ****   * @retval HAL state
1021:Drivers/STM32F7xx_HAL_Driver/Src/stm32f7xx_hal_spdifrx.c ****   */
1022:Drivers/STM32F7xx_HAL_Driver/Src/stm32f7xx_hal_spdifrx.c **** HAL_SPDIFRX_StateTypeDef HAL_SPDIFRX_GetState(SPDIFRX_HandleTypeDef *hspdif)
1023:Drivers/STM32F7xx_HAL_Driver/Src/stm32f7xx_hal_spdifrx.c **** {
1024:Drivers/STM32F7xx_HAL_Driver/Src/stm32f7xx_hal_spdifrx.c ****   return hspdif->State;
1025:Drivers/STM32F7xx_HAL_Driver/Src/stm32f7xx_hal_spdifrx.c **** }
1026:Drivers/STM32F7xx_HAL_Driver/Src/stm32f7xx_hal_spdifrx.c **** 
1027:Drivers/STM32F7xx_HAL_Driver/Src/stm32f7xx_hal_spdifrx.c **** /**
1028:Drivers/STM32F7xx_HAL_Driver/Src/stm32f7xx_hal_spdifrx.c ****   * @brief  Return the SPDIFRX error code
1029:Drivers/STM32F7xx_HAL_Driver/Src/stm32f7xx_hal_spdifrx.c ****   * @param  hspdif  SPDIFRX handle
1030:Drivers/STM32F7xx_HAL_Driver/Src/stm32f7xx_hal_spdifrx.c ****   * @retval SPDIFRX Error Code
1031:Drivers/STM32F7xx_HAL_Driver/Src/stm32f7xx_hal_spdifrx.c ****   */
1032:Drivers/STM32F7xx_HAL_Driver/Src/stm32f7xx_hal_spdifrx.c **** uint32_t HAL_SPDIFRX_GetError(SPDIFRX_HandleTypeDef *hspdif)
1033:Drivers/STM32F7xx_HAL_Driver/Src/stm32f7xx_hal_spdifrx.c **** {
1034:Drivers/STM32F7xx_HAL_Driver/Src/stm32f7xx_hal_spdifrx.c ****   return hspdif->ErrorCode;
1035:Drivers/STM32F7xx_HAL_Driver/Src/stm32f7xx_hal_spdifrx.c **** }
1036:Drivers/STM32F7xx_HAL_Driver/Src/stm32f7xx_hal_spdifrx.c **** 
1037:Drivers/STM32F7xx_HAL_Driver/Src/stm32f7xx_hal_spdifrx.c **** /**
1038:Drivers/STM32F7xx_HAL_Driver/Src/stm32f7xx_hal_spdifrx.c ****   * @}
1039:Drivers/STM32F7xx_HAL_Driver/Src/stm32f7xx_hal_spdifrx.c ****   */  
1040:Drivers/STM32F7xx_HAL_Driver/Src/stm32f7xx_hal_spdifrx.c **** 
1041:Drivers/STM32F7xx_HAL_Driver/Src/stm32f7xx_hal_spdifrx.c **** /**
1042:Drivers/STM32F7xx_HAL_Driver/Src/stm32f7xx_hal_spdifrx.c ****   * @brief DMA SPDIFRX receive process (Data flow) complete callback 
1043:Drivers/STM32F7xx_HAL_Driver/Src/stm32f7xx_hal_spdifrx.c ****   * @param hdma  DMA handle
1044:Drivers/STM32F7xx_HAL_Driver/Src/stm32f7xx_hal_spdifrx.c ****   * @retval None
1045:Drivers/STM32F7xx_HAL_Driver/Src/stm32f7xx_hal_spdifrx.c ****   */
1046:Drivers/STM32F7xx_HAL_Driver/Src/stm32f7xx_hal_spdifrx.c **** static void SPDIFRX_DMARxCplt(DMA_HandleTypeDef *hdma)
1047:Drivers/STM32F7xx_HAL_Driver/Src/stm32f7xx_hal_spdifrx.c **** {
1048:Drivers/STM32F7xx_HAL_Driver/Src/stm32f7xx_hal_spdifrx.c ****   SPDIFRX_HandleTypeDef* hspdif = ( SPDIFRX_HandleTypeDef* )((DMA_HandleTypeDef* )hdma)->Parent;
1049:Drivers/STM32F7xx_HAL_Driver/Src/stm32f7xx_hal_spdifrx.c ****   
1050:Drivers/STM32F7xx_HAL_Driver/Src/stm32f7xx_hal_spdifrx.c ****   /* Disable Rx DMA Request */
1051:Drivers/STM32F7xx_HAL_Driver/Src/stm32f7xx_hal_spdifrx.c ****   if((hdma->Instance->CR & DMA_SxCR_CIRC) == 0)
1052:Drivers/STM32F7xx_HAL_Driver/Src/stm32f7xx_hal_spdifrx.c ****   {
1053:Drivers/STM32F7xx_HAL_Driver/Src/stm32f7xx_hal_spdifrx.c ****     hspdif->Instance->CR &= (uint16_t)(~SPDIFRX_CR_RXDMAEN);
1054:Drivers/STM32F7xx_HAL_Driver/Src/stm32f7xx_hal_spdifrx.c ****     hspdif->RxXferCount = 0;
1055:Drivers/STM32F7xx_HAL_Driver/Src/stm32f7xx_hal_spdifrx.c ****     hspdif->State = HAL_SPDIFRX_STATE_READY; 
1056:Drivers/STM32F7xx_HAL_Driver/Src/stm32f7xx_hal_spdifrx.c ****   }
ARM GAS  C:\Users\Nina\AppData\Local\Temp\ccfkNb9x.s 			page 20


1057:Drivers/STM32F7xx_HAL_Driver/Src/stm32f7xx_hal_spdifrx.c ****   HAL_SPDIFRX_RxCpltCallback(hspdif); 
1058:Drivers/STM32F7xx_HAL_Driver/Src/stm32f7xx_hal_spdifrx.c **** }
1059:Drivers/STM32F7xx_HAL_Driver/Src/stm32f7xx_hal_spdifrx.c **** 
1060:Drivers/STM32F7xx_HAL_Driver/Src/stm32f7xx_hal_spdifrx.c **** /**
1061:Drivers/STM32F7xx_HAL_Driver/Src/stm32f7xx_hal_spdifrx.c ****   * @brief DMA SPDIFRX receive process (Data flow) half complete callback 
1062:Drivers/STM32F7xx_HAL_Driver/Src/stm32f7xx_hal_spdifrx.c ****   * @param hdma  DMA handle
1063:Drivers/STM32F7xx_HAL_Driver/Src/stm32f7xx_hal_spdifrx.c ****   * @retval None
1064:Drivers/STM32F7xx_HAL_Driver/Src/stm32f7xx_hal_spdifrx.c ****   */
1065:Drivers/STM32F7xx_HAL_Driver/Src/stm32f7xx_hal_spdifrx.c **** static void SPDIFRX_DMARxHalfCplt(DMA_HandleTypeDef *hdma)
1066:Drivers/STM32F7xx_HAL_Driver/Src/stm32f7xx_hal_spdifrx.c **** {
1067:Drivers/STM32F7xx_HAL_Driver/Src/stm32f7xx_hal_spdifrx.c ****   SPDIFRX_HandleTypeDef* hspdif = (SPDIFRX_HandleTypeDef*)((DMA_HandleTypeDef*)hdma)->Parent;
1068:Drivers/STM32F7xx_HAL_Driver/Src/stm32f7xx_hal_spdifrx.c ****   
1069:Drivers/STM32F7xx_HAL_Driver/Src/stm32f7xx_hal_spdifrx.c ****   HAL_SPDIFRX_RxHalfCpltCallback(hspdif); 
1070:Drivers/STM32F7xx_HAL_Driver/Src/stm32f7xx_hal_spdifrx.c **** }
1071:Drivers/STM32F7xx_HAL_Driver/Src/stm32f7xx_hal_spdifrx.c **** 
1072:Drivers/STM32F7xx_HAL_Driver/Src/stm32f7xx_hal_spdifrx.c **** 
1073:Drivers/STM32F7xx_HAL_Driver/Src/stm32f7xx_hal_spdifrx.c **** /**
1074:Drivers/STM32F7xx_HAL_Driver/Src/stm32f7xx_hal_spdifrx.c ****   * @brief DMA SPDIFRX receive process (Control flow) complete callback 
1075:Drivers/STM32F7xx_HAL_Driver/Src/stm32f7xx_hal_spdifrx.c ****   * @param hdma  DMA handle
1076:Drivers/STM32F7xx_HAL_Driver/Src/stm32f7xx_hal_spdifrx.c ****   * @retval None
1077:Drivers/STM32F7xx_HAL_Driver/Src/stm32f7xx_hal_spdifrx.c ****   */
1078:Drivers/STM32F7xx_HAL_Driver/Src/stm32f7xx_hal_spdifrx.c **** static void SPDIFRX_DMACxCplt(DMA_HandleTypeDef *hdma)
1079:Drivers/STM32F7xx_HAL_Driver/Src/stm32f7xx_hal_spdifrx.c **** {
1080:Drivers/STM32F7xx_HAL_Driver/Src/stm32f7xx_hal_spdifrx.c ****   SPDIFRX_HandleTypeDef* hspdif = ( SPDIFRX_HandleTypeDef* )((DMA_HandleTypeDef* )hdma)->Parent;
1081:Drivers/STM32F7xx_HAL_Driver/Src/stm32f7xx_hal_spdifrx.c ****   
1082:Drivers/STM32F7xx_HAL_Driver/Src/stm32f7xx_hal_spdifrx.c ****   /* Disable Cb DMA Request */
1083:Drivers/STM32F7xx_HAL_Driver/Src/stm32f7xx_hal_spdifrx.c ****   hspdif->Instance->CR &= (uint16_t)(~SPDIFRX_CR_CBDMAEN);
1084:Drivers/STM32F7xx_HAL_Driver/Src/stm32f7xx_hal_spdifrx.c ****   hspdif->CsXferCount = 0;
1085:Drivers/STM32F7xx_HAL_Driver/Src/stm32f7xx_hal_spdifrx.c ****   
1086:Drivers/STM32F7xx_HAL_Driver/Src/stm32f7xx_hal_spdifrx.c ****   hspdif->State = HAL_SPDIFRX_STATE_READY; 
1087:Drivers/STM32F7xx_HAL_Driver/Src/stm32f7xx_hal_spdifrx.c ****   HAL_SPDIFRX_CxCpltCallback(hspdif); 
1088:Drivers/STM32F7xx_HAL_Driver/Src/stm32f7xx_hal_spdifrx.c **** }
1089:Drivers/STM32F7xx_HAL_Driver/Src/stm32f7xx_hal_spdifrx.c **** 
1090:Drivers/STM32F7xx_HAL_Driver/Src/stm32f7xx_hal_spdifrx.c **** /**
1091:Drivers/STM32F7xx_HAL_Driver/Src/stm32f7xx_hal_spdifrx.c ****   * @brief DMA SPDIFRX receive process (Control flow) half complete callback 
1092:Drivers/STM32F7xx_HAL_Driver/Src/stm32f7xx_hal_spdifrx.c ****   * @param hdma  DMA handle
1093:Drivers/STM32F7xx_HAL_Driver/Src/stm32f7xx_hal_spdifrx.c ****   * @retval None
1094:Drivers/STM32F7xx_HAL_Driver/Src/stm32f7xx_hal_spdifrx.c ****   */
1095:Drivers/STM32F7xx_HAL_Driver/Src/stm32f7xx_hal_spdifrx.c **** static void SPDIFRX_DMACxHalfCplt(DMA_HandleTypeDef *hdma)
1096:Drivers/STM32F7xx_HAL_Driver/Src/stm32f7xx_hal_spdifrx.c **** {
1097:Drivers/STM32F7xx_HAL_Driver/Src/stm32f7xx_hal_spdifrx.c ****   SPDIFRX_HandleTypeDef* hspdif = (SPDIFRX_HandleTypeDef*)((DMA_HandleTypeDef*)hdma)->Parent;
1098:Drivers/STM32F7xx_HAL_Driver/Src/stm32f7xx_hal_spdifrx.c ****   
1099:Drivers/STM32F7xx_HAL_Driver/Src/stm32f7xx_hal_spdifrx.c ****   HAL_SPDIFRX_CxHalfCpltCallback(hspdif); 
1100:Drivers/STM32F7xx_HAL_Driver/Src/stm32f7xx_hal_spdifrx.c **** }
1101:Drivers/STM32F7xx_HAL_Driver/Src/stm32f7xx_hal_spdifrx.c **** 
1102:Drivers/STM32F7xx_HAL_Driver/Src/stm32f7xx_hal_spdifrx.c **** /**
1103:Drivers/STM32F7xx_HAL_Driver/Src/stm32f7xx_hal_spdifrx.c ****   * @brief DMA SPDIFRX communication error callback 
1104:Drivers/STM32F7xx_HAL_Driver/Src/stm32f7xx_hal_spdifrx.c ****   * @param hdma  DMA handle
1105:Drivers/STM32F7xx_HAL_Driver/Src/stm32f7xx_hal_spdifrx.c ****   * @retval None
1106:Drivers/STM32F7xx_HAL_Driver/Src/stm32f7xx_hal_spdifrx.c ****   */
1107:Drivers/STM32F7xx_HAL_Driver/Src/stm32f7xx_hal_spdifrx.c **** static void SPDIFRX_DMAError(DMA_HandleTypeDef *hdma)
1108:Drivers/STM32F7xx_HAL_Driver/Src/stm32f7xx_hal_spdifrx.c **** {
1109:Drivers/STM32F7xx_HAL_Driver/Src/stm32f7xx_hal_spdifrx.c ****   SPDIFRX_HandleTypeDef* hspdif = ( SPDIFRX_HandleTypeDef* )((DMA_HandleTypeDef* )hdma)->Parent;
1110:Drivers/STM32F7xx_HAL_Driver/Src/stm32f7xx_hal_spdifrx.c ****   
1111:Drivers/STM32F7xx_HAL_Driver/Src/stm32f7xx_hal_spdifrx.c ****   /* Disable Rx and Cb DMA Request */
1112:Drivers/STM32F7xx_HAL_Driver/Src/stm32f7xx_hal_spdifrx.c ****   hspdif->Instance->CR &= (uint16_t)(~(SPDIFRX_CR_RXDMAEN | SPDIFRX_CR_CBDMAEN));
1113:Drivers/STM32F7xx_HAL_Driver/Src/stm32f7xx_hal_spdifrx.c ****   hspdif->RxXferCount = 0;
ARM GAS  C:\Users\Nina\AppData\Local\Temp\ccfkNb9x.s 			page 21


1114:Drivers/STM32F7xx_HAL_Driver/Src/stm32f7xx_hal_spdifrx.c ****   
1115:Drivers/STM32F7xx_HAL_Driver/Src/stm32f7xx_hal_spdifrx.c ****   hspdif->State= HAL_SPDIFRX_STATE_READY;
1116:Drivers/STM32F7xx_HAL_Driver/Src/stm32f7xx_hal_spdifrx.c ****   
1117:Drivers/STM32F7xx_HAL_Driver/Src/stm32f7xx_hal_spdifrx.c ****   /* Set the error code and execute error callback*/
1118:Drivers/STM32F7xx_HAL_Driver/Src/stm32f7xx_hal_spdifrx.c ****   hspdif->ErrorCode |= HAL_SPDIFRX_ERROR_DMA;
1119:Drivers/STM32F7xx_HAL_Driver/Src/stm32f7xx_hal_spdifrx.c ****   HAL_SPDIFRX_ErrorCallback(hspdif);
1120:Drivers/STM32F7xx_HAL_Driver/Src/stm32f7xx_hal_spdifrx.c **** }
1121:Drivers/STM32F7xx_HAL_Driver/Src/stm32f7xx_hal_spdifrx.c **** 
1122:Drivers/STM32F7xx_HAL_Driver/Src/stm32f7xx_hal_spdifrx.c **** /**
1123:Drivers/STM32F7xx_HAL_Driver/Src/stm32f7xx_hal_spdifrx.c ****   * @brief Receive an amount of data (Data Flow) with Interrupt
1124:Drivers/STM32F7xx_HAL_Driver/Src/stm32f7xx_hal_spdifrx.c ****   * @param hspdif SPDIFRX handle
1125:Drivers/STM32F7xx_HAL_Driver/Src/stm32f7xx_hal_spdifrx.c ****   * @retval None
1126:Drivers/STM32F7xx_HAL_Driver/Src/stm32f7xx_hal_spdifrx.c ****   */
1127:Drivers/STM32F7xx_HAL_Driver/Src/stm32f7xx_hal_spdifrx.c **** static void SPDIFRX_ReceiveDataFlow_IT(SPDIFRX_HandleTypeDef *hspdif)
1128:Drivers/STM32F7xx_HAL_Driver/Src/stm32f7xx_hal_spdifrx.c **** {
1129:Drivers/STM32F7xx_HAL_Driver/Src/stm32f7xx_hal_spdifrx.c ****   /* Receive data */
1130:Drivers/STM32F7xx_HAL_Driver/Src/stm32f7xx_hal_spdifrx.c ****   (*hspdif->pRxBuffPtr++) = hspdif->Instance->DR;
1131:Drivers/STM32F7xx_HAL_Driver/Src/stm32f7xx_hal_spdifrx.c ****   hspdif->RxXferCount--;
1132:Drivers/STM32F7xx_HAL_Driver/Src/stm32f7xx_hal_spdifrx.c ****   
1133:Drivers/STM32F7xx_HAL_Driver/Src/stm32f7xx_hal_spdifrx.c ****   if(hspdif->RxXferCount == 0)
1134:Drivers/STM32F7xx_HAL_Driver/Src/stm32f7xx_hal_spdifrx.c ****   {            
1135:Drivers/STM32F7xx_HAL_Driver/Src/stm32f7xx_hal_spdifrx.c ****     /* Disable RXNE/PE and OVR interrupts */
1136:Drivers/STM32F7xx_HAL_Driver/Src/stm32f7xx_hal_spdifrx.c ****     __HAL_SPDIFRX_DISABLE_IT(hspdif, SPDIFRX_IT_OVRIE | SPDIFRX_IT_PERRIE | SPDIFRX_IT_RXNE);
1137:Drivers/STM32F7xx_HAL_Driver/Src/stm32f7xx_hal_spdifrx.c ****     
1138:Drivers/STM32F7xx_HAL_Driver/Src/stm32f7xx_hal_spdifrx.c ****     hspdif->State = HAL_SPDIFRX_STATE_READY;
1139:Drivers/STM32F7xx_HAL_Driver/Src/stm32f7xx_hal_spdifrx.c ****     
1140:Drivers/STM32F7xx_HAL_Driver/Src/stm32f7xx_hal_spdifrx.c ****     /* Process Unlocked */
1141:Drivers/STM32F7xx_HAL_Driver/Src/stm32f7xx_hal_spdifrx.c ****     __HAL_UNLOCK(hspdif);
1142:Drivers/STM32F7xx_HAL_Driver/Src/stm32f7xx_hal_spdifrx.c ****     
1143:Drivers/STM32F7xx_HAL_Driver/Src/stm32f7xx_hal_spdifrx.c ****     HAL_SPDIFRX_RxCpltCallback(hspdif);
1144:Drivers/STM32F7xx_HAL_Driver/Src/stm32f7xx_hal_spdifrx.c ****   }
1145:Drivers/STM32F7xx_HAL_Driver/Src/stm32f7xx_hal_spdifrx.c **** }
1146:Drivers/STM32F7xx_HAL_Driver/Src/stm32f7xx_hal_spdifrx.c **** 
1147:Drivers/STM32F7xx_HAL_Driver/Src/stm32f7xx_hal_spdifrx.c **** /**
1148:Drivers/STM32F7xx_HAL_Driver/Src/stm32f7xx_hal_spdifrx.c ****   * @brief Receive an amount of data (Control Flow) with Interrupt
1149:Drivers/STM32F7xx_HAL_Driver/Src/stm32f7xx_hal_spdifrx.c ****   * @param hspdif SPDIFRX handle
1150:Drivers/STM32F7xx_HAL_Driver/Src/stm32f7xx_hal_spdifrx.c ****   * @retval None
1151:Drivers/STM32F7xx_HAL_Driver/Src/stm32f7xx_hal_spdifrx.c ****   */
1152:Drivers/STM32F7xx_HAL_Driver/Src/stm32f7xx_hal_spdifrx.c **** static void SPDIFRX_ReceiveControlFlow_IT(SPDIFRX_HandleTypeDef *hspdif)
1153:Drivers/STM32F7xx_HAL_Driver/Src/stm32f7xx_hal_spdifrx.c **** {
1154:Drivers/STM32F7xx_HAL_Driver/Src/stm32f7xx_hal_spdifrx.c ****   /* Receive data */
1155:Drivers/STM32F7xx_HAL_Driver/Src/stm32f7xx_hal_spdifrx.c ****   (*hspdif->pCsBuffPtr++) = hspdif->Instance->CSR;
1156:Drivers/STM32F7xx_HAL_Driver/Src/stm32f7xx_hal_spdifrx.c ****   hspdif->CsXferCount--;
1157:Drivers/STM32F7xx_HAL_Driver/Src/stm32f7xx_hal_spdifrx.c ****   
1158:Drivers/STM32F7xx_HAL_Driver/Src/stm32f7xx_hal_spdifrx.c ****   if(hspdif->CsXferCount == 0)
1159:Drivers/STM32F7xx_HAL_Driver/Src/stm32f7xx_hal_spdifrx.c ****   {        
1160:Drivers/STM32F7xx_HAL_Driver/Src/stm32f7xx_hal_spdifrx.c ****     /* Disable CSRNE interrupt */
1161:Drivers/STM32F7xx_HAL_Driver/Src/stm32f7xx_hal_spdifrx.c ****     __HAL_SPDIFRX_DISABLE_IT(hspdif, SPDIFRX_IT_CSRNE);
1162:Drivers/STM32F7xx_HAL_Driver/Src/stm32f7xx_hal_spdifrx.c ****     
1163:Drivers/STM32F7xx_HAL_Driver/Src/stm32f7xx_hal_spdifrx.c ****     hspdif->State = HAL_SPDIFRX_STATE_READY; 
1164:Drivers/STM32F7xx_HAL_Driver/Src/stm32f7xx_hal_spdifrx.c ****     
1165:Drivers/STM32F7xx_HAL_Driver/Src/stm32f7xx_hal_spdifrx.c ****     /* Process Unlocked */
1166:Drivers/STM32F7xx_HAL_Driver/Src/stm32f7xx_hal_spdifrx.c ****     __HAL_UNLOCK(hspdif);
1167:Drivers/STM32F7xx_HAL_Driver/Src/stm32f7xx_hal_spdifrx.c ****     
1168:Drivers/STM32F7xx_HAL_Driver/Src/stm32f7xx_hal_spdifrx.c ****     HAL_SPDIFRX_CxCpltCallback(hspdif);
1169:Drivers/STM32F7xx_HAL_Driver/Src/stm32f7xx_hal_spdifrx.c ****   }
1170:Drivers/STM32F7xx_HAL_Driver/Src/stm32f7xx_hal_spdifrx.c **** }
ARM GAS  C:\Users\Nina\AppData\Local\Temp\ccfkNb9x.s 			page 22


1171:Drivers/STM32F7xx_HAL_Driver/Src/stm32f7xx_hal_spdifrx.c **** 
1172:Drivers/STM32F7xx_HAL_Driver/Src/stm32f7xx_hal_spdifrx.c **** /**
1173:Drivers/STM32F7xx_HAL_Driver/Src/stm32f7xx_hal_spdifrx.c ****   * @brief This function handles SPDIFRX Communication Timeout.
1174:Drivers/STM32F7xx_HAL_Driver/Src/stm32f7xx_hal_spdifrx.c ****   * @param hspdif SPDIFRX handle
1175:Drivers/STM32F7xx_HAL_Driver/Src/stm32f7xx_hal_spdifrx.c ****   * @param Flag Flag checked
1176:Drivers/STM32F7xx_HAL_Driver/Src/stm32f7xx_hal_spdifrx.c ****   * @param Status Value of the flag expected
1177:Drivers/STM32F7xx_HAL_Driver/Src/stm32f7xx_hal_spdifrx.c ****   * @param Timeout Duration of the timeout
1178:Drivers/STM32F7xx_HAL_Driver/Src/stm32f7xx_hal_spdifrx.c ****   * @param tickstart Tick start value
1179:Drivers/STM32F7xx_HAL_Driver/Src/stm32f7xx_hal_spdifrx.c ****   * @retval HAL status
1180:Drivers/STM32F7xx_HAL_Driver/Src/stm32f7xx_hal_spdifrx.c ****   */
1181:Drivers/STM32F7xx_HAL_Driver/Src/stm32f7xx_hal_spdifrx.c **** static HAL_StatusTypeDef SPDIFRX_WaitOnFlagUntilTimeout(SPDIFRX_HandleTypeDef *hspdif, uint32_t Fla
1182:Drivers/STM32F7xx_HAL_Driver/Src/stm32f7xx_hal_spdifrx.c **** {
  29              		.loc 1 1182 1 view -0
  30              		.cfi_startproc
  31              		@ args = 4, pretend = 0, frame = 0
  32              		@ frame_needed = 0, uses_anonymous_args = 0
  33              		.loc 1 1182 1 is_stmt 0 view .LVU1
  34 0000 F8B5     		push	{r3, r4, r5, r6, r7, lr}
  35              	.LCFI0:
  36              		.cfi_def_cfa_offset 24
  37              		.cfi_offset 3, -24
  38              		.cfi_offset 4, -20
  39              		.cfi_offset 5, -16
  40              		.cfi_offset 6, -12
  41              		.cfi_offset 7, -8
  42              		.cfi_offset 14, -4
  43 0002 0546     		mov	r5, r0
  44 0004 0E46     		mov	r6, r1
  45 0006 1C46     		mov	r4, r3
1183:Drivers/STM32F7xx_HAL_Driver/Src/stm32f7xx_hal_spdifrx.c ****   /* Wait until flag is set */
1184:Drivers/STM32F7xx_HAL_Driver/Src/stm32f7xx_hal_spdifrx.c ****   if(Status == RESET)
  46              		.loc 1 1184 3 is_stmt 1 view .LVU2
  47              		.loc 1 1184 5 is_stmt 0 view .LVU3
  48 0008 1746     		mov	r7, r2
  49 000a 002A     		cmp	r2, #0
  50 000c 48D0     		beq	.L4
  51              	.LVL1:
  52              	.L8:
1185:Drivers/STM32F7xx_HAL_Driver/Src/stm32f7xx_hal_spdifrx.c ****   {
1186:Drivers/STM32F7xx_HAL_Driver/Src/stm32f7xx_hal_spdifrx.c ****     while(__HAL_SPDIFRX_GET_FLAG(hspdif, Flag) == RESET)
1187:Drivers/STM32F7xx_HAL_Driver/Src/stm32f7xx_hal_spdifrx.c ****     {
1188:Drivers/STM32F7xx_HAL_Driver/Src/stm32f7xx_hal_spdifrx.c ****       /* Check for the Timeout */
1189:Drivers/STM32F7xx_HAL_Driver/Src/stm32f7xx_hal_spdifrx.c ****       if(Timeout != HAL_MAX_DELAY)
1190:Drivers/STM32F7xx_HAL_Driver/Src/stm32f7xx_hal_spdifrx.c ****       {
1191:Drivers/STM32F7xx_HAL_Driver/Src/stm32f7xx_hal_spdifrx.c ****         if((Timeout == 0U)||((HAL_GetTick() - tickstart ) > Timeout))
1192:Drivers/STM32F7xx_HAL_Driver/Src/stm32f7xx_hal_spdifrx.c ****         {
1193:Drivers/STM32F7xx_HAL_Driver/Src/stm32f7xx_hal_spdifrx.c ****           /* Disable TXE, RXNE, PE and ERR (Frame error, noise error, overrun error) interrupts for
1194:Drivers/STM32F7xx_HAL_Driver/Src/stm32f7xx_hal_spdifrx.c ****           __HAL_SPDIFRX_DISABLE_IT(hspdif, SPDIFRX_IT_RXNE);
1195:Drivers/STM32F7xx_HAL_Driver/Src/stm32f7xx_hal_spdifrx.c ****           __HAL_SPDIFRX_DISABLE_IT(hspdif, SPDIFRX_IT_CSRNE);
1196:Drivers/STM32F7xx_HAL_Driver/Src/stm32f7xx_hal_spdifrx.c ****           __HAL_SPDIFRX_DISABLE_IT(hspdif, SPDIFRX_IT_PERRIE);
1197:Drivers/STM32F7xx_HAL_Driver/Src/stm32f7xx_hal_spdifrx.c ****           __HAL_SPDIFRX_DISABLE_IT(hspdif, SPDIFRX_IT_OVRIE);
1198:Drivers/STM32F7xx_HAL_Driver/Src/stm32f7xx_hal_spdifrx.c ****           __HAL_SPDIFRX_DISABLE_IT(hspdif, SPDIFRX_IT_SBLKIE);
1199:Drivers/STM32F7xx_HAL_Driver/Src/stm32f7xx_hal_spdifrx.c ****           __HAL_SPDIFRX_DISABLE_IT(hspdif, SPDIFRX_IT_SYNCDIE);
1200:Drivers/STM32F7xx_HAL_Driver/Src/stm32f7xx_hal_spdifrx.c ****           __HAL_SPDIFRX_DISABLE_IT(hspdif, SPDIFRX_IT_IFEIE);
1201:Drivers/STM32F7xx_HAL_Driver/Src/stm32f7xx_hal_spdifrx.c ****           
1202:Drivers/STM32F7xx_HAL_Driver/Src/stm32f7xx_hal_spdifrx.c ****           hspdif->State= HAL_SPDIFRX_STATE_READY;
1203:Drivers/STM32F7xx_HAL_Driver/Src/stm32f7xx_hal_spdifrx.c ****           
ARM GAS  C:\Users\Nina\AppData\Local\Temp\ccfkNb9x.s 			page 23


1204:Drivers/STM32F7xx_HAL_Driver/Src/stm32f7xx_hal_spdifrx.c ****           /* Process Unlocked */
1205:Drivers/STM32F7xx_HAL_Driver/Src/stm32f7xx_hal_spdifrx.c ****           __HAL_UNLOCK(hspdif);
1206:Drivers/STM32F7xx_HAL_Driver/Src/stm32f7xx_hal_spdifrx.c ****           
1207:Drivers/STM32F7xx_HAL_Driver/Src/stm32f7xx_hal_spdifrx.c ****           return HAL_TIMEOUT;
1208:Drivers/STM32F7xx_HAL_Driver/Src/stm32f7xx_hal_spdifrx.c ****         }
1209:Drivers/STM32F7xx_HAL_Driver/Src/stm32f7xx_hal_spdifrx.c ****       }
1210:Drivers/STM32F7xx_HAL_Driver/Src/stm32f7xx_hal_spdifrx.c ****     }
1211:Drivers/STM32F7xx_HAL_Driver/Src/stm32f7xx_hal_spdifrx.c ****   }
1212:Drivers/STM32F7xx_HAL_Driver/Src/stm32f7xx_hal_spdifrx.c ****   else
1213:Drivers/STM32F7xx_HAL_Driver/Src/stm32f7xx_hal_spdifrx.c ****   {
1214:Drivers/STM32F7xx_HAL_Driver/Src/stm32f7xx_hal_spdifrx.c ****     while(__HAL_SPDIFRX_GET_FLAG(hspdif, Flag) != RESET)
  53              		.loc 1 1214 10 is_stmt 1 view .LVU4
  54              		.loc 1 1214 11 is_stmt 0 view .LVU5
  55 000e 2B68     		ldr	r3, [r5]
  56 0010 9B68     		ldr	r3, [r3, #8]
  57              		.loc 1 1214 10 view .LVU6
  58 0012 36EA0303 		bics	r3, r6, r3
  59 0016 40F08D80 		bne	.L12
1215:Drivers/STM32F7xx_HAL_Driver/Src/stm32f7xx_hal_spdifrx.c ****     {
1216:Drivers/STM32F7xx_HAL_Driver/Src/stm32f7xx_hal_spdifrx.c ****       /* Check for the Timeout */
1217:Drivers/STM32F7xx_HAL_Driver/Src/stm32f7xx_hal_spdifrx.c ****       if(Timeout != HAL_MAX_DELAY)
  60              		.loc 1 1217 7 is_stmt 1 view .LVU7
  61              		.loc 1 1217 9 is_stmt 0 view .LVU8
  62 001a B4F1FF3F 		cmp	r4, #-1
  63 001e F6D0     		beq	.L8
1218:Drivers/STM32F7xx_HAL_Driver/Src/stm32f7xx_hal_spdifrx.c ****       {
1219:Drivers/STM32F7xx_HAL_Driver/Src/stm32f7xx_hal_spdifrx.c ****         if((Timeout == 0U)||((HAL_GetTick() - tickstart ) > Timeout))
  64              		.loc 1 1219 9 is_stmt 1 view .LVU9
  65              		.loc 1 1219 11 is_stmt 0 view .LVU10
  66 0020 2CB1     		cbz	r4, .L9
  67              		.loc 1 1219 31 discriminator 1 view .LVU11
  68 0022 FFF7FEFF 		bl	HAL_GetTick
  69              	.LVL2:
  70              		.loc 1 1219 45 discriminator 1 view .LVU12
  71 0026 069B     		ldr	r3, [sp, #24]
  72 0028 C01A     		subs	r0, r0, r3
  73              		.loc 1 1219 27 discriminator 1 view .LVU13
  74 002a A042     		cmp	r0, r4
  75 002c EFD9     		bls	.L8
  76              	.L9:
1220:Drivers/STM32F7xx_HAL_Driver/Src/stm32f7xx_hal_spdifrx.c ****         {
1221:Drivers/STM32F7xx_HAL_Driver/Src/stm32f7xx_hal_spdifrx.c ****           /* Disable TXE, RXNE, PE and ERR (Frame error, noise error, overrun error) interrupts for
1222:Drivers/STM32F7xx_HAL_Driver/Src/stm32f7xx_hal_spdifrx.c ****           __HAL_SPDIFRX_DISABLE_IT(hspdif, SPDIFRX_IT_RXNE);
  77              		.loc 1 1222 11 is_stmt 1 view .LVU14
  78 002e 2A68     		ldr	r2, [r5]
  79 0030 5368     		ldr	r3, [r2, #4]
  80 0032 23F00103 		bic	r3, r3, #1
  81 0036 1B04     		lsls	r3, r3, #16
  82 0038 1B0C     		lsrs	r3, r3, #16
  83 003a 5360     		str	r3, [r2, #4]
1223:Drivers/STM32F7xx_HAL_Driver/Src/stm32f7xx_hal_spdifrx.c ****           __HAL_SPDIFRX_DISABLE_IT(hspdif, SPDIFRX_IT_CSRNE);
  84              		.loc 1 1223 11 view .LVU15
  85 003c 2A68     		ldr	r2, [r5]
  86 003e 5368     		ldr	r3, [r2, #4]
  87 0040 23F00203 		bic	r3, r3, #2
  88 0044 1B04     		lsls	r3, r3, #16
  89 0046 1B0C     		lsrs	r3, r3, #16
ARM GAS  C:\Users\Nina\AppData\Local\Temp\ccfkNb9x.s 			page 24


  90 0048 5360     		str	r3, [r2, #4]
1224:Drivers/STM32F7xx_HAL_Driver/Src/stm32f7xx_hal_spdifrx.c ****           __HAL_SPDIFRX_DISABLE_IT(hspdif, SPDIFRX_IT_PERRIE);
  91              		.loc 1 1224 11 view .LVU16
  92 004a 2A68     		ldr	r2, [r5]
  93 004c 5368     		ldr	r3, [r2, #4]
  94 004e 23F00403 		bic	r3, r3, #4
  95 0052 1B04     		lsls	r3, r3, #16
  96 0054 1B0C     		lsrs	r3, r3, #16
  97 0056 5360     		str	r3, [r2, #4]
1225:Drivers/STM32F7xx_HAL_Driver/Src/stm32f7xx_hal_spdifrx.c ****           __HAL_SPDIFRX_DISABLE_IT(hspdif, SPDIFRX_IT_OVRIE);
  98              		.loc 1 1225 11 view .LVU17
  99 0058 2A68     		ldr	r2, [r5]
 100 005a 5368     		ldr	r3, [r2, #4]
 101 005c 23F00803 		bic	r3, r3, #8
 102 0060 1B04     		lsls	r3, r3, #16
 103 0062 1B0C     		lsrs	r3, r3, #16
 104 0064 5360     		str	r3, [r2, #4]
1226:Drivers/STM32F7xx_HAL_Driver/Src/stm32f7xx_hal_spdifrx.c ****           __HAL_SPDIFRX_DISABLE_IT(hspdif, SPDIFRX_IT_SBLKIE);
 105              		.loc 1 1226 11 view .LVU18
 106 0066 2A68     		ldr	r2, [r5]
 107 0068 5368     		ldr	r3, [r2, #4]
 108 006a 23F01003 		bic	r3, r3, #16
 109 006e 1B04     		lsls	r3, r3, #16
 110 0070 1B0C     		lsrs	r3, r3, #16
 111 0072 5360     		str	r3, [r2, #4]
1227:Drivers/STM32F7xx_HAL_Driver/Src/stm32f7xx_hal_spdifrx.c ****           __HAL_SPDIFRX_DISABLE_IT(hspdif, SPDIFRX_IT_SYNCDIE);
 112              		.loc 1 1227 11 view .LVU19
 113 0074 2A68     		ldr	r2, [r5]
 114 0076 5368     		ldr	r3, [r2, #4]
 115 0078 23F02003 		bic	r3, r3, #32
 116 007c 1B04     		lsls	r3, r3, #16
 117 007e 1B0C     		lsrs	r3, r3, #16
 118 0080 5360     		str	r3, [r2, #4]
1228:Drivers/STM32F7xx_HAL_Driver/Src/stm32f7xx_hal_spdifrx.c ****           __HAL_SPDIFRX_DISABLE_IT(hspdif, SPDIFRX_IT_IFEIE);
 119              		.loc 1 1228 11 view .LVU20
 120 0082 2A68     		ldr	r2, [r5]
 121 0084 5368     		ldr	r3, [r2, #4]
 122 0086 23F04003 		bic	r3, r3, #64
 123 008a 1B04     		lsls	r3, r3, #16
 124 008c 1B0C     		lsrs	r3, r3, #16
 125 008e 5360     		str	r3, [r2, #4]
1229:Drivers/STM32F7xx_HAL_Driver/Src/stm32f7xx_hal_spdifrx.c ****           
1230:Drivers/STM32F7xx_HAL_Driver/Src/stm32f7xx_hal_spdifrx.c ****           hspdif->State= HAL_SPDIFRX_STATE_READY;
 126              		.loc 1 1230 11 view .LVU21
 127              		.loc 1 1230 24 is_stmt 0 view .LVU22
 128 0090 0123     		movs	r3, #1
 129 0092 85F84530 		strb	r3, [r5, #69]
1231:Drivers/STM32F7xx_HAL_Driver/Src/stm32f7xx_hal_spdifrx.c ****           
1232:Drivers/STM32F7xx_HAL_Driver/Src/stm32f7xx_hal_spdifrx.c ****           /* Process Unlocked */
1233:Drivers/STM32F7xx_HAL_Driver/Src/stm32f7xx_hal_spdifrx.c ****           __HAL_UNLOCK(hspdif);
 130              		.loc 1 1233 11 is_stmt 1 view .LVU23
 131              		.loc 1 1233 11 view .LVU24
 132 0096 0023     		movs	r3, #0
 133 0098 85F84430 		strb	r3, [r5, #68]
 134              		.loc 1 1233 11 view .LVU25
1234:Drivers/STM32F7xx_HAL_Driver/Src/stm32f7xx_hal_spdifrx.c ****           
1235:Drivers/STM32F7xx_HAL_Driver/Src/stm32f7xx_hal_spdifrx.c ****           return HAL_TIMEOUT;
ARM GAS  C:\Users\Nina\AppData\Local\Temp\ccfkNb9x.s 			page 25


 135              		.loc 1 1235 11 view .LVU26
 136              		.loc 1 1235 18 is_stmt 0 view .LVU27
 137 009c 0320     		movs	r0, #3
 138 009e 48E0     		b	.L6
 139              	.L4:
1186:Drivers/STM32F7xx_HAL_Driver/Src/stm32f7xx_hal_spdifrx.c ****     {
 140              		.loc 1 1186 10 is_stmt 1 view .LVU28
1186:Drivers/STM32F7xx_HAL_Driver/Src/stm32f7xx_hal_spdifrx.c ****     {
 141              		.loc 1 1186 11 is_stmt 0 view .LVU29
 142 00a0 2B68     		ldr	r3, [r5]
 143 00a2 9B68     		ldr	r3, [r3, #8]
1186:Drivers/STM32F7xx_HAL_Driver/Src/stm32f7xx_hal_spdifrx.c ****     {
 144              		.loc 1 1186 10 view .LVU30
 145 00a4 36EA0303 		bics	r3, r6, r3
 146 00a8 42D0     		beq	.L13
1189:Drivers/STM32F7xx_HAL_Driver/Src/stm32f7xx_hal_spdifrx.c ****       {
 147              		.loc 1 1189 7 is_stmt 1 view .LVU31
1189:Drivers/STM32F7xx_HAL_Driver/Src/stm32f7xx_hal_spdifrx.c ****       {
 148              		.loc 1 1189 9 is_stmt 0 view .LVU32
 149 00aa B4F1FF3F 		cmp	r4, #-1
 150 00ae F7D0     		beq	.L4
1191:Drivers/STM32F7xx_HAL_Driver/Src/stm32f7xx_hal_spdifrx.c ****         {
 151              		.loc 1 1191 9 is_stmt 1 view .LVU33
1191:Drivers/STM32F7xx_HAL_Driver/Src/stm32f7xx_hal_spdifrx.c ****         {
 152              		.loc 1 1191 11 is_stmt 0 view .LVU34
 153 00b0 2CB1     		cbz	r4, .L5
1191:Drivers/STM32F7xx_HAL_Driver/Src/stm32f7xx_hal_spdifrx.c ****         {
 154              		.loc 1 1191 31 discriminator 1 view .LVU35
 155 00b2 FFF7FEFF 		bl	HAL_GetTick
 156              	.LVL3:
1191:Drivers/STM32F7xx_HAL_Driver/Src/stm32f7xx_hal_spdifrx.c ****         {
 157              		.loc 1 1191 45 discriminator 1 view .LVU36
 158 00b6 069B     		ldr	r3, [sp, #24]
 159 00b8 C01A     		subs	r0, r0, r3
1191:Drivers/STM32F7xx_HAL_Driver/Src/stm32f7xx_hal_spdifrx.c ****         {
 160              		.loc 1 1191 27 discriminator 1 view .LVU37
 161 00ba A042     		cmp	r0, r4
 162 00bc F0D9     		bls	.L4
 163              	.L5:
1194:Drivers/STM32F7xx_HAL_Driver/Src/stm32f7xx_hal_spdifrx.c ****           __HAL_SPDIFRX_DISABLE_IT(hspdif, SPDIFRX_IT_CSRNE);
 164              		.loc 1 1194 11 is_stmt 1 view .LVU38
 165 00be 2A68     		ldr	r2, [r5]
 166 00c0 5368     		ldr	r3, [r2, #4]
 167 00c2 23F00103 		bic	r3, r3, #1
 168 00c6 1B04     		lsls	r3, r3, #16
 169 00c8 1B0C     		lsrs	r3, r3, #16
 170 00ca 5360     		str	r3, [r2, #4]
1195:Drivers/STM32F7xx_HAL_Driver/Src/stm32f7xx_hal_spdifrx.c ****           __HAL_SPDIFRX_DISABLE_IT(hspdif, SPDIFRX_IT_PERRIE);
 171              		.loc 1 1195 11 view .LVU39
 172 00cc 2A68     		ldr	r2, [r5]
 173 00ce 5368     		ldr	r3, [r2, #4]
 174 00d0 23F00203 		bic	r3, r3, #2
 175 00d4 1B04     		lsls	r3, r3, #16
 176 00d6 1B0C     		lsrs	r3, r3, #16
 177 00d8 5360     		str	r3, [r2, #4]
1196:Drivers/STM32F7xx_HAL_Driver/Src/stm32f7xx_hal_spdifrx.c ****           __HAL_SPDIFRX_DISABLE_IT(hspdif, SPDIFRX_IT_OVRIE);
 178              		.loc 1 1196 11 view .LVU40
ARM GAS  C:\Users\Nina\AppData\Local\Temp\ccfkNb9x.s 			page 26


 179 00da 2A68     		ldr	r2, [r5]
 180 00dc 5368     		ldr	r3, [r2, #4]
 181 00de 23F00403 		bic	r3, r3, #4
 182 00e2 1B04     		lsls	r3, r3, #16
 183 00e4 1B0C     		lsrs	r3, r3, #16
 184 00e6 5360     		str	r3, [r2, #4]
1197:Drivers/STM32F7xx_HAL_Driver/Src/stm32f7xx_hal_spdifrx.c ****           __HAL_SPDIFRX_DISABLE_IT(hspdif, SPDIFRX_IT_SBLKIE);
 185              		.loc 1 1197 11 view .LVU41
 186 00e8 2A68     		ldr	r2, [r5]
 187 00ea 5368     		ldr	r3, [r2, #4]
 188 00ec 23F00803 		bic	r3, r3, #8
 189 00f0 1B04     		lsls	r3, r3, #16
 190 00f2 1B0C     		lsrs	r3, r3, #16
 191 00f4 5360     		str	r3, [r2, #4]
1198:Drivers/STM32F7xx_HAL_Driver/Src/stm32f7xx_hal_spdifrx.c ****           __HAL_SPDIFRX_DISABLE_IT(hspdif, SPDIFRX_IT_SYNCDIE);
 192              		.loc 1 1198 11 view .LVU42
 193 00f6 2A68     		ldr	r2, [r5]
 194 00f8 5368     		ldr	r3, [r2, #4]
 195 00fa 23F01003 		bic	r3, r3, #16
 196 00fe 1B04     		lsls	r3, r3, #16
 197 0100 1B0C     		lsrs	r3, r3, #16
 198 0102 5360     		str	r3, [r2, #4]
1199:Drivers/STM32F7xx_HAL_Driver/Src/stm32f7xx_hal_spdifrx.c ****           __HAL_SPDIFRX_DISABLE_IT(hspdif, SPDIFRX_IT_IFEIE);
 199              		.loc 1 1199 11 view .LVU43
 200 0104 2A68     		ldr	r2, [r5]
 201 0106 5368     		ldr	r3, [r2, #4]
 202 0108 23F02003 		bic	r3, r3, #32
 203 010c 1B04     		lsls	r3, r3, #16
 204 010e 1B0C     		lsrs	r3, r3, #16
 205 0110 5360     		str	r3, [r2, #4]
1200:Drivers/STM32F7xx_HAL_Driver/Src/stm32f7xx_hal_spdifrx.c ****           
 206              		.loc 1 1200 11 view .LVU44
 207 0112 2A68     		ldr	r2, [r5]
 208 0114 5368     		ldr	r3, [r2, #4]
 209 0116 23F04003 		bic	r3, r3, #64
 210 011a 1B04     		lsls	r3, r3, #16
 211 011c 1B0C     		lsrs	r3, r3, #16
 212 011e 5360     		str	r3, [r2, #4]
1202:Drivers/STM32F7xx_HAL_Driver/Src/stm32f7xx_hal_spdifrx.c ****           
 213              		.loc 1 1202 11 view .LVU45
1202:Drivers/STM32F7xx_HAL_Driver/Src/stm32f7xx_hal_spdifrx.c ****           
 214              		.loc 1 1202 24 is_stmt 0 view .LVU46
 215 0120 0123     		movs	r3, #1
 216 0122 85F84530 		strb	r3, [r5, #69]
1205:Drivers/STM32F7xx_HAL_Driver/Src/stm32f7xx_hal_spdifrx.c ****           
 217              		.loc 1 1205 11 is_stmt 1 view .LVU47
1205:Drivers/STM32F7xx_HAL_Driver/Src/stm32f7xx_hal_spdifrx.c ****           
 218              		.loc 1 1205 11 view .LVU48
 219 0126 0023     		movs	r3, #0
 220 0128 85F84430 		strb	r3, [r5, #68]
1205:Drivers/STM32F7xx_HAL_Driver/Src/stm32f7xx_hal_spdifrx.c ****           
 221              		.loc 1 1205 11 view .LVU49
1207:Drivers/STM32F7xx_HAL_Driver/Src/stm32f7xx_hal_spdifrx.c ****         }
 222              		.loc 1 1207 11 view .LVU50
1207:Drivers/STM32F7xx_HAL_Driver/Src/stm32f7xx_hal_spdifrx.c ****         }
 223              		.loc 1 1207 18 is_stmt 0 view .LVU51
 224 012c 0320     		movs	r0, #3
ARM GAS  C:\Users\Nina\AppData\Local\Temp\ccfkNb9x.s 			page 27


 225 012e 00E0     		b	.L6
 226              	.L13:
1236:Drivers/STM32F7xx_HAL_Driver/Src/stm32f7xx_hal_spdifrx.c ****         }
1237:Drivers/STM32F7xx_HAL_Driver/Src/stm32f7xx_hal_spdifrx.c ****       }
1238:Drivers/STM32F7xx_HAL_Driver/Src/stm32f7xx_hal_spdifrx.c ****     }
1239:Drivers/STM32F7xx_HAL_Driver/Src/stm32f7xx_hal_spdifrx.c ****   }
1240:Drivers/STM32F7xx_HAL_Driver/Src/stm32f7xx_hal_spdifrx.c ****   return HAL_OK;
 227              		.loc 1 1240 10 view .LVU52
 228 0130 3846     		mov	r0, r7
 229              	.L6:
1241:Drivers/STM32F7xx_HAL_Driver/Src/stm32f7xx_hal_spdifrx.c **** }
 230              		.loc 1 1241 1 view .LVU53
 231 0132 F8BD     		pop	{r3, r4, r5, r6, r7, pc}
 232              	.LVL4:
 233              	.L12:
1240:Drivers/STM32F7xx_HAL_Driver/Src/stm32f7xx_hal_spdifrx.c **** }
 234              		.loc 1 1240 10 view .LVU54
 235 0134 0020     		movs	r0, #0
 236 0136 FCE7     		b	.L6
 237              		.cfi_endproc
 238              	.LFE165:
 240              		.section	.text.HAL_SPDIFRX_MspInit,"ax",%progbits
 241              		.align	1
 242              		.weak	HAL_SPDIFRX_MspInit
 243              		.syntax unified
 244              		.thumb
 245              		.thumb_func
 246              		.fpu fpv5-sp-d16
 248              	HAL_SPDIFRX_MspInit:
 249              	.LVL5:
 250              	.LFB140:
 304:Drivers/STM32F7xx_HAL_Driver/Src/stm32f7xx_hal_spdifrx.c ****   /* Prevent unused argument(s) compilation warning */
 251              		.loc 1 304 1 is_stmt 1 view -0
 252              		.cfi_startproc
 253              		@ args = 0, pretend = 0, frame = 0
 254              		@ frame_needed = 0, uses_anonymous_args = 0
 255              		@ link register save eliminated.
 306:Drivers/STM32F7xx_HAL_Driver/Src/stm32f7xx_hal_spdifrx.c ****   
 256              		.loc 1 306 3 view .LVU56
 311:Drivers/STM32F7xx_HAL_Driver/Src/stm32f7xx_hal_spdifrx.c **** 
 257              		.loc 1 311 1 is_stmt 0 view .LVU57
 258 0000 7047     		bx	lr
 259              		.cfi_endproc
 260              	.LFE140:
 262              		.section	.text.HAL_SPDIFRX_Init,"ax",%progbits
 263              		.align	1
 264              		.global	HAL_SPDIFRX_Init
 265              		.syntax unified
 266              		.thumb
 267              		.thumb_func
 268              		.fpu fpv5-sp-d16
 270              	HAL_SPDIFRX_Init:
 271              	.LVL6:
 272              	.LFB138:
 199:Drivers/STM32F7xx_HAL_Driver/Src/stm32f7xx_hal_spdifrx.c ****   uint32_t tmpreg = 0;
 273              		.loc 1 199 1 is_stmt 1 view -0
 274              		.cfi_startproc
ARM GAS  C:\Users\Nina\AppData\Local\Temp\ccfkNb9x.s 			page 28


 275              		@ args = 0, pretend = 0, frame = 0
 276              		@ frame_needed = 0, uses_anonymous_args = 0
 200:Drivers/STM32F7xx_HAL_Driver/Src/stm32f7xx_hal_spdifrx.c ****   
 277              		.loc 1 200 3 view .LVU59
 203:Drivers/STM32F7xx_HAL_Driver/Src/stm32f7xx_hal_spdifrx.c ****   {
 278              		.loc 1 203 3 view .LVU60
 203:Drivers/STM32F7xx_HAL_Driver/Src/stm32f7xx_hal_spdifrx.c ****   {
 279              		.loc 1 203 5 is_stmt 0 view .LVU61
 280 0000 0028     		cmp	r0, #0
 281 0002 30D0     		beq	.L18
 199:Drivers/STM32F7xx_HAL_Driver/Src/stm32f7xx_hal_spdifrx.c ****   uint32_t tmpreg = 0;
 282              		.loc 1 199 1 view .LVU62
 283 0004 10B5     		push	{r4, lr}
 284              	.LCFI1:
 285              		.cfi_def_cfa_offset 8
 286              		.cfi_offset 4, -8
 287              		.cfi_offset 14, -4
 288 0006 0446     		mov	r4, r0
 209:Drivers/STM32F7xx_HAL_Driver/Src/stm32f7xx_hal_spdifrx.c ****   assert_param(IS_SPDIFRX_INPUT_SELECT(hspdif->Init.InputSelection));
 289              		.loc 1 209 3 is_stmt 1 view .LVU63
 210:Drivers/STM32F7xx_HAL_Driver/Src/stm32f7xx_hal_spdifrx.c ****   assert_param(IS_SPDIFRX_MAX_RETRIES(hspdif->Init.Retries));
 290              		.loc 1 210 3 view .LVU64
 211:Drivers/STM32F7xx_HAL_Driver/Src/stm32f7xx_hal_spdifrx.c ****   assert_param(IS_SPDIFRX_WAIT_FOR_ACTIVITY(hspdif->Init.WaitForActivity));
 291              		.loc 1 211 3 view .LVU65
 212:Drivers/STM32F7xx_HAL_Driver/Src/stm32f7xx_hal_spdifrx.c ****   assert_param(IS_SPDIFRX_CHANNEL(hspdif->Init.ChannelSelection));
 292              		.loc 1 212 3 view .LVU66
 213:Drivers/STM32F7xx_HAL_Driver/Src/stm32f7xx_hal_spdifrx.c ****   assert_param(IS_SPDIFRX_DATA_FORMAT(hspdif->Init.DataFormat));
 293              		.loc 1 213 3 view .LVU67
 214:Drivers/STM32F7xx_HAL_Driver/Src/stm32f7xx_hal_spdifrx.c ****   assert_param(IS_PREAMBLE_TYPE_MASK(hspdif->Init.PreambleTypeMask));
 294              		.loc 1 214 3 view .LVU68
 215:Drivers/STM32F7xx_HAL_Driver/Src/stm32f7xx_hal_spdifrx.c ****   assert_param(IS_CHANNEL_STATUS_MASK(hspdif->Init.ChannelStatusMask));
 295              		.loc 1 215 3 view .LVU69
 216:Drivers/STM32F7xx_HAL_Driver/Src/stm32f7xx_hal_spdifrx.c ****   assert_param(IS_VALIDITY_MASK(hspdif->Init.ValidityBitMask));
 296              		.loc 1 216 3 view .LVU70
 217:Drivers/STM32F7xx_HAL_Driver/Src/stm32f7xx_hal_spdifrx.c ****   assert_param(IS_PARITY_ERROR_MASK(hspdif->Init.ParityErrorMask));
 297              		.loc 1 217 3 view .LVU71
 218:Drivers/STM32F7xx_HAL_Driver/Src/stm32f7xx_hal_spdifrx.c ****   
 298              		.loc 1 218 3 view .LVU72
 220:Drivers/STM32F7xx_HAL_Driver/Src/stm32f7xx_hal_spdifrx.c ****   {
 299              		.loc 1 220 3 view .LVU73
 220:Drivers/STM32F7xx_HAL_Driver/Src/stm32f7xx_hal_spdifrx.c ****   {
 300              		.loc 1 220 12 is_stmt 0 view .LVU74
 301 0008 90F84530 		ldrb	r3, [r0, #69]	@ zero_extendqisi2
 220:Drivers/STM32F7xx_HAL_Driver/Src/stm32f7xx_hal_spdifrx.c ****   {
 302              		.loc 1 220 5 view .LVU75
 303 000c 33B3     		cbz	r3, .L23
 304              	.LVL7:
 305              	.L17:
 229:Drivers/STM32F7xx_HAL_Driver/Src/stm32f7xx_hal_spdifrx.c ****   
 306              		.loc 1 229 3 is_stmt 1 view .LVU76
 229:Drivers/STM32F7xx_HAL_Driver/Src/stm32f7xx_hal_spdifrx.c ****   
 307              		.loc 1 229 17 is_stmt 0 view .LVU77
 308 000e 0223     		movs	r3, #2
 309 0010 84F84530 		strb	r3, [r4, #69]
 232:Drivers/STM32F7xx_HAL_Driver/Src/stm32f7xx_hal_spdifrx.c ****   
 310              		.loc 1 232 3 is_stmt 1 view .LVU78
 311 0014 2268     		ldr	r2, [r4]
ARM GAS  C:\Users\Nina\AppData\Local\Temp\ccfkNb9x.s 			page 29


 312 0016 1368     		ldr	r3, [r2]
 313 0018 23F00303 		bic	r3, r3, #3
 314 001c 1360     		str	r3, [r2]
 235:Drivers/STM32F7xx_HAL_Driver/Src/stm32f7xx_hal_spdifrx.c ****   
 315              		.loc 1 235 3 view .LVU79
 235:Drivers/STM32F7xx_HAL_Driver/Src/stm32f7xx_hal_spdifrx.c ****   
 316              		.loc 1 235 18 is_stmt 0 view .LVU80
 317 001e 2168     		ldr	r1, [r4]
 235:Drivers/STM32F7xx_HAL_Driver/Src/stm32f7xx_hal_spdifrx.c ****   
 318              		.loc 1 235 10 view .LVU81
 319 0020 0B68     		ldr	r3, [r1]
 320              	.LVL8:
 237:Drivers/STM32F7xx_HAL_Driver/Src/stm32f7xx_hal_spdifrx.c ****               SPDIFRX_CR_VMSK | SPDIFRX_CR_CUMSK | SPDIFRX_CR_PTMSK  |
 321              		.loc 1 237 3 is_stmt 1 view .LVU82
 237:Drivers/STM32F7xx_HAL_Driver/Src/stm32f7xx_hal_spdifrx.c ****               SPDIFRX_CR_VMSK | SPDIFRX_CR_CUMSK | SPDIFRX_CR_PTMSK  |
 322              		.loc 1 237 10 is_stmt 0 view .LVU83
 323 0022 124A     		ldr	r2, .L24
 324 0024 1A40     		ands	r2, r2, r3
 325              	.LVL9:
 242:Drivers/STM32F7xx_HAL_Driver/Src/stm32f7xx_hal_spdifrx.c ****              hspdif->Init.InputSelection |
 326              		.loc 1 242 3 is_stmt 1 view .LVU84
 243:Drivers/STM32F7xx_HAL_Driver/Src/stm32f7xx_hal_spdifrx.c ****              hspdif->Init.Retries |
 327              		.loc 1 243 26 is_stmt 0 view .LVU85
 328 0026 6068     		ldr	r0, [r4, #4]
 242:Drivers/STM32F7xx_HAL_Driver/Src/stm32f7xx_hal_spdifrx.c ****              hspdif->Init.InputSelection |
 329              		.loc 1 242 49 view .LVU86
 330 0028 238B     		ldrh	r3, [r4, #24]
 331 002a 0343     		orrs	r3, r3, r0
 244:Drivers/STM32F7xx_HAL_Driver/Src/stm32f7xx_hal_spdifrx.c ****              hspdif->Init.WaitForActivity |
 332              		.loc 1 244 26 view .LVU87
 333 002c A068     		ldr	r0, [r4, #8]
 243:Drivers/STM32F7xx_HAL_Driver/Src/stm32f7xx_hal_spdifrx.c ****              hspdif->Init.Retries |
 334              		.loc 1 243 42 view .LVU88
 335 002e 0343     		orrs	r3, r3, r0
 245:Drivers/STM32F7xx_HAL_Driver/Src/stm32f7xx_hal_spdifrx.c ****              hspdif->Init.ChannelSelection |
 336              		.loc 1 245 26 view .LVU89
 337 0030 E068     		ldr	r0, [r4, #12]
 244:Drivers/STM32F7xx_HAL_Driver/Src/stm32f7xx_hal_spdifrx.c ****              hspdif->Init.WaitForActivity |
 338              		.loc 1 244 35 view .LVU90
 339 0032 0343     		orrs	r3, r3, r0
 246:Drivers/STM32F7xx_HAL_Driver/Src/stm32f7xx_hal_spdifrx.c ****              hspdif->Init.DataFormat |
 340              		.loc 1 246 26 view .LVU91
 341 0034 2069     		ldr	r0, [r4, #16]
 245:Drivers/STM32F7xx_HAL_Driver/Src/stm32f7xx_hal_spdifrx.c ****              hspdif->Init.ChannelSelection |
 342              		.loc 1 245 43 view .LVU92
 343 0036 0343     		orrs	r3, r3, r0
 247:Drivers/STM32F7xx_HAL_Driver/Src/stm32f7xx_hal_spdifrx.c ****              hspdif->Init.PreambleTypeMask |
 344              		.loc 1 247 26 view .LVU93
 345 0038 6069     		ldr	r0, [r4, #20]
 246:Drivers/STM32F7xx_HAL_Driver/Src/stm32f7xx_hal_spdifrx.c ****              hspdif->Init.DataFormat |
 346              		.loc 1 246 44 view .LVU94
 347 003a 0343     		orrs	r3, r3, r0
 248:Drivers/STM32F7xx_HAL_Driver/Src/stm32f7xx_hal_spdifrx.c ****              hspdif->Init.ChannelStatusMask |
 348              		.loc 1 248 26 view .LVU95
 349 003c E069     		ldr	r0, [r4, #28]
 247:Drivers/STM32F7xx_HAL_Driver/Src/stm32f7xx_hal_spdifrx.c ****              hspdif->Init.PreambleTypeMask |
 350              		.loc 1 247 38 view .LVU96
ARM GAS  C:\Users\Nina\AppData\Local\Temp\ccfkNb9x.s 			page 30


 351 003e 0343     		orrs	r3, r3, r0
 249:Drivers/STM32F7xx_HAL_Driver/Src/stm32f7xx_hal_spdifrx.c ****              hspdif->Init.ValidityBitMask |
 352              		.loc 1 249 26 view .LVU97
 353 0040 206A     		ldr	r0, [r4, #32]
 248:Drivers/STM32F7xx_HAL_Driver/Src/stm32f7xx_hal_spdifrx.c ****              hspdif->Init.ChannelStatusMask |
 354              		.loc 1 248 44 view .LVU98
 355 0042 0343     		orrs	r3, r3, r0
 250:Drivers/STM32F7xx_HAL_Driver/Src/stm32f7xx_hal_spdifrx.c ****              hspdif->Init.ParityErrorMask);
 356              		.loc 1 250 26 view .LVU99
 357 0044 606A     		ldr	r0, [r4, #36]
 249:Drivers/STM32F7xx_HAL_Driver/Src/stm32f7xx_hal_spdifrx.c ****              hspdif->Init.ValidityBitMask |
 358              		.loc 1 249 45 view .LVU100
 359 0046 0343     		orrs	r3, r3, r0
 251:Drivers/STM32F7xx_HAL_Driver/Src/stm32f7xx_hal_spdifrx.c ****   
 360              		.loc 1 251 26 view .LVU101
 361 0048 A06A     		ldr	r0, [r4, #40]
 250:Drivers/STM32F7xx_HAL_Driver/Src/stm32f7xx_hal_spdifrx.c ****              hspdif->Init.ParityErrorMask);
 362              		.loc 1 250 43 view .LVU102
 363 004a 0343     		orrs	r3, r3, r0
 242:Drivers/STM32F7xx_HAL_Driver/Src/stm32f7xx_hal_spdifrx.c ****              hspdif->Init.InputSelection |
 364              		.loc 1 242 10 view .LVU103
 365 004c 1343     		orrs	r3, r3, r2
 366              	.LVL10:
 253:Drivers/STM32F7xx_HAL_Driver/Src/stm32f7xx_hal_spdifrx.c ****   
 367              		.loc 1 253 3 is_stmt 1 view .LVU104
 253:Drivers/STM32F7xx_HAL_Driver/Src/stm32f7xx_hal_spdifrx.c ****   
 368              		.loc 1 253 24 is_stmt 0 view .LVU105
 369 004e 0B60     		str	r3, [r1]
 255:Drivers/STM32F7xx_HAL_Driver/Src/stm32f7xx_hal_spdifrx.c ****   
 370              		.loc 1 255 3 is_stmt 1 view .LVU106
 255:Drivers/STM32F7xx_HAL_Driver/Src/stm32f7xx_hal_spdifrx.c ****   
 371              		.loc 1 255 21 is_stmt 0 view .LVU107
 372 0050 0020     		movs	r0, #0
 373 0052 A064     		str	r0, [r4, #72]
 258:Drivers/STM32F7xx_HAL_Driver/Src/stm32f7xx_hal_spdifrx.c ****   
 374              		.loc 1 258 3 is_stmt 1 view .LVU108
 258:Drivers/STM32F7xx_HAL_Driver/Src/stm32f7xx_hal_spdifrx.c ****   
 375              		.loc 1 258 17 is_stmt 0 view .LVU109
 376 0054 0123     		movs	r3, #1
 377              	.LVL11:
 258:Drivers/STM32F7xx_HAL_Driver/Src/stm32f7xx_hal_spdifrx.c ****   
 378              		.loc 1 258 17 view .LVU110
 379 0056 84F84530 		strb	r3, [r4, #69]
 260:Drivers/STM32F7xx_HAL_Driver/Src/stm32f7xx_hal_spdifrx.c **** }
 380              		.loc 1 260 3 is_stmt 1 view .LVU111
 261:Drivers/STM32F7xx_HAL_Driver/Src/stm32f7xx_hal_spdifrx.c **** 
 381              		.loc 1 261 1 is_stmt 0 view .LVU112
 382 005a 10BD     		pop	{r4, pc}
 383              	.LVL12:
 384              	.L23:
 223:Drivers/STM32F7xx_HAL_Driver/Src/stm32f7xx_hal_spdifrx.c ****     /* Init the low level hardware : GPIO, CLOCK, CORTEX...etc */
 385              		.loc 1 223 5 is_stmt 1 view .LVU113
 223:Drivers/STM32F7xx_HAL_Driver/Src/stm32f7xx_hal_spdifrx.c ****     /* Init the low level hardware : GPIO, CLOCK, CORTEX...etc */
 386              		.loc 1 223 18 is_stmt 0 view .LVU114
 387 005c 80F84430 		strb	r3, [r0, #68]
 225:Drivers/STM32F7xx_HAL_Driver/Src/stm32f7xx_hal_spdifrx.c ****   }
 388              		.loc 1 225 5 is_stmt 1 view .LVU115
ARM GAS  C:\Users\Nina\AppData\Local\Temp\ccfkNb9x.s 			page 31


 389 0060 FFF7FEFF 		bl	HAL_SPDIFRX_MspInit
 390              	.LVL13:
 225:Drivers/STM32F7xx_HAL_Driver/Src/stm32f7xx_hal_spdifrx.c ****   }
 391              		.loc 1 225 5 is_stmt 0 view .LVU116
 392 0064 D3E7     		b	.L17
 393              	.LVL14:
 394              	.L18:
 395              	.LCFI2:
 396              		.cfi_def_cfa_offset 0
 397              		.cfi_restore 4
 398              		.cfi_restore 14
 205:Drivers/STM32F7xx_HAL_Driver/Src/stm32f7xx_hal_spdifrx.c ****   }
 399              		.loc 1 205 12 view .LVU117
 400 0066 0120     		movs	r0, #1
 401              	.LVL15:
 261:Drivers/STM32F7xx_HAL_Driver/Src/stm32f7xx_hal_spdifrx.c **** 
 402              		.loc 1 261 1 view .LVU118
 403 0068 7047     		bx	lr
 404              	.L25:
 405 006a 00BF     		.align	2
 406              	.L24:
 407 006c 0784F8FF 		.word	-490489
 408              		.cfi_endproc
 409              	.LFE138:
 411              		.section	.text.HAL_SPDIFRX_MspDeInit,"ax",%progbits
 412              		.align	1
 413              		.weak	HAL_SPDIFRX_MspDeInit
 414              		.syntax unified
 415              		.thumb
 416              		.thumb_func
 417              		.fpu fpv5-sp-d16
 419              	HAL_SPDIFRX_MspDeInit:
 420              	.LVL16:
 421              	.LFB141:
 319:Drivers/STM32F7xx_HAL_Driver/Src/stm32f7xx_hal_spdifrx.c ****   /* Prevent unused argument(s) compilation warning */
 422              		.loc 1 319 1 is_stmt 1 view -0
 423              		.cfi_startproc
 424              		@ args = 0, pretend = 0, frame = 0
 425              		@ frame_needed = 0, uses_anonymous_args = 0
 426              		@ link register save eliminated.
 321:Drivers/STM32F7xx_HAL_Driver/Src/stm32f7xx_hal_spdifrx.c ****   
 427              		.loc 1 321 3 view .LVU120
 326:Drivers/STM32F7xx_HAL_Driver/Src/stm32f7xx_hal_spdifrx.c **** 
 428              		.loc 1 326 1 is_stmt 0 view .LVU121
 429 0000 7047     		bx	lr
 430              		.cfi_endproc
 431              	.LFE141:
 433              		.section	.text.HAL_SPDIFRX_DeInit,"ax",%progbits
 434              		.align	1
 435              		.global	HAL_SPDIFRX_DeInit
 436              		.syntax unified
 437              		.thumb
 438              		.thumb_func
 439              		.fpu fpv5-sp-d16
 441              	HAL_SPDIFRX_DeInit:
 442              	.LVL17:
 443              	.LFB139:
ARM GAS  C:\Users\Nina\AppData\Local\Temp\ccfkNb9x.s 			page 32


 269:Drivers/STM32F7xx_HAL_Driver/Src/stm32f7xx_hal_spdifrx.c ****   /* Check the SPDIFRX handle allocation */
 444              		.loc 1 269 1 is_stmt 1 view -0
 445              		.cfi_startproc
 446              		@ args = 0, pretend = 0, frame = 0
 447              		@ frame_needed = 0, uses_anonymous_args = 0
 271:Drivers/STM32F7xx_HAL_Driver/Src/stm32f7xx_hal_spdifrx.c ****   {
 448              		.loc 1 271 3 view .LVU123
 271:Drivers/STM32F7xx_HAL_Driver/Src/stm32f7xx_hal_spdifrx.c ****   {
 449              		.loc 1 271 5 is_stmt 0 view .LVU124
 450 0000 90B1     		cbz	r0, .L29
 269:Drivers/STM32F7xx_HAL_Driver/Src/stm32f7xx_hal_spdifrx.c ****   /* Check the SPDIFRX handle allocation */
 451              		.loc 1 269 1 view .LVU125
 452 0002 10B5     		push	{r4, lr}
 453              	.LCFI3:
 454              		.cfi_def_cfa_offset 8
 455              		.cfi_offset 4, -8
 456              		.cfi_offset 14, -4
 457 0004 0446     		mov	r4, r0
 277:Drivers/STM32F7xx_HAL_Driver/Src/stm32f7xx_hal_spdifrx.c ****   
 458              		.loc 1 277 3 is_stmt 1 view .LVU126
 279:Drivers/STM32F7xx_HAL_Driver/Src/stm32f7xx_hal_spdifrx.c ****   
 459              		.loc 1 279 3 view .LVU127
 279:Drivers/STM32F7xx_HAL_Driver/Src/stm32f7xx_hal_spdifrx.c ****   
 460              		.loc 1 279 17 is_stmt 0 view .LVU128
 461 0006 0223     		movs	r3, #2
 462 0008 80F84530 		strb	r3, [r0, #69]
 282:Drivers/STM32F7xx_HAL_Driver/Src/stm32f7xx_hal_spdifrx.c ****   
 463              		.loc 1 282 3 is_stmt 1 view .LVU129
 464 000c 0268     		ldr	r2, [r0]
 465 000e 1368     		ldr	r3, [r2]
 466 0010 23F00303 		bic	r3, r3, #3
 467 0014 1360     		str	r3, [r2]
 285:Drivers/STM32F7xx_HAL_Driver/Src/stm32f7xx_hal_spdifrx.c ****   
 468              		.loc 1 285 3 view .LVU130
 469 0016 FFF7FEFF 		bl	HAL_SPDIFRX_MspDeInit
 470              	.LVL18:
 287:Drivers/STM32F7xx_HAL_Driver/Src/stm32f7xx_hal_spdifrx.c ****   
 471              		.loc 1 287 3 view .LVU131
 287:Drivers/STM32F7xx_HAL_Driver/Src/stm32f7xx_hal_spdifrx.c ****   
 472              		.loc 1 287 21 is_stmt 0 view .LVU132
 473 001a 0020     		movs	r0, #0
 474 001c A064     		str	r0, [r4, #72]
 290:Drivers/STM32F7xx_HAL_Driver/Src/stm32f7xx_hal_spdifrx.c ****   
 475              		.loc 1 290 3 is_stmt 1 view .LVU133
 290:Drivers/STM32F7xx_HAL_Driver/Src/stm32f7xx_hal_spdifrx.c ****   
 476              		.loc 1 290 17 is_stmt 0 view .LVU134
 477 001e 84F84500 		strb	r0, [r4, #69]
 293:Drivers/STM32F7xx_HAL_Driver/Src/stm32f7xx_hal_spdifrx.c ****   
 478              		.loc 1 293 3 is_stmt 1 view .LVU135
 293:Drivers/STM32F7xx_HAL_Driver/Src/stm32f7xx_hal_spdifrx.c ****   
 479              		.loc 1 293 3 view .LVU136
 480 0022 84F84400 		strb	r0, [r4, #68]
 293:Drivers/STM32F7xx_HAL_Driver/Src/stm32f7xx_hal_spdifrx.c ****   
 481              		.loc 1 293 3 view .LVU137
 295:Drivers/STM32F7xx_HAL_Driver/Src/stm32f7xx_hal_spdifrx.c **** }
 482              		.loc 1 295 3 view .LVU138
 296:Drivers/STM32F7xx_HAL_Driver/Src/stm32f7xx_hal_spdifrx.c **** 
ARM GAS  C:\Users\Nina\AppData\Local\Temp\ccfkNb9x.s 			page 33


 483              		.loc 1 296 1 is_stmt 0 view .LVU139
 484 0026 10BD     		pop	{r4, pc}
 485              	.LVL19:
 486              	.L29:
 487              	.LCFI4:
 488              		.cfi_def_cfa_offset 0
 489              		.cfi_restore 4
 490              		.cfi_restore 14
 273:Drivers/STM32F7xx_HAL_Driver/Src/stm32f7xx_hal_spdifrx.c ****   }
 491              		.loc 1 273 12 view .LVU140
 492 0028 0120     		movs	r0, #1
 493              	.LVL20:
 296:Drivers/STM32F7xx_HAL_Driver/Src/stm32f7xx_hal_spdifrx.c **** 
 494              		.loc 1 296 1 view .LVU141
 495 002a 7047     		bx	lr
 496              		.cfi_endproc
 497              	.LFE139:
 499              		.section	.text.HAL_SPDIFRX_SetDataFormat,"ax",%progbits
 500              		.align	1
 501              		.global	HAL_SPDIFRX_SetDataFormat
 502              		.syntax unified
 503              		.thumb
 504              		.thumb_func
 505              		.fpu fpv5-sp-d16
 507              	HAL_SPDIFRX_SetDataFormat:
 508              	.LVL21:
 509              	.LFB142:
 336:Drivers/STM32F7xx_HAL_Driver/Src/stm32f7xx_hal_spdifrx.c ****   uint32_t tmpreg = 0;
 510              		.loc 1 336 1 is_stmt 1 view -0
 511              		.cfi_startproc
 512              		@ args = 28, pretend = 16, frame = 0
 513              		@ frame_needed = 0, uses_anonymous_args = 0
 514              		@ link register save eliminated.
 336:Drivers/STM32F7xx_HAL_Driver/Src/stm32f7xx_hal_spdifrx.c ****   uint32_t tmpreg = 0;
 515              		.loc 1 336 1 is_stmt 0 view .LVU143
 516 0000 84B0     		sub	sp, sp, #16
 517              	.LCFI5:
 518              		.cfi_def_cfa_offset 16
 519 0002 10B4     		push	{r4}
 520              	.LCFI6:
 521              		.cfi_def_cfa_offset 20
 522              		.cfi_offset 4, -20
 523 0004 02AC     		add	r4, sp, #8
 524 0006 84E80E00 		stm	r4, {r1, r2, r3}
 337:Drivers/STM32F7xx_HAL_Driver/Src/stm32f7xx_hal_spdifrx.c ****   
 525              		.loc 1 337 3 is_stmt 1 view .LVU144
 526              	.LVL22:
 340:Drivers/STM32F7xx_HAL_Driver/Src/stm32f7xx_hal_spdifrx.c ****   {
 527              		.loc 1 340 3 view .LVU145
 340:Drivers/STM32F7xx_HAL_Driver/Src/stm32f7xx_hal_spdifrx.c ****   {
 528              		.loc 1 340 5 is_stmt 0 view .LVU146
 529 000a 30B3     		cbz	r0, .L37
 346:Drivers/STM32F7xx_HAL_Driver/Src/stm32f7xx_hal_spdifrx.c ****   assert_param(IS_SPDIFRX_DATA_FORMAT(sDataFormat.DataFormat));
 530              		.loc 1 346 3 is_stmt 1 view .LVU147
 347:Drivers/STM32F7xx_HAL_Driver/Src/stm32f7xx_hal_spdifrx.c ****   assert_param(IS_PREAMBLE_TYPE_MASK(sDataFormat.PreambleTypeMask));
 531              		.loc 1 347 3 view .LVU148
 348:Drivers/STM32F7xx_HAL_Driver/Src/stm32f7xx_hal_spdifrx.c ****   assert_param(IS_CHANNEL_STATUS_MASK(sDataFormat.ChannelStatusMask));
ARM GAS  C:\Users\Nina\AppData\Local\Temp\ccfkNb9x.s 			page 34


 532              		.loc 1 348 3 view .LVU149
 349:Drivers/STM32F7xx_HAL_Driver/Src/stm32f7xx_hal_spdifrx.c ****   assert_param(IS_VALIDITY_MASK(sDataFormat.ValidityBitMask));
 533              		.loc 1 349 3 view .LVU150
 350:Drivers/STM32F7xx_HAL_Driver/Src/stm32f7xx_hal_spdifrx.c ****   assert_param(IS_PARITY_ERROR_MASK(sDataFormat.ParityErrorMask));
 534              		.loc 1 350 3 view .LVU151
 351:Drivers/STM32F7xx_HAL_Driver/Src/stm32f7xx_hal_spdifrx.c ****   
 535              		.loc 1 351 3 view .LVU152
 354:Drivers/STM32F7xx_HAL_Driver/Src/stm32f7xx_hal_spdifrx.c ****   
 536              		.loc 1 354 3 view .LVU153
 354:Drivers/STM32F7xx_HAL_Driver/Src/stm32f7xx_hal_spdifrx.c ****   
 537              		.loc 1 354 18 is_stmt 0 view .LVU154
 538 000c 0168     		ldr	r1, [r0]
 354:Drivers/STM32F7xx_HAL_Driver/Src/stm32f7xx_hal_spdifrx.c ****   
 539              		.loc 1 354 10 view .LVU155
 540 000e 0B68     		ldr	r3, [r1]
 541              	.LVL23:
 356:Drivers/STM32F7xx_HAL_Driver/Src/stm32f7xx_hal_spdifrx.c ****      (((tmpreg & SPDIFRX_CR_DRFMT) != sDataFormat.DataFormat) ||
 542              		.loc 1 356 3 is_stmt 1 view .LVU156
 356:Drivers/STM32F7xx_HAL_Driver/Src/stm32f7xx_hal_spdifrx.c ****      (((tmpreg & SPDIFRX_CR_DRFMT) != sDataFormat.DataFormat) ||
 543              		.loc 1 356 15 is_stmt 0 view .LVU157
 544 0010 03F00302 		and	r2, r3, #3
 356:Drivers/STM32F7xx_HAL_Driver/Src/stm32f7xx_hal_spdifrx.c ****      (((tmpreg & SPDIFRX_CR_DRFMT) != sDataFormat.DataFormat) ||
 545              		.loc 1 356 5 view .LVU158
 546 0014 032A     		cmp	r2, #3
 547 0016 14D0     		beq	.L41
 548              	.LVL24:
 549              	.L36:
 363:Drivers/STM32F7xx_HAL_Driver/Src/stm32f7xx_hal_spdifrx.c ****               SPDIFRX_CR_VMSK | SPDIFRX_CR_CUMSK | SPDIFRX_CR_PTMSK);   
 550              		.loc 1 363 3 is_stmt 1 view .LVU159
 363:Drivers/STM32F7xx_HAL_Driver/Src/stm32f7xx_hal_spdifrx.c ****               SPDIFRX_CR_VMSK | SPDIFRX_CR_CUMSK | SPDIFRX_CR_PTMSK);   
 551              		.loc 1 363 10 is_stmt 0 view .LVU160
 552 0018 23F47E72 		bic	r2, r3, #1016
 553              	.LVL25:
 367:Drivers/STM32F7xx_HAL_Driver/Src/stm32f7xx_hal_spdifrx.c ****              sDataFormat.DataFormat |
 554              		.loc 1 367 3 is_stmt 1 view .LVU161
 367:Drivers/STM32F7xx_HAL_Driver/Src/stm32f7xx_hal_spdifrx.c ****              sDataFormat.DataFormat |
 555              		.loc 1 367 48 is_stmt 0 view .LVU162
 556 001c BDF80C30 		ldrh	r3, [sp, #12]
 557 0020 0298     		ldr	r0, [sp, #8]
 558 0022 0343     		orrs	r3, r3, r0
 369:Drivers/STM32F7xx_HAL_Driver/Src/stm32f7xx_hal_spdifrx.c ****              sDataFormat.ChannelStatusMask |
 559              		.loc 1 369 25 view .LVU163
 560 0024 0498     		ldr	r0, [sp, #16]
 368:Drivers/STM32F7xx_HAL_Driver/Src/stm32f7xx_hal_spdifrx.c ****              sDataFormat.PreambleTypeMask |
 561              		.loc 1 368 37 view .LVU164
 562 0026 0343     		orrs	r3, r3, r0
 370:Drivers/STM32F7xx_HAL_Driver/Src/stm32f7xx_hal_spdifrx.c ****              sDataFormat.ValidityBitMask |
 563              		.loc 1 370 25 view .LVU165
 564 0028 0598     		ldr	r0, [sp, #20]
 369:Drivers/STM32F7xx_HAL_Driver/Src/stm32f7xx_hal_spdifrx.c ****              sDataFormat.ChannelStatusMask |
 565              		.loc 1 369 43 view .LVU166
 566 002a 0343     		orrs	r3, r3, r0
 371:Drivers/STM32F7xx_HAL_Driver/Src/stm32f7xx_hal_spdifrx.c ****              sDataFormat.ParityErrorMask);
 567              		.loc 1 371 25 view .LVU167
 568 002c 0698     		ldr	r0, [sp, #24]
 370:Drivers/STM32F7xx_HAL_Driver/Src/stm32f7xx_hal_spdifrx.c ****              sDataFormat.ValidityBitMask |
 569              		.loc 1 370 44 view .LVU168
ARM GAS  C:\Users\Nina\AppData\Local\Temp\ccfkNb9x.s 			page 35


 570 002e 0343     		orrs	r3, r3, r0
 372:Drivers/STM32F7xx_HAL_Driver/Src/stm32f7xx_hal_spdifrx.c ****   
 571              		.loc 1 372 25 view .LVU169
 572 0030 0798     		ldr	r0, [sp, #28]
 371:Drivers/STM32F7xx_HAL_Driver/Src/stm32f7xx_hal_spdifrx.c ****              sDataFormat.ParityErrorMask);
 573              		.loc 1 371 42 view .LVU170
 574 0032 0343     		orrs	r3, r3, r0
 367:Drivers/STM32F7xx_HAL_Driver/Src/stm32f7xx_hal_spdifrx.c ****              sDataFormat.DataFormat |
 575              		.loc 1 367 10 view .LVU171
 576 0034 1343     		orrs	r3, r3, r2
 577              	.LVL26:
 374:Drivers/STM32F7xx_HAL_Driver/Src/stm32f7xx_hal_spdifrx.c ****   
 578              		.loc 1 374 3 is_stmt 1 view .LVU172
 374:Drivers/STM32F7xx_HAL_Driver/Src/stm32f7xx_hal_spdifrx.c ****   
 579              		.loc 1 374 24 is_stmt 0 view .LVU173
 580 0036 0B60     		str	r3, [r1]
 376:Drivers/STM32F7xx_HAL_Driver/Src/stm32f7xx_hal_spdifrx.c **** }
 581              		.loc 1 376 3 is_stmt 1 view .LVU174
 376:Drivers/STM32F7xx_HAL_Driver/Src/stm32f7xx_hal_spdifrx.c **** }
 582              		.loc 1 376 10 is_stmt 0 view .LVU175
 583 0038 0020     		movs	r0, #0
 584              	.LVL27:
 585              	.L35:
 377:Drivers/STM32F7xx_HAL_Driver/Src/stm32f7xx_hal_spdifrx.c **** 
 586              		.loc 1 377 1 view .LVU176
 587 003a 5DF8044B 		ldr	r4, [sp], #4
 588              	.LCFI7:
 589              		.cfi_remember_state
 590              		.cfi_restore 4
 591              		.cfi_def_cfa_offset 16
 592 003e 04B0     		add	sp, sp, #16
 593              	.LCFI8:
 594              		.cfi_def_cfa_offset 0
 595 0040 7047     		bx	lr
 596              	.LVL28:
 597              	.L41:
 598              	.LCFI9:
 599              		.cfi_restore_state
 357:Drivers/STM32F7xx_HAL_Driver/Src/stm32f7xx_hal_spdifrx.c ****       ((tmpreg & SPDIFRX_CR_RXSTEO) != sDataFormat.StereoMode)))  
 600              		.loc 1 357 16 discriminator 1 view .LVU177
 601 0042 03F03002 		and	r2, r3, #48
 357:Drivers/STM32F7xx_HAL_Driver/Src/stm32f7xx_hal_spdifrx.c ****       ((tmpreg & SPDIFRX_CR_RXSTEO) != sDataFormat.StereoMode)))  
 602              		.loc 1 357 50 discriminator 1 view .LVU178
 603 0046 0298     		ldr	r0, [sp, #8]
 604              	.LVL29:
 356:Drivers/STM32F7xx_HAL_Driver/Src/stm32f7xx_hal_spdifrx.c ****      (((tmpreg & SPDIFRX_CR_DRFMT) != sDataFormat.DataFormat) ||
 605              		.loc 1 356 58 discriminator 1 view .LVU179
 606 0048 8242     		cmp	r2, r0
 607 004a 08D1     		bne	.L38
 358:Drivers/STM32F7xx_HAL_Driver/Src/stm32f7xx_hal_spdifrx.c ****   {
 608              		.loc 1 358 16 view .LVU180
 609 004c 03F00802 		and	r2, r3, #8
 358:Drivers/STM32F7xx_HAL_Driver/Src/stm32f7xx_hal_spdifrx.c ****   {
 610              		.loc 1 358 51 view .LVU181
 611 0050 0398     		ldr	r0, [sp, #12]
 357:Drivers/STM32F7xx_HAL_Driver/Src/stm32f7xx_hal_spdifrx.c ****       ((tmpreg & SPDIFRX_CR_RXSTEO) != sDataFormat.StereoMode)))  
 612              		.loc 1 357 63 view .LVU182
ARM GAS  C:\Users\Nina\AppData\Local\Temp\ccfkNb9x.s 			page 36


 613 0052 8242     		cmp	r2, r0
 614 0054 E0D0     		beq	.L36
 360:Drivers/STM32F7xx_HAL_Driver/Src/stm32f7xx_hal_spdifrx.c ****   }  
 615              		.loc 1 360 12 view .LVU183
 616 0056 0120     		movs	r0, #1
 617 0058 EFE7     		b	.L35
 618              	.LVL30:
 619              	.L37:
 342:Drivers/STM32F7xx_HAL_Driver/Src/stm32f7xx_hal_spdifrx.c ****   }
 620              		.loc 1 342 12 view .LVU184
 621 005a 0120     		movs	r0, #1
 622              	.LVL31:
 342:Drivers/STM32F7xx_HAL_Driver/Src/stm32f7xx_hal_spdifrx.c ****   }
 623              		.loc 1 342 12 view .LVU185
 624 005c EDE7     		b	.L35
 625              	.LVL32:
 626              	.L38:
 360:Drivers/STM32F7xx_HAL_Driver/Src/stm32f7xx_hal_spdifrx.c ****   }  
 627              		.loc 1 360 12 view .LVU186
 628 005e 0120     		movs	r0, #1
 629 0060 EBE7     		b	.L35
 630              		.cfi_endproc
 631              	.LFE142:
 633              		.section	.text.HAL_SPDIFRX_ReceiveDataFlow,"ax",%progbits
 634              		.align	1
 635              		.global	HAL_SPDIFRX_ReceiveDataFlow
 636              		.syntax unified
 637              		.thumb
 638              		.thumb_func
 639              		.fpu fpv5-sp-d16
 641              	HAL_SPDIFRX_ReceiveDataFlow:
 642              	.LVL33:
 643              	.LFB143:
 436:Drivers/STM32F7xx_HAL_Driver/Src/stm32f7xx_hal_spdifrx.c ****   uint32_t tickstart = 0U;
 644              		.loc 1 436 1 is_stmt 1 view -0
 645              		.cfi_startproc
 646              		@ args = 0, pretend = 0, frame = 0
 647              		@ frame_needed = 0, uses_anonymous_args = 0
 436:Drivers/STM32F7xx_HAL_Driver/Src/stm32f7xx_hal_spdifrx.c ****   uint32_t tickstart = 0U;
 648              		.loc 1 436 1 is_stmt 0 view .LVU188
 649 0000 2DE9F041 		push	{r4, r5, r6, r7, r8, lr}
 650              	.LCFI10:
 651              		.cfi_def_cfa_offset 24
 652              		.cfi_offset 4, -24
 653              		.cfi_offset 5, -20
 654              		.cfi_offset 6, -16
 655              		.cfi_offset 7, -12
 656              		.cfi_offset 8, -8
 657              		.cfi_offset 14, -4
 658 0004 82B0     		sub	sp, sp, #8
 659              	.LCFI11:
 660              		.cfi_def_cfa_offset 32
 437:Drivers/STM32F7xx_HAL_Driver/Src/stm32f7xx_hal_spdifrx.c ****   
 661              		.loc 1 437 3 is_stmt 1 view .LVU189
 662              	.LVL34:
 439:Drivers/STM32F7xx_HAL_Driver/Src/stm32f7xx_hal_spdifrx.c ****   {
 663              		.loc 1 439 3 view .LVU190
ARM GAS  C:\Users\Nina\AppData\Local\Temp\ccfkNb9x.s 			page 37


 439:Drivers/STM32F7xx_HAL_Driver/Src/stm32f7xx_hal_spdifrx.c ****   {
 664              		.loc 1 439 32 is_stmt 0 view .LVU191
 665 0006 1546     		mov	r5, r2
 666 0008 B2FA82F2 		clz	r2, r2
 667              	.LVL35:
 439:Drivers/STM32F7xx_HAL_Driver/Src/stm32f7xx_hal_spdifrx.c ****   {
 668              		.loc 1 439 32 view .LVU192
 669 000c 5209     		lsrs	r2, r2, #5
 439:Drivers/STM32F7xx_HAL_Driver/Src/stm32f7xx_hal_spdifrx.c ****   {
 670              		.loc 1 439 23 view .LVU193
 671 000e 0029     		cmp	r1, #0
 672 0010 08BF     		it	eq
 673 0012 0122     		moveq	r2, #1
 439:Drivers/STM32F7xx_HAL_Driver/Src/stm32f7xx_hal_spdifrx.c ****   {
 674              		.loc 1 439 5 view .LVU194
 675 0014 002A     		cmp	r2, #0
 676 0016 42D1     		bne	.L46
 677 0018 0646     		mov	r6, r0
 678 001a 1F46     		mov	r7, r3
 679 001c 0C46     		mov	r4, r1
 444:Drivers/STM32F7xx_HAL_Driver/Src/stm32f7xx_hal_spdifrx.c ****   { 
 680              		.loc 1 444 3 is_stmt 1 view .LVU195
 444:Drivers/STM32F7xx_HAL_Driver/Src/stm32f7xx_hal_spdifrx.c ****   { 
 681              		.loc 1 444 12 is_stmt 0 view .LVU196
 682 001e 90F84530 		ldrb	r3, [r0, #69]	@ zero_extendqisi2
 683              	.LVL36:
 444:Drivers/STM32F7xx_HAL_Driver/Src/stm32f7xx_hal_spdifrx.c ****   { 
 684              		.loc 1 444 12 view .LVU197
 685 0022 DBB2     		uxtb	r3, r3
 444:Drivers/STM32F7xx_HAL_Driver/Src/stm32f7xx_hal_spdifrx.c ****   { 
 686              		.loc 1 444 5 view .LVU198
 687 0024 012B     		cmp	r3, #1
 688 0026 40D1     		bne	.L47
 447:Drivers/STM32F7xx_HAL_Driver/Src/stm32f7xx_hal_spdifrx.c ****     
 689              		.loc 1 447 5 is_stmt 1 view .LVU199
 447:Drivers/STM32F7xx_HAL_Driver/Src/stm32f7xx_hal_spdifrx.c ****     
 690              		.loc 1 447 5 view .LVU200
 691 0028 90F84430 		ldrb	r3, [r0, #68]	@ zero_extendqisi2
 692 002c DBB2     		uxtb	r3, r3
 693 002e 012B     		cmp	r3, #1
 694 0030 3ED0     		beq	.L48
 447:Drivers/STM32F7xx_HAL_Driver/Src/stm32f7xx_hal_spdifrx.c ****     
 695              		.loc 1 447 5 discriminator 2 view .LVU201
 696 0032 0123     		movs	r3, #1
 697 0034 80F84430 		strb	r3, [r0, #68]
 447:Drivers/STM32F7xx_HAL_Driver/Src/stm32f7xx_hal_spdifrx.c ****     
 698              		.loc 1 447 5 discriminator 2 view .LVU202
 449:Drivers/STM32F7xx_HAL_Driver/Src/stm32f7xx_hal_spdifrx.c ****     
 699              		.loc 1 449 5 discriminator 2 view .LVU203
 449:Drivers/STM32F7xx_HAL_Driver/Src/stm32f7xx_hal_spdifrx.c ****     
 700              		.loc 1 449 19 is_stmt 0 discriminator 2 view .LVU204
 701 0038 0223     		movs	r3, #2
 702 003a 80F84530 		strb	r3, [r0, #69]
 452:Drivers/STM32F7xx_HAL_Driver/Src/stm32f7xx_hal_spdifrx.c ****     
 703              		.loc 1 452 5 is_stmt 1 discriminator 2 view .LVU205
 704 003e 0268     		ldr	r2, [r0]
 705 0040 1368     		ldr	r3, [r2]
ARM GAS  C:\Users\Nina\AppData\Local\Temp\ccfkNb9x.s 			page 38


 706 0042 43F00103 		orr	r3, r3, #1
 707 0046 1360     		str	r3, [r2]
 455:Drivers/STM32F7xx_HAL_Driver/Src/stm32f7xx_hal_spdifrx.c ****     
 708              		.loc 1 455 5 discriminator 2 view .LVU206
 455:Drivers/STM32F7xx_HAL_Driver/Src/stm32f7xx_hal_spdifrx.c ****     
 709              		.loc 1 455 17 is_stmt 0 discriminator 2 view .LVU207
 710 0048 FFF7FEFF 		bl	HAL_GetTick
 711              	.LVL37:
 458:Drivers/STM32F7xx_HAL_Driver/Src/stm32f7xx_hal_spdifrx.c ****     { 
 712              		.loc 1 458 5 is_stmt 1 discriminator 2 view .LVU208
 458:Drivers/STM32F7xx_HAL_Driver/Src/stm32f7xx_hal_spdifrx.c ****     { 
 713              		.loc 1 458 8 is_stmt 0 discriminator 2 view .LVU209
 714 004c 0090     		str	r0, [sp]
 715 004e 3B46     		mov	r3, r7
 716 0050 0022     		movs	r2, #0
 717 0052 2021     		movs	r1, #32
 718 0054 3046     		mov	r0, r6
 719              	.LVL38:
 458:Drivers/STM32F7xx_HAL_Driver/Src/stm32f7xx_hal_spdifrx.c ****     { 
 720              		.loc 1 458 8 discriminator 2 view .LVU210
 721 0056 FFF7FEFF 		bl	SPDIFRX_WaitOnFlagUntilTimeout
 722              	.LVL39:
 458:Drivers/STM32F7xx_HAL_Driver/Src/stm32f7xx_hal_spdifrx.c ****     { 
 723              		.loc 1 458 7 discriminator 2 view .LVU211
 724 005a 8046     		mov	r8, r0
 725 005c 58BB     		cbnz	r0, .L49
 464:Drivers/STM32F7xx_HAL_Driver/Src/stm32f7xx_hal_spdifrx.c ****     
 726              		.loc 1 464 5 is_stmt 1 view .LVU212
 727 005e 3268     		ldr	r2, [r6]
 728 0060 1368     		ldr	r3, [r2]
 729 0062 43F00303 		orr	r3, r3, #3
 730 0066 1360     		str	r3, [r2]
 467:Drivers/STM32F7xx_HAL_Driver/Src/stm32f7xx_hal_spdifrx.c ****     {     
 731              		.loc 1 467 5 view .LVU213
 732              	.LVL40:
 733              	.L44:
 467:Drivers/STM32F7xx_HAL_Driver/Src/stm32f7xx_hal_spdifrx.c ****     {     
 734              		.loc 1 467 10 view .LVU214
 735 0068 95B1     		cbz	r5, .L52
 470:Drivers/STM32F7xx_HAL_Driver/Src/stm32f7xx_hal_spdifrx.c ****       
 736              		.loc 1 470 7 view .LVU215
 470:Drivers/STM32F7xx_HAL_Driver/Src/stm32f7xx_hal_spdifrx.c ****       
 737              		.loc 1 470 19 is_stmt 0 view .LVU216
 738 006a FFF7FEFF 		bl	HAL_GetTick
 739              	.LVL41:
 473:Drivers/STM32F7xx_HAL_Driver/Src/stm32f7xx_hal_spdifrx.c ****       { 
 740              		.loc 1 473 7 is_stmt 1 view .LVU217
 473:Drivers/STM32F7xx_HAL_Driver/Src/stm32f7xx_hal_spdifrx.c ****       { 
 741              		.loc 1 473 10 is_stmt 0 view .LVU218
 742 006e 0090     		str	r0, [sp]
 743 0070 3B46     		mov	r3, r7
 744 0072 0022     		movs	r2, #0
 745 0074 0121     		movs	r1, #1
 746 0076 3046     		mov	r0, r6
 747              	.LVL42:
 473:Drivers/STM32F7xx_HAL_Driver/Src/stm32f7xx_hal_spdifrx.c ****       { 
 748              		.loc 1 473 10 view .LVU219
ARM GAS  C:\Users\Nina\AppData\Local\Temp\ccfkNb9x.s 			page 39


 749 0078 FFF7FEFF 		bl	SPDIFRX_WaitOnFlagUntilTimeout
 750              	.LVL43:
 473:Drivers/STM32F7xx_HAL_Driver/Src/stm32f7xx_hal_spdifrx.c ****       { 
 751              		.loc 1 473 9 view .LVU220
 752 007c F0B9     		cbnz	r0, .L50
 478:Drivers/STM32F7xx_HAL_Driver/Src/stm32f7xx_hal_spdifrx.c ****       Size--; 
 753              		.loc 1 478 7 is_stmt 1 view .LVU221
 478:Drivers/STM32F7xx_HAL_Driver/Src/stm32f7xx_hal_spdifrx.c ****       Size--; 
 754              		.loc 1 478 26 is_stmt 0 view .LVU222
 755 007e 3368     		ldr	r3, [r6]
 478:Drivers/STM32F7xx_HAL_Driver/Src/stm32f7xx_hal_spdifrx.c ****       Size--; 
 756              		.loc 1 478 14 view .LVU223
 757 0080 2246     		mov	r2, r4
 758              	.LVL44:
 478:Drivers/STM32F7xx_HAL_Driver/Src/stm32f7xx_hal_spdifrx.c ****       Size--; 
 759              		.loc 1 478 36 view .LVU224
 760 0082 1B69     		ldr	r3, [r3, #16]
 478:Drivers/STM32F7xx_HAL_Driver/Src/stm32f7xx_hal_spdifrx.c ****       Size--; 
 761              		.loc 1 478 18 view .LVU225
 762 0084 42F8043B 		str	r3, [r2], #4
 763              	.LVL45:
 479:Drivers/STM32F7xx_HAL_Driver/Src/stm32f7xx_hal_spdifrx.c ****     }      
 764              		.loc 1 479 7 is_stmt 1 view .LVU226
 479:Drivers/STM32F7xx_HAL_Driver/Src/stm32f7xx_hal_spdifrx.c ****     }      
 765              		.loc 1 479 11 is_stmt 0 view .LVU227
 766 0088 013D     		subs	r5, r5, #1
 767              	.LVL46:
 479:Drivers/STM32F7xx_HAL_Driver/Src/stm32f7xx_hal_spdifrx.c ****     }      
 768              		.loc 1 479 11 view .LVU228
 769 008a ADB2     		uxth	r5, r5
 770              	.LVL47:
 478:Drivers/STM32F7xx_HAL_Driver/Src/stm32f7xx_hal_spdifrx.c ****       Size--; 
 771              		.loc 1 478 14 view .LVU229
 772 008c 1446     		mov	r4, r2
 773 008e EBE7     		b	.L44
 774              	.LVL48:
 775              	.L52:
 483:Drivers/STM32F7xx_HAL_Driver/Src/stm32f7xx_hal_spdifrx.c ****     
 776              		.loc 1 483 5 is_stmt 1 view .LVU230
 483:Drivers/STM32F7xx_HAL_Driver/Src/stm32f7xx_hal_spdifrx.c ****     
 777              		.loc 1 483 19 is_stmt 0 view .LVU231
 778 0090 0123     		movs	r3, #1
 779 0092 86F84530 		strb	r3, [r6, #69]
 486:Drivers/STM32F7xx_HAL_Driver/Src/stm32f7xx_hal_spdifrx.c ****     
 780              		.loc 1 486 5 is_stmt 1 view .LVU232
 486:Drivers/STM32F7xx_HAL_Driver/Src/stm32f7xx_hal_spdifrx.c ****     
 781              		.loc 1 486 5 view .LVU233
 782 0096 0023     		movs	r3, #0
 783 0098 86F84430 		strb	r3, [r6, #68]
 486:Drivers/STM32F7xx_HAL_Driver/Src/stm32f7xx_hal_spdifrx.c ****     
 784              		.loc 1 486 5 view .LVU234
 488:Drivers/STM32F7xx_HAL_Driver/Src/stm32f7xx_hal_spdifrx.c ****   }
 785              		.loc 1 488 5 view .LVU235
 488:Drivers/STM32F7xx_HAL_Driver/Src/stm32f7xx_hal_spdifrx.c ****   }
 786              		.loc 1 488 12 is_stmt 0 view .LVU236
 787 009c 01E0     		b	.L43
 788              	.LVL49:
ARM GAS  C:\Users\Nina\AppData\Local\Temp\ccfkNb9x.s 			page 40


 789              	.L46:
 441:Drivers/STM32F7xx_HAL_Driver/Src/stm32f7xx_hal_spdifrx.c ****   }
 790              		.loc 1 441 13 view .LVU237
 791 009e 4FF00108 		mov	r8, #1
 792              	.LVL50:
 793              	.L43:
 494:Drivers/STM32F7xx_HAL_Driver/Src/stm32f7xx_hal_spdifrx.c **** 
 794              		.loc 1 494 1 view .LVU238
 795 00a2 4046     		mov	r0, r8
 796 00a4 02B0     		add	sp, sp, #8
 797              	.LCFI12:
 798              		.cfi_remember_state
 799              		.cfi_def_cfa_offset 24
 800              		@ sp needed
 801 00a6 BDE8F081 		pop	{r4, r5, r6, r7, r8, pc}
 802              	.LVL51:
 803              	.L47:
 804              	.LCFI13:
 805              		.cfi_restore_state
 492:Drivers/STM32F7xx_HAL_Driver/Src/stm32f7xx_hal_spdifrx.c ****   }
 806              		.loc 1 492 12 view .LVU239
 807 00aa 4FF00208 		mov	r8, #2
 808 00ae F8E7     		b	.L43
 809              	.L48:
 447:Drivers/STM32F7xx_HAL_Driver/Src/stm32f7xx_hal_spdifrx.c ****     
 810              		.loc 1 447 5 view .LVU240
 811 00b0 4FF00208 		mov	r8, #2
 812 00b4 F5E7     		b	.L43
 813              	.LVL52:
 814              	.L49:
 460:Drivers/STM32F7xx_HAL_Driver/Src/stm32f7xx_hal_spdifrx.c ****     }  
 815              		.loc 1 460 14 view .LVU241
 816 00b6 4FF00308 		mov	r8, #3
 817 00ba F2E7     		b	.L43
 818              	.LVL53:
 819              	.L50:
 475:Drivers/STM32F7xx_HAL_Driver/Src/stm32f7xx_hal_spdifrx.c ****       }  
 820              		.loc 1 475 16 view .LVU242
 821 00bc 4FF00308 		mov	r8, #3
 822 00c0 EFE7     		b	.L43
 823              		.cfi_endproc
 824              	.LFE143:
 826              		.section	.text.HAL_SPDIFRX_ReceiveControlFlow,"ax",%progbits
 827              		.align	1
 828              		.global	HAL_SPDIFRX_ReceiveControlFlow
 829              		.syntax unified
 830              		.thumb
 831              		.thumb_func
 832              		.fpu fpv5-sp-d16
 834              	HAL_SPDIFRX_ReceiveControlFlow:
 835              	.LVL54:
 836              	.LFB144:
 506:Drivers/STM32F7xx_HAL_Driver/Src/stm32f7xx_hal_spdifrx.c ****   uint32_t tickstart = 0U;
 837              		.loc 1 506 1 is_stmt 1 view -0
 838              		.cfi_startproc
 839              		@ args = 0, pretend = 0, frame = 0
 840              		@ frame_needed = 0, uses_anonymous_args = 0
ARM GAS  C:\Users\Nina\AppData\Local\Temp\ccfkNb9x.s 			page 41


 506:Drivers/STM32F7xx_HAL_Driver/Src/stm32f7xx_hal_spdifrx.c ****   uint32_t tickstart = 0U;
 841              		.loc 1 506 1 is_stmt 0 view .LVU244
 842 0000 2DE9F041 		push	{r4, r5, r6, r7, r8, lr}
 843              	.LCFI14:
 844              		.cfi_def_cfa_offset 24
 845              		.cfi_offset 4, -24
 846              		.cfi_offset 5, -20
 847              		.cfi_offset 6, -16
 848              		.cfi_offset 7, -12
 849              		.cfi_offset 8, -8
 850              		.cfi_offset 14, -4
 851 0004 82B0     		sub	sp, sp, #8
 852              	.LCFI15:
 853              		.cfi_def_cfa_offset 32
 507:Drivers/STM32F7xx_HAL_Driver/Src/stm32f7xx_hal_spdifrx.c ****   
 854              		.loc 1 507 3 is_stmt 1 view .LVU245
 855              	.LVL55:
 509:Drivers/STM32F7xx_HAL_Driver/Src/stm32f7xx_hal_spdifrx.c ****   {
 856              		.loc 1 509 3 view .LVU246
 509:Drivers/STM32F7xx_HAL_Driver/Src/stm32f7xx_hal_spdifrx.c ****   {
 857              		.loc 1 509 32 is_stmt 0 view .LVU247
 858 0006 1546     		mov	r5, r2
 859 0008 B2FA82F2 		clz	r2, r2
 860              	.LVL56:
 509:Drivers/STM32F7xx_HAL_Driver/Src/stm32f7xx_hal_spdifrx.c ****   {
 861              		.loc 1 509 32 view .LVU248
 862 000c 5209     		lsrs	r2, r2, #5
 509:Drivers/STM32F7xx_HAL_Driver/Src/stm32f7xx_hal_spdifrx.c ****   {
 863              		.loc 1 509 23 view .LVU249
 864 000e 0029     		cmp	r1, #0
 865 0010 08BF     		it	eq
 866 0012 0122     		moveq	r2, #1
 509:Drivers/STM32F7xx_HAL_Driver/Src/stm32f7xx_hal_spdifrx.c ****   {
 867              		.loc 1 509 5 view .LVU250
 868 0014 002A     		cmp	r2, #0
 869 0016 42D1     		bne	.L57
 870 0018 0646     		mov	r6, r0
 871 001a 1F46     		mov	r7, r3
 872 001c 0C46     		mov	r4, r1
 514:Drivers/STM32F7xx_HAL_Driver/Src/stm32f7xx_hal_spdifrx.c ****   { 
 873              		.loc 1 514 3 is_stmt 1 view .LVU251
 514:Drivers/STM32F7xx_HAL_Driver/Src/stm32f7xx_hal_spdifrx.c ****   { 
 874              		.loc 1 514 12 is_stmt 0 view .LVU252
 875 001e 90F84530 		ldrb	r3, [r0, #69]	@ zero_extendqisi2
 876              	.LVL57:
 514:Drivers/STM32F7xx_HAL_Driver/Src/stm32f7xx_hal_spdifrx.c ****   { 
 877              		.loc 1 514 12 view .LVU253
 878 0022 DBB2     		uxtb	r3, r3
 514:Drivers/STM32F7xx_HAL_Driver/Src/stm32f7xx_hal_spdifrx.c ****   { 
 879              		.loc 1 514 5 view .LVU254
 880 0024 012B     		cmp	r3, #1
 881 0026 40D1     		bne	.L58
 517:Drivers/STM32F7xx_HAL_Driver/Src/stm32f7xx_hal_spdifrx.c ****     
 882              		.loc 1 517 5 is_stmt 1 view .LVU255
 517:Drivers/STM32F7xx_HAL_Driver/Src/stm32f7xx_hal_spdifrx.c ****     
 883              		.loc 1 517 5 view .LVU256
 884 0028 90F84430 		ldrb	r3, [r0, #68]	@ zero_extendqisi2
ARM GAS  C:\Users\Nina\AppData\Local\Temp\ccfkNb9x.s 			page 42


 885 002c DBB2     		uxtb	r3, r3
 886 002e 012B     		cmp	r3, #1
 887 0030 3ED0     		beq	.L59
 517:Drivers/STM32F7xx_HAL_Driver/Src/stm32f7xx_hal_spdifrx.c ****     
 888              		.loc 1 517 5 discriminator 2 view .LVU257
 889 0032 0123     		movs	r3, #1
 890 0034 80F84430 		strb	r3, [r0, #68]
 517:Drivers/STM32F7xx_HAL_Driver/Src/stm32f7xx_hal_spdifrx.c ****     
 891              		.loc 1 517 5 discriminator 2 view .LVU258
 519:Drivers/STM32F7xx_HAL_Driver/Src/stm32f7xx_hal_spdifrx.c ****     
 892              		.loc 1 519 5 discriminator 2 view .LVU259
 519:Drivers/STM32F7xx_HAL_Driver/Src/stm32f7xx_hal_spdifrx.c ****     
 893              		.loc 1 519 19 is_stmt 0 discriminator 2 view .LVU260
 894 0038 0223     		movs	r3, #2
 895 003a 80F84530 		strb	r3, [r0, #69]
 522:Drivers/STM32F7xx_HAL_Driver/Src/stm32f7xx_hal_spdifrx.c ****     
 896              		.loc 1 522 5 is_stmt 1 discriminator 2 view .LVU261
 897 003e 0268     		ldr	r2, [r0]
 898 0040 1368     		ldr	r3, [r2]
 899 0042 43F00103 		orr	r3, r3, #1
 900 0046 1360     		str	r3, [r2]
 525:Drivers/STM32F7xx_HAL_Driver/Src/stm32f7xx_hal_spdifrx.c ****     
 901              		.loc 1 525 5 discriminator 2 view .LVU262
 525:Drivers/STM32F7xx_HAL_Driver/Src/stm32f7xx_hal_spdifrx.c ****     
 902              		.loc 1 525 17 is_stmt 0 discriminator 2 view .LVU263
 903 0048 FFF7FEFF 		bl	HAL_GetTick
 904              	.LVL58:
 528:Drivers/STM32F7xx_HAL_Driver/Src/stm32f7xx_hal_spdifrx.c ****     { 
 905              		.loc 1 528 5 is_stmt 1 discriminator 2 view .LVU264
 528:Drivers/STM32F7xx_HAL_Driver/Src/stm32f7xx_hal_spdifrx.c ****     { 
 906              		.loc 1 528 8 is_stmt 0 discriminator 2 view .LVU265
 907 004c 0090     		str	r0, [sp]
 908 004e 3B46     		mov	r3, r7
 909 0050 0022     		movs	r2, #0
 910 0052 2021     		movs	r1, #32
 911 0054 3046     		mov	r0, r6
 912              	.LVL59:
 528:Drivers/STM32F7xx_HAL_Driver/Src/stm32f7xx_hal_spdifrx.c ****     { 
 913              		.loc 1 528 8 discriminator 2 view .LVU266
 914 0056 FFF7FEFF 		bl	SPDIFRX_WaitOnFlagUntilTimeout
 915              	.LVL60:
 528:Drivers/STM32F7xx_HAL_Driver/Src/stm32f7xx_hal_spdifrx.c ****     { 
 916              		.loc 1 528 7 discriminator 2 view .LVU267
 917 005a 8046     		mov	r8, r0
 918 005c 58BB     		cbnz	r0, .L60
 534:Drivers/STM32F7xx_HAL_Driver/Src/stm32f7xx_hal_spdifrx.c ****     
 919              		.loc 1 534 5 is_stmt 1 view .LVU268
 920 005e 3268     		ldr	r2, [r6]
 921 0060 1368     		ldr	r3, [r2]
 922 0062 43F00303 		orr	r3, r3, #3
 923 0066 1360     		str	r3, [r2]
 537:Drivers/STM32F7xx_HAL_Driver/Src/stm32f7xx_hal_spdifrx.c ****     {      
 924              		.loc 1 537 5 view .LVU269
 925              	.LVL61:
 926              	.L55:
 537:Drivers/STM32F7xx_HAL_Driver/Src/stm32f7xx_hal_spdifrx.c ****     {      
 927              		.loc 1 537 10 view .LVU270
ARM GAS  C:\Users\Nina\AppData\Local\Temp\ccfkNb9x.s 			page 43


 928 0068 95B1     		cbz	r5, .L63
 540:Drivers/STM32F7xx_HAL_Driver/Src/stm32f7xx_hal_spdifrx.c ****       
 929              		.loc 1 540 7 view .LVU271
 540:Drivers/STM32F7xx_HAL_Driver/Src/stm32f7xx_hal_spdifrx.c ****       
 930              		.loc 1 540 19 is_stmt 0 view .LVU272
 931 006a FFF7FEFF 		bl	HAL_GetTick
 932              	.LVL62:
 543:Drivers/STM32F7xx_HAL_Driver/Src/stm32f7xx_hal_spdifrx.c ****       { 
 933              		.loc 1 543 7 is_stmt 1 view .LVU273
 543:Drivers/STM32F7xx_HAL_Driver/Src/stm32f7xx_hal_spdifrx.c ****       { 
 934              		.loc 1 543 10 is_stmt 0 view .LVU274
 935 006e 0090     		str	r0, [sp]
 936 0070 3B46     		mov	r3, r7
 937 0072 0022     		movs	r2, #0
 938 0074 0221     		movs	r1, #2
 939 0076 3046     		mov	r0, r6
 940              	.LVL63:
 543:Drivers/STM32F7xx_HAL_Driver/Src/stm32f7xx_hal_spdifrx.c ****       { 
 941              		.loc 1 543 10 view .LVU275
 942 0078 FFF7FEFF 		bl	SPDIFRX_WaitOnFlagUntilTimeout
 943              	.LVL64:
 543:Drivers/STM32F7xx_HAL_Driver/Src/stm32f7xx_hal_spdifrx.c ****       { 
 944              		.loc 1 543 9 view .LVU276
 945 007c F0B9     		cbnz	r0, .L61
 548:Drivers/STM32F7xx_HAL_Driver/Src/stm32f7xx_hal_spdifrx.c ****       Size--; 
 946              		.loc 1 548 7 is_stmt 1 view .LVU277
 548:Drivers/STM32F7xx_HAL_Driver/Src/stm32f7xx_hal_spdifrx.c ****       Size--; 
 947              		.loc 1 548 26 is_stmt 0 view .LVU278
 948 007e 3368     		ldr	r3, [r6]
 548:Drivers/STM32F7xx_HAL_Driver/Src/stm32f7xx_hal_spdifrx.c ****       Size--; 
 949              		.loc 1 548 14 view .LVU279
 950 0080 2246     		mov	r2, r4
 951              	.LVL65:
 548:Drivers/STM32F7xx_HAL_Driver/Src/stm32f7xx_hal_spdifrx.c ****       Size--; 
 952              		.loc 1 548 36 view .LVU280
 953 0082 5B69     		ldr	r3, [r3, #20]
 548:Drivers/STM32F7xx_HAL_Driver/Src/stm32f7xx_hal_spdifrx.c ****       Size--; 
 954              		.loc 1 548 18 view .LVU281
 955 0084 42F8043B 		str	r3, [r2], #4
 956              	.LVL66:
 549:Drivers/STM32F7xx_HAL_Driver/Src/stm32f7xx_hal_spdifrx.c ****     }      
 957              		.loc 1 549 7 is_stmt 1 view .LVU282
 549:Drivers/STM32F7xx_HAL_Driver/Src/stm32f7xx_hal_spdifrx.c ****     }      
 958              		.loc 1 549 11 is_stmt 0 view .LVU283
 959 0088 013D     		subs	r5, r5, #1
 960              	.LVL67:
 549:Drivers/STM32F7xx_HAL_Driver/Src/stm32f7xx_hal_spdifrx.c ****     }      
 961              		.loc 1 549 11 view .LVU284
 962 008a ADB2     		uxth	r5, r5
 963              	.LVL68:
 548:Drivers/STM32F7xx_HAL_Driver/Src/stm32f7xx_hal_spdifrx.c ****       Size--; 
 964              		.loc 1 548 14 view .LVU285
 965 008c 1446     		mov	r4, r2
 966 008e EBE7     		b	.L55
 967              	.LVL69:
 968              	.L63:
 553:Drivers/STM32F7xx_HAL_Driver/Src/stm32f7xx_hal_spdifrx.c ****     
ARM GAS  C:\Users\Nina\AppData\Local\Temp\ccfkNb9x.s 			page 44


 969              		.loc 1 553 5 is_stmt 1 view .LVU286
 553:Drivers/STM32F7xx_HAL_Driver/Src/stm32f7xx_hal_spdifrx.c ****     
 970              		.loc 1 553 19 is_stmt 0 view .LVU287
 971 0090 0123     		movs	r3, #1
 972 0092 86F84530 		strb	r3, [r6, #69]
 556:Drivers/STM32F7xx_HAL_Driver/Src/stm32f7xx_hal_spdifrx.c ****     
 973              		.loc 1 556 5 is_stmt 1 view .LVU288
 556:Drivers/STM32F7xx_HAL_Driver/Src/stm32f7xx_hal_spdifrx.c ****     
 974              		.loc 1 556 5 view .LVU289
 975 0096 0023     		movs	r3, #0
 976 0098 86F84430 		strb	r3, [r6, #68]
 556:Drivers/STM32F7xx_HAL_Driver/Src/stm32f7xx_hal_spdifrx.c ****     
 977              		.loc 1 556 5 view .LVU290
 558:Drivers/STM32F7xx_HAL_Driver/Src/stm32f7xx_hal_spdifrx.c ****   }
 978              		.loc 1 558 5 view .LVU291
 558:Drivers/STM32F7xx_HAL_Driver/Src/stm32f7xx_hal_spdifrx.c ****   }
 979              		.loc 1 558 12 is_stmt 0 view .LVU292
 980 009c 01E0     		b	.L54
 981              	.LVL70:
 982              	.L57:
 511:Drivers/STM32F7xx_HAL_Driver/Src/stm32f7xx_hal_spdifrx.c ****   }
 983              		.loc 1 511 13 view .LVU293
 984 009e 4FF00108 		mov	r8, #1
 985              	.LVL71:
 986              	.L54:
 564:Drivers/STM32F7xx_HAL_Driver/Src/stm32f7xx_hal_spdifrx.c **** 
 987              		.loc 1 564 1 view .LVU294
 988 00a2 4046     		mov	r0, r8
 989 00a4 02B0     		add	sp, sp, #8
 990              	.LCFI16:
 991              		.cfi_remember_state
 992              		.cfi_def_cfa_offset 24
 993              		@ sp needed
 994 00a6 BDE8F081 		pop	{r4, r5, r6, r7, r8, pc}
 995              	.LVL72:
 996              	.L58:
 997              	.LCFI17:
 998              		.cfi_restore_state
 562:Drivers/STM32F7xx_HAL_Driver/Src/stm32f7xx_hal_spdifrx.c ****   }
 999              		.loc 1 562 12 view .LVU295
 1000 00aa 4FF00208 		mov	r8, #2
 1001 00ae F8E7     		b	.L54
 1002              	.L59:
 517:Drivers/STM32F7xx_HAL_Driver/Src/stm32f7xx_hal_spdifrx.c ****     
 1003              		.loc 1 517 5 view .LVU296
 1004 00b0 4FF00208 		mov	r8, #2
 1005 00b4 F5E7     		b	.L54
 1006              	.LVL73:
 1007              	.L60:
 530:Drivers/STM32F7xx_HAL_Driver/Src/stm32f7xx_hal_spdifrx.c ****     }  
 1008              		.loc 1 530 14 view .LVU297
 1009 00b6 4FF00308 		mov	r8, #3
 1010 00ba F2E7     		b	.L54
 1011              	.LVL74:
 1012              	.L61:
 545:Drivers/STM32F7xx_HAL_Driver/Src/stm32f7xx_hal_spdifrx.c ****       }  
 1013              		.loc 1 545 16 view .LVU298
ARM GAS  C:\Users\Nina\AppData\Local\Temp\ccfkNb9x.s 			page 45


 1014 00bc 4FF00308 		mov	r8, #3
 1015 00c0 EFE7     		b	.L54
 1016              		.cfi_endproc
 1017              	.LFE144:
 1019              		.section	.text.HAL_SPDIFRX_ReceiveDataFlow_IT,"ax",%progbits
 1020              		.align	1
 1021              		.global	HAL_SPDIFRX_ReceiveDataFlow_IT
 1022              		.syntax unified
 1023              		.thumb
 1024              		.thumb_func
 1025              		.fpu fpv5-sp-d16
 1027              	HAL_SPDIFRX_ReceiveDataFlow_IT:
 1028              	.LVL75:
 1029              	.LFB145:
 574:Drivers/STM32F7xx_HAL_Driver/Src/stm32f7xx_hal_spdifrx.c ****   uint32_t tickstart = 0U;
 1030              		.loc 1 574 1 is_stmt 1 view -0
 1031              		.cfi_startproc
 1032              		@ args = 0, pretend = 0, frame = 0
 1033              		@ frame_needed = 0, uses_anonymous_args = 0
 574:Drivers/STM32F7xx_HAL_Driver/Src/stm32f7xx_hal_spdifrx.c ****   uint32_t tickstart = 0U;
 1034              		.loc 1 574 1 is_stmt 0 view .LVU300
 1035 0000 10B5     		push	{r4, lr}
 1036              	.LCFI18:
 1037              		.cfi_def_cfa_offset 8
 1038              		.cfi_offset 4, -8
 1039              		.cfi_offset 14, -4
 1040 0002 82B0     		sub	sp, sp, #8
 1041              	.LCFI19:
 1042              		.cfi_def_cfa_offset 16
 1043 0004 0446     		mov	r4, r0
 575:Drivers/STM32F7xx_HAL_Driver/Src/stm32f7xx_hal_spdifrx.c ****   
 1044              		.loc 1 575 3 is_stmt 1 view .LVU301
 1045              	.LVL76:
 577:Drivers/STM32F7xx_HAL_Driver/Src/stm32f7xx_hal_spdifrx.c ****   {
 1046              		.loc 1 577 3 view .LVU302
 577:Drivers/STM32F7xx_HAL_Driver/Src/stm32f7xx_hal_spdifrx.c ****   {
 1047              		.loc 1 577 13 is_stmt 0 view .LVU303
 1048 0006 90F84530 		ldrb	r3, [r0, #69]	@ zero_extendqisi2
 1049 000a DBB2     		uxtb	r3, r3
 577:Drivers/STM32F7xx_HAL_Driver/Src/stm32f7xx_hal_spdifrx.c ****   {
 1050              		.loc 1 577 5 view .LVU304
 1051 000c 012B     		cmp	r3, #1
 1052 000e 04D0     		beq	.L65
 577:Drivers/STM32F7xx_HAL_Driver/Src/stm32f7xx_hal_spdifrx.c ****   {
 1053              		.loc 1 577 59 discriminator 1 view .LVU305
 1054 0010 90F84530 		ldrb	r3, [r0, #69]	@ zero_extendqisi2
 1055 0014 DBB2     		uxtb	r3, r3
 577:Drivers/STM32F7xx_HAL_Driver/Src/stm32f7xx_hal_spdifrx.c ****   {
 1056              		.loc 1 577 49 discriminator 1 view .LVU306
 1057 0016 042B     		cmp	r3, #4
 1058 0018 4DD1     		bne	.L69
 1059              	.L65:
 579:Drivers/STM32F7xx_HAL_Driver/Src/stm32f7xx_hal_spdifrx.c ****     {
 1060              		.loc 1 579 5 is_stmt 1 view .LVU307
 579:Drivers/STM32F7xx_HAL_Driver/Src/stm32f7xx_hal_spdifrx.c ****     {
 1061              		.loc 1 579 33 is_stmt 0 view .LVU308
 1062 001a B2FA82F3 		clz	r3, r2
ARM GAS  C:\Users\Nina\AppData\Local\Temp\ccfkNb9x.s 			page 46


 1063 001e 5B09     		lsrs	r3, r3, #5
 579:Drivers/STM32F7xx_HAL_Driver/Src/stm32f7xx_hal_spdifrx.c ****     {
 1064              		.loc 1 579 24 view .LVU309
 1065 0020 0029     		cmp	r1, #0
 1066 0022 08BF     		it	eq
 1067 0024 0123     		moveq	r3, #1
 579:Drivers/STM32F7xx_HAL_Driver/Src/stm32f7xx_hal_spdifrx.c ****     {
 1068              		.loc 1 579 7 view .LVU310
 1069 0026 002B     		cmp	r3, #0
 1070 0028 47D1     		bne	.L70
 585:Drivers/STM32F7xx_HAL_Driver/Src/stm32f7xx_hal_spdifrx.c ****     
 1071              		.loc 1 585 5 is_stmt 1 view .LVU311
 585:Drivers/STM32F7xx_HAL_Driver/Src/stm32f7xx_hal_spdifrx.c ****     
 1072              		.loc 1 585 5 view .LVU312
 1073 002a 94F84430 		ldrb	r3, [r4, #68]	@ zero_extendqisi2
 1074 002e DBB2     		uxtb	r3, r3
 1075 0030 012B     		cmp	r3, #1
 1076 0032 44D0     		beq	.L71
 585:Drivers/STM32F7xx_HAL_Driver/Src/stm32f7xx_hal_spdifrx.c ****     
 1077              		.loc 1 585 5 discriminator 2 view .LVU313
 1078 0034 0123     		movs	r3, #1
 1079 0036 84F84430 		strb	r3, [r4, #68]
 585:Drivers/STM32F7xx_HAL_Driver/Src/stm32f7xx_hal_spdifrx.c ****     
 1080              		.loc 1 585 5 discriminator 2 view .LVU314
 587:Drivers/STM32F7xx_HAL_Driver/Src/stm32f7xx_hal_spdifrx.c ****     hspdif->RxXferSize = Size;
 1081              		.loc 1 587 5 discriminator 2 view .LVU315
 587:Drivers/STM32F7xx_HAL_Driver/Src/stm32f7xx_hal_spdifrx.c ****     hspdif->RxXferSize = Size;
 1082              		.loc 1 587 24 is_stmt 0 discriminator 2 view .LVU316
 1083 003a E162     		str	r1, [r4, #44]
 588:Drivers/STM32F7xx_HAL_Driver/Src/stm32f7xx_hal_spdifrx.c ****     hspdif->RxXferCount = Size;
 1084              		.loc 1 588 5 is_stmt 1 discriminator 2 view .LVU317
 588:Drivers/STM32F7xx_HAL_Driver/Src/stm32f7xx_hal_spdifrx.c ****     hspdif->RxXferCount = Size;
 1085              		.loc 1 588 24 is_stmt 0 discriminator 2 view .LVU318
 1086 003c A286     		strh	r2, [r4, #52]	@ movhi
 589:Drivers/STM32F7xx_HAL_Driver/Src/stm32f7xx_hal_spdifrx.c ****     
 1087              		.loc 1 589 5 is_stmt 1 discriminator 2 view .LVU319
 589:Drivers/STM32F7xx_HAL_Driver/Src/stm32f7xx_hal_spdifrx.c ****     
 1088              		.loc 1 589 25 is_stmt 0 discriminator 2 view .LVU320
 1089 003e E286     		strh	r2, [r4, #54]	@ movhi
 591:Drivers/STM32F7xx_HAL_Driver/Src/stm32f7xx_hal_spdifrx.c ****     
 1090              		.loc 1 591 5 is_stmt 1 discriminator 2 view .LVU321
 591:Drivers/STM32F7xx_HAL_Driver/Src/stm32f7xx_hal_spdifrx.c ****     
 1091              		.loc 1 591 23 is_stmt 0 discriminator 2 view .LVU322
 1092 0040 0022     		movs	r2, #0
 1093              	.LVL77:
 591:Drivers/STM32F7xx_HAL_Driver/Src/stm32f7xx_hal_spdifrx.c ****     
 1094              		.loc 1 591 23 discriminator 2 view .LVU323
 1095 0042 A264     		str	r2, [r4, #72]
 1096              	.LVL78:
 594:Drivers/STM32F7xx_HAL_Driver/Src/stm32f7xx_hal_spdifrx.c ****     
 1097              		.loc 1 594 5 is_stmt 1 discriminator 2 view .LVU324
 594:Drivers/STM32F7xx_HAL_Driver/Src/stm32f7xx_hal_spdifrx.c ****     
 1098              		.loc 1 594 19 is_stmt 0 discriminator 2 view .LVU325
 1099 0044 0323     		movs	r3, #3
 1100 0046 84F84530 		strb	r3, [r4, #69]
 598:Drivers/STM32F7xx_HAL_Driver/Src/stm32f7xx_hal_spdifrx.c ****     
 1101              		.loc 1 598 5 is_stmt 1 discriminator 2 view .LVU326
ARM GAS  C:\Users\Nina\AppData\Local\Temp\ccfkNb9x.s 			page 47


 1102 004a 2168     		ldr	r1, [r4]
 1103              	.LVL79:
 598:Drivers/STM32F7xx_HAL_Driver/Src/stm32f7xx_hal_spdifrx.c ****     
 1104              		.loc 1 598 5 is_stmt 0 discriminator 2 view .LVU327
 1105 004c 4B68     		ldr	r3, [r1, #4]
 1106 004e 43F00403 		orr	r3, r3, #4
 1107 0052 4B60     		str	r3, [r1, #4]
 1108              	.LVL80:
 601:Drivers/STM32F7xx_HAL_Driver/Src/stm32f7xx_hal_spdifrx.c ****     
 1109              		.loc 1 601 5 is_stmt 1 discriminator 2 view .LVU328
 1110 0054 2168     		ldr	r1, [r4]
 1111 0056 4B68     		ldr	r3, [r1, #4]
 1112 0058 43F00803 		orr	r3, r3, #8
 1113 005c 4B60     		str	r3, [r1, #4]
 604:Drivers/STM32F7xx_HAL_Driver/Src/stm32f7xx_hal_spdifrx.c ****     
 1114              		.loc 1 604 5 discriminator 2 view .LVU329
 604:Drivers/STM32F7xx_HAL_Driver/Src/stm32f7xx_hal_spdifrx.c ****     
 1115              		.loc 1 604 5 discriminator 2 view .LVU330
 1116 005e 84F84420 		strb	r2, [r4, #68]
 604:Drivers/STM32F7xx_HAL_Driver/Src/stm32f7xx_hal_spdifrx.c ****     
 1117              		.loc 1 604 5 discriminator 2 view .LVU331
 607:Drivers/STM32F7xx_HAL_Driver/Src/stm32f7xx_hal_spdifrx.c ****     
 1118              		.loc 1 607 5 discriminator 2 view .LVU332
 1119 0062 2268     		ldr	r2, [r4]
 1120 0064 5368     		ldr	r3, [r2, #4]
 1121 0066 43F00103 		orr	r3, r3, #1
 1122 006a 5360     		str	r3, [r2, #4]
 609:Drivers/STM32F7xx_HAL_Driver/Src/stm32f7xx_hal_spdifrx.c ****     {
 1123              		.loc 1 609 5 discriminator 2 view .LVU333
 609:Drivers/STM32F7xx_HAL_Driver/Src/stm32f7xx_hal_spdifrx.c ****     {
 1124              		.loc 1 609 18 is_stmt 0 discriminator 2 view .LVU334
 1125 006c 4FF04023 		mov	r3, #1073758208
 1126 0070 1B68     		ldr	r3, [r3]
 609:Drivers/STM32F7xx_HAL_Driver/Src/stm32f7xx_hal_spdifrx.c ****     {
 1127              		.loc 1 609 23 discriminator 2 view .LVU335
 1128 0072 03F00303 		and	r3, r3, #3
 609:Drivers/STM32F7xx_HAL_Driver/Src/stm32f7xx_hal_spdifrx.c ****     {
 1129              		.loc 1 609 8 discriminator 2 view .LVU336
 1130 0076 012B     		cmp	r3, #1
 1131 0078 05D1     		bne	.L67
 609:Drivers/STM32F7xx_HAL_Driver/Src/stm32f7xx_hal_spdifrx.c ****     {
 1132              		.loc 1 609 80 discriminator 1 view .LVU337
 1133 007a 4FF04023 		mov	r3, #1073758208
 1134 007e 1B68     		ldr	r3, [r3]
 609:Drivers/STM32F7xx_HAL_Driver/Src/stm32f7xx_hal_spdifrx.c ****     {
 1135              		.loc 1 609 68 discriminator 1 view .LVU338
 1136 0080 13F0030F 		tst	r3, #3
 1137 0084 14D0     		beq	.L68
 1138              	.L67:
 612:Drivers/STM32F7xx_HAL_Driver/Src/stm32f7xx_hal_spdifrx.c ****       
 1139              		.loc 1 612 7 is_stmt 1 view .LVU339
 1140 0086 2268     		ldr	r2, [r4]
 1141 0088 1368     		ldr	r3, [r2]
 1142 008a 43F00103 		orr	r3, r3, #1
 1143 008e 1360     		str	r3, [r2]
 615:Drivers/STM32F7xx_HAL_Driver/Src/stm32f7xx_hal_spdifrx.c ****       
 1144              		.loc 1 615 7 view .LVU340
ARM GAS  C:\Users\Nina\AppData\Local\Temp\ccfkNb9x.s 			page 48


 615:Drivers/STM32F7xx_HAL_Driver/Src/stm32f7xx_hal_spdifrx.c ****       
 1145              		.loc 1 615 19 is_stmt 0 view .LVU341
 1146 0090 FFF7FEFF 		bl	HAL_GetTick
 1147              	.LVL81:
 618:Drivers/STM32F7xx_HAL_Driver/Src/stm32f7xx_hal_spdifrx.c ****       { 
 1148              		.loc 1 618 7 is_stmt 1 view .LVU342
 618:Drivers/STM32F7xx_HAL_Driver/Src/stm32f7xx_hal_spdifrx.c ****       { 
 1149              		.loc 1 618 10 is_stmt 0 view .LVU343
 1150 0094 0090     		str	r0, [sp]
 1151 0096 4FF6FF73 		movw	r3, #65535
 1152 009a 0022     		movs	r2, #0
 1153 009c 2021     		movs	r1, #32
 1154 009e 2046     		mov	r0, r4
 1155              	.LVL82:
 618:Drivers/STM32F7xx_HAL_Driver/Src/stm32f7xx_hal_spdifrx.c ****       { 
 1156              		.loc 1 618 10 view .LVU344
 1157 00a0 FFF7FEFF 		bl	SPDIFRX_WaitOnFlagUntilTimeout
 1158              	.LVL83:
 618:Drivers/STM32F7xx_HAL_Driver/Src/stm32f7xx_hal_spdifrx.c ****       { 
 1159              		.loc 1 618 9 view .LVU345
 1160 00a4 68B9     		cbnz	r0, .L72
 624:Drivers/STM32F7xx_HAL_Driver/Src/stm32f7xx_hal_spdifrx.c ****     }
 1161              		.loc 1 624 7 is_stmt 1 view .LVU346
 1162 00a6 2268     		ldr	r2, [r4]
 1163 00a8 1368     		ldr	r3, [r2]
 1164 00aa 43F00303 		orr	r3, r3, #3
 1165 00ae 1360     		str	r3, [r2]
 1166              	.L68:
 627:Drivers/STM32F7xx_HAL_Driver/Src/stm32f7xx_hal_spdifrx.c ****   }
 1167              		.loc 1 627 5 view .LVU347
 627:Drivers/STM32F7xx_HAL_Driver/Src/stm32f7xx_hal_spdifrx.c ****   }
 1168              		.loc 1 627 12 is_stmt 0 view .LVU348
 1169 00b0 0020     		movs	r0, #0
 1170              	.L66:
 633:Drivers/STM32F7xx_HAL_Driver/Src/stm32f7xx_hal_spdifrx.c **** 
 1171              		.loc 1 633 1 view .LVU349
 1172 00b2 02B0     		add	sp, sp, #8
 1173              	.LCFI20:
 1174              		.cfi_remember_state
 1175              		.cfi_def_cfa_offset 8
 1176              		@ sp needed
 1177 00b4 10BD     		pop	{r4, pc}
 1178              	.LVL84:
 1179              	.L69:
 1180              	.LCFI21:
 1181              		.cfi_restore_state
 631:Drivers/STM32F7xx_HAL_Driver/Src/stm32f7xx_hal_spdifrx.c ****   }
 1182              		.loc 1 631 12 view .LVU350
 1183 00b6 0220     		movs	r0, #2
 1184              	.LVL85:
 631:Drivers/STM32F7xx_HAL_Driver/Src/stm32f7xx_hal_spdifrx.c ****   }
 1185              		.loc 1 631 12 view .LVU351
 1186 00b8 FBE7     		b	.L66
 1187              	.LVL86:
 1188              	.L70:
 581:Drivers/STM32F7xx_HAL_Driver/Src/stm32f7xx_hal_spdifrx.c ****     }
 1189              		.loc 1 581 14 view .LVU352
ARM GAS  C:\Users\Nina\AppData\Local\Temp\ccfkNb9x.s 			page 49


 1190 00ba 0120     		movs	r0, #1
 1191              	.LVL87:
 581:Drivers/STM32F7xx_HAL_Driver/Src/stm32f7xx_hal_spdifrx.c ****     }
 1192              		.loc 1 581 14 view .LVU353
 1193 00bc F9E7     		b	.L66
 1194              	.LVL88:
 1195              	.L71:
 585:Drivers/STM32F7xx_HAL_Driver/Src/stm32f7xx_hal_spdifrx.c ****     
 1196              		.loc 1 585 5 view .LVU354
 1197 00be 0220     		movs	r0, #2
 1198              	.LVL89:
 585:Drivers/STM32F7xx_HAL_Driver/Src/stm32f7xx_hal_spdifrx.c ****     
 1199              		.loc 1 585 5 view .LVU355
 1200 00c0 F7E7     		b	.L66
 1201              	.LVL90:
 1202              	.L72:
 620:Drivers/STM32F7xx_HAL_Driver/Src/stm32f7xx_hal_spdifrx.c ****       }  
 1203              		.loc 1 620 16 view .LVU356
 1204 00c2 0320     		movs	r0, #3
 1205 00c4 F5E7     		b	.L66
 1206              		.cfi_endproc
 1207              	.LFE145:
 1209              		.section	.text.HAL_SPDIFRX_ReceiveControlFlow_IT,"ax",%progbits
 1210              		.align	1
 1211              		.global	HAL_SPDIFRX_ReceiveControlFlow_IT
 1212              		.syntax unified
 1213              		.thumb
 1214              		.thumb_func
 1215              		.fpu fpv5-sp-d16
 1217              	HAL_SPDIFRX_ReceiveControlFlow_IT:
 1218              	.LVL91:
 1219              	.LFB146:
 643:Drivers/STM32F7xx_HAL_Driver/Src/stm32f7xx_hal_spdifrx.c ****   uint32_t tickstart = 0U;
 1220              		.loc 1 643 1 is_stmt 1 view -0
 1221              		.cfi_startproc
 1222              		@ args = 0, pretend = 0, frame = 0
 1223              		@ frame_needed = 0, uses_anonymous_args = 0
 643:Drivers/STM32F7xx_HAL_Driver/Src/stm32f7xx_hal_spdifrx.c ****   uint32_t tickstart = 0U;
 1224              		.loc 1 643 1 is_stmt 0 view .LVU358
 1225 0000 10B5     		push	{r4, lr}
 1226              	.LCFI22:
 1227              		.cfi_def_cfa_offset 8
 1228              		.cfi_offset 4, -8
 1229              		.cfi_offset 14, -4
 1230 0002 82B0     		sub	sp, sp, #8
 1231              	.LCFI23:
 1232              		.cfi_def_cfa_offset 16
 1233 0004 0446     		mov	r4, r0
 644:Drivers/STM32F7xx_HAL_Driver/Src/stm32f7xx_hal_spdifrx.c ****   
 1234              		.loc 1 644 3 is_stmt 1 view .LVU359
 1235              	.LVL92:
 646:Drivers/STM32F7xx_HAL_Driver/Src/stm32f7xx_hal_spdifrx.c ****   {
 1236              		.loc 1 646 3 view .LVU360
 646:Drivers/STM32F7xx_HAL_Driver/Src/stm32f7xx_hal_spdifrx.c ****   {
 1237              		.loc 1 646 13 is_stmt 0 view .LVU361
 1238 0006 90F84530 		ldrb	r3, [r0, #69]	@ zero_extendqisi2
 1239 000a DBB2     		uxtb	r3, r3
ARM GAS  C:\Users\Nina\AppData\Local\Temp\ccfkNb9x.s 			page 50


 646:Drivers/STM32F7xx_HAL_Driver/Src/stm32f7xx_hal_spdifrx.c ****   {
 1240              		.loc 1 646 5 view .LVU362
 1241 000c 012B     		cmp	r3, #1
 1242 000e 04D0     		beq	.L75
 646:Drivers/STM32F7xx_HAL_Driver/Src/stm32f7xx_hal_spdifrx.c ****   {
 1243              		.loc 1 646 59 discriminator 1 view .LVU363
 1244 0010 90F84530 		ldrb	r3, [r0, #69]	@ zero_extendqisi2
 1245 0014 DBB2     		uxtb	r3, r3
 646:Drivers/STM32F7xx_HAL_Driver/Src/stm32f7xx_hal_spdifrx.c ****   {
 1246              		.loc 1 646 49 discriminator 1 view .LVU364
 1247 0016 032B     		cmp	r3, #3
 1248 0018 4DD1     		bne	.L79
 1249              	.L75:
 648:Drivers/STM32F7xx_HAL_Driver/Src/stm32f7xx_hal_spdifrx.c ****     {
 1250              		.loc 1 648 5 is_stmt 1 view .LVU365
 648:Drivers/STM32F7xx_HAL_Driver/Src/stm32f7xx_hal_spdifrx.c ****     {
 1251              		.loc 1 648 34 is_stmt 0 view .LVU366
 1252 001a B2FA82F3 		clz	r3, r2
 1253 001e 5B09     		lsrs	r3, r3, #5
 648:Drivers/STM32F7xx_HAL_Driver/Src/stm32f7xx_hal_spdifrx.c ****     {
 1254              		.loc 1 648 25 view .LVU367
 1255 0020 0029     		cmp	r1, #0
 1256 0022 08BF     		it	eq
 1257 0024 0123     		moveq	r3, #1
 648:Drivers/STM32F7xx_HAL_Driver/Src/stm32f7xx_hal_spdifrx.c ****     {
 1258              		.loc 1 648 7 view .LVU368
 1259 0026 002B     		cmp	r3, #0
 1260 0028 47D1     		bne	.L80
 654:Drivers/STM32F7xx_HAL_Driver/Src/stm32f7xx_hal_spdifrx.c ****     
 1261              		.loc 1 654 5 is_stmt 1 view .LVU369
 654:Drivers/STM32F7xx_HAL_Driver/Src/stm32f7xx_hal_spdifrx.c ****     
 1262              		.loc 1 654 5 view .LVU370
 1263 002a 94F84430 		ldrb	r3, [r4, #68]	@ zero_extendqisi2
 1264 002e DBB2     		uxtb	r3, r3
 1265 0030 012B     		cmp	r3, #1
 1266 0032 44D0     		beq	.L81
 654:Drivers/STM32F7xx_HAL_Driver/Src/stm32f7xx_hal_spdifrx.c ****     
 1267              		.loc 1 654 5 discriminator 2 view .LVU371
 1268 0034 0123     		movs	r3, #1
 1269 0036 84F84430 		strb	r3, [r4, #68]
 654:Drivers/STM32F7xx_HAL_Driver/Src/stm32f7xx_hal_spdifrx.c ****     
 1270              		.loc 1 654 5 discriminator 2 view .LVU372
 656:Drivers/STM32F7xx_HAL_Driver/Src/stm32f7xx_hal_spdifrx.c ****     hspdif->CsXferSize = Size;
 1271              		.loc 1 656 5 discriminator 2 view .LVU373
 656:Drivers/STM32F7xx_HAL_Driver/Src/stm32f7xx_hal_spdifrx.c ****     hspdif->CsXferSize = Size;
 1272              		.loc 1 656 24 is_stmt 0 discriminator 2 view .LVU374
 1273 003a 2163     		str	r1, [r4, #48]
 657:Drivers/STM32F7xx_HAL_Driver/Src/stm32f7xx_hal_spdifrx.c ****     hspdif->CsXferCount = Size;
 1274              		.loc 1 657 5 is_stmt 1 discriminator 2 view .LVU375
 657:Drivers/STM32F7xx_HAL_Driver/Src/stm32f7xx_hal_spdifrx.c ****     hspdif->CsXferCount = Size;
 1275              		.loc 1 657 24 is_stmt 0 discriminator 2 view .LVU376
 1276 003c 2287     		strh	r2, [r4, #56]	@ movhi
 658:Drivers/STM32F7xx_HAL_Driver/Src/stm32f7xx_hal_spdifrx.c ****     
 1277              		.loc 1 658 5 is_stmt 1 discriminator 2 view .LVU377
 658:Drivers/STM32F7xx_HAL_Driver/Src/stm32f7xx_hal_spdifrx.c ****     
 1278              		.loc 1 658 25 is_stmt 0 discriminator 2 view .LVU378
 1279 003e 6287     		strh	r2, [r4, #58]	@ movhi
ARM GAS  C:\Users\Nina\AppData\Local\Temp\ccfkNb9x.s 			page 51


 660:Drivers/STM32F7xx_HAL_Driver/Src/stm32f7xx_hal_spdifrx.c ****     
 1280              		.loc 1 660 5 is_stmt 1 discriminator 2 view .LVU379
 660:Drivers/STM32F7xx_HAL_Driver/Src/stm32f7xx_hal_spdifrx.c ****     
 1281              		.loc 1 660 23 is_stmt 0 discriminator 2 view .LVU380
 1282 0040 0022     		movs	r2, #0
 1283              	.LVL93:
 660:Drivers/STM32F7xx_HAL_Driver/Src/stm32f7xx_hal_spdifrx.c ****     
 1284              		.loc 1 660 23 discriminator 2 view .LVU381
 1285 0042 A264     		str	r2, [r4, #72]
 1286              	.LVL94:
 663:Drivers/STM32F7xx_HAL_Driver/Src/stm32f7xx_hal_spdifrx.c ****     
 1287              		.loc 1 663 5 is_stmt 1 discriminator 2 view .LVU382
 663:Drivers/STM32F7xx_HAL_Driver/Src/stm32f7xx_hal_spdifrx.c ****     
 1288              		.loc 1 663 19 is_stmt 0 discriminator 2 view .LVU383
 1289 0044 0423     		movs	r3, #4
 1290 0046 84F84530 		strb	r3, [r4, #69]
 667:Drivers/STM32F7xx_HAL_Driver/Src/stm32f7xx_hal_spdifrx.c ****     
 1291              		.loc 1 667 5 is_stmt 1 discriminator 2 view .LVU384
 1292 004a 2168     		ldr	r1, [r4]
 1293              	.LVL95:
 667:Drivers/STM32F7xx_HAL_Driver/Src/stm32f7xx_hal_spdifrx.c ****     
 1294              		.loc 1 667 5 is_stmt 0 discriminator 2 view .LVU385
 1295 004c 4B68     		ldr	r3, [r1, #4]
 1296 004e 43F00403 		orr	r3, r3, #4
 1297 0052 4B60     		str	r3, [r1, #4]
 1298              	.LVL96:
 670:Drivers/STM32F7xx_HAL_Driver/Src/stm32f7xx_hal_spdifrx.c ****     
 1299              		.loc 1 670 5 is_stmt 1 discriminator 2 view .LVU386
 1300 0054 2168     		ldr	r1, [r4]
 1301 0056 4B68     		ldr	r3, [r1, #4]
 1302 0058 43F00803 		orr	r3, r3, #8
 1303 005c 4B60     		str	r3, [r1, #4]
 673:Drivers/STM32F7xx_HAL_Driver/Src/stm32f7xx_hal_spdifrx.c ****     
 1304              		.loc 1 673 5 discriminator 2 view .LVU387
 673:Drivers/STM32F7xx_HAL_Driver/Src/stm32f7xx_hal_spdifrx.c ****     
 1305              		.loc 1 673 5 discriminator 2 view .LVU388
 1306 005e 84F84420 		strb	r2, [r4, #68]
 673:Drivers/STM32F7xx_HAL_Driver/Src/stm32f7xx_hal_spdifrx.c ****     
 1307              		.loc 1 673 5 discriminator 2 view .LVU389
 676:Drivers/STM32F7xx_HAL_Driver/Src/stm32f7xx_hal_spdifrx.c ****     
 1308              		.loc 1 676 5 discriminator 2 view .LVU390
 1309 0062 2268     		ldr	r2, [r4]
 1310 0064 5368     		ldr	r3, [r2, #4]
 1311 0066 43F00203 		orr	r3, r3, #2
 1312 006a 5360     		str	r3, [r2, #4]
 678:Drivers/STM32F7xx_HAL_Driver/Src/stm32f7xx_hal_spdifrx.c ****     {
 1313              		.loc 1 678 5 discriminator 2 view .LVU391
 678:Drivers/STM32F7xx_HAL_Driver/Src/stm32f7xx_hal_spdifrx.c ****     {
 1314              		.loc 1 678 18 is_stmt 0 discriminator 2 view .LVU392
 1315 006c 4FF04023 		mov	r3, #1073758208
 1316 0070 1B68     		ldr	r3, [r3]
 678:Drivers/STM32F7xx_HAL_Driver/Src/stm32f7xx_hal_spdifrx.c ****     {
 1317              		.loc 1 678 23 discriminator 2 view .LVU393
 1318 0072 03F00303 		and	r3, r3, #3
 678:Drivers/STM32F7xx_HAL_Driver/Src/stm32f7xx_hal_spdifrx.c ****     {
 1319              		.loc 1 678 8 discriminator 2 view .LVU394
 1320 0076 012B     		cmp	r3, #1
ARM GAS  C:\Users\Nina\AppData\Local\Temp\ccfkNb9x.s 			page 52


 1321 0078 05D1     		bne	.L77
 678:Drivers/STM32F7xx_HAL_Driver/Src/stm32f7xx_hal_spdifrx.c ****     {
 1322              		.loc 1 678 80 discriminator 1 view .LVU395
 1323 007a 4FF04023 		mov	r3, #1073758208
 1324 007e 1B68     		ldr	r3, [r3]
 678:Drivers/STM32F7xx_HAL_Driver/Src/stm32f7xx_hal_spdifrx.c ****     {
 1325              		.loc 1 678 68 discriminator 1 view .LVU396
 1326 0080 13F0030F 		tst	r3, #3
 1327 0084 14D0     		beq	.L78
 1328              	.L77:
 681:Drivers/STM32F7xx_HAL_Driver/Src/stm32f7xx_hal_spdifrx.c ****       
 1329              		.loc 1 681 7 is_stmt 1 view .LVU397
 1330 0086 2268     		ldr	r2, [r4]
 1331 0088 1368     		ldr	r3, [r2]
 1332 008a 43F00103 		orr	r3, r3, #1
 1333 008e 1360     		str	r3, [r2]
 684:Drivers/STM32F7xx_HAL_Driver/Src/stm32f7xx_hal_spdifrx.c ****       
 1334              		.loc 1 684 7 view .LVU398
 684:Drivers/STM32F7xx_HAL_Driver/Src/stm32f7xx_hal_spdifrx.c ****       
 1335              		.loc 1 684 19 is_stmt 0 view .LVU399
 1336 0090 FFF7FEFF 		bl	HAL_GetTick
 1337              	.LVL97:
 687:Drivers/STM32F7xx_HAL_Driver/Src/stm32f7xx_hal_spdifrx.c ****       { 
 1338              		.loc 1 687 7 is_stmt 1 view .LVU400
 687:Drivers/STM32F7xx_HAL_Driver/Src/stm32f7xx_hal_spdifrx.c ****       { 
 1339              		.loc 1 687 10 is_stmt 0 view .LVU401
 1340 0094 0090     		str	r0, [sp]
 1341 0096 4FF6FF73 		movw	r3, #65535
 1342 009a 0022     		movs	r2, #0
 1343 009c 2021     		movs	r1, #32
 1344 009e 2046     		mov	r0, r4
 1345              	.LVL98:
 687:Drivers/STM32F7xx_HAL_Driver/Src/stm32f7xx_hal_spdifrx.c ****       { 
 1346              		.loc 1 687 10 view .LVU402
 1347 00a0 FFF7FEFF 		bl	SPDIFRX_WaitOnFlagUntilTimeout
 1348              	.LVL99:
 687:Drivers/STM32F7xx_HAL_Driver/Src/stm32f7xx_hal_spdifrx.c ****       { 
 1349              		.loc 1 687 9 view .LVU403
 1350 00a4 68B9     		cbnz	r0, .L82
 693:Drivers/STM32F7xx_HAL_Driver/Src/stm32f7xx_hal_spdifrx.c ****     }
 1351              		.loc 1 693 7 is_stmt 1 view .LVU404
 1352 00a6 2268     		ldr	r2, [r4]
 1353 00a8 1368     		ldr	r3, [r2]
 1354 00aa 43F00303 		orr	r3, r3, #3
 1355 00ae 1360     		str	r3, [r2]
 1356              	.L78:
 696:Drivers/STM32F7xx_HAL_Driver/Src/stm32f7xx_hal_spdifrx.c ****   }
 1357              		.loc 1 696 5 view .LVU405
 696:Drivers/STM32F7xx_HAL_Driver/Src/stm32f7xx_hal_spdifrx.c ****   }
 1358              		.loc 1 696 12 is_stmt 0 view .LVU406
 1359 00b0 0020     		movs	r0, #0
 1360              	.L76:
 702:Drivers/STM32F7xx_HAL_Driver/Src/stm32f7xx_hal_spdifrx.c **** 
 1361              		.loc 1 702 1 view .LVU407
 1362 00b2 02B0     		add	sp, sp, #8
 1363              	.LCFI24:
 1364              		.cfi_remember_state
ARM GAS  C:\Users\Nina\AppData\Local\Temp\ccfkNb9x.s 			page 53


 1365              		.cfi_def_cfa_offset 8
 1366              		@ sp needed
 1367 00b4 10BD     		pop	{r4, pc}
 1368              	.LVL100:
 1369              	.L79:
 1370              	.LCFI25:
 1371              		.cfi_restore_state
 700:Drivers/STM32F7xx_HAL_Driver/Src/stm32f7xx_hal_spdifrx.c ****   }
 1372              		.loc 1 700 12 view .LVU408
 1373 00b6 0220     		movs	r0, #2
 1374              	.LVL101:
 700:Drivers/STM32F7xx_HAL_Driver/Src/stm32f7xx_hal_spdifrx.c ****   }
 1375              		.loc 1 700 12 view .LVU409
 1376 00b8 FBE7     		b	.L76
 1377              	.LVL102:
 1378              	.L80:
 650:Drivers/STM32F7xx_HAL_Driver/Src/stm32f7xx_hal_spdifrx.c ****     }
 1379              		.loc 1 650 14 view .LVU410
 1380 00ba 0120     		movs	r0, #1
 1381              	.LVL103:
 650:Drivers/STM32F7xx_HAL_Driver/Src/stm32f7xx_hal_spdifrx.c ****     }
 1382              		.loc 1 650 14 view .LVU411
 1383 00bc F9E7     		b	.L76
 1384              	.LVL104:
 1385              	.L81:
 654:Drivers/STM32F7xx_HAL_Driver/Src/stm32f7xx_hal_spdifrx.c ****     
 1386              		.loc 1 654 5 view .LVU412
 1387 00be 0220     		movs	r0, #2
 1388              	.LVL105:
 654:Drivers/STM32F7xx_HAL_Driver/Src/stm32f7xx_hal_spdifrx.c ****     
 1389              		.loc 1 654 5 view .LVU413
 1390 00c0 F7E7     		b	.L76
 1391              	.LVL106:
 1392              	.L82:
 689:Drivers/STM32F7xx_HAL_Driver/Src/stm32f7xx_hal_spdifrx.c ****       }  
 1393              		.loc 1 689 16 view .LVU414
 1394 00c2 0320     		movs	r0, #3
 1395 00c4 F5E7     		b	.L76
 1396              		.cfi_endproc
 1397              	.LFE146:
 1399              		.section	.text.HAL_SPDIFRX_ReceiveDataFlow_DMA,"ax",%progbits
 1400              		.align	1
 1401              		.global	HAL_SPDIFRX_ReceiveDataFlow_DMA
 1402              		.syntax unified
 1403              		.thumb
 1404              		.thumb_func
 1405              		.fpu fpv5-sp-d16
 1407              	HAL_SPDIFRX_ReceiveDataFlow_DMA:
 1408              	.LVL107:
 1409              	.LFB147:
 712:Drivers/STM32F7xx_HAL_Driver/Src/stm32f7xx_hal_spdifrx.c ****   uint32_t tickstart = 0U;
 1410              		.loc 1 712 1 is_stmt 1 view -0
 1411              		.cfi_startproc
 1412              		@ args = 0, pretend = 0, frame = 0
 1413              		@ frame_needed = 0, uses_anonymous_args = 0
 713:Drivers/STM32F7xx_HAL_Driver/Src/stm32f7xx_hal_spdifrx.c ****   
 1414              		.loc 1 713 3 view .LVU416
ARM GAS  C:\Users\Nina\AppData\Local\Temp\ccfkNb9x.s 			page 54


 715:Drivers/STM32F7xx_HAL_Driver/Src/stm32f7xx_hal_spdifrx.c ****   {
 1415              		.loc 1 715 3 view .LVU417
 715:Drivers/STM32F7xx_HAL_Driver/Src/stm32f7xx_hal_spdifrx.c ****   {
 1416              		.loc 1 715 31 is_stmt 0 view .LVU418
 1417 0000 1346     		mov	r3, r2
 1418 0002 B2FA82F2 		clz	r2, r2
 1419              	.LVL108:
 715:Drivers/STM32F7xx_HAL_Driver/Src/stm32f7xx_hal_spdifrx.c ****   {
 1420              		.loc 1 715 31 view .LVU419
 1421 0006 5209     		lsrs	r2, r2, #5
 715:Drivers/STM32F7xx_HAL_Driver/Src/stm32f7xx_hal_spdifrx.c ****   {
 1422              		.loc 1 715 22 view .LVU420
 1423 0008 0029     		cmp	r1, #0
 1424 000a 08BF     		it	eq
 1425 000c 0122     		moveq	r2, #1
 715:Drivers/STM32F7xx_HAL_Driver/Src/stm32f7xx_hal_spdifrx.c ****   {
 1426              		.loc 1 715 5 view .LVU421
 1427 000e 002A     		cmp	r2, #0
 1428 0010 58D1     		bne	.L89
 712:Drivers/STM32F7xx_HAL_Driver/Src/stm32f7xx_hal_spdifrx.c ****   uint32_t tickstart = 0U;
 1429              		.loc 1 712 1 view .LVU422
 1430 0012 10B5     		push	{r4, lr}
 1431              	.LCFI26:
 1432              		.cfi_def_cfa_offset 8
 1433              		.cfi_offset 4, -8
 1434              		.cfi_offset 14, -4
 1435 0014 82B0     		sub	sp, sp, #8
 1436              	.LCFI27:
 1437              		.cfi_def_cfa_offset 16
 1438 0016 0446     		mov	r4, r0
 1439 0018 0846     		mov	r0, r1
 1440              	.LVL109:
 720:Drivers/STM32F7xx_HAL_Driver/Src/stm32f7xx_hal_spdifrx.c ****   {   
 1441              		.loc 1 720 3 is_stmt 1 view .LVU423
 720:Drivers/STM32F7xx_HAL_Driver/Src/stm32f7xx_hal_spdifrx.c ****   {   
 1442              		.loc 1 720 13 is_stmt 0 view .LVU424
 1443 001a 94F84520 		ldrb	r2, [r4, #69]	@ zero_extendqisi2
 1444 001e D2B2     		uxtb	r2, r2
 720:Drivers/STM32F7xx_HAL_Driver/Src/stm32f7xx_hal_spdifrx.c ****   {   
 1445              		.loc 1 720 5 view .LVU425
 1446 0020 012A     		cmp	r2, #1
 1447 0022 04D0     		beq	.L86
 720:Drivers/STM32F7xx_HAL_Driver/Src/stm32f7xx_hal_spdifrx.c ****   {   
 1448              		.loc 1 720 59 discriminator 1 view .LVU426
 1449 0024 94F84520 		ldrb	r2, [r4, #69]	@ zero_extendqisi2
 1450 0028 D2B2     		uxtb	r2, r2
 720:Drivers/STM32F7xx_HAL_Driver/Src/stm32f7xx_hal_spdifrx.c ****   {   
 1451              		.loc 1 720 49 discriminator 1 view .LVU427
 1452 002a 042A     		cmp	r2, #4
 1453 002c 4CD1     		bne	.L90
 1454              	.L86:
 722:Drivers/STM32F7xx_HAL_Driver/Src/stm32f7xx_hal_spdifrx.c ****     hspdif->RxXferSize = Size;
 1455              		.loc 1 722 5 is_stmt 1 view .LVU428
 722:Drivers/STM32F7xx_HAL_Driver/Src/stm32f7xx_hal_spdifrx.c ****     hspdif->RxXferSize = Size;
 1456              		.loc 1 722 24 is_stmt 0 view .LVU429
 1457 002e E062     		str	r0, [r4, #44]
 723:Drivers/STM32F7xx_HAL_Driver/Src/stm32f7xx_hal_spdifrx.c ****     hspdif->RxXferCount = Size;
ARM GAS  C:\Users\Nina\AppData\Local\Temp\ccfkNb9x.s 			page 55


 1458              		.loc 1 723 5 is_stmt 1 view .LVU430
 723:Drivers/STM32F7xx_HAL_Driver/Src/stm32f7xx_hal_spdifrx.c ****     hspdif->RxXferCount = Size;
 1459              		.loc 1 723 24 is_stmt 0 view .LVU431
 1460 0030 A386     		strh	r3, [r4, #52]	@ movhi
 724:Drivers/STM32F7xx_HAL_Driver/Src/stm32f7xx_hal_spdifrx.c ****     
 1461              		.loc 1 724 5 is_stmt 1 view .LVU432
 724:Drivers/STM32F7xx_HAL_Driver/Src/stm32f7xx_hal_spdifrx.c ****     
 1462              		.loc 1 724 25 is_stmt 0 view .LVU433
 1463 0032 E386     		strh	r3, [r4, #54]	@ movhi
 727:Drivers/STM32F7xx_HAL_Driver/Src/stm32f7xx_hal_spdifrx.c ****     
 1464              		.loc 1 727 5 is_stmt 1 view .LVU434
 727:Drivers/STM32F7xx_HAL_Driver/Src/stm32f7xx_hal_spdifrx.c ****     
 1465              		.loc 1 727 5 view .LVU435
 1466 0034 94F84420 		ldrb	r2, [r4, #68]	@ zero_extendqisi2
 1467 0038 D2B2     		uxtb	r2, r2
 1468 003a 012A     		cmp	r2, #1
 1469 003c 46D0     		beq	.L91
 1470              	.LVL110:
 727:Drivers/STM32F7xx_HAL_Driver/Src/stm32f7xx_hal_spdifrx.c ****     
 1471              		.loc 1 727 5 discriminator 2 view .LVU436
 1472 003e 0122     		movs	r2, #1
 1473 0040 84F84420 		strb	r2, [r4, #68]
 727:Drivers/STM32F7xx_HAL_Driver/Src/stm32f7xx_hal_spdifrx.c ****     
 1474              		.loc 1 727 5 discriminator 2 view .LVU437
 729:Drivers/STM32F7xx_HAL_Driver/Src/stm32f7xx_hal_spdifrx.c ****     hspdif->State = HAL_SPDIFRX_STATE_BUSY_RX;
 1475              		.loc 1 729 5 discriminator 2 view .LVU438
 729:Drivers/STM32F7xx_HAL_Driver/Src/stm32f7xx_hal_spdifrx.c ****     hspdif->State = HAL_SPDIFRX_STATE_BUSY_RX;
 1476              		.loc 1 729 23 is_stmt 0 discriminator 2 view .LVU439
 1477 0044 0022     		movs	r2, #0
 1478 0046 A264     		str	r2, [r4, #72]
 730:Drivers/STM32F7xx_HAL_Driver/Src/stm32f7xx_hal_spdifrx.c ****     
 1479              		.loc 1 730 5 is_stmt 1 discriminator 2 view .LVU440
 730:Drivers/STM32F7xx_HAL_Driver/Src/stm32f7xx_hal_spdifrx.c ****     
 1480              		.loc 1 730 19 is_stmt 0 discriminator 2 view .LVU441
 1481 0048 0322     		movs	r2, #3
 1482 004a 84F84520 		strb	r2, [r4, #69]
 733:Drivers/STM32F7xx_HAL_Driver/Src/stm32f7xx_hal_spdifrx.c ****     
 1483              		.loc 1 733 5 is_stmt 1 discriminator 2 view .LVU442
 733:Drivers/STM32F7xx_HAL_Driver/Src/stm32f7xx_hal_spdifrx.c ****     
 1484              		.loc 1 733 11 is_stmt 0 discriminator 2 view .LVU443
 1485 004e 226C     		ldr	r2, [r4, #64]
 733:Drivers/STM32F7xx_HAL_Driver/Src/stm32f7xx_hal_spdifrx.c ****     
 1486              		.loc 1 733 44 discriminator 2 view .LVU444
 1487 0050 2049     		ldr	r1, .L97
 1488 0052 1164     		str	r1, [r2, #64]
 736:Drivers/STM32F7xx_HAL_Driver/Src/stm32f7xx_hal_spdifrx.c ****     
 1489              		.loc 1 736 5 is_stmt 1 discriminator 2 view .LVU445
 736:Drivers/STM32F7xx_HAL_Driver/Src/stm32f7xx_hal_spdifrx.c ****     
 1490              		.loc 1 736 11 is_stmt 0 discriminator 2 view .LVU446
 1491 0054 226C     		ldr	r2, [r4, #64]
 736:Drivers/STM32F7xx_HAL_Driver/Src/stm32f7xx_hal_spdifrx.c ****     
 1492              		.loc 1 736 40 discriminator 2 view .LVU447
 1493 0056 2049     		ldr	r1, .L97+4
 1494 0058 D163     		str	r1, [r2, #60]
 739:Drivers/STM32F7xx_HAL_Driver/Src/stm32f7xx_hal_spdifrx.c ****     
 1495              		.loc 1 739 5 is_stmt 1 discriminator 2 view .LVU448
 739:Drivers/STM32F7xx_HAL_Driver/Src/stm32f7xx_hal_spdifrx.c ****     
ARM GAS  C:\Users\Nina\AppData\Local\Temp\ccfkNb9x.s 			page 56


 1496              		.loc 1 739 11 is_stmt 0 discriminator 2 view .LVU449
 1497 005a 226C     		ldr	r2, [r4, #64]
 739:Drivers/STM32F7xx_HAL_Driver/Src/stm32f7xx_hal_spdifrx.c ****     
 1498              		.loc 1 739 41 discriminator 2 view .LVU450
 1499 005c 1F49     		ldr	r1, .L97+8
 1500 005e D164     		str	r1, [r2, #76]
 742:Drivers/STM32F7xx_HAL_Driver/Src/stm32f7xx_hal_spdifrx.c ****     
 1501              		.loc 1 742 5 is_stmt 1 discriminator 2 view .LVU451
 742:Drivers/STM32F7xx_HAL_Driver/Src/stm32f7xx_hal_spdifrx.c ****     
 1502              		.loc 1 742 57 is_stmt 0 discriminator 2 view .LVU452
 1503 0060 2168     		ldr	r1, [r4]
 742:Drivers/STM32F7xx_HAL_Driver/Src/stm32f7xx_hal_spdifrx.c ****     
 1504              		.loc 1 742 5 discriminator 2 view .LVU453
 1505 0062 E26A     		ldr	r2, [r4, #44]
 1506 0064 1031     		adds	r1, r1, #16
 1507 0066 206C     		ldr	r0, [r4, #64]
 1508              	.LVL111:
 742:Drivers/STM32F7xx_HAL_Driver/Src/stm32f7xx_hal_spdifrx.c ****     
 1509              		.loc 1 742 5 discriminator 2 view .LVU454
 1510 0068 FFF7FEFF 		bl	HAL_DMA_Start_IT
 1511              	.LVL112:
 745:Drivers/STM32F7xx_HAL_Driver/Src/stm32f7xx_hal_spdifrx.c ****     
 1512              		.loc 1 745 5 is_stmt 1 discriminator 2 view .LVU455
 745:Drivers/STM32F7xx_HAL_Driver/Src/stm32f7xx_hal_spdifrx.c ****     
 1513              		.loc 1 745 11 is_stmt 0 discriminator 2 view .LVU456
 1514 006c 2268     		ldr	r2, [r4]
 745:Drivers/STM32F7xx_HAL_Driver/Src/stm32f7xx_hal_spdifrx.c ****     
 1515              		.loc 1 745 26 discriminator 2 view .LVU457
 1516 006e 1368     		ldr	r3, [r2]
 1517 0070 43F00403 		orr	r3, r3, #4
 1518 0074 1360     		str	r3, [r2]
 747:Drivers/STM32F7xx_HAL_Driver/Src/stm32f7xx_hal_spdifrx.c ****     {
 1519              		.loc 1 747 5 is_stmt 1 discriminator 2 view .LVU458
 747:Drivers/STM32F7xx_HAL_Driver/Src/stm32f7xx_hal_spdifrx.c ****     {
 1520              		.loc 1 747 18 is_stmt 0 discriminator 2 view .LVU459
 1521 0076 4FF04023 		mov	r3, #1073758208
 1522 007a 1B68     		ldr	r3, [r3]
 747:Drivers/STM32F7xx_HAL_Driver/Src/stm32f7xx_hal_spdifrx.c ****     {
 1523              		.loc 1 747 23 discriminator 2 view .LVU460
 1524 007c 03F00303 		and	r3, r3, #3
 747:Drivers/STM32F7xx_HAL_Driver/Src/stm32f7xx_hal_spdifrx.c ****     {
 1525              		.loc 1 747 8 discriminator 2 view .LVU461
 1526 0080 012B     		cmp	r3, #1
 1527 0082 05D1     		bne	.L87
 747:Drivers/STM32F7xx_HAL_Driver/Src/stm32f7xx_hal_spdifrx.c ****     {
 1528              		.loc 1 747 80 discriminator 1 view .LVU462
 1529 0084 4FF04023 		mov	r3, #1073758208
 1530 0088 1B68     		ldr	r3, [r3]
 747:Drivers/STM32F7xx_HAL_Driver/Src/stm32f7xx_hal_spdifrx.c ****     {
 1531              		.loc 1 747 68 discriminator 1 view .LVU463
 1532 008a 13F0030F 		tst	r3, #3
 1533 008e 14D0     		beq	.L88
 1534              	.L87:
 750:Drivers/STM32F7xx_HAL_Driver/Src/stm32f7xx_hal_spdifrx.c ****       
 1535              		.loc 1 750 7 is_stmt 1 view .LVU464
 1536 0090 2268     		ldr	r2, [r4]
 1537 0092 1368     		ldr	r3, [r2]
ARM GAS  C:\Users\Nina\AppData\Local\Temp\ccfkNb9x.s 			page 57


 1538 0094 43F00103 		orr	r3, r3, #1
 1539 0098 1360     		str	r3, [r2]
 753:Drivers/STM32F7xx_HAL_Driver/Src/stm32f7xx_hal_spdifrx.c ****       
 1540              		.loc 1 753 7 view .LVU465
 753:Drivers/STM32F7xx_HAL_Driver/Src/stm32f7xx_hal_spdifrx.c ****       
 1541              		.loc 1 753 19 is_stmt 0 view .LVU466
 1542 009a FFF7FEFF 		bl	HAL_GetTick
 1543              	.LVL113:
 756:Drivers/STM32F7xx_HAL_Driver/Src/stm32f7xx_hal_spdifrx.c ****       { 
 1544              		.loc 1 756 7 is_stmt 1 view .LVU467
 756:Drivers/STM32F7xx_HAL_Driver/Src/stm32f7xx_hal_spdifrx.c ****       { 
 1545              		.loc 1 756 10 is_stmt 0 view .LVU468
 1546 009e 0090     		str	r0, [sp]
 1547 00a0 4FF6FF73 		movw	r3, #65535
 1548 00a4 0022     		movs	r2, #0
 1549 00a6 2021     		movs	r1, #32
 1550 00a8 2046     		mov	r0, r4
 1551              	.LVL114:
 756:Drivers/STM32F7xx_HAL_Driver/Src/stm32f7xx_hal_spdifrx.c ****       { 
 1552              		.loc 1 756 10 view .LVU469
 1553 00aa FFF7FEFF 		bl	SPDIFRX_WaitOnFlagUntilTimeout
 1554              	.LVL115:
 756:Drivers/STM32F7xx_HAL_Driver/Src/stm32f7xx_hal_spdifrx.c ****       { 
 1555              		.loc 1 756 9 view .LVU470
 1556 00ae 78B9     		cbnz	r0, .L92
 762:Drivers/STM32F7xx_HAL_Driver/Src/stm32f7xx_hal_spdifrx.c ****     }
 1557              		.loc 1 762 7 is_stmt 1 view .LVU471
 1558 00b0 2268     		ldr	r2, [r4]
 1559 00b2 1368     		ldr	r3, [r2]
 1560 00b4 43F00303 		orr	r3, r3, #3
 1561 00b8 1360     		str	r3, [r2]
 1562              	.L88:
 766:Drivers/STM32F7xx_HAL_Driver/Src/stm32f7xx_hal_spdifrx.c ****     
 1563              		.loc 1 766 5 view .LVU472
 766:Drivers/STM32F7xx_HAL_Driver/Src/stm32f7xx_hal_spdifrx.c ****     
 1564              		.loc 1 766 5 view .LVU473
 1565 00ba 0020     		movs	r0, #0
 1566 00bc 84F84400 		strb	r0, [r4, #68]
 766:Drivers/STM32F7xx_HAL_Driver/Src/stm32f7xx_hal_spdifrx.c ****     
 1567              		.loc 1 766 5 view .LVU474
 768:Drivers/STM32F7xx_HAL_Driver/Src/stm32f7xx_hal_spdifrx.c ****   }
 1568              		.loc 1 768 5 view .LVU475
 1569              	.L85:
 774:Drivers/STM32F7xx_HAL_Driver/Src/stm32f7xx_hal_spdifrx.c **** 
 1570              		.loc 1 774 1 is_stmt 0 view .LVU476
 1571 00c0 02B0     		add	sp, sp, #8
 1572              	.LCFI28:
 1573              		.cfi_def_cfa_offset 8
 1574              		@ sp needed
 1575 00c2 10BD     		pop	{r4, pc}
 1576              	.LVL116:
 1577              	.L89:
 1578              	.LCFI29:
 1579              		.cfi_def_cfa_offset 0
 1580              		.cfi_restore 4
 1581              		.cfi_restore 14
 717:Drivers/STM32F7xx_HAL_Driver/Src/stm32f7xx_hal_spdifrx.c ****   } 
ARM GAS  C:\Users\Nina\AppData\Local\Temp\ccfkNb9x.s 			page 58


 1582              		.loc 1 717 13 view .LVU477
 1583 00c4 0120     		movs	r0, #1
 1584              	.LVL117:
 774:Drivers/STM32F7xx_HAL_Driver/Src/stm32f7xx_hal_spdifrx.c **** 
 1585              		.loc 1 774 1 view .LVU478
 1586 00c6 7047     		bx	lr
 1587              	.LVL118:
 1588              	.L90:
 1589              	.LCFI30:
 1590              		.cfi_def_cfa_offset 16
 1591              		.cfi_offset 4, -8
 1592              		.cfi_offset 14, -4
 772:Drivers/STM32F7xx_HAL_Driver/Src/stm32f7xx_hal_spdifrx.c ****   }
 1593              		.loc 1 772 12 view .LVU479
 1594 00c8 0220     		movs	r0, #2
 1595              	.LVL119:
 772:Drivers/STM32F7xx_HAL_Driver/Src/stm32f7xx_hal_spdifrx.c ****   }
 1596              		.loc 1 772 12 view .LVU480
 1597 00ca F9E7     		b	.L85
 1598              	.LVL120:
 1599              	.L91:
 727:Drivers/STM32F7xx_HAL_Driver/Src/stm32f7xx_hal_spdifrx.c ****     
 1600              		.loc 1 727 5 view .LVU481
 1601 00cc 0220     		movs	r0, #2
 1602              	.LVL121:
 727:Drivers/STM32F7xx_HAL_Driver/Src/stm32f7xx_hal_spdifrx.c ****     
 1603              		.loc 1 727 5 view .LVU482
 1604 00ce F7E7     		b	.L85
 1605              	.LVL122:
 1606              	.L92:
 758:Drivers/STM32F7xx_HAL_Driver/Src/stm32f7xx_hal_spdifrx.c ****       }  
 1607              		.loc 1 758 16 view .LVU483
 1608 00d0 0320     		movs	r0, #3
 1609 00d2 F5E7     		b	.L85
 1610              	.L98:
 1611              		.align	2
 1612              	.L97:
 1613 00d4 00000000 		.word	SPDIFRX_DMARxHalfCplt
 1614 00d8 00000000 		.word	SPDIFRX_DMARxCplt
 1615 00dc 00000000 		.word	SPDIFRX_DMAError
 1616              		.cfi_endproc
 1617              	.LFE147:
 1619              		.section	.text.HAL_SPDIFRX_ReceiveControlFlow_DMA,"ax",%progbits
 1620              		.align	1
 1621              		.global	HAL_SPDIFRX_ReceiveControlFlow_DMA
 1622              		.syntax unified
 1623              		.thumb
 1624              		.thumb_func
 1625              		.fpu fpv5-sp-d16
 1627              	HAL_SPDIFRX_ReceiveControlFlow_DMA:
 1628              	.LVL123:
 1629              	.LFB148:
 784:Drivers/STM32F7xx_HAL_Driver/Src/stm32f7xx_hal_spdifrx.c ****   uint32_t tickstart = 0U;
 1630              		.loc 1 784 1 is_stmt 1 view -0
 1631              		.cfi_startproc
 1632              		@ args = 0, pretend = 0, frame = 0
 1633              		@ frame_needed = 0, uses_anonymous_args = 0
ARM GAS  C:\Users\Nina\AppData\Local\Temp\ccfkNb9x.s 			page 59


 785:Drivers/STM32F7xx_HAL_Driver/Src/stm32f7xx_hal_spdifrx.c ****   
 1634              		.loc 1 785 3 view .LVU485
 787:Drivers/STM32F7xx_HAL_Driver/Src/stm32f7xx_hal_spdifrx.c ****   {
 1635              		.loc 1 787 3 view .LVU486
 787:Drivers/STM32F7xx_HAL_Driver/Src/stm32f7xx_hal_spdifrx.c ****   {
 1636              		.loc 1 787 31 is_stmt 0 view .LVU487
 1637 0000 1346     		mov	r3, r2
 1638 0002 B2FA82F2 		clz	r2, r2
 1639              	.LVL124:
 787:Drivers/STM32F7xx_HAL_Driver/Src/stm32f7xx_hal_spdifrx.c ****   {
 1640              		.loc 1 787 31 view .LVU488
 1641 0006 5209     		lsrs	r2, r2, #5
 787:Drivers/STM32F7xx_HAL_Driver/Src/stm32f7xx_hal_spdifrx.c ****   {
 1642              		.loc 1 787 22 view .LVU489
 1643 0008 0029     		cmp	r1, #0
 1644 000a 08BF     		it	eq
 1645 000c 0122     		moveq	r2, #1
 787:Drivers/STM32F7xx_HAL_Driver/Src/stm32f7xx_hal_spdifrx.c ****   {
 1646              		.loc 1 787 5 view .LVU490
 1647 000e 002A     		cmp	r2, #0
 1648 0010 58D1     		bne	.L104
 784:Drivers/STM32F7xx_HAL_Driver/Src/stm32f7xx_hal_spdifrx.c ****   uint32_t tickstart = 0U;
 1649              		.loc 1 784 1 view .LVU491
 1650 0012 10B5     		push	{r4, lr}
 1651              	.LCFI31:
 1652              		.cfi_def_cfa_offset 8
 1653              		.cfi_offset 4, -8
 1654              		.cfi_offset 14, -4
 1655 0014 82B0     		sub	sp, sp, #8
 1656              	.LCFI32:
 1657              		.cfi_def_cfa_offset 16
 1658 0016 0446     		mov	r4, r0
 1659 0018 0846     		mov	r0, r1
 1660              	.LVL125:
 792:Drivers/STM32F7xx_HAL_Driver/Src/stm32f7xx_hal_spdifrx.c ****   {    
 1661              		.loc 1 792 3 is_stmt 1 view .LVU492
 792:Drivers/STM32F7xx_HAL_Driver/Src/stm32f7xx_hal_spdifrx.c ****   {    
 1662              		.loc 1 792 13 is_stmt 0 view .LVU493
 1663 001a 94F84520 		ldrb	r2, [r4, #69]	@ zero_extendqisi2
 1664 001e D2B2     		uxtb	r2, r2
 792:Drivers/STM32F7xx_HAL_Driver/Src/stm32f7xx_hal_spdifrx.c ****   {    
 1665              		.loc 1 792 5 view .LVU494
 1666 0020 012A     		cmp	r2, #1
 1667 0022 04D0     		beq	.L101
 792:Drivers/STM32F7xx_HAL_Driver/Src/stm32f7xx_hal_spdifrx.c ****   {    
 1668              		.loc 1 792 59 discriminator 1 view .LVU495
 1669 0024 94F84520 		ldrb	r2, [r4, #69]	@ zero_extendqisi2
 1670 0028 D2B2     		uxtb	r2, r2
 792:Drivers/STM32F7xx_HAL_Driver/Src/stm32f7xx_hal_spdifrx.c ****   {    
 1671              		.loc 1 792 49 discriminator 1 view .LVU496
 1672 002a 032A     		cmp	r2, #3
 1673 002c 4CD1     		bne	.L105
 1674              	.L101:
 794:Drivers/STM32F7xx_HAL_Driver/Src/stm32f7xx_hal_spdifrx.c ****     hspdif->CsXferSize = Size;
 1675              		.loc 1 794 5 is_stmt 1 view .LVU497
 794:Drivers/STM32F7xx_HAL_Driver/Src/stm32f7xx_hal_spdifrx.c ****     hspdif->CsXferSize = Size;
 1676              		.loc 1 794 24 is_stmt 0 view .LVU498
ARM GAS  C:\Users\Nina\AppData\Local\Temp\ccfkNb9x.s 			page 60


 1677 002e 2063     		str	r0, [r4, #48]
 795:Drivers/STM32F7xx_HAL_Driver/Src/stm32f7xx_hal_spdifrx.c ****     hspdif->CsXferCount = Size;
 1678              		.loc 1 795 5 is_stmt 1 view .LVU499
 795:Drivers/STM32F7xx_HAL_Driver/Src/stm32f7xx_hal_spdifrx.c ****     hspdif->CsXferCount = Size;
 1679              		.loc 1 795 24 is_stmt 0 view .LVU500
 1680 0030 2387     		strh	r3, [r4, #56]	@ movhi
 796:Drivers/STM32F7xx_HAL_Driver/Src/stm32f7xx_hal_spdifrx.c ****     
 1681              		.loc 1 796 5 is_stmt 1 view .LVU501
 796:Drivers/STM32F7xx_HAL_Driver/Src/stm32f7xx_hal_spdifrx.c ****     
 1682              		.loc 1 796 25 is_stmt 0 view .LVU502
 1683 0032 6387     		strh	r3, [r4, #58]	@ movhi
 799:Drivers/STM32F7xx_HAL_Driver/Src/stm32f7xx_hal_spdifrx.c ****     
 1684              		.loc 1 799 5 is_stmt 1 view .LVU503
 799:Drivers/STM32F7xx_HAL_Driver/Src/stm32f7xx_hal_spdifrx.c ****     
 1685              		.loc 1 799 5 view .LVU504
 1686 0034 94F84420 		ldrb	r2, [r4, #68]	@ zero_extendqisi2
 1687 0038 D2B2     		uxtb	r2, r2
 1688 003a 012A     		cmp	r2, #1
 1689 003c 46D0     		beq	.L106
 1690              	.LVL126:
 799:Drivers/STM32F7xx_HAL_Driver/Src/stm32f7xx_hal_spdifrx.c ****     
 1691              		.loc 1 799 5 discriminator 2 view .LVU505
 1692 003e 0122     		movs	r2, #1
 1693 0040 84F84420 		strb	r2, [r4, #68]
 799:Drivers/STM32F7xx_HAL_Driver/Src/stm32f7xx_hal_spdifrx.c ****     
 1694              		.loc 1 799 5 discriminator 2 view .LVU506
 801:Drivers/STM32F7xx_HAL_Driver/Src/stm32f7xx_hal_spdifrx.c ****     hspdif->State = HAL_SPDIFRX_STATE_BUSY_CX;
 1695              		.loc 1 801 5 discriminator 2 view .LVU507
 801:Drivers/STM32F7xx_HAL_Driver/Src/stm32f7xx_hal_spdifrx.c ****     hspdif->State = HAL_SPDIFRX_STATE_BUSY_CX;
 1696              		.loc 1 801 23 is_stmt 0 discriminator 2 view .LVU508
 1697 0044 0022     		movs	r2, #0
 1698 0046 A264     		str	r2, [r4, #72]
 802:Drivers/STM32F7xx_HAL_Driver/Src/stm32f7xx_hal_spdifrx.c ****     
 1699              		.loc 1 802 5 is_stmt 1 discriminator 2 view .LVU509
 802:Drivers/STM32F7xx_HAL_Driver/Src/stm32f7xx_hal_spdifrx.c ****     
 1700              		.loc 1 802 19 is_stmt 0 discriminator 2 view .LVU510
 1701 0048 0422     		movs	r2, #4
 1702 004a 84F84520 		strb	r2, [r4, #69]
 805:Drivers/STM32F7xx_HAL_Driver/Src/stm32f7xx_hal_spdifrx.c ****     
 1703              		.loc 1 805 5 is_stmt 1 discriminator 2 view .LVU511
 805:Drivers/STM32F7xx_HAL_Driver/Src/stm32f7xx_hal_spdifrx.c ****     
 1704              		.loc 1 805 11 is_stmt 0 discriminator 2 view .LVU512
 1705 004e E26B     		ldr	r2, [r4, #60]
 805:Drivers/STM32F7xx_HAL_Driver/Src/stm32f7xx_hal_spdifrx.c ****     
 1706              		.loc 1 805 44 discriminator 2 view .LVU513
 1707 0050 2049     		ldr	r1, .L112
 1708 0052 1164     		str	r1, [r2, #64]
 808:Drivers/STM32F7xx_HAL_Driver/Src/stm32f7xx_hal_spdifrx.c ****     
 1709              		.loc 1 808 5 is_stmt 1 discriminator 2 view .LVU514
 808:Drivers/STM32F7xx_HAL_Driver/Src/stm32f7xx_hal_spdifrx.c ****     
 1710              		.loc 1 808 11 is_stmt 0 discriminator 2 view .LVU515
 1711 0054 E26B     		ldr	r2, [r4, #60]
 808:Drivers/STM32F7xx_HAL_Driver/Src/stm32f7xx_hal_spdifrx.c ****     
 1712              		.loc 1 808 40 discriminator 2 view .LVU516
 1713 0056 2049     		ldr	r1, .L112+4
 1714 0058 D163     		str	r1, [r2, #60]
 811:Drivers/STM32F7xx_HAL_Driver/Src/stm32f7xx_hal_spdifrx.c ****     
ARM GAS  C:\Users\Nina\AppData\Local\Temp\ccfkNb9x.s 			page 61


 1715              		.loc 1 811 5 is_stmt 1 discriminator 2 view .LVU517
 811:Drivers/STM32F7xx_HAL_Driver/Src/stm32f7xx_hal_spdifrx.c ****     
 1716              		.loc 1 811 11 is_stmt 0 discriminator 2 view .LVU518
 1717 005a E26B     		ldr	r2, [r4, #60]
 811:Drivers/STM32F7xx_HAL_Driver/Src/stm32f7xx_hal_spdifrx.c ****     
 1718              		.loc 1 811 41 discriminator 2 view .LVU519
 1719 005c 1F49     		ldr	r1, .L112+8
 1720 005e D164     		str	r1, [r2, #76]
 814:Drivers/STM32F7xx_HAL_Driver/Src/stm32f7xx_hal_spdifrx.c ****     
 1721              		.loc 1 814 5 is_stmt 1 discriminator 2 view .LVU520
 814:Drivers/STM32F7xx_HAL_Driver/Src/stm32f7xx_hal_spdifrx.c ****     
 1722              		.loc 1 814 57 is_stmt 0 discriminator 2 view .LVU521
 1723 0060 2168     		ldr	r1, [r4]
 814:Drivers/STM32F7xx_HAL_Driver/Src/stm32f7xx_hal_spdifrx.c ****     
 1724              		.loc 1 814 5 discriminator 2 view .LVU522
 1725 0062 226B     		ldr	r2, [r4, #48]
 1726 0064 1431     		adds	r1, r1, #20
 1727 0066 E06B     		ldr	r0, [r4, #60]
 1728              	.LVL127:
 814:Drivers/STM32F7xx_HAL_Driver/Src/stm32f7xx_hal_spdifrx.c ****     
 1729              		.loc 1 814 5 discriminator 2 view .LVU523
 1730 0068 FFF7FEFF 		bl	HAL_DMA_Start_IT
 1731              	.LVL128:
 817:Drivers/STM32F7xx_HAL_Driver/Src/stm32f7xx_hal_spdifrx.c ****     
 1732              		.loc 1 817 5 is_stmt 1 discriminator 2 view .LVU524
 817:Drivers/STM32F7xx_HAL_Driver/Src/stm32f7xx_hal_spdifrx.c ****     
 1733              		.loc 1 817 11 is_stmt 0 discriminator 2 view .LVU525
 1734 006c 2268     		ldr	r2, [r4]
 817:Drivers/STM32F7xx_HAL_Driver/Src/stm32f7xx_hal_spdifrx.c ****     
 1735              		.loc 1 817 26 discriminator 2 view .LVU526
 1736 006e 1368     		ldr	r3, [r2]
 1737 0070 43F48063 		orr	r3, r3, #1024
 1738 0074 1360     		str	r3, [r2]
 819:Drivers/STM32F7xx_HAL_Driver/Src/stm32f7xx_hal_spdifrx.c ****     {
 1739              		.loc 1 819 5 is_stmt 1 discriminator 2 view .LVU527
 819:Drivers/STM32F7xx_HAL_Driver/Src/stm32f7xx_hal_spdifrx.c ****     {
 1740              		.loc 1 819 18 is_stmt 0 discriminator 2 view .LVU528
 1741 0076 4FF04023 		mov	r3, #1073758208
 1742 007a 1B68     		ldr	r3, [r3]
 819:Drivers/STM32F7xx_HAL_Driver/Src/stm32f7xx_hal_spdifrx.c ****     {
 1743              		.loc 1 819 23 discriminator 2 view .LVU529
 1744 007c 03F00303 		and	r3, r3, #3
 819:Drivers/STM32F7xx_HAL_Driver/Src/stm32f7xx_hal_spdifrx.c ****     {
 1745              		.loc 1 819 8 discriminator 2 view .LVU530
 1746 0080 012B     		cmp	r3, #1
 1747 0082 05D1     		bne	.L102
 819:Drivers/STM32F7xx_HAL_Driver/Src/stm32f7xx_hal_spdifrx.c ****     {
 1748              		.loc 1 819 80 discriminator 1 view .LVU531
 1749 0084 4FF04023 		mov	r3, #1073758208
 1750 0088 1B68     		ldr	r3, [r3]
 819:Drivers/STM32F7xx_HAL_Driver/Src/stm32f7xx_hal_spdifrx.c ****     {
 1751              		.loc 1 819 68 discriminator 1 view .LVU532
 1752 008a 13F0030F 		tst	r3, #3
 1753 008e 14D0     		beq	.L103
 1754              	.L102:
 822:Drivers/STM32F7xx_HAL_Driver/Src/stm32f7xx_hal_spdifrx.c ****       
 1755              		.loc 1 822 7 is_stmt 1 view .LVU533
ARM GAS  C:\Users\Nina\AppData\Local\Temp\ccfkNb9x.s 			page 62


 1756 0090 2268     		ldr	r2, [r4]
 1757 0092 1368     		ldr	r3, [r2]
 1758 0094 43F00103 		orr	r3, r3, #1
 1759 0098 1360     		str	r3, [r2]
 825:Drivers/STM32F7xx_HAL_Driver/Src/stm32f7xx_hal_spdifrx.c ****       
 1760              		.loc 1 825 7 view .LVU534
 825:Drivers/STM32F7xx_HAL_Driver/Src/stm32f7xx_hal_spdifrx.c ****       
 1761              		.loc 1 825 19 is_stmt 0 view .LVU535
 1762 009a FFF7FEFF 		bl	HAL_GetTick
 1763              	.LVL129:
 828:Drivers/STM32F7xx_HAL_Driver/Src/stm32f7xx_hal_spdifrx.c ****       { 
 1764              		.loc 1 828 7 is_stmt 1 view .LVU536
 828:Drivers/STM32F7xx_HAL_Driver/Src/stm32f7xx_hal_spdifrx.c ****       { 
 1765              		.loc 1 828 10 is_stmt 0 view .LVU537
 1766 009e 0090     		str	r0, [sp]
 1767 00a0 4FF6FF73 		movw	r3, #65535
 1768 00a4 0022     		movs	r2, #0
 1769 00a6 2021     		movs	r1, #32
 1770 00a8 2046     		mov	r0, r4
 1771              	.LVL130:
 828:Drivers/STM32F7xx_HAL_Driver/Src/stm32f7xx_hal_spdifrx.c ****       { 
 1772              		.loc 1 828 10 view .LVU538
 1773 00aa FFF7FEFF 		bl	SPDIFRX_WaitOnFlagUntilTimeout
 1774              	.LVL131:
 828:Drivers/STM32F7xx_HAL_Driver/Src/stm32f7xx_hal_spdifrx.c ****       { 
 1775              		.loc 1 828 9 view .LVU539
 1776 00ae 78B9     		cbnz	r0, .L107
 834:Drivers/STM32F7xx_HAL_Driver/Src/stm32f7xx_hal_spdifrx.c ****     }
 1777              		.loc 1 834 7 is_stmt 1 view .LVU540
 1778 00b0 2268     		ldr	r2, [r4]
 1779 00b2 1368     		ldr	r3, [r2]
 1780 00b4 43F00303 		orr	r3, r3, #3
 1781 00b8 1360     		str	r3, [r2]
 1782              	.L103:
 838:Drivers/STM32F7xx_HAL_Driver/Src/stm32f7xx_hal_spdifrx.c ****     
 1783              		.loc 1 838 5 view .LVU541
 838:Drivers/STM32F7xx_HAL_Driver/Src/stm32f7xx_hal_spdifrx.c ****     
 1784              		.loc 1 838 5 view .LVU542
 1785 00ba 0020     		movs	r0, #0
 1786 00bc 84F84400 		strb	r0, [r4, #68]
 838:Drivers/STM32F7xx_HAL_Driver/Src/stm32f7xx_hal_spdifrx.c ****     
 1787              		.loc 1 838 5 view .LVU543
 840:Drivers/STM32F7xx_HAL_Driver/Src/stm32f7xx_hal_spdifrx.c ****   }
 1788              		.loc 1 840 5 view .LVU544
 1789              	.L100:
 846:Drivers/STM32F7xx_HAL_Driver/Src/stm32f7xx_hal_spdifrx.c **** 
 1790              		.loc 1 846 1 is_stmt 0 view .LVU545
 1791 00c0 02B0     		add	sp, sp, #8
 1792              	.LCFI33:
 1793              		.cfi_def_cfa_offset 8
 1794              		@ sp needed
 1795 00c2 10BD     		pop	{r4, pc}
 1796              	.LVL132:
 1797              	.L104:
 1798              	.LCFI34:
 1799              		.cfi_def_cfa_offset 0
 1800              		.cfi_restore 4
ARM GAS  C:\Users\Nina\AppData\Local\Temp\ccfkNb9x.s 			page 63


 1801              		.cfi_restore 14
 789:Drivers/STM32F7xx_HAL_Driver/Src/stm32f7xx_hal_spdifrx.c ****   } 
 1802              		.loc 1 789 13 view .LVU546
 1803 00c4 0120     		movs	r0, #1
 1804              	.LVL133:
 846:Drivers/STM32F7xx_HAL_Driver/Src/stm32f7xx_hal_spdifrx.c **** 
 1805              		.loc 1 846 1 view .LVU547
 1806 00c6 7047     		bx	lr
 1807              	.LVL134:
 1808              	.L105:
 1809              	.LCFI35:
 1810              		.cfi_def_cfa_offset 16
 1811              		.cfi_offset 4, -8
 1812              		.cfi_offset 14, -4
 844:Drivers/STM32F7xx_HAL_Driver/Src/stm32f7xx_hal_spdifrx.c ****   }
 1813              		.loc 1 844 12 view .LVU548
 1814 00c8 0220     		movs	r0, #2
 1815              	.LVL135:
 844:Drivers/STM32F7xx_HAL_Driver/Src/stm32f7xx_hal_spdifrx.c ****   }
 1816              		.loc 1 844 12 view .LVU549
 1817 00ca F9E7     		b	.L100
 1818              	.LVL136:
 1819              	.L106:
 799:Drivers/STM32F7xx_HAL_Driver/Src/stm32f7xx_hal_spdifrx.c ****     
 1820              		.loc 1 799 5 view .LVU550
 1821 00cc 0220     		movs	r0, #2
 1822              	.LVL137:
 799:Drivers/STM32F7xx_HAL_Driver/Src/stm32f7xx_hal_spdifrx.c ****     
 1823              		.loc 1 799 5 view .LVU551
 1824 00ce F7E7     		b	.L100
 1825              	.LVL138:
 1826              	.L107:
 830:Drivers/STM32F7xx_HAL_Driver/Src/stm32f7xx_hal_spdifrx.c ****       }  
 1827              		.loc 1 830 16 view .LVU552
 1828 00d0 0320     		movs	r0, #3
 1829 00d2 F5E7     		b	.L100
 1830              	.L113:
 1831              		.align	2
 1832              	.L112:
 1833 00d4 00000000 		.word	SPDIFRX_DMACxHalfCplt
 1834 00d8 00000000 		.word	SPDIFRX_DMACxCplt
 1835 00dc 00000000 		.word	SPDIFRX_DMAError
 1836              		.cfi_endproc
 1837              	.LFE148:
 1839              		.section	.text.HAL_SPDIFRX_DMAStop,"ax",%progbits
 1840              		.align	1
 1841              		.global	HAL_SPDIFRX_DMAStop
 1842              		.syntax unified
 1843              		.thumb
 1844              		.thumb_func
 1845              		.fpu fpv5-sp-d16
 1847              	HAL_SPDIFRX_DMAStop:
 1848              	.LVL139:
 1849              	.LFB149:
 854:Drivers/STM32F7xx_HAL_Driver/Src/stm32f7xx_hal_spdifrx.c ****   /* Process Locked */
 1850              		.loc 1 854 1 is_stmt 1 view -0
 1851              		.cfi_startproc
ARM GAS  C:\Users\Nina\AppData\Local\Temp\ccfkNb9x.s 			page 64


 1852              		@ args = 0, pretend = 0, frame = 0
 1853              		@ frame_needed = 0, uses_anonymous_args = 0
 1854              		@ link register save eliminated.
 856:Drivers/STM32F7xx_HAL_Driver/Src/stm32f7xx_hal_spdifrx.c ****   
 1855              		.loc 1 856 3 view .LVU554
 856:Drivers/STM32F7xx_HAL_Driver/Src/stm32f7xx_hal_spdifrx.c ****   
 1856              		.loc 1 856 3 view .LVU555
 1857 0000 90F84430 		ldrb	r3, [r0, #68]	@ zero_extendqisi2
 1858 0004 DBB2     		uxtb	r3, r3
 1859 0006 012B     		cmp	r3, #1
 1860 0008 28D0     		beq	.L116
 856:Drivers/STM32F7xx_HAL_Driver/Src/stm32f7xx_hal_spdifrx.c ****   
 1861              		.loc 1 856 3 discriminator 2 view .LVU556
 1862 000a 0122     		movs	r2, #1
 1863 000c 80F84420 		strb	r2, [r0, #68]
 856:Drivers/STM32F7xx_HAL_Driver/Src/stm32f7xx_hal_spdifrx.c ****   
 1864              		.loc 1 856 3 discriminator 2 view .LVU557
 859:Drivers/STM32F7xx_HAL_Driver/Src/stm32f7xx_hal_spdifrx.c ****   hspdif->Instance->CR &= (uint16_t)(~SPDIFRX_CR_CBDMAEN);
 1865              		.loc 1 859 3 discriminator 2 view .LVU558
 859:Drivers/STM32F7xx_HAL_Driver/Src/stm32f7xx_hal_spdifrx.c ****   hspdif->Instance->CR &= (uint16_t)(~SPDIFRX_CR_CBDMAEN);
 1866              		.loc 1 859 9 is_stmt 0 discriminator 2 view .LVU559
 1867 0010 0168     		ldr	r1, [r0]
 859:Drivers/STM32F7xx_HAL_Driver/Src/stm32f7xx_hal_spdifrx.c ****   hspdif->Instance->CR &= (uint16_t)(~SPDIFRX_CR_CBDMAEN);
 1868              		.loc 1 859 24 discriminator 2 view .LVU560
 1869 0012 0B68     		ldr	r3, [r1]
 1870 0014 23F00403 		bic	r3, r3, #4
 1871 0018 1B04     		lsls	r3, r3, #16
 1872 001a 1B0C     		lsrs	r3, r3, #16
 1873 001c 0B60     		str	r3, [r1]
 860:Drivers/STM32F7xx_HAL_Driver/Src/stm32f7xx_hal_spdifrx.c ****   
 1874              		.loc 1 860 3 is_stmt 1 discriminator 2 view .LVU561
 860:Drivers/STM32F7xx_HAL_Driver/Src/stm32f7xx_hal_spdifrx.c ****   
 1875              		.loc 1 860 9 is_stmt 0 discriminator 2 view .LVU562
 1876 001e 0168     		ldr	r1, [r0]
 860:Drivers/STM32F7xx_HAL_Driver/Src/stm32f7xx_hal_spdifrx.c ****   
 1877              		.loc 1 860 24 discriminator 2 view .LVU563
 1878 0020 0B68     		ldr	r3, [r1]
 1879 0022 23F48063 		bic	r3, r3, #1024
 1880 0026 1B04     		lsls	r3, r3, #16
 1881 0028 1B0C     		lsrs	r3, r3, #16
 1882 002a 0B60     		str	r3, [r1]
 863:Drivers/STM32F7xx_HAL_Driver/Src/stm32f7xx_hal_spdifrx.c ****   __HAL_DMA_DISABLE(hspdif->hdmaCsRx);
 1883              		.loc 1 863 3 is_stmt 1 discriminator 2 view .LVU564
 1884 002c 036C     		ldr	r3, [r0, #64]
 1885 002e 1968     		ldr	r1, [r3]
 1886 0030 0B68     		ldr	r3, [r1]
 1887 0032 23F00103 		bic	r3, r3, #1
 1888 0036 0B60     		str	r3, [r1]
 864:Drivers/STM32F7xx_HAL_Driver/Src/stm32f7xx_hal_spdifrx.c ****   
 1889              		.loc 1 864 3 discriminator 2 view .LVU565
 1890 0038 C36B     		ldr	r3, [r0, #60]
 1891 003a 1968     		ldr	r1, [r3]
 1892 003c 0B68     		ldr	r3, [r1]
 1893 003e 23F00103 		bic	r3, r3, #1
 1894 0042 0B60     		str	r3, [r1]
 867:Drivers/STM32F7xx_HAL_Driver/Src/stm32f7xx_hal_spdifrx.c ****   
 1895              		.loc 1 867 3 discriminator 2 view .LVU566
ARM GAS  C:\Users\Nina\AppData\Local\Temp\ccfkNb9x.s 			page 65


 1896 0044 0168     		ldr	r1, [r0]
 1897 0046 0B68     		ldr	r3, [r1]
 1898 0048 23F00303 		bic	r3, r3, #3
 1899 004c 0B60     		str	r3, [r1]
 869:Drivers/STM32F7xx_HAL_Driver/Src/stm32f7xx_hal_spdifrx.c ****   
 1900              		.loc 1 869 3 discriminator 2 view .LVU567
 869:Drivers/STM32F7xx_HAL_Driver/Src/stm32f7xx_hal_spdifrx.c ****   
 1901              		.loc 1 869 17 is_stmt 0 discriminator 2 view .LVU568
 1902 004e 80F84520 		strb	r2, [r0, #69]
 872:Drivers/STM32F7xx_HAL_Driver/Src/stm32f7xx_hal_spdifrx.c ****   
 1903              		.loc 1 872 3 is_stmt 1 discriminator 2 view .LVU569
 872:Drivers/STM32F7xx_HAL_Driver/Src/stm32f7xx_hal_spdifrx.c ****   
 1904              		.loc 1 872 3 discriminator 2 view .LVU570
 1905 0052 0023     		movs	r3, #0
 1906 0054 80F84430 		strb	r3, [r0, #68]
 872:Drivers/STM32F7xx_HAL_Driver/Src/stm32f7xx_hal_spdifrx.c ****   
 1907              		.loc 1 872 3 discriminator 2 view .LVU571
 874:Drivers/STM32F7xx_HAL_Driver/Src/stm32f7xx_hal_spdifrx.c **** }
 1908              		.loc 1 874 3 discriminator 2 view .LVU572
 874:Drivers/STM32F7xx_HAL_Driver/Src/stm32f7xx_hal_spdifrx.c **** }
 1909              		.loc 1 874 10 is_stmt 0 discriminator 2 view .LVU573
 1910 0058 1846     		mov	r0, r3
 1911              	.LVL140:
 874:Drivers/STM32F7xx_HAL_Driver/Src/stm32f7xx_hal_spdifrx.c **** }
 1912              		.loc 1 874 10 discriminator 2 view .LVU574
 1913 005a 7047     		bx	lr
 1914              	.LVL141:
 1915              	.L116:
 856:Drivers/STM32F7xx_HAL_Driver/Src/stm32f7xx_hal_spdifrx.c ****   
 1916              		.loc 1 856 3 view .LVU575
 1917 005c 0220     		movs	r0, #2
 1918              	.LVL142:
 875:Drivers/STM32F7xx_HAL_Driver/Src/stm32f7xx_hal_spdifrx.c **** 
 1919              		.loc 1 875 1 view .LVU576
 1920 005e 7047     		bx	lr
 1921              		.cfi_endproc
 1922              	.LFE149:
 1924              		.section	.text.HAL_SPDIFRX_RxHalfCpltCallback,"ax",%progbits
 1925              		.align	1
 1926              		.weak	HAL_SPDIFRX_RxHalfCpltCallback
 1927              		.syntax unified
 1928              		.thumb
 1929              		.thumb_func
 1930              		.fpu fpv5-sp-d16
 1932              	HAL_SPDIFRX_RxHalfCpltCallback:
 1933              	.LVL143:
 1934              	.LFB151:
 929:Drivers/STM32F7xx_HAL_Driver/Src/stm32f7xx_hal_spdifrx.c ****   /* Prevent unused argument(s) compilation warning */
 1935              		.loc 1 929 1 is_stmt 1 view -0
 1936              		.cfi_startproc
 1937              		@ args = 0, pretend = 0, frame = 0
 1938              		@ frame_needed = 0, uses_anonymous_args = 0
 1939              		@ link register save eliminated.
 931:Drivers/STM32F7xx_HAL_Driver/Src/stm32f7xx_hal_spdifrx.c ****   
 1940              		.loc 1 931 3 view .LVU578
 936:Drivers/STM32F7xx_HAL_Driver/Src/stm32f7xx_hal_spdifrx.c **** 
 1941              		.loc 1 936 1 is_stmt 0 view .LVU579
ARM GAS  C:\Users\Nina\AppData\Local\Temp\ccfkNb9x.s 			page 66


 1942 0000 7047     		bx	lr
 1943              		.cfi_endproc
 1944              	.LFE151:
 1946              		.section	.text.SPDIFRX_DMARxHalfCplt,"ax",%progbits
 1947              		.align	1
 1948              		.syntax unified
 1949              		.thumb
 1950              		.thumb_func
 1951              		.fpu fpv5-sp-d16
 1953              	SPDIFRX_DMARxHalfCplt:
 1954              	.LVL144:
 1955              	.LFB159:
1066:Drivers/STM32F7xx_HAL_Driver/Src/stm32f7xx_hal_spdifrx.c ****   SPDIFRX_HandleTypeDef* hspdif = (SPDIFRX_HandleTypeDef*)((DMA_HandleTypeDef*)hdma)->Parent;
 1956              		.loc 1 1066 1 is_stmt 1 view -0
 1957              		.cfi_startproc
 1958              		@ args = 0, pretend = 0, frame = 0
 1959              		@ frame_needed = 0, uses_anonymous_args = 0
1066:Drivers/STM32F7xx_HAL_Driver/Src/stm32f7xx_hal_spdifrx.c ****   SPDIFRX_HandleTypeDef* hspdif = (SPDIFRX_HandleTypeDef*)((DMA_HandleTypeDef*)hdma)->Parent;
 1960              		.loc 1 1066 1 is_stmt 0 view .LVU581
 1961 0000 08B5     		push	{r3, lr}
 1962              	.LCFI36:
 1963              		.cfi_def_cfa_offset 8
 1964              		.cfi_offset 3, -8
 1965              		.cfi_offset 14, -4
1067:Drivers/STM32F7xx_HAL_Driver/Src/stm32f7xx_hal_spdifrx.c ****   
 1966              		.loc 1 1067 3 is_stmt 1 view .LVU582
 1967              	.LVL145:
1069:Drivers/STM32F7xx_HAL_Driver/Src/stm32f7xx_hal_spdifrx.c **** }
 1968              		.loc 1 1069 3 view .LVU583
 1969 0002 806B     		ldr	r0, [r0, #56]
 1970              	.LVL146:
1069:Drivers/STM32F7xx_HAL_Driver/Src/stm32f7xx_hal_spdifrx.c **** }
 1971              		.loc 1 1069 3 is_stmt 0 view .LVU584
 1972 0004 FFF7FEFF 		bl	HAL_SPDIFRX_RxHalfCpltCallback
 1973              	.LVL147:
1070:Drivers/STM32F7xx_HAL_Driver/Src/stm32f7xx_hal_spdifrx.c **** 
 1974              		.loc 1 1070 1 view .LVU585
 1975 0008 08BD     		pop	{r3, pc}
 1976              		.cfi_endproc
 1977              	.LFE159:
 1979              		.section	.text.HAL_SPDIFRX_RxCpltCallback,"ax",%progbits
 1980              		.align	1
 1981              		.weak	HAL_SPDIFRX_RxCpltCallback
 1982              		.syntax unified
 1983              		.thumb
 1984              		.thumb_func
 1985              		.fpu fpv5-sp-d16
 1987              	HAL_SPDIFRX_RxCpltCallback:
 1988              	.LVL148:
 1989              	.LFB152:
 944:Drivers/STM32F7xx_HAL_Driver/Src/stm32f7xx_hal_spdifrx.c ****   /* Prevent unused argument(s) compilation warning */
 1990              		.loc 1 944 1 is_stmt 1 view -0
 1991              		.cfi_startproc
 1992              		@ args = 0, pretend = 0, frame = 0
 1993              		@ frame_needed = 0, uses_anonymous_args = 0
 1994              		@ link register save eliminated.
 946:Drivers/STM32F7xx_HAL_Driver/Src/stm32f7xx_hal_spdifrx.c ****   
ARM GAS  C:\Users\Nina\AppData\Local\Temp\ccfkNb9x.s 			page 67


 1995              		.loc 1 946 3 view .LVU587
 951:Drivers/STM32F7xx_HAL_Driver/Src/stm32f7xx_hal_spdifrx.c **** 
 1996              		.loc 1 951 1 is_stmt 0 view .LVU588
 1997 0000 7047     		bx	lr
 1998              		.cfi_endproc
 1999              	.LFE152:
 2001              		.section	.text.SPDIFRX_DMARxCplt,"ax",%progbits
 2002              		.align	1
 2003              		.syntax unified
 2004              		.thumb
 2005              		.thumb_func
 2006              		.fpu fpv5-sp-d16
 2008              	SPDIFRX_DMARxCplt:
 2009              	.LVL149:
 2010              	.LFB158:
1047:Drivers/STM32F7xx_HAL_Driver/Src/stm32f7xx_hal_spdifrx.c ****   SPDIFRX_HandleTypeDef* hspdif = ( SPDIFRX_HandleTypeDef* )((DMA_HandleTypeDef* )hdma)->Parent;
 2011              		.loc 1 1047 1 is_stmt 1 view -0
 2012              		.cfi_startproc
 2013              		@ args = 0, pretend = 0, frame = 0
 2014              		@ frame_needed = 0, uses_anonymous_args = 0
1047:Drivers/STM32F7xx_HAL_Driver/Src/stm32f7xx_hal_spdifrx.c ****   SPDIFRX_HandleTypeDef* hspdif = ( SPDIFRX_HandleTypeDef* )((DMA_HandleTypeDef* )hdma)->Parent;
 2015              		.loc 1 1047 1 is_stmt 0 view .LVU590
 2016 0000 08B5     		push	{r3, lr}
 2017              	.LCFI37:
 2018              		.cfi_def_cfa_offset 8
 2019              		.cfi_offset 3, -8
 2020              		.cfi_offset 14, -4
 2021 0002 0346     		mov	r3, r0
1048:Drivers/STM32F7xx_HAL_Driver/Src/stm32f7xx_hal_spdifrx.c ****   
 2022              		.loc 1 1048 3 is_stmt 1 view .LVU591
1048:Drivers/STM32F7xx_HAL_Driver/Src/stm32f7xx_hal_spdifrx.c ****   
 2023              		.loc 1 1048 26 is_stmt 0 view .LVU592
 2024 0004 806B     		ldr	r0, [r0, #56]
 2025              	.LVL150:
1051:Drivers/STM32F7xx_HAL_Driver/Src/stm32f7xx_hal_spdifrx.c ****   {
 2026              		.loc 1 1051 3 is_stmt 1 view .LVU593
1051:Drivers/STM32F7xx_HAL_Driver/Src/stm32f7xx_hal_spdifrx.c ****   {
 2027              		.loc 1 1051 11 is_stmt 0 view .LVU594
 2028 0006 1B68     		ldr	r3, [r3]
 2029              	.LVL151:
1051:Drivers/STM32F7xx_HAL_Driver/Src/stm32f7xx_hal_spdifrx.c ****   {
 2030              		.loc 1 1051 21 view .LVU595
 2031 0008 1B68     		ldr	r3, [r3]
1051:Drivers/STM32F7xx_HAL_Driver/Src/stm32f7xx_hal_spdifrx.c ****   {
 2032              		.loc 1 1051 5 view .LVU596
 2033 000a 13F4807F 		tst	r3, #256
 2034 000e 0BD1     		bne	.L122
1053:Drivers/STM32F7xx_HAL_Driver/Src/stm32f7xx_hal_spdifrx.c ****     hspdif->RxXferCount = 0;
 2035              		.loc 1 1053 5 is_stmt 1 view .LVU597
1053:Drivers/STM32F7xx_HAL_Driver/Src/stm32f7xx_hal_spdifrx.c ****     hspdif->RxXferCount = 0;
 2036              		.loc 1 1053 11 is_stmt 0 view .LVU598
 2037 0010 0268     		ldr	r2, [r0]
1053:Drivers/STM32F7xx_HAL_Driver/Src/stm32f7xx_hal_spdifrx.c ****     hspdif->RxXferCount = 0;
 2038              		.loc 1 1053 26 view .LVU599
 2039 0012 1368     		ldr	r3, [r2]
 2040 0014 23F00403 		bic	r3, r3, #4
 2041 0018 1B04     		lsls	r3, r3, #16
ARM GAS  C:\Users\Nina\AppData\Local\Temp\ccfkNb9x.s 			page 68


 2042 001a 1B0C     		lsrs	r3, r3, #16
 2043 001c 1360     		str	r3, [r2]
1054:Drivers/STM32F7xx_HAL_Driver/Src/stm32f7xx_hal_spdifrx.c ****     hspdif->State = HAL_SPDIFRX_STATE_READY; 
 2044              		.loc 1 1054 5 is_stmt 1 view .LVU600
1054:Drivers/STM32F7xx_HAL_Driver/Src/stm32f7xx_hal_spdifrx.c ****     hspdif->State = HAL_SPDIFRX_STATE_READY; 
 2045              		.loc 1 1054 25 is_stmt 0 view .LVU601
 2046 001e 0023     		movs	r3, #0
 2047 0020 C386     		strh	r3, [r0, #54]	@ movhi
1055:Drivers/STM32F7xx_HAL_Driver/Src/stm32f7xx_hal_spdifrx.c ****   }
 2048              		.loc 1 1055 5 is_stmt 1 view .LVU602
1055:Drivers/STM32F7xx_HAL_Driver/Src/stm32f7xx_hal_spdifrx.c ****   }
 2049              		.loc 1 1055 19 is_stmt 0 view .LVU603
 2050 0022 0123     		movs	r3, #1
 2051 0024 80F84530 		strb	r3, [r0, #69]
 2052              	.L122:
1057:Drivers/STM32F7xx_HAL_Driver/Src/stm32f7xx_hal_spdifrx.c **** }
 2053              		.loc 1 1057 3 is_stmt 1 view .LVU604
 2054 0028 FFF7FEFF 		bl	HAL_SPDIFRX_RxCpltCallback
 2055              	.LVL152:
1058:Drivers/STM32F7xx_HAL_Driver/Src/stm32f7xx_hal_spdifrx.c **** 
 2056              		.loc 1 1058 1 is_stmt 0 view .LVU605
 2057 002c 08BD     		pop	{r3, pc}
 2058              		.cfi_endproc
 2059              	.LFE158:
 2061              		.section	.text.SPDIFRX_ReceiveDataFlow_IT,"ax",%progbits
 2062              		.align	1
 2063              		.syntax unified
 2064              		.thumb
 2065              		.thumb_func
 2066              		.fpu fpv5-sp-d16
 2068              	SPDIFRX_ReceiveDataFlow_IT:
 2069              	.LVL153:
 2070              	.LFB163:
1128:Drivers/STM32F7xx_HAL_Driver/Src/stm32f7xx_hal_spdifrx.c ****   /* Receive data */
 2071              		.loc 1 1128 1 is_stmt 1 view -0
 2072              		.cfi_startproc
 2073              		@ args = 0, pretend = 0, frame = 0
 2074              		@ frame_needed = 0, uses_anonymous_args = 0
1128:Drivers/STM32F7xx_HAL_Driver/Src/stm32f7xx_hal_spdifrx.c ****   /* Receive data */
 2075              		.loc 1 1128 1 is_stmt 0 view .LVU607
 2076 0000 08B5     		push	{r3, lr}
 2077              	.LCFI38:
 2078              		.cfi_def_cfa_offset 8
 2079              		.cfi_offset 3, -8
 2080              		.cfi_offset 14, -4
1130:Drivers/STM32F7xx_HAL_Driver/Src/stm32f7xx_hal_spdifrx.c ****   hspdif->RxXferCount--;
 2081              		.loc 1 1130 3 is_stmt 1 view .LVU608
1130:Drivers/STM32F7xx_HAL_Driver/Src/stm32f7xx_hal_spdifrx.c ****   hspdif->RxXferCount--;
 2082              		.loc 1 1130 35 is_stmt 0 view .LVU609
 2083 0002 0268     		ldr	r2, [r0]
1130:Drivers/STM32F7xx_HAL_Driver/Src/stm32f7xx_hal_spdifrx.c ****   hspdif->RxXferCount--;
 2084              		.loc 1 1130 11 view .LVU610
 2085 0004 C36A     		ldr	r3, [r0, #44]
1130:Drivers/STM32F7xx_HAL_Driver/Src/stm32f7xx_hal_spdifrx.c ****   hspdif->RxXferCount--;
 2086              		.loc 1 1130 23 view .LVU611
 2087 0006 191D     		adds	r1, r3, #4
 2088 0008 C162     		str	r1, [r0, #44]
ARM GAS  C:\Users\Nina\AppData\Local\Temp\ccfkNb9x.s 			page 69


1130:Drivers/STM32F7xx_HAL_Driver/Src/stm32f7xx_hal_spdifrx.c ****   hspdif->RxXferCount--;
 2089              		.loc 1 1130 45 view .LVU612
 2090 000a 1269     		ldr	r2, [r2, #16]
1130:Drivers/STM32F7xx_HAL_Driver/Src/stm32f7xx_hal_spdifrx.c ****   hspdif->RxXferCount--;
 2091              		.loc 1 1130 27 view .LVU613
 2092 000c 1A60     		str	r2, [r3]
1131:Drivers/STM32F7xx_HAL_Driver/Src/stm32f7xx_hal_spdifrx.c ****   
 2093              		.loc 1 1131 3 is_stmt 1 view .LVU614
1131:Drivers/STM32F7xx_HAL_Driver/Src/stm32f7xx_hal_spdifrx.c ****   
 2094              		.loc 1 1131 9 is_stmt 0 view .LVU615
 2095 000e C38E     		ldrh	r3, [r0, #54]
 2096 0010 9BB2     		uxth	r3, r3
1131:Drivers/STM32F7xx_HAL_Driver/Src/stm32f7xx_hal_spdifrx.c ****   
 2097              		.loc 1 1131 22 view .LVU616
 2098 0012 013B     		subs	r3, r3, #1
 2099 0014 9BB2     		uxth	r3, r3
 2100 0016 C386     		strh	r3, [r0, #54]	@ movhi
1133:Drivers/STM32F7xx_HAL_Driver/Src/stm32f7xx_hal_spdifrx.c ****   {            
 2101              		.loc 1 1133 3 is_stmt 1 view .LVU617
1133:Drivers/STM32F7xx_HAL_Driver/Src/stm32f7xx_hal_spdifrx.c ****   {            
 2102              		.loc 1 1133 12 is_stmt 0 view .LVU618
 2103 0018 C38E     		ldrh	r3, [r0, #54]
 2104 001a 9BB2     		uxth	r3, r3
1133:Drivers/STM32F7xx_HAL_Driver/Src/stm32f7xx_hal_spdifrx.c ****   {            
 2105              		.loc 1 1133 5 view .LVU619
 2106 001c 03B1     		cbz	r3, .L127
 2107              	.LVL154:
 2108              	.L124:
1145:Drivers/STM32F7xx_HAL_Driver/Src/stm32f7xx_hal_spdifrx.c **** 
 2109              		.loc 1 1145 1 view .LVU620
 2110 001e 08BD     		pop	{r3, pc}
 2111              	.LVL155:
 2112              	.L127:
1136:Drivers/STM32F7xx_HAL_Driver/Src/stm32f7xx_hal_spdifrx.c ****     
 2113              		.loc 1 1136 5 is_stmt 1 view .LVU621
 2114 0020 0268     		ldr	r2, [r0]
 2115 0022 5368     		ldr	r3, [r2, #4]
 2116 0024 23F00D03 		bic	r3, r3, #13
 2117 0028 1B04     		lsls	r3, r3, #16
 2118 002a 1B0C     		lsrs	r3, r3, #16
 2119 002c 5360     		str	r3, [r2, #4]
1138:Drivers/STM32F7xx_HAL_Driver/Src/stm32f7xx_hal_spdifrx.c ****     
 2120              		.loc 1 1138 5 view .LVU622
1138:Drivers/STM32F7xx_HAL_Driver/Src/stm32f7xx_hal_spdifrx.c ****     
 2121              		.loc 1 1138 19 is_stmt 0 view .LVU623
 2122 002e 0123     		movs	r3, #1
 2123 0030 80F84530 		strb	r3, [r0, #69]
1141:Drivers/STM32F7xx_HAL_Driver/Src/stm32f7xx_hal_spdifrx.c ****     
 2124              		.loc 1 1141 5 is_stmt 1 view .LVU624
1141:Drivers/STM32F7xx_HAL_Driver/Src/stm32f7xx_hal_spdifrx.c ****     
 2125              		.loc 1 1141 5 view .LVU625
 2126 0034 0023     		movs	r3, #0
 2127 0036 80F84430 		strb	r3, [r0, #68]
1141:Drivers/STM32F7xx_HAL_Driver/Src/stm32f7xx_hal_spdifrx.c ****     
 2128              		.loc 1 1141 5 view .LVU626
1143:Drivers/STM32F7xx_HAL_Driver/Src/stm32f7xx_hal_spdifrx.c ****   }
 2129              		.loc 1 1143 5 view .LVU627
ARM GAS  C:\Users\Nina\AppData\Local\Temp\ccfkNb9x.s 			page 70


 2130 003a FFF7FEFF 		bl	HAL_SPDIFRX_RxCpltCallback
 2131              	.LVL156:
1145:Drivers/STM32F7xx_HAL_Driver/Src/stm32f7xx_hal_spdifrx.c **** 
 2132              		.loc 1 1145 1 is_stmt 0 view .LVU628
 2133 003e EEE7     		b	.L124
 2134              		.cfi_endproc
 2135              	.LFE163:
 2137              		.section	.text.HAL_SPDIFRX_CxHalfCpltCallback,"ax",%progbits
 2138              		.align	1
 2139              		.weak	HAL_SPDIFRX_CxHalfCpltCallback
 2140              		.syntax unified
 2141              		.thumb
 2142              		.thumb_func
 2143              		.fpu fpv5-sp-d16
 2145              	HAL_SPDIFRX_CxHalfCpltCallback:
 2146              	.LVL157:
 2147              	.LFB153:
 959:Drivers/STM32F7xx_HAL_Driver/Src/stm32f7xx_hal_spdifrx.c ****   /* Prevent unused argument(s) compilation warning */
 2148              		.loc 1 959 1 is_stmt 1 view -0
 2149              		.cfi_startproc
 2150              		@ args = 0, pretend = 0, frame = 0
 2151              		@ frame_needed = 0, uses_anonymous_args = 0
 2152              		@ link register save eliminated.
 961:Drivers/STM32F7xx_HAL_Driver/Src/stm32f7xx_hal_spdifrx.c ****   
 2153              		.loc 1 961 3 view .LVU630
 966:Drivers/STM32F7xx_HAL_Driver/Src/stm32f7xx_hal_spdifrx.c **** 
 2154              		.loc 1 966 1 is_stmt 0 view .LVU631
 2155 0000 7047     		bx	lr
 2156              		.cfi_endproc
 2157              	.LFE153:
 2159              		.section	.text.SPDIFRX_DMACxHalfCplt,"ax",%progbits
 2160              		.align	1
 2161              		.syntax unified
 2162              		.thumb
 2163              		.thumb_func
 2164              		.fpu fpv5-sp-d16
 2166              	SPDIFRX_DMACxHalfCplt:
 2167              	.LVL158:
 2168              	.LFB161:
1096:Drivers/STM32F7xx_HAL_Driver/Src/stm32f7xx_hal_spdifrx.c ****   SPDIFRX_HandleTypeDef* hspdif = (SPDIFRX_HandleTypeDef*)((DMA_HandleTypeDef*)hdma)->Parent;
 2169              		.loc 1 1096 1 is_stmt 1 view -0
 2170              		.cfi_startproc
 2171              		@ args = 0, pretend = 0, frame = 0
 2172              		@ frame_needed = 0, uses_anonymous_args = 0
1096:Drivers/STM32F7xx_HAL_Driver/Src/stm32f7xx_hal_spdifrx.c ****   SPDIFRX_HandleTypeDef* hspdif = (SPDIFRX_HandleTypeDef*)((DMA_HandleTypeDef*)hdma)->Parent;
 2173              		.loc 1 1096 1 is_stmt 0 view .LVU633
 2174 0000 08B5     		push	{r3, lr}
 2175              	.LCFI39:
 2176              		.cfi_def_cfa_offset 8
 2177              		.cfi_offset 3, -8
 2178              		.cfi_offset 14, -4
1097:Drivers/STM32F7xx_HAL_Driver/Src/stm32f7xx_hal_spdifrx.c ****   
 2179              		.loc 1 1097 3 is_stmt 1 view .LVU634
 2180              	.LVL159:
1099:Drivers/STM32F7xx_HAL_Driver/Src/stm32f7xx_hal_spdifrx.c **** }
 2181              		.loc 1 1099 3 view .LVU635
 2182 0002 806B     		ldr	r0, [r0, #56]
ARM GAS  C:\Users\Nina\AppData\Local\Temp\ccfkNb9x.s 			page 71


 2183              	.LVL160:
1099:Drivers/STM32F7xx_HAL_Driver/Src/stm32f7xx_hal_spdifrx.c **** }
 2184              		.loc 1 1099 3 is_stmt 0 view .LVU636
 2185 0004 FFF7FEFF 		bl	HAL_SPDIFRX_CxHalfCpltCallback
 2186              	.LVL161:
1100:Drivers/STM32F7xx_HAL_Driver/Src/stm32f7xx_hal_spdifrx.c **** 
 2187              		.loc 1 1100 1 view .LVU637
 2188 0008 08BD     		pop	{r3, pc}
 2189              		.cfi_endproc
 2190              	.LFE161:
 2192              		.section	.text.HAL_SPDIFRX_CxCpltCallback,"ax",%progbits
 2193              		.align	1
 2194              		.weak	HAL_SPDIFRX_CxCpltCallback
 2195              		.syntax unified
 2196              		.thumb
 2197              		.thumb_func
 2198              		.fpu fpv5-sp-d16
 2200              	HAL_SPDIFRX_CxCpltCallback:
 2201              	.LVL162:
 2202              	.LFB154:
 974:Drivers/STM32F7xx_HAL_Driver/Src/stm32f7xx_hal_spdifrx.c ****   /* Prevent unused argument(s) compilation warning */
 2203              		.loc 1 974 1 is_stmt 1 view -0
 2204              		.cfi_startproc
 2205              		@ args = 0, pretend = 0, frame = 0
 2206              		@ frame_needed = 0, uses_anonymous_args = 0
 2207              		@ link register save eliminated.
 976:Drivers/STM32F7xx_HAL_Driver/Src/stm32f7xx_hal_spdifrx.c ****   
 2208              		.loc 1 976 3 view .LVU639
 981:Drivers/STM32F7xx_HAL_Driver/Src/stm32f7xx_hal_spdifrx.c **** 
 2209              		.loc 1 981 1 is_stmt 0 view .LVU640
 2210 0000 7047     		bx	lr
 2211              		.cfi_endproc
 2212              	.LFE154:
 2214              		.section	.text.SPDIFRX_DMACxCplt,"ax",%progbits
 2215              		.align	1
 2216              		.syntax unified
 2217              		.thumb
 2218              		.thumb_func
 2219              		.fpu fpv5-sp-d16
 2221              	SPDIFRX_DMACxCplt:
 2222              	.LVL163:
 2223              	.LFB160:
1079:Drivers/STM32F7xx_HAL_Driver/Src/stm32f7xx_hal_spdifrx.c ****   SPDIFRX_HandleTypeDef* hspdif = ( SPDIFRX_HandleTypeDef* )((DMA_HandleTypeDef* )hdma)->Parent;
 2224              		.loc 1 1079 1 is_stmt 1 view -0
 2225              		.cfi_startproc
 2226              		@ args = 0, pretend = 0, frame = 0
 2227              		@ frame_needed = 0, uses_anonymous_args = 0
1079:Drivers/STM32F7xx_HAL_Driver/Src/stm32f7xx_hal_spdifrx.c ****   SPDIFRX_HandleTypeDef* hspdif = ( SPDIFRX_HandleTypeDef* )((DMA_HandleTypeDef* )hdma)->Parent;
 2228              		.loc 1 1079 1 is_stmt 0 view .LVU642
 2229 0000 08B5     		push	{r3, lr}
 2230              	.LCFI40:
 2231              		.cfi_def_cfa_offset 8
 2232              		.cfi_offset 3, -8
 2233              		.cfi_offset 14, -4
1080:Drivers/STM32F7xx_HAL_Driver/Src/stm32f7xx_hal_spdifrx.c ****   
 2234              		.loc 1 1080 3 is_stmt 1 view .LVU643
1080:Drivers/STM32F7xx_HAL_Driver/Src/stm32f7xx_hal_spdifrx.c ****   
ARM GAS  C:\Users\Nina\AppData\Local\Temp\ccfkNb9x.s 			page 72


 2235              		.loc 1 1080 26 is_stmt 0 view .LVU644
 2236 0002 806B     		ldr	r0, [r0, #56]
 2237              	.LVL164:
1083:Drivers/STM32F7xx_HAL_Driver/Src/stm32f7xx_hal_spdifrx.c ****   hspdif->CsXferCount = 0;
 2238              		.loc 1 1083 3 is_stmt 1 view .LVU645
1083:Drivers/STM32F7xx_HAL_Driver/Src/stm32f7xx_hal_spdifrx.c ****   hspdif->CsXferCount = 0;
 2239              		.loc 1 1083 9 is_stmt 0 view .LVU646
 2240 0004 0268     		ldr	r2, [r0]
1083:Drivers/STM32F7xx_HAL_Driver/Src/stm32f7xx_hal_spdifrx.c ****   hspdif->CsXferCount = 0;
 2241              		.loc 1 1083 24 view .LVU647
 2242 0006 1368     		ldr	r3, [r2]
 2243 0008 23F48063 		bic	r3, r3, #1024
 2244 000c 1B04     		lsls	r3, r3, #16
 2245 000e 1B0C     		lsrs	r3, r3, #16
 2246 0010 1360     		str	r3, [r2]
1084:Drivers/STM32F7xx_HAL_Driver/Src/stm32f7xx_hal_spdifrx.c ****   
 2247              		.loc 1 1084 3 is_stmt 1 view .LVU648
1084:Drivers/STM32F7xx_HAL_Driver/Src/stm32f7xx_hal_spdifrx.c ****   
 2248              		.loc 1 1084 23 is_stmt 0 view .LVU649
 2249 0012 0023     		movs	r3, #0
 2250 0014 4387     		strh	r3, [r0, #58]	@ movhi
1086:Drivers/STM32F7xx_HAL_Driver/Src/stm32f7xx_hal_spdifrx.c ****   HAL_SPDIFRX_CxCpltCallback(hspdif); 
 2251              		.loc 1 1086 3 is_stmt 1 view .LVU650
1086:Drivers/STM32F7xx_HAL_Driver/Src/stm32f7xx_hal_spdifrx.c ****   HAL_SPDIFRX_CxCpltCallback(hspdif); 
 2252              		.loc 1 1086 17 is_stmt 0 view .LVU651
 2253 0016 0123     		movs	r3, #1
 2254 0018 80F84530 		strb	r3, [r0, #69]
1087:Drivers/STM32F7xx_HAL_Driver/Src/stm32f7xx_hal_spdifrx.c **** }
 2255              		.loc 1 1087 3 is_stmt 1 view .LVU652
 2256 001c FFF7FEFF 		bl	HAL_SPDIFRX_CxCpltCallback
 2257              	.LVL165:
1088:Drivers/STM32F7xx_HAL_Driver/Src/stm32f7xx_hal_spdifrx.c **** 
 2258              		.loc 1 1088 1 is_stmt 0 view .LVU653
 2259 0020 08BD     		pop	{r3, pc}
 2260              		.cfi_endproc
 2261              	.LFE160:
 2263              		.section	.text.SPDIFRX_ReceiveControlFlow_IT,"ax",%progbits
 2264              		.align	1
 2265              		.syntax unified
 2266              		.thumb
 2267              		.thumb_func
 2268              		.fpu fpv5-sp-d16
 2270              	SPDIFRX_ReceiveControlFlow_IT:
 2271              	.LVL166:
 2272              	.LFB164:
1153:Drivers/STM32F7xx_HAL_Driver/Src/stm32f7xx_hal_spdifrx.c ****   /* Receive data */
 2273              		.loc 1 1153 1 is_stmt 1 view -0
 2274              		.cfi_startproc
 2275              		@ args = 0, pretend = 0, frame = 0
 2276              		@ frame_needed = 0, uses_anonymous_args = 0
1153:Drivers/STM32F7xx_HAL_Driver/Src/stm32f7xx_hal_spdifrx.c ****   /* Receive data */
 2277              		.loc 1 1153 1 is_stmt 0 view .LVU655
 2278 0000 08B5     		push	{r3, lr}
 2279              	.LCFI41:
 2280              		.cfi_def_cfa_offset 8
 2281              		.cfi_offset 3, -8
 2282              		.cfi_offset 14, -4
ARM GAS  C:\Users\Nina\AppData\Local\Temp\ccfkNb9x.s 			page 73


1155:Drivers/STM32F7xx_HAL_Driver/Src/stm32f7xx_hal_spdifrx.c ****   hspdif->CsXferCount--;
 2283              		.loc 1 1155 3 is_stmt 1 view .LVU656
1155:Drivers/STM32F7xx_HAL_Driver/Src/stm32f7xx_hal_spdifrx.c ****   hspdif->CsXferCount--;
 2284              		.loc 1 1155 35 is_stmt 0 view .LVU657
 2285 0002 0268     		ldr	r2, [r0]
1155:Drivers/STM32F7xx_HAL_Driver/Src/stm32f7xx_hal_spdifrx.c ****   hspdif->CsXferCount--;
 2286              		.loc 1 1155 11 view .LVU658
 2287 0004 036B     		ldr	r3, [r0, #48]
1155:Drivers/STM32F7xx_HAL_Driver/Src/stm32f7xx_hal_spdifrx.c ****   hspdif->CsXferCount--;
 2288              		.loc 1 1155 23 view .LVU659
 2289 0006 191D     		adds	r1, r3, #4
 2290 0008 0163     		str	r1, [r0, #48]
1155:Drivers/STM32F7xx_HAL_Driver/Src/stm32f7xx_hal_spdifrx.c ****   hspdif->CsXferCount--;
 2291              		.loc 1 1155 45 view .LVU660
 2292 000a 5269     		ldr	r2, [r2, #20]
1155:Drivers/STM32F7xx_HAL_Driver/Src/stm32f7xx_hal_spdifrx.c ****   hspdif->CsXferCount--;
 2293              		.loc 1 1155 27 view .LVU661
 2294 000c 1A60     		str	r2, [r3]
1156:Drivers/STM32F7xx_HAL_Driver/Src/stm32f7xx_hal_spdifrx.c ****   
 2295              		.loc 1 1156 3 is_stmt 1 view .LVU662
1156:Drivers/STM32F7xx_HAL_Driver/Src/stm32f7xx_hal_spdifrx.c ****   
 2296              		.loc 1 1156 9 is_stmt 0 view .LVU663
 2297 000e 438F     		ldrh	r3, [r0, #58]
 2298 0010 9BB2     		uxth	r3, r3
1156:Drivers/STM32F7xx_HAL_Driver/Src/stm32f7xx_hal_spdifrx.c ****   
 2299              		.loc 1 1156 22 view .LVU664
 2300 0012 013B     		subs	r3, r3, #1
 2301 0014 9BB2     		uxth	r3, r3
 2302 0016 4387     		strh	r3, [r0, #58]	@ movhi
1158:Drivers/STM32F7xx_HAL_Driver/Src/stm32f7xx_hal_spdifrx.c ****   {        
 2303              		.loc 1 1158 3 is_stmt 1 view .LVU665
1158:Drivers/STM32F7xx_HAL_Driver/Src/stm32f7xx_hal_spdifrx.c ****   {        
 2304              		.loc 1 1158 12 is_stmt 0 view .LVU666
 2305 0018 438F     		ldrh	r3, [r0, #58]
 2306 001a 9BB2     		uxth	r3, r3
1158:Drivers/STM32F7xx_HAL_Driver/Src/stm32f7xx_hal_spdifrx.c ****   {        
 2307              		.loc 1 1158 5 view .LVU667
 2308 001c 03B1     		cbz	r3, .L137
 2309              	.LVL167:
 2310              	.L134:
1170:Drivers/STM32F7xx_HAL_Driver/Src/stm32f7xx_hal_spdifrx.c **** 
 2311              		.loc 1 1170 1 view .LVU668
 2312 001e 08BD     		pop	{r3, pc}
 2313              	.LVL168:
 2314              	.L137:
1161:Drivers/STM32F7xx_HAL_Driver/Src/stm32f7xx_hal_spdifrx.c ****     
 2315              		.loc 1 1161 5 is_stmt 1 view .LVU669
 2316 0020 0268     		ldr	r2, [r0]
 2317 0022 5368     		ldr	r3, [r2, #4]
 2318 0024 23F00203 		bic	r3, r3, #2
 2319 0028 1B04     		lsls	r3, r3, #16
 2320 002a 1B0C     		lsrs	r3, r3, #16
 2321 002c 5360     		str	r3, [r2, #4]
1163:Drivers/STM32F7xx_HAL_Driver/Src/stm32f7xx_hal_spdifrx.c ****     
 2322              		.loc 1 1163 5 view .LVU670
1163:Drivers/STM32F7xx_HAL_Driver/Src/stm32f7xx_hal_spdifrx.c ****     
 2323              		.loc 1 1163 19 is_stmt 0 view .LVU671
ARM GAS  C:\Users\Nina\AppData\Local\Temp\ccfkNb9x.s 			page 74


 2324 002e 0123     		movs	r3, #1
 2325 0030 80F84530 		strb	r3, [r0, #69]
1166:Drivers/STM32F7xx_HAL_Driver/Src/stm32f7xx_hal_spdifrx.c ****     
 2326              		.loc 1 1166 5 is_stmt 1 view .LVU672
1166:Drivers/STM32F7xx_HAL_Driver/Src/stm32f7xx_hal_spdifrx.c ****     
 2327              		.loc 1 1166 5 view .LVU673
 2328 0034 0023     		movs	r3, #0
 2329 0036 80F84430 		strb	r3, [r0, #68]
1166:Drivers/STM32F7xx_HAL_Driver/Src/stm32f7xx_hal_spdifrx.c ****     
 2330              		.loc 1 1166 5 view .LVU674
1168:Drivers/STM32F7xx_HAL_Driver/Src/stm32f7xx_hal_spdifrx.c ****   }
 2331              		.loc 1 1168 5 view .LVU675
 2332 003a FFF7FEFF 		bl	HAL_SPDIFRX_CxCpltCallback
 2333              	.LVL169:
1170:Drivers/STM32F7xx_HAL_Driver/Src/stm32f7xx_hal_spdifrx.c **** 
 2334              		.loc 1 1170 1 is_stmt 0 view .LVU676
 2335 003e EEE7     		b	.L134
 2336              		.cfi_endproc
 2337              	.LFE164:
 2339              		.section	.text.HAL_SPDIFRX_ErrorCallback,"ax",%progbits
 2340              		.align	1
 2341              		.weak	HAL_SPDIFRX_ErrorCallback
 2342              		.syntax unified
 2343              		.thumb
 2344              		.thumb_func
 2345              		.fpu fpv5-sp-d16
 2347              	HAL_SPDIFRX_ErrorCallback:
 2348              	.LVL170:
 2349              	.LFB155:
 989:Drivers/STM32F7xx_HAL_Driver/Src/stm32f7xx_hal_spdifrx.c ****   /* Prevent unused argument(s) compilation warning */
 2350              		.loc 1 989 1 is_stmt 1 view -0
 2351              		.cfi_startproc
 2352              		@ args = 0, pretend = 0, frame = 0
 2353              		@ frame_needed = 0, uses_anonymous_args = 0
 2354              		@ link register save eliminated.
 991:Drivers/STM32F7xx_HAL_Driver/Src/stm32f7xx_hal_spdifrx.c ****   
 2355              		.loc 1 991 3 view .LVU678
 996:Drivers/STM32F7xx_HAL_Driver/Src/stm32f7xx_hal_spdifrx.c **** 
 2356              		.loc 1 996 1 is_stmt 0 view .LVU679
 2357 0000 7047     		bx	lr
 2358              		.cfi_endproc
 2359              	.LFE155:
 2361              		.section	.text.SPDIFRX_DMAError,"ax",%progbits
 2362              		.align	1
 2363              		.syntax unified
 2364              		.thumb
 2365              		.thumb_func
 2366              		.fpu fpv5-sp-d16
 2368              	SPDIFRX_DMAError:
 2369              	.LVL171:
 2370              	.LFB162:
1108:Drivers/STM32F7xx_HAL_Driver/Src/stm32f7xx_hal_spdifrx.c ****   SPDIFRX_HandleTypeDef* hspdif = ( SPDIFRX_HandleTypeDef* )((DMA_HandleTypeDef* )hdma)->Parent;
 2371              		.loc 1 1108 1 is_stmt 1 view -0
 2372              		.cfi_startproc
 2373              		@ args = 0, pretend = 0, frame = 0
 2374              		@ frame_needed = 0, uses_anonymous_args = 0
1108:Drivers/STM32F7xx_HAL_Driver/Src/stm32f7xx_hal_spdifrx.c ****   SPDIFRX_HandleTypeDef* hspdif = ( SPDIFRX_HandleTypeDef* )((DMA_HandleTypeDef* )hdma)->Parent;
ARM GAS  C:\Users\Nina\AppData\Local\Temp\ccfkNb9x.s 			page 75


 2375              		.loc 1 1108 1 is_stmt 0 view .LVU681
 2376 0000 08B5     		push	{r3, lr}
 2377              	.LCFI42:
 2378              		.cfi_def_cfa_offset 8
 2379              		.cfi_offset 3, -8
 2380              		.cfi_offset 14, -4
1109:Drivers/STM32F7xx_HAL_Driver/Src/stm32f7xx_hal_spdifrx.c ****   
 2381              		.loc 1 1109 3 is_stmt 1 view .LVU682
1109:Drivers/STM32F7xx_HAL_Driver/Src/stm32f7xx_hal_spdifrx.c ****   
 2382              		.loc 1 1109 26 is_stmt 0 view .LVU683
 2383 0002 806B     		ldr	r0, [r0, #56]
 2384              	.LVL172:
1112:Drivers/STM32F7xx_HAL_Driver/Src/stm32f7xx_hal_spdifrx.c ****   hspdif->RxXferCount = 0;
 2385              		.loc 1 1112 3 is_stmt 1 view .LVU684
1112:Drivers/STM32F7xx_HAL_Driver/Src/stm32f7xx_hal_spdifrx.c ****   hspdif->RxXferCount = 0;
 2386              		.loc 1 1112 9 is_stmt 0 view .LVU685
 2387 0004 0268     		ldr	r2, [r0]
1112:Drivers/STM32F7xx_HAL_Driver/Src/stm32f7xx_hal_spdifrx.c ****   hspdif->RxXferCount = 0;
 2388              		.loc 1 1112 24 view .LVU686
 2389 0006 1368     		ldr	r3, [r2]
 2390 0008 23F48063 		bic	r3, r3, #1024
 2391 000c 23F00403 		bic	r3, r3, #4
 2392 0010 1B04     		lsls	r3, r3, #16
 2393 0012 1B0C     		lsrs	r3, r3, #16
 2394 0014 1360     		str	r3, [r2]
1113:Drivers/STM32F7xx_HAL_Driver/Src/stm32f7xx_hal_spdifrx.c ****   
 2395              		.loc 1 1113 3 is_stmt 1 view .LVU687
1113:Drivers/STM32F7xx_HAL_Driver/Src/stm32f7xx_hal_spdifrx.c ****   
 2396              		.loc 1 1113 23 is_stmt 0 view .LVU688
 2397 0016 0023     		movs	r3, #0
 2398 0018 C386     		strh	r3, [r0, #54]	@ movhi
1115:Drivers/STM32F7xx_HAL_Driver/Src/stm32f7xx_hal_spdifrx.c ****   
 2399              		.loc 1 1115 3 is_stmt 1 view .LVU689
1115:Drivers/STM32F7xx_HAL_Driver/Src/stm32f7xx_hal_spdifrx.c ****   
 2400              		.loc 1 1115 16 is_stmt 0 view .LVU690
 2401 001a 0123     		movs	r3, #1
 2402 001c 80F84530 		strb	r3, [r0, #69]
1118:Drivers/STM32F7xx_HAL_Driver/Src/stm32f7xx_hal_spdifrx.c ****   HAL_SPDIFRX_ErrorCallback(hspdif);
 2403              		.loc 1 1118 3 is_stmt 1 view .LVU691
1118:Drivers/STM32F7xx_HAL_Driver/Src/stm32f7xx_hal_spdifrx.c ****   HAL_SPDIFRX_ErrorCallback(hspdif);
 2404              		.loc 1 1118 21 is_stmt 0 view .LVU692
 2405 0020 836C     		ldr	r3, [r0, #72]
 2406 0022 43F00803 		orr	r3, r3, #8
 2407 0026 8364     		str	r3, [r0, #72]
1119:Drivers/STM32F7xx_HAL_Driver/Src/stm32f7xx_hal_spdifrx.c **** }
 2408              		.loc 1 1119 3 is_stmt 1 view .LVU693
 2409 0028 FFF7FEFF 		bl	HAL_SPDIFRX_ErrorCallback
 2410              	.LVL173:
1120:Drivers/STM32F7xx_HAL_Driver/Src/stm32f7xx_hal_spdifrx.c **** 
 2411              		.loc 1 1120 1 is_stmt 0 view .LVU694
 2412 002c 08BD     		pop	{r3, pc}
 2413              		.cfi_endproc
 2414              	.LFE162:
 2416              		.section	.text.HAL_SPDIFRX_IRQHandler,"ax",%progbits
 2417              		.align	1
 2418              		.global	HAL_SPDIFRX_IRQHandler
 2419              		.syntax unified
ARM GAS  C:\Users\Nina\AppData\Local\Temp\ccfkNb9x.s 			page 76


 2420              		.thumb
 2421              		.thumb_func
 2422              		.fpu fpv5-sp-d16
 2424              	HAL_SPDIFRX_IRQHandler:
 2425              	.LVL174:
 2426              	.LFB150:
 883:Drivers/STM32F7xx_HAL_Driver/Src/stm32f7xx_hal_spdifrx.c ****   /* SPDIFRX in mode Data Flow Reception ------------------------------------------------*/
 2427              		.loc 1 883 1 is_stmt 1 view -0
 2428              		.cfi_startproc
 2429              		@ args = 0, pretend = 0, frame = 0
 2430              		@ frame_needed = 0, uses_anonymous_args = 0
 883:Drivers/STM32F7xx_HAL_Driver/Src/stm32f7xx_hal_spdifrx.c ****   /* SPDIFRX in mode Data Flow Reception ------------------------------------------------*/
 2431              		.loc 1 883 1 is_stmt 0 view .LVU696
 2432 0000 10B5     		push	{r4, lr}
 2433              	.LCFI43:
 2434              		.cfi_def_cfa_offset 8
 2435              		.cfi_offset 4, -8
 2436              		.cfi_offset 14, -4
 2437 0002 0446     		mov	r4, r0
 885:Drivers/STM32F7xx_HAL_Driver/Src/stm32f7xx_hal_spdifrx.c ****   {
 2438              		.loc 1 885 3 is_stmt 1 view .LVU697
 885:Drivers/STM32F7xx_HAL_Driver/Src/stm32f7xx_hal_spdifrx.c ****   {
 2439              		.loc 1 885 7 is_stmt 0 view .LVU698
 2440 0004 0368     		ldr	r3, [r0]
 2441 0006 9A68     		ldr	r2, [r3, #8]
 885:Drivers/STM32F7xx_HAL_Driver/Src/stm32f7xx_hal_spdifrx.c ****   {
 2442              		.loc 1 885 5 view .LVU699
 2443 0008 12F0010F 		tst	r2, #1
 2444 000c 03D0     		beq	.L142
 885:Drivers/STM32F7xx_HAL_Driver/Src/stm32f7xx_hal_spdifrx.c ****   {
 2445              		.loc 1 885 71 discriminator 1 view .LVU700
 2446 000e 5A68     		ldr	r2, [r3, #4]
 885:Drivers/STM32F7xx_HAL_Driver/Src/stm32f7xx_hal_spdifrx.c ****   {
 2447              		.loc 1 885 67 discriminator 1 view .LVU701
 2448 0010 12F0010F 		tst	r2, #1
 2449 0014 1BD1     		bne	.L147
 2450              	.LVL175:
 2451              	.L142:
 892:Drivers/STM32F7xx_HAL_Driver/Src/stm32f7xx_hal_spdifrx.c ****   {
 2452              		.loc 1 892 3 is_stmt 1 view .LVU702
 892:Drivers/STM32F7xx_HAL_Driver/Src/stm32f7xx_hal_spdifrx.c ****   {
 2453              		.loc 1 892 7 is_stmt 0 view .LVU703
 2454 0016 2368     		ldr	r3, [r4]
 2455 0018 9A68     		ldr	r2, [r3, #8]
 892:Drivers/STM32F7xx_HAL_Driver/Src/stm32f7xx_hal_spdifrx.c ****   {
 2456              		.loc 1 892 5 view .LVU704
 2457 001a 12F0020F 		tst	r2, #2
 2458 001e 03D0     		beq	.L143
 892:Drivers/STM32F7xx_HAL_Driver/Src/stm32f7xx_hal_spdifrx.c ****   {
 2459              		.loc 1 892 72 discriminator 1 view .LVU705
 2460 0020 5A68     		ldr	r2, [r3, #4]
 892:Drivers/STM32F7xx_HAL_Driver/Src/stm32f7xx_hal_spdifrx.c ****   {
 2461              		.loc 1 892 68 discriminator 1 view .LVU706
 2462 0022 12F0020F 		tst	r2, #2
 2463 0026 17D1     		bne	.L148
 2464              	.L143:
 899:Drivers/STM32F7xx_HAL_Driver/Src/stm32f7xx_hal_spdifrx.c ****   {
ARM GAS  C:\Users\Nina\AppData\Local\Temp\ccfkNb9x.s 			page 77


 2465              		.loc 1 899 3 is_stmt 1 view .LVU707
 899:Drivers/STM32F7xx_HAL_Driver/Src/stm32f7xx_hal_spdifrx.c ****   {
 2466              		.loc 1 899 7 is_stmt 0 view .LVU708
 2467 0028 2368     		ldr	r3, [r4]
 2468 002a 9A68     		ldr	r2, [r3, #8]
 899:Drivers/STM32F7xx_HAL_Driver/Src/stm32f7xx_hal_spdifrx.c ****   {
 2469              		.loc 1 899 5 view .LVU709
 2470 002c 12F0080F 		tst	r2, #8
 2471 0030 03D0     		beq	.L144
 899:Drivers/STM32F7xx_HAL_Driver/Src/stm32f7xx_hal_spdifrx.c ****   {
 2472              		.loc 1 899 70 discriminator 1 view .LVU710
 2473 0032 5A68     		ldr	r2, [r3, #4]
 899:Drivers/STM32F7xx_HAL_Driver/Src/stm32f7xx_hal_spdifrx.c ****   {
 2474              		.loc 1 899 66 discriminator 1 view .LVU711
 2475 0034 12F0080F 		tst	r2, #8
 2476 0038 14D1     		bne	.L149
 2477              	.L144:
 911:Drivers/STM32F7xx_HAL_Driver/Src/stm32f7xx_hal_spdifrx.c ****   {
 2478              		.loc 1 911 3 is_stmt 1 view .LVU712
 911:Drivers/STM32F7xx_HAL_Driver/Src/stm32f7xx_hal_spdifrx.c ****   {
 2479              		.loc 1 911 7 is_stmt 0 view .LVU713
 2480 003a 2368     		ldr	r3, [r4]
 2481 003c 9A68     		ldr	r2, [r3, #8]
 911:Drivers/STM32F7xx_HAL_Driver/Src/stm32f7xx_hal_spdifrx.c ****   {
 2482              		.loc 1 911 5 view .LVU714
 2483 003e 12F0040F 		tst	r2, #4
 2484 0042 03D0     		beq	.L141
 911:Drivers/STM32F7xx_HAL_Driver/Src/stm32f7xx_hal_spdifrx.c ****   {
 2485              		.loc 1 911 71 discriminator 1 view .LVU715
 2486 0044 5A68     		ldr	r2, [r3, #4]
 911:Drivers/STM32F7xx_HAL_Driver/Src/stm32f7xx_hal_spdifrx.c ****   {
 2487              		.loc 1 911 67 discriminator 1 view .LVU716
 2488 0046 12F0040F 		tst	r2, #4
 2489 004a 15D1     		bne	.L150
 2490              	.L141:
 921:Drivers/STM32F7xx_HAL_Driver/Src/stm32f7xx_hal_spdifrx.c **** 
 2491              		.loc 1 921 1 view .LVU717
 2492 004c 10BD     		pop	{r4, pc}
 2493              	.LVL176:
 2494              	.L147:
 887:Drivers/STM32F7xx_HAL_Driver/Src/stm32f7xx_hal_spdifrx.c ****     SPDIFRX_ReceiveDataFlow_IT(hspdif);
 2495              		.loc 1 887 5 is_stmt 1 view .LVU718
 2496 004e 0122     		movs	r2, #1
 2497 0050 DA60     		str	r2, [r3, #12]
 888:Drivers/STM32F7xx_HAL_Driver/Src/stm32f7xx_hal_spdifrx.c ****   }
 2498              		.loc 1 888 5 view .LVU719
 2499 0052 FFF7FEFF 		bl	SPDIFRX_ReceiveDataFlow_IT
 2500              	.LVL177:
 888:Drivers/STM32F7xx_HAL_Driver/Src/stm32f7xx_hal_spdifrx.c ****   }
 2501              		.loc 1 888 5 is_stmt 0 view .LVU720
 2502 0056 DEE7     		b	.L142
 2503              	.L148:
 894:Drivers/STM32F7xx_HAL_Driver/Src/stm32f7xx_hal_spdifrx.c ****     SPDIFRX_ReceiveControlFlow_IT(hspdif);
 2504              		.loc 1 894 5 is_stmt 1 view .LVU721
 2505 0058 0222     		movs	r2, #2
 2506 005a DA60     		str	r2, [r3, #12]
 895:Drivers/STM32F7xx_HAL_Driver/Src/stm32f7xx_hal_spdifrx.c ****   }
ARM GAS  C:\Users\Nina\AppData\Local\Temp\ccfkNb9x.s 			page 78


 2507              		.loc 1 895 5 view .LVU722
 2508 005c 2046     		mov	r0, r4
 2509 005e FFF7FEFF 		bl	SPDIFRX_ReceiveControlFlow_IT
 2510              	.LVL178:
 2511 0062 E1E7     		b	.L143
 2512              	.L149:
 901:Drivers/STM32F7xx_HAL_Driver/Src/stm32f7xx_hal_spdifrx.c ****     
 2513              		.loc 1 901 5 view .LVU723
 2514 0064 0822     		movs	r2, #8
 2515 0066 DA60     		str	r2, [r3, #12]
 904:Drivers/STM32F7xx_HAL_Driver/Src/stm32f7xx_hal_spdifrx.c ****     
 2516              		.loc 1 904 5 view .LVU724
 904:Drivers/STM32F7xx_HAL_Driver/Src/stm32f7xx_hal_spdifrx.c ****     
 2517              		.loc 1 904 23 is_stmt 0 view .LVU725
 2518 0068 A36C     		ldr	r3, [r4, #72]
 2519 006a 43F00203 		orr	r3, r3, #2
 2520 006e A364     		str	r3, [r4, #72]
 907:Drivers/STM32F7xx_HAL_Driver/Src/stm32f7xx_hal_spdifrx.c ****   } 
 2521              		.loc 1 907 5 is_stmt 1 view .LVU726
 2522 0070 2046     		mov	r0, r4
 2523 0072 FFF7FEFF 		bl	HAL_SPDIFRX_ErrorCallback
 2524              	.LVL179:
 2525 0076 E0E7     		b	.L144
 2526              	.L150:
 913:Drivers/STM32F7xx_HAL_Driver/Src/stm32f7xx_hal_spdifrx.c ****     
 2527              		.loc 1 913 5 view .LVU727
 2528 0078 0422     		movs	r2, #4
 2529 007a DA60     		str	r2, [r3, #12]
 916:Drivers/STM32F7xx_HAL_Driver/Src/stm32f7xx_hal_spdifrx.c ****     
 2530              		.loc 1 916 5 view .LVU728
 916:Drivers/STM32F7xx_HAL_Driver/Src/stm32f7xx_hal_spdifrx.c ****     
 2531              		.loc 1 916 23 is_stmt 0 view .LVU729
 2532 007c A36C     		ldr	r3, [r4, #72]
 2533 007e 1343     		orrs	r3, r3, r2
 2534 0080 A364     		str	r3, [r4, #72]
 919:Drivers/STM32F7xx_HAL_Driver/Src/stm32f7xx_hal_spdifrx.c ****   } 
 2535              		.loc 1 919 5 is_stmt 1 view .LVU730
 2536 0082 2046     		mov	r0, r4
 2537 0084 FFF7FEFF 		bl	HAL_SPDIFRX_ErrorCallback
 2538              	.LVL180:
 921:Drivers/STM32F7xx_HAL_Driver/Src/stm32f7xx_hal_spdifrx.c **** 
 2539              		.loc 1 921 1 is_stmt 0 view .LVU731
 2540 0088 E0E7     		b	.L141
 2541              		.cfi_endproc
 2542              	.LFE150:
 2544              		.section	.text.HAL_SPDIFRX_GetState,"ax",%progbits
 2545              		.align	1
 2546              		.global	HAL_SPDIFRX_GetState
 2547              		.syntax unified
 2548              		.thumb
 2549              		.thumb_func
 2550              		.fpu fpv5-sp-d16
 2552              	HAL_SPDIFRX_GetState:
 2553              	.LVL181:
 2554              	.LFB156:
1023:Drivers/STM32F7xx_HAL_Driver/Src/stm32f7xx_hal_spdifrx.c ****   return hspdif->State;
 2555              		.loc 1 1023 1 is_stmt 1 view -0
ARM GAS  C:\Users\Nina\AppData\Local\Temp\ccfkNb9x.s 			page 79


 2556              		.cfi_startproc
 2557              		@ args = 0, pretend = 0, frame = 0
 2558              		@ frame_needed = 0, uses_anonymous_args = 0
 2559              		@ link register save eliminated.
1024:Drivers/STM32F7xx_HAL_Driver/Src/stm32f7xx_hal_spdifrx.c **** }
 2560              		.loc 1 1024 3 view .LVU733
1024:Drivers/STM32F7xx_HAL_Driver/Src/stm32f7xx_hal_spdifrx.c **** }
 2561              		.loc 1 1024 16 is_stmt 0 view .LVU734
 2562 0000 90F84500 		ldrb	r0, [r0, #69]	@ zero_extendqisi2
 2563              	.LVL182:
1025:Drivers/STM32F7xx_HAL_Driver/Src/stm32f7xx_hal_spdifrx.c **** 
 2564              		.loc 1 1025 1 view .LVU735
 2565 0004 7047     		bx	lr
 2566              		.cfi_endproc
 2567              	.LFE156:
 2569              		.section	.text.HAL_SPDIFRX_GetError,"ax",%progbits
 2570              		.align	1
 2571              		.global	HAL_SPDIFRX_GetError
 2572              		.syntax unified
 2573              		.thumb
 2574              		.thumb_func
 2575              		.fpu fpv5-sp-d16
 2577              	HAL_SPDIFRX_GetError:
 2578              	.LVL183:
 2579              	.LFB157:
1033:Drivers/STM32F7xx_HAL_Driver/Src/stm32f7xx_hal_spdifrx.c ****   return hspdif->ErrorCode;
 2580              		.loc 1 1033 1 is_stmt 1 view -0
 2581              		.cfi_startproc
 2582              		@ args = 0, pretend = 0, frame = 0
 2583              		@ frame_needed = 0, uses_anonymous_args = 0
 2584              		@ link register save eliminated.
1034:Drivers/STM32F7xx_HAL_Driver/Src/stm32f7xx_hal_spdifrx.c **** }
 2585              		.loc 1 1034 3 view .LVU737
1034:Drivers/STM32F7xx_HAL_Driver/Src/stm32f7xx_hal_spdifrx.c **** }
 2586              		.loc 1 1034 16 is_stmt 0 view .LVU738
 2587 0000 806C     		ldr	r0, [r0, #72]
 2588              	.LVL184:
1035:Drivers/STM32F7xx_HAL_Driver/Src/stm32f7xx_hal_spdifrx.c **** 
 2589              		.loc 1 1035 1 view .LVU739
 2590 0002 7047     		bx	lr
 2591              		.cfi_endproc
 2592              	.LFE157:
 2594              		.text
 2595              	.Letext0:
 2596              		.file 2 "c:\\program files (x86)\\gnu tools arm embedded\\9 2019-q4-major\\arm-none-eabi\\include\
 2597              		.file 3 "c:\\program files (x86)\\gnu tools arm embedded\\9 2019-q4-major\\arm-none-eabi\\include\
 2598              		.file 4 "Drivers/CMSIS/Include/core_cm7.h"
 2599              		.file 5 "Drivers/CMSIS/Device/ST/STM32F7xx/Include/system_stm32f7xx.h"
 2600              		.file 6 "Drivers/CMSIS/Device/ST/STM32F7xx/Include/stm32f746xx.h"
 2601              		.file 7 "Drivers/CMSIS/Device/ST/STM32F7xx/Include/stm32f7xx.h"
 2602              		.file 8 "c:\\program files (x86)\\gnu tools arm embedded\\9 2019-q4-major\\arm-none-eabi\\include\
 2603              		.file 9 "c:\\program files (x86)\\gnu tools arm embedded\\9 2019-q4-major\\arm-none-eabi\\include\
 2604              		.file 10 "c:\\program files (x86)\\gnu tools arm embedded\\9 2019-q4-major\\lib\\gcc\\arm-none-eab
 2605              		.file 11 "c:\\program files (x86)\\gnu tools arm embedded\\9 2019-q4-major\\arm-none-eabi\\include
 2606              		.file 12 "Drivers/STM32F7xx_HAL_Driver/Inc/stm32f7xx_hal_def.h"
 2607              		.file 13 "Drivers/STM32F7xx_HAL_Driver/Inc/stm32f7xx_hal_dma.h"
 2608              		.file 14 "Drivers/STM32F7xx_HAL_Driver/Inc/stm32f7xx_hal_spdifrx.h"
ARM GAS  C:\Users\Nina\AppData\Local\Temp\ccfkNb9x.s 			page 80


 2609              		.file 15 "Drivers/STM32F7xx_HAL_Driver/Inc/stm32f7xx_hal.h"
ARM GAS  C:\Users\Nina\AppData\Local\Temp\ccfkNb9x.s 			page 81


DEFINED SYMBOLS
                            *ABS*:00000000 stm32f7xx_hal_spdifrx.c
C:\Users\Nina\AppData\Local\Temp\ccfkNb9x.s:18     .text.SPDIFRX_WaitOnFlagUntilTimeout:00000000 $t
C:\Users\Nina\AppData\Local\Temp\ccfkNb9x.s:25     .text.SPDIFRX_WaitOnFlagUntilTimeout:00000000 SPDIFRX_WaitOnFlagUntilTimeout
C:\Users\Nina\AppData\Local\Temp\ccfkNb9x.s:241    .text.HAL_SPDIFRX_MspInit:00000000 $t
C:\Users\Nina\AppData\Local\Temp\ccfkNb9x.s:248    .text.HAL_SPDIFRX_MspInit:00000000 HAL_SPDIFRX_MspInit
C:\Users\Nina\AppData\Local\Temp\ccfkNb9x.s:263    .text.HAL_SPDIFRX_Init:00000000 $t
C:\Users\Nina\AppData\Local\Temp\ccfkNb9x.s:270    .text.HAL_SPDIFRX_Init:00000000 HAL_SPDIFRX_Init
C:\Users\Nina\AppData\Local\Temp\ccfkNb9x.s:407    .text.HAL_SPDIFRX_Init:0000006c $d
C:\Users\Nina\AppData\Local\Temp\ccfkNb9x.s:412    .text.HAL_SPDIFRX_MspDeInit:00000000 $t
C:\Users\Nina\AppData\Local\Temp\ccfkNb9x.s:419    .text.HAL_SPDIFRX_MspDeInit:00000000 HAL_SPDIFRX_MspDeInit
C:\Users\Nina\AppData\Local\Temp\ccfkNb9x.s:434    .text.HAL_SPDIFRX_DeInit:00000000 $t
C:\Users\Nina\AppData\Local\Temp\ccfkNb9x.s:441    .text.HAL_SPDIFRX_DeInit:00000000 HAL_SPDIFRX_DeInit
C:\Users\Nina\AppData\Local\Temp\ccfkNb9x.s:500    .text.HAL_SPDIFRX_SetDataFormat:00000000 $t
C:\Users\Nina\AppData\Local\Temp\ccfkNb9x.s:507    .text.HAL_SPDIFRX_SetDataFormat:00000000 HAL_SPDIFRX_SetDataFormat
C:\Users\Nina\AppData\Local\Temp\ccfkNb9x.s:634    .text.HAL_SPDIFRX_ReceiveDataFlow:00000000 $t
C:\Users\Nina\AppData\Local\Temp\ccfkNb9x.s:641    .text.HAL_SPDIFRX_ReceiveDataFlow:00000000 HAL_SPDIFRX_ReceiveDataFlow
C:\Users\Nina\AppData\Local\Temp\ccfkNb9x.s:827    .text.HAL_SPDIFRX_ReceiveControlFlow:00000000 $t
C:\Users\Nina\AppData\Local\Temp\ccfkNb9x.s:834    .text.HAL_SPDIFRX_ReceiveControlFlow:00000000 HAL_SPDIFRX_ReceiveControlFlow
C:\Users\Nina\AppData\Local\Temp\ccfkNb9x.s:1020   .text.HAL_SPDIFRX_ReceiveDataFlow_IT:00000000 $t
C:\Users\Nina\AppData\Local\Temp\ccfkNb9x.s:1027   .text.HAL_SPDIFRX_ReceiveDataFlow_IT:00000000 HAL_SPDIFRX_ReceiveDataFlow_IT
C:\Users\Nina\AppData\Local\Temp\ccfkNb9x.s:1210   .text.HAL_SPDIFRX_ReceiveControlFlow_IT:00000000 $t
C:\Users\Nina\AppData\Local\Temp\ccfkNb9x.s:1217   .text.HAL_SPDIFRX_ReceiveControlFlow_IT:00000000 HAL_SPDIFRX_ReceiveControlFlow_IT
C:\Users\Nina\AppData\Local\Temp\ccfkNb9x.s:1400   .text.HAL_SPDIFRX_ReceiveDataFlow_DMA:00000000 $t
C:\Users\Nina\AppData\Local\Temp\ccfkNb9x.s:1407   .text.HAL_SPDIFRX_ReceiveDataFlow_DMA:00000000 HAL_SPDIFRX_ReceiveDataFlow_DMA
C:\Users\Nina\AppData\Local\Temp\ccfkNb9x.s:1613   .text.HAL_SPDIFRX_ReceiveDataFlow_DMA:000000d4 $d
C:\Users\Nina\AppData\Local\Temp\ccfkNb9x.s:1953   .text.SPDIFRX_DMARxHalfCplt:00000000 SPDIFRX_DMARxHalfCplt
C:\Users\Nina\AppData\Local\Temp\ccfkNb9x.s:2008   .text.SPDIFRX_DMARxCplt:00000000 SPDIFRX_DMARxCplt
C:\Users\Nina\AppData\Local\Temp\ccfkNb9x.s:2368   .text.SPDIFRX_DMAError:00000000 SPDIFRX_DMAError
C:\Users\Nina\AppData\Local\Temp\ccfkNb9x.s:1620   .text.HAL_SPDIFRX_ReceiveControlFlow_DMA:00000000 $t
C:\Users\Nina\AppData\Local\Temp\ccfkNb9x.s:1627   .text.HAL_SPDIFRX_ReceiveControlFlow_DMA:00000000 HAL_SPDIFRX_ReceiveControlFlow_DMA
C:\Users\Nina\AppData\Local\Temp\ccfkNb9x.s:1833   .text.HAL_SPDIFRX_ReceiveControlFlow_DMA:000000d4 $d
C:\Users\Nina\AppData\Local\Temp\ccfkNb9x.s:2166   .text.SPDIFRX_DMACxHalfCplt:00000000 SPDIFRX_DMACxHalfCplt
C:\Users\Nina\AppData\Local\Temp\ccfkNb9x.s:2221   .text.SPDIFRX_DMACxCplt:00000000 SPDIFRX_DMACxCplt
C:\Users\Nina\AppData\Local\Temp\ccfkNb9x.s:1840   .text.HAL_SPDIFRX_DMAStop:00000000 $t
C:\Users\Nina\AppData\Local\Temp\ccfkNb9x.s:1847   .text.HAL_SPDIFRX_DMAStop:00000000 HAL_SPDIFRX_DMAStop
C:\Users\Nina\AppData\Local\Temp\ccfkNb9x.s:1925   .text.HAL_SPDIFRX_RxHalfCpltCallback:00000000 $t
C:\Users\Nina\AppData\Local\Temp\ccfkNb9x.s:1932   .text.HAL_SPDIFRX_RxHalfCpltCallback:00000000 HAL_SPDIFRX_RxHalfCpltCallback
C:\Users\Nina\AppData\Local\Temp\ccfkNb9x.s:1947   .text.SPDIFRX_DMARxHalfCplt:00000000 $t
C:\Users\Nina\AppData\Local\Temp\ccfkNb9x.s:1980   .text.HAL_SPDIFRX_RxCpltCallback:00000000 $t
C:\Users\Nina\AppData\Local\Temp\ccfkNb9x.s:1987   .text.HAL_SPDIFRX_RxCpltCallback:00000000 HAL_SPDIFRX_RxCpltCallback
C:\Users\Nina\AppData\Local\Temp\ccfkNb9x.s:2002   .text.SPDIFRX_DMARxCplt:00000000 $t
C:\Users\Nina\AppData\Local\Temp\ccfkNb9x.s:2062   .text.SPDIFRX_ReceiveDataFlow_IT:00000000 $t
C:\Users\Nina\AppData\Local\Temp\ccfkNb9x.s:2068   .text.SPDIFRX_ReceiveDataFlow_IT:00000000 SPDIFRX_ReceiveDataFlow_IT
C:\Users\Nina\AppData\Local\Temp\ccfkNb9x.s:2138   .text.HAL_SPDIFRX_CxHalfCpltCallback:00000000 $t
C:\Users\Nina\AppData\Local\Temp\ccfkNb9x.s:2145   .text.HAL_SPDIFRX_CxHalfCpltCallback:00000000 HAL_SPDIFRX_CxHalfCpltCallback
C:\Users\Nina\AppData\Local\Temp\ccfkNb9x.s:2160   .text.SPDIFRX_DMACxHalfCplt:00000000 $t
C:\Users\Nina\AppData\Local\Temp\ccfkNb9x.s:2193   .text.HAL_SPDIFRX_CxCpltCallback:00000000 $t
C:\Users\Nina\AppData\Local\Temp\ccfkNb9x.s:2200   .text.HAL_SPDIFRX_CxCpltCallback:00000000 HAL_SPDIFRX_CxCpltCallback
C:\Users\Nina\AppData\Local\Temp\ccfkNb9x.s:2215   .text.SPDIFRX_DMACxCplt:00000000 $t
C:\Users\Nina\AppData\Local\Temp\ccfkNb9x.s:2264   .text.SPDIFRX_ReceiveControlFlow_IT:00000000 $t
C:\Users\Nina\AppData\Local\Temp\ccfkNb9x.s:2270   .text.SPDIFRX_ReceiveControlFlow_IT:00000000 SPDIFRX_ReceiveControlFlow_IT
C:\Users\Nina\AppData\Local\Temp\ccfkNb9x.s:2340   .text.HAL_SPDIFRX_ErrorCallback:00000000 $t
C:\Users\Nina\AppData\Local\Temp\ccfkNb9x.s:2347   .text.HAL_SPDIFRX_ErrorCallback:00000000 HAL_SPDIFRX_ErrorCallback
C:\Users\Nina\AppData\Local\Temp\ccfkNb9x.s:2362   .text.SPDIFRX_DMAError:00000000 $t
C:\Users\Nina\AppData\Local\Temp\ccfkNb9x.s:2417   .text.HAL_SPDIFRX_IRQHandler:00000000 $t
C:\Users\Nina\AppData\Local\Temp\ccfkNb9x.s:2424   .text.HAL_SPDIFRX_IRQHandler:00000000 HAL_SPDIFRX_IRQHandler
ARM GAS  C:\Users\Nina\AppData\Local\Temp\ccfkNb9x.s 			page 82


C:\Users\Nina\AppData\Local\Temp\ccfkNb9x.s:2545   .text.HAL_SPDIFRX_GetState:00000000 $t
C:\Users\Nina\AppData\Local\Temp\ccfkNb9x.s:2552   .text.HAL_SPDIFRX_GetState:00000000 HAL_SPDIFRX_GetState
C:\Users\Nina\AppData\Local\Temp\ccfkNb9x.s:2570   .text.HAL_SPDIFRX_GetError:00000000 $t
C:\Users\Nina\AppData\Local\Temp\ccfkNb9x.s:2577   .text.HAL_SPDIFRX_GetError:00000000 HAL_SPDIFRX_GetError

UNDEFINED SYMBOLS
HAL_GetTick
HAL_DMA_Start_IT
