ARM GAS  C:\Users\Nina\AppData\Local\Temp\ccvtmqTe.s 			page 1


   1              		.cpu cortex-m7
   2              		.eabi_attribute 27, 1
   3              		.eabi_attribute 28, 1
   4              		.eabi_attribute 20, 1
   5              		.eabi_attribute 21, 1
   6              		.eabi_attribute 23, 3
   7              		.eabi_attribute 24, 1
   8              		.eabi_attribute 25, 1
   9              		.eabi_attribute 26, 1
  10              		.eabi_attribute 30, 1
  11              		.eabi_attribute 34, 1
  12              		.eabi_attribute 18, 4
  13              		.file	"stm32f7xx_hal_msp.c"
  14              		.text
  15              	.Ltext0:
  16              		.cfi_sections	.debug_frame
  17              		.section	.text.HAL_FMC_MspInit,"ax",%progbits
  18              		.align	1
  19              		.arch armv7e-m
  20              		.syntax unified
  21              		.thumb
  22              		.thumb_func
  23              		.fpu fpv5-sp-d16
  25              	HAL_FMC_MspInit:
  26              	.LFB168:
  27              		.file 1 "Src/stm32f7xx_hal_msp.c"
   1:Src/stm32f7xx_hal_msp.c **** /**
   2:Src/stm32f7xx_hal_msp.c ****   ******************************************************************************
   3:Src/stm32f7xx_hal_msp.c ****   * File Name          : stm32f7xx_hal_msp.c
   4:Src/stm32f7xx_hal_msp.c ****   * Description        : This file provides code for the MSP Initialization 
   5:Src/stm32f7xx_hal_msp.c ****   *                      and de-Initialization codes.
   6:Src/stm32f7xx_hal_msp.c ****   ******************************************************************************
   7:Src/stm32f7xx_hal_msp.c ****   * This notice applies to any and all portions of this file
   8:Src/stm32f7xx_hal_msp.c ****   * that are not between comment pairs USER CODE BEGIN and
   9:Src/stm32f7xx_hal_msp.c ****   * USER CODE END. Other portions of this file, whether 
  10:Src/stm32f7xx_hal_msp.c ****   * inserted by the user or by software development tools
  11:Src/stm32f7xx_hal_msp.c ****   * are owned by their respective copyright owners.
  12:Src/stm32f7xx_hal_msp.c ****   *
  13:Src/stm32f7xx_hal_msp.c ****   * Copyright (c) 2018 STMicroelectronics International N.V. 
  14:Src/stm32f7xx_hal_msp.c ****   * All rights reserved.
  15:Src/stm32f7xx_hal_msp.c ****   *
  16:Src/stm32f7xx_hal_msp.c ****   * Redistribution and use in source and binary forms, with or without 
  17:Src/stm32f7xx_hal_msp.c ****   * modification, are permitted, provided that the following conditions are met:
  18:Src/stm32f7xx_hal_msp.c ****   *
  19:Src/stm32f7xx_hal_msp.c ****   * 1. Redistribution of source code must retain the above copyright notice, 
  20:Src/stm32f7xx_hal_msp.c ****   *    this list of conditions and the following disclaimer.
  21:Src/stm32f7xx_hal_msp.c ****   * 2. Redistributions in binary form must reproduce the above copyright notice,
  22:Src/stm32f7xx_hal_msp.c ****   *    this list of conditions and the following disclaimer in the documentation
  23:Src/stm32f7xx_hal_msp.c ****   *    and/or other materials provided with the distribution.
  24:Src/stm32f7xx_hal_msp.c ****   * 3. Neither the name of STMicroelectronics nor the names of other 
  25:Src/stm32f7xx_hal_msp.c ****   *    contributors to this software may be used to endorse or promote products 
  26:Src/stm32f7xx_hal_msp.c ****   *    derived from this software without specific written permission.
  27:Src/stm32f7xx_hal_msp.c ****   * 4. This software, including modifications and/or derivative works of this 
  28:Src/stm32f7xx_hal_msp.c ****   *    software, must execute solely and exclusively on microcontroller or
  29:Src/stm32f7xx_hal_msp.c ****   *    microprocessor devices manufactured by or for STMicroelectronics.
  30:Src/stm32f7xx_hal_msp.c ****   * 5. Redistribution and use of this software other than as permitted under 
  31:Src/stm32f7xx_hal_msp.c ****   *    this license is void and will automatically terminate your rights under 
ARM GAS  C:\Users\Nina\AppData\Local\Temp\ccvtmqTe.s 			page 2


  32:Src/stm32f7xx_hal_msp.c ****   *    this license. 
  33:Src/stm32f7xx_hal_msp.c ****   *
  34:Src/stm32f7xx_hal_msp.c ****   * THIS SOFTWARE IS PROVIDED BY STMICROELECTRONICS AND CONTRIBUTORS "AS IS" 
  35:Src/stm32f7xx_hal_msp.c ****   * AND ANY EXPRESS, IMPLIED OR STATUTORY WARRANTIES, INCLUDING, BUT NOT 
  36:Src/stm32f7xx_hal_msp.c ****   * LIMITED TO, THE IMPLIED WARRANTIES OF MERCHANTABILITY, FITNESS FOR A 
  37:Src/stm32f7xx_hal_msp.c ****   * PARTICULAR PURPOSE AND NON-INFRINGEMENT OF THIRD PARTY INTELLECTUAL PROPERTY
  38:Src/stm32f7xx_hal_msp.c ****   * RIGHTS ARE DISCLAIMED TO THE FULLEST EXTENT PERMITTED BY LAW. IN NO EVENT 
  39:Src/stm32f7xx_hal_msp.c ****   * SHALL STMICROELECTRONICS OR CONTRIBUTORS BE LIABLE FOR ANY DIRECT, INDIRECT,
  40:Src/stm32f7xx_hal_msp.c ****   * INCIDENTAL, SPECIAL, EXEMPLARY, OR CONSEQUENTIAL DAMAGES (INCLUDING, BUT NOT
  41:Src/stm32f7xx_hal_msp.c ****   * LIMITED TO, PROCUREMENT OF SUBSTITUTE GOODS OR SERVICES; LOSS OF USE, DATA, 
  42:Src/stm32f7xx_hal_msp.c ****   * OR PROFITS; OR BUSINESS INTERRUPTION) HOWEVER CAUSED AND ON ANY THEORY OF 
  43:Src/stm32f7xx_hal_msp.c ****   * LIABILITY, WHETHER IN CONTRACT, STRICT LIABILITY, OR TORT (INCLUDING 
  44:Src/stm32f7xx_hal_msp.c ****   * NEGLIGENCE OR OTHERWISE) ARISING IN ANY WAY OUT OF THE USE OF THIS SOFTWARE,
  45:Src/stm32f7xx_hal_msp.c ****   * EVEN IF ADVISED OF THE POSSIBILITY OF SUCH DAMAGE.
  46:Src/stm32f7xx_hal_msp.c ****   *
  47:Src/stm32f7xx_hal_msp.c ****   ******************************************************************************
  48:Src/stm32f7xx_hal_msp.c ****   */
  49:Src/stm32f7xx_hal_msp.c **** /* Includes ------------------------------------------------------------------*/
  50:Src/stm32f7xx_hal_msp.c **** #include "stm32f7xx_hal.h"
  51:Src/stm32f7xx_hal_msp.c **** extern void _Error_Handler(char *, int);
  52:Src/stm32f7xx_hal_msp.c **** /* USER CODE BEGIN 0 */
  53:Src/stm32f7xx_hal_msp.c **** 
  54:Src/stm32f7xx_hal_msp.c **** /* USER CODE END 0 */
  55:Src/stm32f7xx_hal_msp.c ****                         
  56:Src/stm32f7xx_hal_msp.c **** void HAL_TIM_MspPostInit(TIM_HandleTypeDef *htim);
  57:Src/stm32f7xx_hal_msp.c ****                                                                                                    
  58:Src/stm32f7xx_hal_msp.c ****   * Initializes the Global MSP.
  59:Src/stm32f7xx_hal_msp.c ****   */
  60:Src/stm32f7xx_hal_msp.c **** void HAL_MspInit(void)
  61:Src/stm32f7xx_hal_msp.c **** {
  62:Src/stm32f7xx_hal_msp.c ****   /* USER CODE BEGIN MspInit 0 */
  63:Src/stm32f7xx_hal_msp.c **** 
  64:Src/stm32f7xx_hal_msp.c ****   /* USER CODE END MspInit 0 */
  65:Src/stm32f7xx_hal_msp.c **** 
  66:Src/stm32f7xx_hal_msp.c ****   __HAL_RCC_PWR_CLK_ENABLE();
  67:Src/stm32f7xx_hal_msp.c ****   __HAL_RCC_SYSCFG_CLK_ENABLE();
  68:Src/stm32f7xx_hal_msp.c **** 
  69:Src/stm32f7xx_hal_msp.c ****   HAL_NVIC_SetPriorityGrouping(NVIC_PRIORITYGROUP_4);
  70:Src/stm32f7xx_hal_msp.c **** 
  71:Src/stm32f7xx_hal_msp.c ****   /* System interrupt init*/
  72:Src/stm32f7xx_hal_msp.c ****   /* MemoryManagement_IRQn interrupt configuration */
  73:Src/stm32f7xx_hal_msp.c ****   HAL_NVIC_SetPriority(MemoryManagement_IRQn, 0, 0);
  74:Src/stm32f7xx_hal_msp.c ****   /* BusFault_IRQn interrupt configuration */
  75:Src/stm32f7xx_hal_msp.c ****   HAL_NVIC_SetPriority(BusFault_IRQn, 0, 0);
  76:Src/stm32f7xx_hal_msp.c ****   /* UsageFault_IRQn interrupt configuration */
  77:Src/stm32f7xx_hal_msp.c ****   HAL_NVIC_SetPriority(UsageFault_IRQn, 0, 0);
  78:Src/stm32f7xx_hal_msp.c ****   /* SVCall_IRQn interrupt configuration */
  79:Src/stm32f7xx_hal_msp.c ****   HAL_NVIC_SetPriority(SVCall_IRQn, 0, 0);
  80:Src/stm32f7xx_hal_msp.c ****   /* DebugMonitor_IRQn interrupt configuration */
  81:Src/stm32f7xx_hal_msp.c ****   HAL_NVIC_SetPriority(DebugMonitor_IRQn, 0, 0);
  82:Src/stm32f7xx_hal_msp.c ****   /* PendSV_IRQn interrupt configuration */
  83:Src/stm32f7xx_hal_msp.c ****   HAL_NVIC_SetPriority(PendSV_IRQn, 15, 0);
  84:Src/stm32f7xx_hal_msp.c ****   /* SysTick_IRQn interrupt configuration */
  85:Src/stm32f7xx_hal_msp.c ****   HAL_NVIC_SetPriority(SysTick_IRQn, 15, 0);
  86:Src/stm32f7xx_hal_msp.c **** 
  87:Src/stm32f7xx_hal_msp.c ****   /* USER CODE BEGIN MspInit 1 */
  88:Src/stm32f7xx_hal_msp.c **** 
ARM GAS  C:\Users\Nina\AppData\Local\Temp\ccvtmqTe.s 			page 3


  89:Src/stm32f7xx_hal_msp.c ****   /* USER CODE END MspInit 1 */
  90:Src/stm32f7xx_hal_msp.c **** }
  91:Src/stm32f7xx_hal_msp.c **** 
  92:Src/stm32f7xx_hal_msp.c **** void HAL_ADC_MspInit(ADC_HandleTypeDef* hadc)
  93:Src/stm32f7xx_hal_msp.c **** {
  94:Src/stm32f7xx_hal_msp.c **** 
  95:Src/stm32f7xx_hal_msp.c ****   GPIO_InitTypeDef GPIO_InitStruct;
  96:Src/stm32f7xx_hal_msp.c ****   if(hadc->Instance==ADC3)
  97:Src/stm32f7xx_hal_msp.c ****   {
  98:Src/stm32f7xx_hal_msp.c ****   /* USER CODE BEGIN ADC3_MspInit 0 */
  99:Src/stm32f7xx_hal_msp.c **** 
 100:Src/stm32f7xx_hal_msp.c ****   /* USER CODE END ADC3_MspInit 0 */
 101:Src/stm32f7xx_hal_msp.c ****     /* Peripheral clock enable */
 102:Src/stm32f7xx_hal_msp.c ****     __HAL_RCC_ADC3_CLK_ENABLE();
 103:Src/stm32f7xx_hal_msp.c ****   
 104:Src/stm32f7xx_hal_msp.c ****     /**ADC3 GPIO Configuration    
 105:Src/stm32f7xx_hal_msp.c ****     PF7     ------> ADC3_IN5
 106:Src/stm32f7xx_hal_msp.c ****     PF6     ------> ADC3_IN4
 107:Src/stm32f7xx_hal_msp.c ****     PF10     ------> ADC3_IN8
 108:Src/stm32f7xx_hal_msp.c ****     PF9     ------> ADC3_IN7
 109:Src/stm32f7xx_hal_msp.c ****     PF8     ------> ADC3_IN6
 110:Src/stm32f7xx_hal_msp.c ****     PA0/WKUP     ------> ADC3_IN0 
 111:Src/stm32f7xx_hal_msp.c ****     */
 112:Src/stm32f7xx_hal_msp.c ****     GPIO_InitStruct.Pin = ARDUINO_A4_Pin|ARDUINO_A5_Pin|ARDUINO_A1_Pin|ARDUINO_A2_Pin 
 113:Src/stm32f7xx_hal_msp.c ****                           |ARDUINO_A3_Pin;
 114:Src/stm32f7xx_hal_msp.c ****     GPIO_InitStruct.Mode = GPIO_MODE_ANALOG;
 115:Src/stm32f7xx_hal_msp.c ****     GPIO_InitStruct.Pull = GPIO_NOPULL;
 116:Src/stm32f7xx_hal_msp.c ****     HAL_GPIO_Init(GPIOF, &GPIO_InitStruct);
 117:Src/stm32f7xx_hal_msp.c **** 
 118:Src/stm32f7xx_hal_msp.c ****     GPIO_InitStruct.Pin = ARDUINO_A0_Pin;
 119:Src/stm32f7xx_hal_msp.c ****     GPIO_InitStruct.Mode = GPIO_MODE_ANALOG;
 120:Src/stm32f7xx_hal_msp.c ****     GPIO_InitStruct.Pull = GPIO_NOPULL;
 121:Src/stm32f7xx_hal_msp.c ****     HAL_GPIO_Init(ARDUINO_A0_GPIO_Port, &GPIO_InitStruct);
 122:Src/stm32f7xx_hal_msp.c **** 
 123:Src/stm32f7xx_hal_msp.c ****   /* USER CODE BEGIN ADC3_MspInit 1 */
 124:Src/stm32f7xx_hal_msp.c **** 
 125:Src/stm32f7xx_hal_msp.c ****   /* USER CODE END ADC3_MspInit 1 */
 126:Src/stm32f7xx_hal_msp.c ****   }
 127:Src/stm32f7xx_hal_msp.c **** 
 128:Src/stm32f7xx_hal_msp.c **** }
 129:Src/stm32f7xx_hal_msp.c **** 
 130:Src/stm32f7xx_hal_msp.c **** void HAL_ADC_MspDeInit(ADC_HandleTypeDef* hadc)
 131:Src/stm32f7xx_hal_msp.c **** {
 132:Src/stm32f7xx_hal_msp.c **** 
 133:Src/stm32f7xx_hal_msp.c ****   if(hadc->Instance==ADC3)
 134:Src/stm32f7xx_hal_msp.c ****   {
 135:Src/stm32f7xx_hal_msp.c ****   /* USER CODE BEGIN ADC3_MspDeInit 0 */
 136:Src/stm32f7xx_hal_msp.c **** 
 137:Src/stm32f7xx_hal_msp.c ****   /* USER CODE END ADC3_MspDeInit 0 */
 138:Src/stm32f7xx_hal_msp.c ****     /* Peripheral clock disable */
 139:Src/stm32f7xx_hal_msp.c ****     __HAL_RCC_ADC3_CLK_DISABLE();
 140:Src/stm32f7xx_hal_msp.c ****   
 141:Src/stm32f7xx_hal_msp.c ****     /**ADC3 GPIO Configuration    
 142:Src/stm32f7xx_hal_msp.c ****     PF7     ------> ADC3_IN5
 143:Src/stm32f7xx_hal_msp.c ****     PF6     ------> ADC3_IN4
 144:Src/stm32f7xx_hal_msp.c ****     PF10     ------> ADC3_IN8
 145:Src/stm32f7xx_hal_msp.c ****     PF9     ------> ADC3_IN7
ARM GAS  C:\Users\Nina\AppData\Local\Temp\ccvtmqTe.s 			page 4


 146:Src/stm32f7xx_hal_msp.c ****     PF8     ------> ADC3_IN6
 147:Src/stm32f7xx_hal_msp.c ****     PA0/WKUP     ------> ADC3_IN0 
 148:Src/stm32f7xx_hal_msp.c ****     */
 149:Src/stm32f7xx_hal_msp.c ****     HAL_GPIO_DeInit(GPIOF, ARDUINO_A4_Pin|ARDUINO_A5_Pin|ARDUINO_A1_Pin|ARDUINO_A2_Pin 
 150:Src/stm32f7xx_hal_msp.c ****                           |ARDUINO_A3_Pin);
 151:Src/stm32f7xx_hal_msp.c **** 
 152:Src/stm32f7xx_hal_msp.c ****     HAL_GPIO_DeInit(ARDUINO_A0_GPIO_Port, ARDUINO_A0_Pin);
 153:Src/stm32f7xx_hal_msp.c **** 
 154:Src/stm32f7xx_hal_msp.c ****   /* USER CODE BEGIN ADC3_MspDeInit 1 */
 155:Src/stm32f7xx_hal_msp.c **** 
 156:Src/stm32f7xx_hal_msp.c ****   /* USER CODE END ADC3_MspDeInit 1 */
 157:Src/stm32f7xx_hal_msp.c ****   }
 158:Src/stm32f7xx_hal_msp.c **** 
 159:Src/stm32f7xx_hal_msp.c **** }
 160:Src/stm32f7xx_hal_msp.c **** 
 161:Src/stm32f7xx_hal_msp.c **** void HAL_CRC_MspInit(CRC_HandleTypeDef* hcrc)
 162:Src/stm32f7xx_hal_msp.c **** {
 163:Src/stm32f7xx_hal_msp.c **** 
 164:Src/stm32f7xx_hal_msp.c ****   if(hcrc->Instance==CRC)
 165:Src/stm32f7xx_hal_msp.c ****   {
 166:Src/stm32f7xx_hal_msp.c ****   /* USER CODE BEGIN CRC_MspInit 0 */
 167:Src/stm32f7xx_hal_msp.c **** 
 168:Src/stm32f7xx_hal_msp.c ****   /* USER CODE END CRC_MspInit 0 */
 169:Src/stm32f7xx_hal_msp.c ****     /* Peripheral clock enable */
 170:Src/stm32f7xx_hal_msp.c ****     __HAL_RCC_CRC_CLK_ENABLE();
 171:Src/stm32f7xx_hal_msp.c ****   /* USER CODE BEGIN CRC_MspInit 1 */
 172:Src/stm32f7xx_hal_msp.c **** 
 173:Src/stm32f7xx_hal_msp.c ****   /* USER CODE END CRC_MspInit 1 */
 174:Src/stm32f7xx_hal_msp.c ****   }
 175:Src/stm32f7xx_hal_msp.c **** 
 176:Src/stm32f7xx_hal_msp.c **** }
 177:Src/stm32f7xx_hal_msp.c **** 
 178:Src/stm32f7xx_hal_msp.c **** void HAL_CRC_MspDeInit(CRC_HandleTypeDef* hcrc)
 179:Src/stm32f7xx_hal_msp.c **** {
 180:Src/stm32f7xx_hal_msp.c **** 
 181:Src/stm32f7xx_hal_msp.c ****   if(hcrc->Instance==CRC)
 182:Src/stm32f7xx_hal_msp.c ****   {
 183:Src/stm32f7xx_hal_msp.c ****   /* USER CODE BEGIN CRC_MspDeInit 0 */
 184:Src/stm32f7xx_hal_msp.c **** 
 185:Src/stm32f7xx_hal_msp.c ****   /* USER CODE END CRC_MspDeInit 0 */
 186:Src/stm32f7xx_hal_msp.c ****     /* Peripheral clock disable */
 187:Src/stm32f7xx_hal_msp.c ****     __HAL_RCC_CRC_CLK_DISABLE();
 188:Src/stm32f7xx_hal_msp.c ****   /* USER CODE BEGIN CRC_MspDeInit 1 */
 189:Src/stm32f7xx_hal_msp.c **** 
 190:Src/stm32f7xx_hal_msp.c ****   /* USER CODE END CRC_MspDeInit 1 */
 191:Src/stm32f7xx_hal_msp.c ****   }
 192:Src/stm32f7xx_hal_msp.c **** 
 193:Src/stm32f7xx_hal_msp.c **** }
 194:Src/stm32f7xx_hal_msp.c **** 
 195:Src/stm32f7xx_hal_msp.c **** void HAL_DCMI_MspInit(DCMI_HandleTypeDef* hdcmi)
 196:Src/stm32f7xx_hal_msp.c **** {
 197:Src/stm32f7xx_hal_msp.c **** 
 198:Src/stm32f7xx_hal_msp.c ****   GPIO_InitTypeDef GPIO_InitStruct;
 199:Src/stm32f7xx_hal_msp.c ****   if(hdcmi->Instance==DCMI)
 200:Src/stm32f7xx_hal_msp.c ****   {
 201:Src/stm32f7xx_hal_msp.c ****   /* USER CODE BEGIN DCMI_MspInit 0 */
 202:Src/stm32f7xx_hal_msp.c **** 
ARM GAS  C:\Users\Nina\AppData\Local\Temp\ccvtmqTe.s 			page 5


 203:Src/stm32f7xx_hal_msp.c ****   /* USER CODE END DCMI_MspInit 0 */
 204:Src/stm32f7xx_hal_msp.c ****     /* Peripheral clock enable */
 205:Src/stm32f7xx_hal_msp.c ****     __HAL_RCC_DCMI_CLK_ENABLE();
 206:Src/stm32f7xx_hal_msp.c ****   
 207:Src/stm32f7xx_hal_msp.c ****     /**DCMI GPIO Configuration    
 208:Src/stm32f7xx_hal_msp.c ****     PE5     ------> DCMI_D6
 209:Src/stm32f7xx_hal_msp.c ****     PE6     ------> DCMI_D7
 210:Src/stm32f7xx_hal_msp.c ****     PD3     ------> DCMI_D5
 211:Src/stm32f7xx_hal_msp.c ****     PG9     ------> DCMI_VSYNC
 212:Src/stm32f7xx_hal_msp.c ****     PH14     ------> DCMI_D4
 213:Src/stm32f7xx_hal_msp.c ****     PH12     ------> DCMI_D3
 214:Src/stm32f7xx_hal_msp.c ****     PA4     ------> DCMI_HSYNC
 215:Src/stm32f7xx_hal_msp.c ****     PH9     ------> DCMI_D0
 216:Src/stm32f7xx_hal_msp.c ****     PH11     ------> DCMI_D2
 217:Src/stm32f7xx_hal_msp.c ****     PA6     ------> DCMI_PIXCLK
 218:Src/stm32f7xx_hal_msp.c ****     PH10     ------> DCMI_D1 
 219:Src/stm32f7xx_hal_msp.c ****     */
 220:Src/stm32f7xx_hal_msp.c ****     GPIO_InitStruct.Pin = DCMI_D6_Pin|DCMI_D7_Pin;
 221:Src/stm32f7xx_hal_msp.c ****     GPIO_InitStruct.Mode = GPIO_MODE_AF_PP;
 222:Src/stm32f7xx_hal_msp.c ****     GPIO_InitStruct.Pull = GPIO_NOPULL;
 223:Src/stm32f7xx_hal_msp.c ****     GPIO_InitStruct.Speed = GPIO_SPEED_FREQ_LOW;
 224:Src/stm32f7xx_hal_msp.c ****     GPIO_InitStruct.Alternate = GPIO_AF13_DCMI;
 225:Src/stm32f7xx_hal_msp.c ****     HAL_GPIO_Init(GPIOE, &GPIO_InitStruct);
 226:Src/stm32f7xx_hal_msp.c **** 
 227:Src/stm32f7xx_hal_msp.c ****     GPIO_InitStruct.Pin = DCMI_D5_Pin;
 228:Src/stm32f7xx_hal_msp.c ****     GPIO_InitStruct.Mode = GPIO_MODE_AF_PP;
 229:Src/stm32f7xx_hal_msp.c ****     GPIO_InitStruct.Pull = GPIO_NOPULL;
 230:Src/stm32f7xx_hal_msp.c ****     GPIO_InitStruct.Speed = GPIO_SPEED_FREQ_LOW;
 231:Src/stm32f7xx_hal_msp.c ****     GPIO_InitStruct.Alternate = GPIO_AF13_DCMI;
 232:Src/stm32f7xx_hal_msp.c ****     HAL_GPIO_Init(DCMI_D5_GPIO_Port, &GPIO_InitStruct);
 233:Src/stm32f7xx_hal_msp.c **** 
 234:Src/stm32f7xx_hal_msp.c ****     GPIO_InitStruct.Pin = DCMI_VSYNC_Pin;
 235:Src/stm32f7xx_hal_msp.c ****     GPIO_InitStruct.Mode = GPIO_MODE_AF_PP;
 236:Src/stm32f7xx_hal_msp.c ****     GPIO_InitStruct.Pull = GPIO_NOPULL;
 237:Src/stm32f7xx_hal_msp.c ****     GPIO_InitStruct.Speed = GPIO_SPEED_FREQ_LOW;
 238:Src/stm32f7xx_hal_msp.c ****     GPIO_InitStruct.Alternate = GPIO_AF13_DCMI;
 239:Src/stm32f7xx_hal_msp.c ****     HAL_GPIO_Init(DCMI_VSYNC_GPIO_Port, &GPIO_InitStruct);
 240:Src/stm32f7xx_hal_msp.c **** 
 241:Src/stm32f7xx_hal_msp.c ****     GPIO_InitStruct.Pin = DCMI_D4_Pin|DCMI_D3_Pin|DCMI_D0_Pin|DCMI_D2_Pin 
 242:Src/stm32f7xx_hal_msp.c ****                           |DCMI_D1_Pin;
 243:Src/stm32f7xx_hal_msp.c ****     GPIO_InitStruct.Mode = GPIO_MODE_AF_PP;
 244:Src/stm32f7xx_hal_msp.c ****     GPIO_InitStruct.Pull = GPIO_NOPULL;
 245:Src/stm32f7xx_hal_msp.c ****     GPIO_InitStruct.Speed = GPIO_SPEED_FREQ_LOW;
 246:Src/stm32f7xx_hal_msp.c ****     GPIO_InitStruct.Alternate = GPIO_AF13_DCMI;
 247:Src/stm32f7xx_hal_msp.c ****     HAL_GPIO_Init(GPIOH, &GPIO_InitStruct);
 248:Src/stm32f7xx_hal_msp.c **** 
 249:Src/stm32f7xx_hal_msp.c ****     GPIO_InitStruct.Pin = DCMI_HSYNC_Pin|GPIO_PIN_6;
 250:Src/stm32f7xx_hal_msp.c ****     GPIO_InitStruct.Mode = GPIO_MODE_AF_PP;
 251:Src/stm32f7xx_hal_msp.c ****     GPIO_InitStruct.Pull = GPIO_NOPULL;
 252:Src/stm32f7xx_hal_msp.c ****     GPIO_InitStruct.Speed = GPIO_SPEED_FREQ_LOW;
 253:Src/stm32f7xx_hal_msp.c ****     GPIO_InitStruct.Alternate = GPIO_AF13_DCMI;
 254:Src/stm32f7xx_hal_msp.c ****     HAL_GPIO_Init(GPIOA, &GPIO_InitStruct);
 255:Src/stm32f7xx_hal_msp.c **** 
 256:Src/stm32f7xx_hal_msp.c ****   /* USER CODE BEGIN DCMI_MspInit 1 */
 257:Src/stm32f7xx_hal_msp.c **** 
 258:Src/stm32f7xx_hal_msp.c ****   /* USER CODE END DCMI_MspInit 1 */
 259:Src/stm32f7xx_hal_msp.c ****   }
ARM GAS  C:\Users\Nina\AppData\Local\Temp\ccvtmqTe.s 			page 6


 260:Src/stm32f7xx_hal_msp.c **** 
 261:Src/stm32f7xx_hal_msp.c **** }
 262:Src/stm32f7xx_hal_msp.c **** 
 263:Src/stm32f7xx_hal_msp.c **** void HAL_DCMI_MspDeInit(DCMI_HandleTypeDef* hdcmi)
 264:Src/stm32f7xx_hal_msp.c **** {
 265:Src/stm32f7xx_hal_msp.c **** 
 266:Src/stm32f7xx_hal_msp.c ****   if(hdcmi->Instance==DCMI)
 267:Src/stm32f7xx_hal_msp.c ****   {
 268:Src/stm32f7xx_hal_msp.c ****   /* USER CODE BEGIN DCMI_MspDeInit 0 */
 269:Src/stm32f7xx_hal_msp.c **** 
 270:Src/stm32f7xx_hal_msp.c ****   /* USER CODE END DCMI_MspDeInit 0 */
 271:Src/stm32f7xx_hal_msp.c ****     /* Peripheral clock disable */
 272:Src/stm32f7xx_hal_msp.c ****     __HAL_RCC_DCMI_CLK_DISABLE();
 273:Src/stm32f7xx_hal_msp.c ****   
 274:Src/stm32f7xx_hal_msp.c ****     /**DCMI GPIO Configuration    
 275:Src/stm32f7xx_hal_msp.c ****     PE5     ------> DCMI_D6
 276:Src/stm32f7xx_hal_msp.c ****     PE6     ------> DCMI_D7
 277:Src/stm32f7xx_hal_msp.c ****     PD3     ------> DCMI_D5
 278:Src/stm32f7xx_hal_msp.c ****     PG9     ------> DCMI_VSYNC
 279:Src/stm32f7xx_hal_msp.c ****     PH14     ------> DCMI_D4
 280:Src/stm32f7xx_hal_msp.c ****     PH12     ------> DCMI_D3
 281:Src/stm32f7xx_hal_msp.c ****     PA4     ------> DCMI_HSYNC
 282:Src/stm32f7xx_hal_msp.c ****     PH9     ------> DCMI_D0
 283:Src/stm32f7xx_hal_msp.c ****     PH11     ------> DCMI_D2
 284:Src/stm32f7xx_hal_msp.c ****     PA6     ------> DCMI_PIXCLK
 285:Src/stm32f7xx_hal_msp.c ****     PH10     ------> DCMI_D1 
 286:Src/stm32f7xx_hal_msp.c ****     */
 287:Src/stm32f7xx_hal_msp.c ****     HAL_GPIO_DeInit(GPIOE, DCMI_D6_Pin|DCMI_D7_Pin);
 288:Src/stm32f7xx_hal_msp.c **** 
 289:Src/stm32f7xx_hal_msp.c ****     HAL_GPIO_DeInit(DCMI_D5_GPIO_Port, DCMI_D5_Pin);
 290:Src/stm32f7xx_hal_msp.c **** 
 291:Src/stm32f7xx_hal_msp.c ****     HAL_GPIO_DeInit(DCMI_VSYNC_GPIO_Port, DCMI_VSYNC_Pin);
 292:Src/stm32f7xx_hal_msp.c **** 
 293:Src/stm32f7xx_hal_msp.c ****     HAL_GPIO_DeInit(GPIOH, DCMI_D4_Pin|DCMI_D3_Pin|DCMI_D0_Pin|DCMI_D2_Pin 
 294:Src/stm32f7xx_hal_msp.c ****                           |DCMI_D1_Pin);
 295:Src/stm32f7xx_hal_msp.c **** 
 296:Src/stm32f7xx_hal_msp.c ****     HAL_GPIO_DeInit(GPIOA, DCMI_HSYNC_Pin|GPIO_PIN_6);
 297:Src/stm32f7xx_hal_msp.c **** 
 298:Src/stm32f7xx_hal_msp.c ****   /* USER CODE BEGIN DCMI_MspDeInit 1 */
 299:Src/stm32f7xx_hal_msp.c **** 
 300:Src/stm32f7xx_hal_msp.c ****   /* USER CODE END DCMI_MspDeInit 1 */
 301:Src/stm32f7xx_hal_msp.c ****   }
 302:Src/stm32f7xx_hal_msp.c **** 
 303:Src/stm32f7xx_hal_msp.c **** }
 304:Src/stm32f7xx_hal_msp.c **** 
 305:Src/stm32f7xx_hal_msp.c **** void HAL_DMA2D_MspInit(DMA2D_HandleTypeDef* hdma2d)
 306:Src/stm32f7xx_hal_msp.c **** {
 307:Src/stm32f7xx_hal_msp.c **** 
 308:Src/stm32f7xx_hal_msp.c ****   if(hdma2d->Instance==DMA2D)
 309:Src/stm32f7xx_hal_msp.c ****   {
 310:Src/stm32f7xx_hal_msp.c ****   /* USER CODE BEGIN DMA2D_MspInit 0 */
 311:Src/stm32f7xx_hal_msp.c **** 
 312:Src/stm32f7xx_hal_msp.c ****   /* USER CODE END DMA2D_MspInit 0 */
 313:Src/stm32f7xx_hal_msp.c ****     /* Peripheral clock enable */
 314:Src/stm32f7xx_hal_msp.c ****     __HAL_RCC_DMA2D_CLK_ENABLE();
 315:Src/stm32f7xx_hal_msp.c ****     /* DMA2D interrupt Init */
 316:Src/stm32f7xx_hal_msp.c ****     HAL_NVIC_SetPriority(DMA2D_IRQn, 5, 0);
ARM GAS  C:\Users\Nina\AppData\Local\Temp\ccvtmqTe.s 			page 7


 317:Src/stm32f7xx_hal_msp.c ****     HAL_NVIC_EnableIRQ(DMA2D_IRQn);
 318:Src/stm32f7xx_hal_msp.c ****   /* USER CODE BEGIN DMA2D_MspInit 1 */
 319:Src/stm32f7xx_hal_msp.c **** 
 320:Src/stm32f7xx_hal_msp.c ****   /* USER CODE END DMA2D_MspInit 1 */
 321:Src/stm32f7xx_hal_msp.c ****   }
 322:Src/stm32f7xx_hal_msp.c **** 
 323:Src/stm32f7xx_hal_msp.c **** }
 324:Src/stm32f7xx_hal_msp.c **** 
 325:Src/stm32f7xx_hal_msp.c **** void HAL_DMA2D_MspDeInit(DMA2D_HandleTypeDef* hdma2d)
 326:Src/stm32f7xx_hal_msp.c **** {
 327:Src/stm32f7xx_hal_msp.c **** 
 328:Src/stm32f7xx_hal_msp.c ****   if(hdma2d->Instance==DMA2D)
 329:Src/stm32f7xx_hal_msp.c ****   {
 330:Src/stm32f7xx_hal_msp.c ****   /* USER CODE BEGIN DMA2D_MspDeInit 0 */
 331:Src/stm32f7xx_hal_msp.c **** 
 332:Src/stm32f7xx_hal_msp.c ****   /* USER CODE END DMA2D_MspDeInit 0 */
 333:Src/stm32f7xx_hal_msp.c ****     /* Peripheral clock disable */
 334:Src/stm32f7xx_hal_msp.c ****     __HAL_RCC_DMA2D_CLK_DISABLE();
 335:Src/stm32f7xx_hal_msp.c **** 
 336:Src/stm32f7xx_hal_msp.c ****     /* DMA2D interrupt DeInit */
 337:Src/stm32f7xx_hal_msp.c ****     HAL_NVIC_DisableIRQ(DMA2D_IRQn);
 338:Src/stm32f7xx_hal_msp.c ****   /* USER CODE BEGIN DMA2D_MspDeInit 1 */
 339:Src/stm32f7xx_hal_msp.c **** 
 340:Src/stm32f7xx_hal_msp.c ****   /* USER CODE END DMA2D_MspDeInit 1 */
 341:Src/stm32f7xx_hal_msp.c ****   }
 342:Src/stm32f7xx_hal_msp.c **** 
 343:Src/stm32f7xx_hal_msp.c **** }
 344:Src/stm32f7xx_hal_msp.c **** 
 345:Src/stm32f7xx_hal_msp.c **** void HAL_I2C_MspInit(I2C_HandleTypeDef* hi2c)
 346:Src/stm32f7xx_hal_msp.c **** {
 347:Src/stm32f7xx_hal_msp.c **** 
 348:Src/stm32f7xx_hal_msp.c ****   GPIO_InitTypeDef GPIO_InitStruct;
 349:Src/stm32f7xx_hal_msp.c ****   if(hi2c->Instance==I2C1)
 350:Src/stm32f7xx_hal_msp.c ****   {
 351:Src/stm32f7xx_hal_msp.c ****   /* USER CODE BEGIN I2C1_MspInit 0 */
 352:Src/stm32f7xx_hal_msp.c **** 
 353:Src/stm32f7xx_hal_msp.c ****   /* USER CODE END I2C1_MspInit 0 */
 354:Src/stm32f7xx_hal_msp.c ****   
 355:Src/stm32f7xx_hal_msp.c ****     /**I2C1 GPIO Configuration    
 356:Src/stm32f7xx_hal_msp.c ****     PB8     ------> I2C1_SCL
 357:Src/stm32f7xx_hal_msp.c ****     PB9     ------> I2C1_SDA 
 358:Src/stm32f7xx_hal_msp.c ****     */
 359:Src/stm32f7xx_hal_msp.c ****     GPIO_InitStruct.Pin = ARDUINO_SCL_D15_Pin|ARDUINO_SDA_D14_Pin;
 360:Src/stm32f7xx_hal_msp.c ****     GPIO_InitStruct.Mode = GPIO_MODE_AF_OD;
 361:Src/stm32f7xx_hal_msp.c ****     GPIO_InitStruct.Pull = GPIO_PULLUP;
 362:Src/stm32f7xx_hal_msp.c ****     GPIO_InitStruct.Speed = GPIO_SPEED_FREQ_LOW;
 363:Src/stm32f7xx_hal_msp.c ****     GPIO_InitStruct.Alternate = GPIO_AF4_I2C1;
 364:Src/stm32f7xx_hal_msp.c ****     HAL_GPIO_Init(GPIOB, &GPIO_InitStruct);
 365:Src/stm32f7xx_hal_msp.c **** 
 366:Src/stm32f7xx_hal_msp.c ****     /* Peripheral clock enable */
 367:Src/stm32f7xx_hal_msp.c ****     __HAL_RCC_I2C1_CLK_ENABLE();
 368:Src/stm32f7xx_hal_msp.c ****   /* USER CODE BEGIN I2C1_MspInit 1 */
 369:Src/stm32f7xx_hal_msp.c **** 
 370:Src/stm32f7xx_hal_msp.c ****   /* USER CODE END I2C1_MspInit 1 */
 371:Src/stm32f7xx_hal_msp.c ****   }
 372:Src/stm32f7xx_hal_msp.c ****   else if(hi2c->Instance==I2C3)
 373:Src/stm32f7xx_hal_msp.c ****   {
ARM GAS  C:\Users\Nina\AppData\Local\Temp\ccvtmqTe.s 			page 8


 374:Src/stm32f7xx_hal_msp.c ****   /* USER CODE BEGIN I2C3_MspInit 0 */
 375:Src/stm32f7xx_hal_msp.c **** 
 376:Src/stm32f7xx_hal_msp.c ****   /* USER CODE END I2C3_MspInit 0 */
 377:Src/stm32f7xx_hal_msp.c ****   
 378:Src/stm32f7xx_hal_msp.c ****     /**I2C3 GPIO Configuration    
 379:Src/stm32f7xx_hal_msp.c ****     PH7     ------> I2C3_SCL
 380:Src/stm32f7xx_hal_msp.c ****     PH8     ------> I2C3_SDA 
 381:Src/stm32f7xx_hal_msp.c ****     */
 382:Src/stm32f7xx_hal_msp.c ****     GPIO_InitStruct.Pin = LCD_SCL_Pin|LCD_SDA_Pin;
 383:Src/stm32f7xx_hal_msp.c ****     GPIO_InitStruct.Mode = GPIO_MODE_AF_OD;
 384:Src/stm32f7xx_hal_msp.c ****     GPIO_InitStruct.Pull = GPIO_PULLUP;
 385:Src/stm32f7xx_hal_msp.c ****     GPIO_InitStruct.Speed = GPIO_SPEED_FREQ_VERY_HIGH;
 386:Src/stm32f7xx_hal_msp.c ****     GPIO_InitStruct.Alternate = GPIO_AF4_I2C3;
 387:Src/stm32f7xx_hal_msp.c ****     HAL_GPIO_Init(GPIOH, &GPIO_InitStruct);
 388:Src/stm32f7xx_hal_msp.c **** 
 389:Src/stm32f7xx_hal_msp.c ****     /* Peripheral clock enable */
 390:Src/stm32f7xx_hal_msp.c ****     __HAL_RCC_I2C3_CLK_ENABLE();
 391:Src/stm32f7xx_hal_msp.c ****   /* USER CODE BEGIN I2C3_MspInit 1 */
 392:Src/stm32f7xx_hal_msp.c **** 
 393:Src/stm32f7xx_hal_msp.c ****   /* USER CODE END I2C3_MspInit 1 */
 394:Src/stm32f7xx_hal_msp.c ****   }
 395:Src/stm32f7xx_hal_msp.c **** 
 396:Src/stm32f7xx_hal_msp.c **** }
 397:Src/stm32f7xx_hal_msp.c **** 
 398:Src/stm32f7xx_hal_msp.c **** void HAL_I2C_MspDeInit(I2C_HandleTypeDef* hi2c)
 399:Src/stm32f7xx_hal_msp.c **** {
 400:Src/stm32f7xx_hal_msp.c **** 
 401:Src/stm32f7xx_hal_msp.c ****   if(hi2c->Instance==I2C1)
 402:Src/stm32f7xx_hal_msp.c ****   {
 403:Src/stm32f7xx_hal_msp.c ****   /* USER CODE BEGIN I2C1_MspDeInit 0 */
 404:Src/stm32f7xx_hal_msp.c **** 
 405:Src/stm32f7xx_hal_msp.c ****   /* USER CODE END I2C1_MspDeInit 0 */
 406:Src/stm32f7xx_hal_msp.c ****     /* Peripheral clock disable */
 407:Src/stm32f7xx_hal_msp.c ****     __HAL_RCC_I2C1_CLK_DISABLE();
 408:Src/stm32f7xx_hal_msp.c ****   
 409:Src/stm32f7xx_hal_msp.c ****     /**I2C1 GPIO Configuration    
 410:Src/stm32f7xx_hal_msp.c ****     PB8     ------> I2C1_SCL
 411:Src/stm32f7xx_hal_msp.c ****     PB9     ------> I2C1_SDA 
 412:Src/stm32f7xx_hal_msp.c ****     */
 413:Src/stm32f7xx_hal_msp.c ****     HAL_GPIO_DeInit(GPIOB, ARDUINO_SCL_D15_Pin|ARDUINO_SDA_D14_Pin);
 414:Src/stm32f7xx_hal_msp.c **** 
 415:Src/stm32f7xx_hal_msp.c ****   /* USER CODE BEGIN I2C1_MspDeInit 1 */
 416:Src/stm32f7xx_hal_msp.c **** 
 417:Src/stm32f7xx_hal_msp.c ****   /* USER CODE END I2C1_MspDeInit 1 */
 418:Src/stm32f7xx_hal_msp.c ****   }
 419:Src/stm32f7xx_hal_msp.c ****   else if(hi2c->Instance==I2C3)
 420:Src/stm32f7xx_hal_msp.c ****   {
 421:Src/stm32f7xx_hal_msp.c ****   /* USER CODE BEGIN I2C3_MspDeInit 0 */
 422:Src/stm32f7xx_hal_msp.c **** 
 423:Src/stm32f7xx_hal_msp.c ****   /* USER CODE END I2C3_MspDeInit 0 */
 424:Src/stm32f7xx_hal_msp.c ****     /* Peripheral clock disable */
 425:Src/stm32f7xx_hal_msp.c ****     __HAL_RCC_I2C3_CLK_DISABLE();
 426:Src/stm32f7xx_hal_msp.c ****   
 427:Src/stm32f7xx_hal_msp.c ****     /**I2C3 GPIO Configuration    
 428:Src/stm32f7xx_hal_msp.c ****     PH7     ------> I2C3_SCL
 429:Src/stm32f7xx_hal_msp.c ****     PH8     ------> I2C3_SDA 
 430:Src/stm32f7xx_hal_msp.c ****     */
ARM GAS  C:\Users\Nina\AppData\Local\Temp\ccvtmqTe.s 			page 9


 431:Src/stm32f7xx_hal_msp.c ****     HAL_GPIO_DeInit(GPIOH, LCD_SCL_Pin|LCD_SDA_Pin);
 432:Src/stm32f7xx_hal_msp.c **** 
 433:Src/stm32f7xx_hal_msp.c ****   /* USER CODE BEGIN I2C3_MspDeInit 1 */
 434:Src/stm32f7xx_hal_msp.c **** 
 435:Src/stm32f7xx_hal_msp.c ****   /* USER CODE END I2C3_MspDeInit 1 */
 436:Src/stm32f7xx_hal_msp.c ****   }
 437:Src/stm32f7xx_hal_msp.c **** 
 438:Src/stm32f7xx_hal_msp.c **** }
 439:Src/stm32f7xx_hal_msp.c **** 
 440:Src/stm32f7xx_hal_msp.c **** void HAL_LTDC_MspInit(LTDC_HandleTypeDef* hltdc)
 441:Src/stm32f7xx_hal_msp.c **** {
 442:Src/stm32f7xx_hal_msp.c **** 
 443:Src/stm32f7xx_hal_msp.c ****   GPIO_InitTypeDef GPIO_InitStruct;
 444:Src/stm32f7xx_hal_msp.c ****   if(hltdc->Instance==LTDC)
 445:Src/stm32f7xx_hal_msp.c ****   {
 446:Src/stm32f7xx_hal_msp.c ****   /* USER CODE BEGIN LTDC_MspInit 0 */
 447:Src/stm32f7xx_hal_msp.c **** 
 448:Src/stm32f7xx_hal_msp.c ****   /* USER CODE END LTDC_MspInit 0 */
 449:Src/stm32f7xx_hal_msp.c ****     /* Peripheral clock enable */
 450:Src/stm32f7xx_hal_msp.c ****     __HAL_RCC_LTDC_CLK_ENABLE();
 451:Src/stm32f7xx_hal_msp.c ****   
 452:Src/stm32f7xx_hal_msp.c ****     /**LTDC GPIO Configuration    
 453:Src/stm32f7xx_hal_msp.c ****     PE4     ------> LTDC_B0
 454:Src/stm32f7xx_hal_msp.c ****     PJ13     ------> LTDC_B1
 455:Src/stm32f7xx_hal_msp.c ****     PK7     ------> LTDC_DE
 456:Src/stm32f7xx_hal_msp.c ****     PK6     ------> LTDC_B7
 457:Src/stm32f7xx_hal_msp.c ****     PK5     ------> LTDC_B6
 458:Src/stm32f7xx_hal_msp.c ****     PG12     ------> LTDC_B4
 459:Src/stm32f7xx_hal_msp.c ****     PJ14     ------> LTDC_B2
 460:Src/stm32f7xx_hal_msp.c ****     PI10     ------> LTDC_HSYNC
 461:Src/stm32f7xx_hal_msp.c ****     PK4     ------> LTDC_B5
 462:Src/stm32f7xx_hal_msp.c ****     PJ15     ------> LTDC_B3
 463:Src/stm32f7xx_hal_msp.c ****     PI9     ------> LTDC_VSYNC
 464:Src/stm32f7xx_hal_msp.c ****     PK1     ------> LTDC_G6
 465:Src/stm32f7xx_hal_msp.c ****     PK2     ------> LTDC_G7
 466:Src/stm32f7xx_hal_msp.c ****     PI15     ------> LTDC_R0
 467:Src/stm32f7xx_hal_msp.c ****     PJ11     ------> LTDC_G4
 468:Src/stm32f7xx_hal_msp.c ****     PK0     ------> LTDC_G5
 469:Src/stm32f7xx_hal_msp.c ****     PI14     ------> LTDC_CLK
 470:Src/stm32f7xx_hal_msp.c ****     PJ8     ------> LTDC_G1
 471:Src/stm32f7xx_hal_msp.c ****     PJ10     ------> LTDC_G3
 472:Src/stm32f7xx_hal_msp.c ****     PJ7     ------> LTDC_G0
 473:Src/stm32f7xx_hal_msp.c ****     PJ9     ------> LTDC_G2
 474:Src/stm32f7xx_hal_msp.c ****     PJ6     ------> LTDC_R7
 475:Src/stm32f7xx_hal_msp.c ****     PJ4     ------> LTDC_R5
 476:Src/stm32f7xx_hal_msp.c ****     PJ5     ------> LTDC_R6
 477:Src/stm32f7xx_hal_msp.c ****     PJ3     ------> LTDC_R4
 478:Src/stm32f7xx_hal_msp.c ****     PJ2     ------> LTDC_R3
 479:Src/stm32f7xx_hal_msp.c ****     PJ0     ------> LTDC_R1
 480:Src/stm32f7xx_hal_msp.c ****     PJ1     ------> LTDC_R2 
 481:Src/stm32f7xx_hal_msp.c ****     */
 482:Src/stm32f7xx_hal_msp.c ****     GPIO_InitStruct.Pin = LCD_B0_Pin;
 483:Src/stm32f7xx_hal_msp.c ****     GPIO_InitStruct.Mode = GPIO_MODE_AF_PP;
 484:Src/stm32f7xx_hal_msp.c ****     GPIO_InitStruct.Pull = GPIO_NOPULL;
 485:Src/stm32f7xx_hal_msp.c ****     GPIO_InitStruct.Speed = GPIO_SPEED_FREQ_LOW;
 486:Src/stm32f7xx_hal_msp.c ****     GPIO_InitStruct.Alternate = GPIO_AF14_LTDC;
 487:Src/stm32f7xx_hal_msp.c ****     HAL_GPIO_Init(LCD_B0_GPIO_Port, &GPIO_InitStruct);
ARM GAS  C:\Users\Nina\AppData\Local\Temp\ccvtmqTe.s 			page 10


 488:Src/stm32f7xx_hal_msp.c **** 
 489:Src/stm32f7xx_hal_msp.c ****     GPIO_InitStruct.Pin = LCD_B1_Pin|LCD_B2_Pin|LCD_B3_Pin|LCD_G4_Pin 
 490:Src/stm32f7xx_hal_msp.c ****                           |LCD_G1_Pin|LCD_G3_Pin|LCD_G0_Pin|LCD_G2_Pin 
 491:Src/stm32f7xx_hal_msp.c ****                           |LCD_R7_Pin|LCD_R5_Pin|LCD_R6_Pin|LCD_R4_Pin 
 492:Src/stm32f7xx_hal_msp.c ****                           |LCD_R3_Pin|LCD_R1_Pin|LCD_R2_Pin;
 493:Src/stm32f7xx_hal_msp.c ****     GPIO_InitStruct.Mode = GPIO_MODE_AF_PP;
 494:Src/stm32f7xx_hal_msp.c ****     GPIO_InitStruct.Pull = GPIO_NOPULL;
 495:Src/stm32f7xx_hal_msp.c ****     GPIO_InitStruct.Speed = GPIO_SPEED_FREQ_LOW;
 496:Src/stm32f7xx_hal_msp.c ****     GPIO_InitStruct.Alternate = GPIO_AF14_LTDC;
 497:Src/stm32f7xx_hal_msp.c ****     HAL_GPIO_Init(GPIOJ, &GPIO_InitStruct);
 498:Src/stm32f7xx_hal_msp.c **** 
 499:Src/stm32f7xx_hal_msp.c ****     GPIO_InitStruct.Pin = LCD_DE_Pin|LCD_B7_Pin|LCD_B6_Pin|LCD_B5_Pin 
 500:Src/stm32f7xx_hal_msp.c ****                           |LCD_G6_Pin|LCD_G7_Pin|LCD_G5_Pin;
 501:Src/stm32f7xx_hal_msp.c ****     GPIO_InitStruct.Mode = GPIO_MODE_AF_PP;
 502:Src/stm32f7xx_hal_msp.c ****     GPIO_InitStruct.Pull = GPIO_NOPULL;
 503:Src/stm32f7xx_hal_msp.c ****     GPIO_InitStruct.Speed = GPIO_SPEED_FREQ_LOW;
 504:Src/stm32f7xx_hal_msp.c ****     GPIO_InitStruct.Alternate = GPIO_AF14_LTDC;
 505:Src/stm32f7xx_hal_msp.c ****     HAL_GPIO_Init(GPIOK, &GPIO_InitStruct);
 506:Src/stm32f7xx_hal_msp.c **** 
 507:Src/stm32f7xx_hal_msp.c ****     GPIO_InitStruct.Pin = LCD_B4_Pin;
 508:Src/stm32f7xx_hal_msp.c ****     GPIO_InitStruct.Mode = GPIO_MODE_AF_PP;
 509:Src/stm32f7xx_hal_msp.c ****     GPIO_InitStruct.Pull = GPIO_NOPULL;
 510:Src/stm32f7xx_hal_msp.c ****     GPIO_InitStruct.Speed = GPIO_SPEED_FREQ_LOW;
 511:Src/stm32f7xx_hal_msp.c ****     GPIO_InitStruct.Alternate = GPIO_AF9_LTDC;
 512:Src/stm32f7xx_hal_msp.c ****     HAL_GPIO_Init(LCD_B4_GPIO_Port, &GPIO_InitStruct);
 513:Src/stm32f7xx_hal_msp.c **** 
 514:Src/stm32f7xx_hal_msp.c ****     GPIO_InitStruct.Pin = LCD_HSYNC_Pin|LCD_VSYNC_Pin|LCD_R0_Pin|LCD_CLK_Pin;
 515:Src/stm32f7xx_hal_msp.c ****     GPIO_InitStruct.Mode = GPIO_MODE_AF_PP;
 516:Src/stm32f7xx_hal_msp.c ****     GPIO_InitStruct.Pull = GPIO_NOPULL;
 517:Src/stm32f7xx_hal_msp.c ****     GPIO_InitStruct.Speed = GPIO_SPEED_FREQ_LOW;
 518:Src/stm32f7xx_hal_msp.c ****     GPIO_InitStruct.Alternate = GPIO_AF14_LTDC;
 519:Src/stm32f7xx_hal_msp.c ****     HAL_GPIO_Init(GPIOI, &GPIO_InitStruct);
 520:Src/stm32f7xx_hal_msp.c **** 
 521:Src/stm32f7xx_hal_msp.c ****     /* LTDC interrupt Init */
 522:Src/stm32f7xx_hal_msp.c ****     HAL_NVIC_SetPriority(LTDC_IRQn, 5, 0);
 523:Src/stm32f7xx_hal_msp.c ****     HAL_NVIC_EnableIRQ(LTDC_IRQn);
 524:Src/stm32f7xx_hal_msp.c ****   /* USER CODE BEGIN LTDC_MspInit 1 */
 525:Src/stm32f7xx_hal_msp.c **** 
 526:Src/stm32f7xx_hal_msp.c ****   /* USER CODE END LTDC_MspInit 1 */
 527:Src/stm32f7xx_hal_msp.c ****   }
 528:Src/stm32f7xx_hal_msp.c **** 
 529:Src/stm32f7xx_hal_msp.c **** }
 530:Src/stm32f7xx_hal_msp.c **** 
 531:Src/stm32f7xx_hal_msp.c **** void HAL_LTDC_MspDeInit(LTDC_HandleTypeDef* hltdc)
 532:Src/stm32f7xx_hal_msp.c **** {
 533:Src/stm32f7xx_hal_msp.c **** 
 534:Src/stm32f7xx_hal_msp.c ****   if(hltdc->Instance==LTDC)
 535:Src/stm32f7xx_hal_msp.c ****   {
 536:Src/stm32f7xx_hal_msp.c ****   /* USER CODE BEGIN LTDC_MspDeInit 0 */
 537:Src/stm32f7xx_hal_msp.c **** 
 538:Src/stm32f7xx_hal_msp.c ****   /* USER CODE END LTDC_MspDeInit 0 */
 539:Src/stm32f7xx_hal_msp.c ****     /* Peripheral clock disable */
 540:Src/stm32f7xx_hal_msp.c ****     __HAL_RCC_LTDC_CLK_DISABLE();
 541:Src/stm32f7xx_hal_msp.c ****   
 542:Src/stm32f7xx_hal_msp.c ****     /**LTDC GPIO Configuration    
 543:Src/stm32f7xx_hal_msp.c ****     PE4     ------> LTDC_B0
 544:Src/stm32f7xx_hal_msp.c ****     PJ13     ------> LTDC_B1
ARM GAS  C:\Users\Nina\AppData\Local\Temp\ccvtmqTe.s 			page 11


 545:Src/stm32f7xx_hal_msp.c ****     PK7     ------> LTDC_DE
 546:Src/stm32f7xx_hal_msp.c ****     PK6     ------> LTDC_B7
 547:Src/stm32f7xx_hal_msp.c ****     PK5     ------> LTDC_B6
 548:Src/stm32f7xx_hal_msp.c ****     PG12     ------> LTDC_B4
 549:Src/stm32f7xx_hal_msp.c ****     PJ14     ------> LTDC_B2
 550:Src/stm32f7xx_hal_msp.c ****     PI10     ------> LTDC_HSYNC
 551:Src/stm32f7xx_hal_msp.c ****     PK4     ------> LTDC_B5
 552:Src/stm32f7xx_hal_msp.c ****     PJ15     ------> LTDC_B3
 553:Src/stm32f7xx_hal_msp.c ****     PI9     ------> LTDC_VSYNC
 554:Src/stm32f7xx_hal_msp.c ****     PK1     ------> LTDC_G6
 555:Src/stm32f7xx_hal_msp.c ****     PK2     ------> LTDC_G7
 556:Src/stm32f7xx_hal_msp.c ****     PI15     ------> LTDC_R0
 557:Src/stm32f7xx_hal_msp.c ****     PJ11     ------> LTDC_G4
 558:Src/stm32f7xx_hal_msp.c ****     PK0     ------> LTDC_G5
 559:Src/stm32f7xx_hal_msp.c ****     PI14     ------> LTDC_CLK
 560:Src/stm32f7xx_hal_msp.c ****     PJ8     ------> LTDC_G1
 561:Src/stm32f7xx_hal_msp.c ****     PJ10     ------> LTDC_G3
 562:Src/stm32f7xx_hal_msp.c ****     PJ7     ------> LTDC_G0
 563:Src/stm32f7xx_hal_msp.c ****     PJ9     ------> LTDC_G2
 564:Src/stm32f7xx_hal_msp.c ****     PJ6     ------> LTDC_R7
 565:Src/stm32f7xx_hal_msp.c ****     PJ4     ------> LTDC_R5
 566:Src/stm32f7xx_hal_msp.c ****     PJ5     ------> LTDC_R6
 567:Src/stm32f7xx_hal_msp.c ****     PJ3     ------> LTDC_R4
 568:Src/stm32f7xx_hal_msp.c ****     PJ2     ------> LTDC_R3
 569:Src/stm32f7xx_hal_msp.c ****     PJ0     ------> LTDC_R1
 570:Src/stm32f7xx_hal_msp.c ****     PJ1     ------> LTDC_R2 
 571:Src/stm32f7xx_hal_msp.c ****     */
 572:Src/stm32f7xx_hal_msp.c ****     HAL_GPIO_DeInit(LCD_B0_GPIO_Port, LCD_B0_Pin);
 573:Src/stm32f7xx_hal_msp.c **** 
 574:Src/stm32f7xx_hal_msp.c ****     HAL_GPIO_DeInit(GPIOJ, LCD_B1_Pin|LCD_B2_Pin|LCD_B3_Pin|LCD_G4_Pin 
 575:Src/stm32f7xx_hal_msp.c ****                           |LCD_G1_Pin|LCD_G3_Pin|LCD_G0_Pin|LCD_G2_Pin 
 576:Src/stm32f7xx_hal_msp.c ****                           |LCD_R7_Pin|LCD_R5_Pin|LCD_R6_Pin|LCD_R4_Pin 
 577:Src/stm32f7xx_hal_msp.c ****                           |LCD_R3_Pin|LCD_R1_Pin|LCD_R2_Pin);
 578:Src/stm32f7xx_hal_msp.c **** 
 579:Src/stm32f7xx_hal_msp.c ****     HAL_GPIO_DeInit(GPIOK, LCD_DE_Pin|LCD_B7_Pin|LCD_B6_Pin|LCD_B5_Pin 
 580:Src/stm32f7xx_hal_msp.c ****                           |LCD_G6_Pin|LCD_G7_Pin|LCD_G5_Pin);
 581:Src/stm32f7xx_hal_msp.c **** 
 582:Src/stm32f7xx_hal_msp.c ****     HAL_GPIO_DeInit(LCD_B4_GPIO_Port, LCD_B4_Pin);
 583:Src/stm32f7xx_hal_msp.c **** 
 584:Src/stm32f7xx_hal_msp.c ****     HAL_GPIO_DeInit(GPIOI, LCD_HSYNC_Pin|LCD_VSYNC_Pin|LCD_R0_Pin|LCD_CLK_Pin);
 585:Src/stm32f7xx_hal_msp.c **** 
 586:Src/stm32f7xx_hal_msp.c ****     /* LTDC interrupt DeInit */
 587:Src/stm32f7xx_hal_msp.c ****     HAL_NVIC_DisableIRQ(LTDC_IRQn);
 588:Src/stm32f7xx_hal_msp.c ****   /* USER CODE BEGIN LTDC_MspDeInit 1 */
 589:Src/stm32f7xx_hal_msp.c **** 
 590:Src/stm32f7xx_hal_msp.c ****   /* USER CODE END LTDC_MspDeInit 1 */
 591:Src/stm32f7xx_hal_msp.c ****   }
 592:Src/stm32f7xx_hal_msp.c **** 
 593:Src/stm32f7xx_hal_msp.c **** }
 594:Src/stm32f7xx_hal_msp.c **** 
 595:Src/stm32f7xx_hal_msp.c **** void HAL_QSPI_MspInit(QSPI_HandleTypeDef* hqspi)
 596:Src/stm32f7xx_hal_msp.c **** {
 597:Src/stm32f7xx_hal_msp.c **** 
 598:Src/stm32f7xx_hal_msp.c ****   GPIO_InitTypeDef GPIO_InitStruct;
 599:Src/stm32f7xx_hal_msp.c ****   if(hqspi->Instance==QUADSPI)
 600:Src/stm32f7xx_hal_msp.c ****   {
 601:Src/stm32f7xx_hal_msp.c ****   /* USER CODE BEGIN QUADSPI_MspInit 0 */
ARM GAS  C:\Users\Nina\AppData\Local\Temp\ccvtmqTe.s 			page 12


 602:Src/stm32f7xx_hal_msp.c **** 
 603:Src/stm32f7xx_hal_msp.c ****   /* USER CODE END QUADSPI_MspInit 0 */
 604:Src/stm32f7xx_hal_msp.c ****     /* Peripheral clock enable */
 605:Src/stm32f7xx_hal_msp.c ****     __HAL_RCC_QSPI_CLK_ENABLE();
 606:Src/stm32f7xx_hal_msp.c ****   
 607:Src/stm32f7xx_hal_msp.c ****     /**QUADSPI GPIO Configuration    
 608:Src/stm32f7xx_hal_msp.c ****     PE2     ------> QUADSPI_BK1_IO2
 609:Src/stm32f7xx_hal_msp.c ****     PB6     ------> QUADSPI_BK1_NCS
 610:Src/stm32f7xx_hal_msp.c ****     PB2     ------> QUADSPI_CLK
 611:Src/stm32f7xx_hal_msp.c ****     PD12     ------> QUADSPI_BK1_IO1
 612:Src/stm32f7xx_hal_msp.c ****     PD13     ------> QUADSPI_BK1_IO3
 613:Src/stm32f7xx_hal_msp.c ****     PD11     ------> QUADSPI_BK1_IO0 
 614:Src/stm32f7xx_hal_msp.c ****     */
 615:Src/stm32f7xx_hal_msp.c ****     GPIO_InitStruct.Pin = QSPI_D2_Pin;
 616:Src/stm32f7xx_hal_msp.c ****     GPIO_InitStruct.Mode = GPIO_MODE_AF_PP;
 617:Src/stm32f7xx_hal_msp.c ****     GPIO_InitStruct.Pull = GPIO_NOPULL;
 618:Src/stm32f7xx_hal_msp.c ****     GPIO_InitStruct.Speed = GPIO_SPEED_FREQ_VERY_HIGH;
 619:Src/stm32f7xx_hal_msp.c ****     GPIO_InitStruct.Alternate = GPIO_AF9_QUADSPI;
 620:Src/stm32f7xx_hal_msp.c ****     HAL_GPIO_Init(QSPI_D2_GPIO_Port, &GPIO_InitStruct);
 621:Src/stm32f7xx_hal_msp.c **** 
 622:Src/stm32f7xx_hal_msp.c ****     GPIO_InitStruct.Pin = QSPI_NCS_Pin;
 623:Src/stm32f7xx_hal_msp.c ****     GPIO_InitStruct.Mode = GPIO_MODE_AF_PP;
 624:Src/stm32f7xx_hal_msp.c ****     GPIO_InitStruct.Pull = GPIO_NOPULL;
 625:Src/stm32f7xx_hal_msp.c ****     GPIO_InitStruct.Speed = GPIO_SPEED_FREQ_VERY_HIGH;
 626:Src/stm32f7xx_hal_msp.c ****     GPIO_InitStruct.Alternate = GPIO_AF10_QUADSPI;
 627:Src/stm32f7xx_hal_msp.c ****     HAL_GPIO_Init(QSPI_NCS_GPIO_Port, &GPIO_InitStruct);
 628:Src/stm32f7xx_hal_msp.c **** 
 629:Src/stm32f7xx_hal_msp.c ****     GPIO_InitStruct.Pin = GPIO_PIN_2;
 630:Src/stm32f7xx_hal_msp.c ****     GPIO_InitStruct.Mode = GPIO_MODE_AF_PP;
 631:Src/stm32f7xx_hal_msp.c ****     GPIO_InitStruct.Pull = GPIO_NOPULL;
 632:Src/stm32f7xx_hal_msp.c ****     GPIO_InitStruct.Speed = GPIO_SPEED_FREQ_VERY_HIGH;
 633:Src/stm32f7xx_hal_msp.c ****     GPIO_InitStruct.Alternate = GPIO_AF9_QUADSPI;
 634:Src/stm32f7xx_hal_msp.c ****     HAL_GPIO_Init(GPIOB, &GPIO_InitStruct);
 635:Src/stm32f7xx_hal_msp.c **** 
 636:Src/stm32f7xx_hal_msp.c ****     GPIO_InitStruct.Pin = QSPI_D1_Pin|QSPI_D3_Pin|QSPI_D0_Pin;
 637:Src/stm32f7xx_hal_msp.c ****     GPIO_InitStruct.Mode = GPIO_MODE_AF_PP;
 638:Src/stm32f7xx_hal_msp.c ****     GPIO_InitStruct.Pull = GPIO_NOPULL;
 639:Src/stm32f7xx_hal_msp.c ****     GPIO_InitStruct.Speed = GPIO_SPEED_FREQ_VERY_HIGH;
 640:Src/stm32f7xx_hal_msp.c ****     GPIO_InitStruct.Alternate = GPIO_AF9_QUADSPI;
 641:Src/stm32f7xx_hal_msp.c ****     HAL_GPIO_Init(GPIOD, &GPIO_InitStruct);
 642:Src/stm32f7xx_hal_msp.c **** 
 643:Src/stm32f7xx_hal_msp.c ****   /* USER CODE BEGIN QUADSPI_MspInit 1 */
 644:Src/stm32f7xx_hal_msp.c **** 
 645:Src/stm32f7xx_hal_msp.c ****   /* USER CODE END QUADSPI_MspInit 1 */
 646:Src/stm32f7xx_hal_msp.c ****   }
 647:Src/stm32f7xx_hal_msp.c **** 
 648:Src/stm32f7xx_hal_msp.c **** }
 649:Src/stm32f7xx_hal_msp.c **** 
 650:Src/stm32f7xx_hal_msp.c **** void HAL_QSPI_MspDeInit(QSPI_HandleTypeDef* hqspi)
 651:Src/stm32f7xx_hal_msp.c **** {
 652:Src/stm32f7xx_hal_msp.c **** 
 653:Src/stm32f7xx_hal_msp.c ****   if(hqspi->Instance==QUADSPI)
 654:Src/stm32f7xx_hal_msp.c ****   {
 655:Src/stm32f7xx_hal_msp.c ****   /* USER CODE BEGIN QUADSPI_MspDeInit 0 */
 656:Src/stm32f7xx_hal_msp.c **** 
 657:Src/stm32f7xx_hal_msp.c ****   /* USER CODE END QUADSPI_MspDeInit 0 */
 658:Src/stm32f7xx_hal_msp.c ****     /* Peripheral clock disable */
ARM GAS  C:\Users\Nina\AppData\Local\Temp\ccvtmqTe.s 			page 13


 659:Src/stm32f7xx_hal_msp.c ****     __HAL_RCC_QSPI_CLK_DISABLE();
 660:Src/stm32f7xx_hal_msp.c ****   
 661:Src/stm32f7xx_hal_msp.c ****     /**QUADSPI GPIO Configuration    
 662:Src/stm32f7xx_hal_msp.c ****     PE2     ------> QUADSPI_BK1_IO2
 663:Src/stm32f7xx_hal_msp.c ****     PB6     ------> QUADSPI_BK1_NCS
 664:Src/stm32f7xx_hal_msp.c ****     PB2     ------> QUADSPI_CLK
 665:Src/stm32f7xx_hal_msp.c ****     PD12     ------> QUADSPI_BK1_IO1
 666:Src/stm32f7xx_hal_msp.c ****     PD13     ------> QUADSPI_BK1_IO3
 667:Src/stm32f7xx_hal_msp.c ****     PD11     ------> QUADSPI_BK1_IO0 
 668:Src/stm32f7xx_hal_msp.c ****     */
 669:Src/stm32f7xx_hal_msp.c ****     HAL_GPIO_DeInit(QSPI_D2_GPIO_Port, QSPI_D2_Pin);
 670:Src/stm32f7xx_hal_msp.c **** 
 671:Src/stm32f7xx_hal_msp.c ****     HAL_GPIO_DeInit(GPIOB, QSPI_NCS_Pin|GPIO_PIN_2);
 672:Src/stm32f7xx_hal_msp.c **** 
 673:Src/stm32f7xx_hal_msp.c ****     HAL_GPIO_DeInit(GPIOD, QSPI_D1_Pin|QSPI_D3_Pin|QSPI_D0_Pin);
 674:Src/stm32f7xx_hal_msp.c **** 
 675:Src/stm32f7xx_hal_msp.c ****   /* USER CODE BEGIN QUADSPI_MspDeInit 1 */
 676:Src/stm32f7xx_hal_msp.c **** 
 677:Src/stm32f7xx_hal_msp.c ****   /* USER CODE END QUADSPI_MspDeInit 1 */
 678:Src/stm32f7xx_hal_msp.c ****   }
 679:Src/stm32f7xx_hal_msp.c **** 
 680:Src/stm32f7xx_hal_msp.c **** }
 681:Src/stm32f7xx_hal_msp.c **** 
 682:Src/stm32f7xx_hal_msp.c **** void HAL_RTC_MspInit(RTC_HandleTypeDef* hrtc)
 683:Src/stm32f7xx_hal_msp.c **** {
 684:Src/stm32f7xx_hal_msp.c **** 
 685:Src/stm32f7xx_hal_msp.c ****   if(hrtc->Instance==RTC)
 686:Src/stm32f7xx_hal_msp.c ****   {
 687:Src/stm32f7xx_hal_msp.c ****   /* USER CODE BEGIN RTC_MspInit 0 */
 688:Src/stm32f7xx_hal_msp.c **** 
 689:Src/stm32f7xx_hal_msp.c ****   /* USER CODE END RTC_MspInit 0 */
 690:Src/stm32f7xx_hal_msp.c ****     /* Peripheral clock enable */
 691:Src/stm32f7xx_hal_msp.c ****     __HAL_RCC_RTC_ENABLE();
 692:Src/stm32f7xx_hal_msp.c ****   /* USER CODE BEGIN RTC_MspInit 1 */
 693:Src/stm32f7xx_hal_msp.c **** 
 694:Src/stm32f7xx_hal_msp.c ****   /* USER CODE END RTC_MspInit 1 */
 695:Src/stm32f7xx_hal_msp.c ****   }
 696:Src/stm32f7xx_hal_msp.c **** 
 697:Src/stm32f7xx_hal_msp.c **** }
 698:Src/stm32f7xx_hal_msp.c **** 
 699:Src/stm32f7xx_hal_msp.c **** void HAL_RTC_MspDeInit(RTC_HandleTypeDef* hrtc)
 700:Src/stm32f7xx_hal_msp.c **** {
 701:Src/stm32f7xx_hal_msp.c **** 
 702:Src/stm32f7xx_hal_msp.c ****   if(hrtc->Instance==RTC)
 703:Src/stm32f7xx_hal_msp.c ****   {
 704:Src/stm32f7xx_hal_msp.c ****   /* USER CODE BEGIN RTC_MspDeInit 0 */
 705:Src/stm32f7xx_hal_msp.c **** 
 706:Src/stm32f7xx_hal_msp.c ****   /* USER CODE END RTC_MspDeInit 0 */
 707:Src/stm32f7xx_hal_msp.c ****     /* Peripheral clock disable */
 708:Src/stm32f7xx_hal_msp.c ****     __HAL_RCC_RTC_DISABLE();
 709:Src/stm32f7xx_hal_msp.c ****   /* USER CODE BEGIN RTC_MspDeInit 1 */
 710:Src/stm32f7xx_hal_msp.c **** 
 711:Src/stm32f7xx_hal_msp.c ****   /* USER CODE END RTC_MspDeInit 1 */
 712:Src/stm32f7xx_hal_msp.c ****   }
 713:Src/stm32f7xx_hal_msp.c **** 
 714:Src/stm32f7xx_hal_msp.c **** }
 715:Src/stm32f7xx_hal_msp.c **** 
ARM GAS  C:\Users\Nina\AppData\Local\Temp\ccvtmqTe.s 			page 14


 716:Src/stm32f7xx_hal_msp.c **** void HAL_SD_MspInit(SD_HandleTypeDef* hsd)
 717:Src/stm32f7xx_hal_msp.c **** {
 718:Src/stm32f7xx_hal_msp.c **** 
 719:Src/stm32f7xx_hal_msp.c ****   GPIO_InitTypeDef GPIO_InitStruct;
 720:Src/stm32f7xx_hal_msp.c ****   if(hsd->Instance==SDMMC1)
 721:Src/stm32f7xx_hal_msp.c ****   {
 722:Src/stm32f7xx_hal_msp.c ****   /* USER CODE BEGIN SDMMC1_MspInit 0 */
 723:Src/stm32f7xx_hal_msp.c **** 
 724:Src/stm32f7xx_hal_msp.c ****   /* USER CODE END SDMMC1_MspInit 0 */
 725:Src/stm32f7xx_hal_msp.c ****     /* Peripheral clock enable */
 726:Src/stm32f7xx_hal_msp.c ****     __HAL_RCC_SDMMC1_CLK_ENABLE();
 727:Src/stm32f7xx_hal_msp.c ****   
 728:Src/stm32f7xx_hal_msp.c ****     /**SDMMC1 GPIO Configuration    
 729:Src/stm32f7xx_hal_msp.c ****     PC12     ------> SDMMC1_CK
 730:Src/stm32f7xx_hal_msp.c ****     PC11     ------> SDMMC1_D3
 731:Src/stm32f7xx_hal_msp.c ****     PC10     ------> SDMMC1_D2
 732:Src/stm32f7xx_hal_msp.c ****     PD2     ------> SDMMC1_CMD
 733:Src/stm32f7xx_hal_msp.c ****     PC9     ------> SDMMC1_D1
 734:Src/stm32f7xx_hal_msp.c ****     PC8     ------> SDMMC1_D0 
 735:Src/stm32f7xx_hal_msp.c ****     */
 736:Src/stm32f7xx_hal_msp.c ****     GPIO_InitStruct.Pin = SDMMC_CK_Pin|SDMMC_D3_Pin|SDMMC_D2_Pin|GPIO_PIN_9 
 737:Src/stm32f7xx_hal_msp.c ****                           |GPIO_PIN_8;
 738:Src/stm32f7xx_hal_msp.c ****     GPIO_InitStruct.Mode = GPIO_MODE_AF_PP;
 739:Src/stm32f7xx_hal_msp.c ****     GPIO_InitStruct.Pull = GPIO_NOPULL;
 740:Src/stm32f7xx_hal_msp.c ****     GPIO_InitStruct.Speed = GPIO_SPEED_FREQ_VERY_HIGH;
 741:Src/stm32f7xx_hal_msp.c ****     GPIO_InitStruct.Alternate = GPIO_AF12_SDMMC1;
 742:Src/stm32f7xx_hal_msp.c ****     HAL_GPIO_Init(GPIOC, &GPIO_InitStruct);
 743:Src/stm32f7xx_hal_msp.c **** 
 744:Src/stm32f7xx_hal_msp.c ****     GPIO_InitStruct.Pin = SDMMC_CMD_Pin;
 745:Src/stm32f7xx_hal_msp.c ****     GPIO_InitStruct.Mode = GPIO_MODE_AF_PP;
 746:Src/stm32f7xx_hal_msp.c ****     GPIO_InitStruct.Pull = GPIO_NOPULL;
 747:Src/stm32f7xx_hal_msp.c ****     GPIO_InitStruct.Speed = GPIO_SPEED_FREQ_VERY_HIGH;
 748:Src/stm32f7xx_hal_msp.c ****     GPIO_InitStruct.Alternate = GPIO_AF12_SDMMC1;
 749:Src/stm32f7xx_hal_msp.c ****     HAL_GPIO_Init(SDMMC_CMD_GPIO_Port, &GPIO_InitStruct);
 750:Src/stm32f7xx_hal_msp.c **** 
 751:Src/stm32f7xx_hal_msp.c ****   /* USER CODE BEGIN SDMMC1_MspInit 1 */
 752:Src/stm32f7xx_hal_msp.c **** 
 753:Src/stm32f7xx_hal_msp.c ****   /* USER CODE END SDMMC1_MspInit 1 */
 754:Src/stm32f7xx_hal_msp.c ****   }
 755:Src/stm32f7xx_hal_msp.c **** 
 756:Src/stm32f7xx_hal_msp.c **** }
 757:Src/stm32f7xx_hal_msp.c **** 
 758:Src/stm32f7xx_hal_msp.c **** void HAL_SD_MspDeInit(SD_HandleTypeDef* hsd)
 759:Src/stm32f7xx_hal_msp.c **** {
 760:Src/stm32f7xx_hal_msp.c **** 
 761:Src/stm32f7xx_hal_msp.c ****   if(hsd->Instance==SDMMC1)
 762:Src/stm32f7xx_hal_msp.c ****   {
 763:Src/stm32f7xx_hal_msp.c ****   /* USER CODE BEGIN SDMMC1_MspDeInit 0 */
 764:Src/stm32f7xx_hal_msp.c **** 
 765:Src/stm32f7xx_hal_msp.c ****   /* USER CODE END SDMMC1_MspDeInit 0 */
 766:Src/stm32f7xx_hal_msp.c ****     /* Peripheral clock disable */
 767:Src/stm32f7xx_hal_msp.c ****     __HAL_RCC_SDMMC1_CLK_DISABLE();
 768:Src/stm32f7xx_hal_msp.c ****   
 769:Src/stm32f7xx_hal_msp.c ****     /**SDMMC1 GPIO Configuration    
 770:Src/stm32f7xx_hal_msp.c ****     PC12     ------> SDMMC1_CK
 771:Src/stm32f7xx_hal_msp.c ****     PC11     ------> SDMMC1_D3
 772:Src/stm32f7xx_hal_msp.c ****     PC10     ------> SDMMC1_D2
ARM GAS  C:\Users\Nina\AppData\Local\Temp\ccvtmqTe.s 			page 15


 773:Src/stm32f7xx_hal_msp.c ****     PD2     ------> SDMMC1_CMD
 774:Src/stm32f7xx_hal_msp.c ****     PC9     ------> SDMMC1_D1
 775:Src/stm32f7xx_hal_msp.c ****     PC8     ------> SDMMC1_D0 
 776:Src/stm32f7xx_hal_msp.c ****     */
 777:Src/stm32f7xx_hal_msp.c ****     HAL_GPIO_DeInit(GPIOC, SDMMC_CK_Pin|SDMMC_D3_Pin|SDMMC_D2_Pin|GPIO_PIN_9 
 778:Src/stm32f7xx_hal_msp.c ****                           |GPIO_PIN_8);
 779:Src/stm32f7xx_hal_msp.c **** 
 780:Src/stm32f7xx_hal_msp.c ****     HAL_GPIO_DeInit(SDMMC_CMD_GPIO_Port, SDMMC_CMD_Pin);
 781:Src/stm32f7xx_hal_msp.c **** 
 782:Src/stm32f7xx_hal_msp.c ****   /* USER CODE BEGIN SDMMC1_MspDeInit 1 */
 783:Src/stm32f7xx_hal_msp.c **** 
 784:Src/stm32f7xx_hal_msp.c ****   /* USER CODE END SDMMC1_MspDeInit 1 */
 785:Src/stm32f7xx_hal_msp.c ****   }
 786:Src/stm32f7xx_hal_msp.c **** 
 787:Src/stm32f7xx_hal_msp.c **** }
 788:Src/stm32f7xx_hal_msp.c **** 
 789:Src/stm32f7xx_hal_msp.c **** void HAL_SPDIFRX_MspInit(SPDIFRX_HandleTypeDef* hspdifrx)
 790:Src/stm32f7xx_hal_msp.c **** {
 791:Src/stm32f7xx_hal_msp.c **** 
 792:Src/stm32f7xx_hal_msp.c ****   GPIO_InitTypeDef GPIO_InitStruct;
 793:Src/stm32f7xx_hal_msp.c ****   if(hspdifrx->Instance==SPDIFRX)
 794:Src/stm32f7xx_hal_msp.c ****   {
 795:Src/stm32f7xx_hal_msp.c ****   /* USER CODE BEGIN SPDIFRX_MspInit 0 */
 796:Src/stm32f7xx_hal_msp.c **** 
 797:Src/stm32f7xx_hal_msp.c ****   /* USER CODE END SPDIFRX_MspInit 0 */
 798:Src/stm32f7xx_hal_msp.c ****     /* Peripheral clock enable */
 799:Src/stm32f7xx_hal_msp.c ****     __HAL_RCC_SPDIFRX_CLK_ENABLE();
 800:Src/stm32f7xx_hal_msp.c ****   
 801:Src/stm32f7xx_hal_msp.c ****     /**SPDIFRX GPIO Configuration    
 802:Src/stm32f7xx_hal_msp.c ****     PD7     ------> SPDIFRX_IN0 
 803:Src/stm32f7xx_hal_msp.c ****     */
 804:Src/stm32f7xx_hal_msp.c ****     GPIO_InitStruct.Pin = SPDIF_RX0_Pin;
 805:Src/stm32f7xx_hal_msp.c ****     GPIO_InitStruct.Mode = GPIO_MODE_AF_PP;
 806:Src/stm32f7xx_hal_msp.c ****     GPIO_InitStruct.Pull = GPIO_NOPULL;
 807:Src/stm32f7xx_hal_msp.c ****     GPIO_InitStruct.Speed = GPIO_SPEED_FREQ_LOW;
 808:Src/stm32f7xx_hal_msp.c ****     GPIO_InitStruct.Alternate = GPIO_AF8_SPDIFRX;
 809:Src/stm32f7xx_hal_msp.c ****     HAL_GPIO_Init(SPDIF_RX0_GPIO_Port, &GPIO_InitStruct);
 810:Src/stm32f7xx_hal_msp.c **** 
 811:Src/stm32f7xx_hal_msp.c ****   /* USER CODE BEGIN SPDIFRX_MspInit 1 */
 812:Src/stm32f7xx_hal_msp.c **** 
 813:Src/stm32f7xx_hal_msp.c ****   /* USER CODE END SPDIFRX_MspInit 1 */
 814:Src/stm32f7xx_hal_msp.c ****   }
 815:Src/stm32f7xx_hal_msp.c **** 
 816:Src/stm32f7xx_hal_msp.c **** }
 817:Src/stm32f7xx_hal_msp.c **** 
 818:Src/stm32f7xx_hal_msp.c **** void HAL_SPDIFRX_MspDeInit(SPDIFRX_HandleTypeDef* hspdifrx)
 819:Src/stm32f7xx_hal_msp.c **** {
 820:Src/stm32f7xx_hal_msp.c **** 
 821:Src/stm32f7xx_hal_msp.c ****   if(hspdifrx->Instance==SPDIFRX)
 822:Src/stm32f7xx_hal_msp.c ****   {
 823:Src/stm32f7xx_hal_msp.c ****   /* USER CODE BEGIN SPDIFRX_MspDeInit 0 */
 824:Src/stm32f7xx_hal_msp.c **** 
 825:Src/stm32f7xx_hal_msp.c ****   /* USER CODE END SPDIFRX_MspDeInit 0 */
 826:Src/stm32f7xx_hal_msp.c ****     /* Peripheral clock disable */
 827:Src/stm32f7xx_hal_msp.c ****     __HAL_RCC_SPDIFRX_CLK_DISABLE();
 828:Src/stm32f7xx_hal_msp.c ****   
 829:Src/stm32f7xx_hal_msp.c ****     /**SPDIFRX GPIO Configuration    
ARM GAS  C:\Users\Nina\AppData\Local\Temp\ccvtmqTe.s 			page 16


 830:Src/stm32f7xx_hal_msp.c ****     PD7     ------> SPDIFRX_IN0 
 831:Src/stm32f7xx_hal_msp.c ****     */
 832:Src/stm32f7xx_hal_msp.c ****     HAL_GPIO_DeInit(SPDIF_RX0_GPIO_Port, SPDIF_RX0_Pin);
 833:Src/stm32f7xx_hal_msp.c **** 
 834:Src/stm32f7xx_hal_msp.c ****   /* USER CODE BEGIN SPDIFRX_MspDeInit 1 */
 835:Src/stm32f7xx_hal_msp.c **** 
 836:Src/stm32f7xx_hal_msp.c ****   /* USER CODE END SPDIFRX_MspDeInit 1 */
 837:Src/stm32f7xx_hal_msp.c ****   }
 838:Src/stm32f7xx_hal_msp.c **** 
 839:Src/stm32f7xx_hal_msp.c **** }
 840:Src/stm32f7xx_hal_msp.c **** 
 841:Src/stm32f7xx_hal_msp.c **** void HAL_SPI_MspInit(SPI_HandleTypeDef* hspi)
 842:Src/stm32f7xx_hal_msp.c **** {
 843:Src/stm32f7xx_hal_msp.c **** 
 844:Src/stm32f7xx_hal_msp.c ****   GPIO_InitTypeDef GPIO_InitStruct;
 845:Src/stm32f7xx_hal_msp.c ****   if(hspi->Instance==SPI2)
 846:Src/stm32f7xx_hal_msp.c ****   {
 847:Src/stm32f7xx_hal_msp.c ****   /* USER CODE BEGIN SPI2_MspInit 0 */
 848:Src/stm32f7xx_hal_msp.c **** 
 849:Src/stm32f7xx_hal_msp.c ****   /* USER CODE END SPI2_MspInit 0 */
 850:Src/stm32f7xx_hal_msp.c ****     /* Peripheral clock enable */
 851:Src/stm32f7xx_hal_msp.c ****     __HAL_RCC_SPI2_CLK_ENABLE();
 852:Src/stm32f7xx_hal_msp.c ****   
 853:Src/stm32f7xx_hal_msp.c ****     /**SPI2 GPIO Configuration    
 854:Src/stm32f7xx_hal_msp.c ****     PI1     ------> SPI2_SCK
 855:Src/stm32f7xx_hal_msp.c ****     PB14     ------> SPI2_MISO
 856:Src/stm32f7xx_hal_msp.c ****     PB15     ------> SPI2_MOSI 
 857:Src/stm32f7xx_hal_msp.c ****     */
 858:Src/stm32f7xx_hal_msp.c ****     GPIO_InitStruct.Pin = ARDUINO_SCK_D13_Pin;
 859:Src/stm32f7xx_hal_msp.c ****     GPIO_InitStruct.Mode = GPIO_MODE_AF_PP;
 860:Src/stm32f7xx_hal_msp.c ****     GPIO_InitStruct.Pull = GPIO_NOPULL;
 861:Src/stm32f7xx_hal_msp.c ****     GPIO_InitStruct.Speed = GPIO_SPEED_FREQ_LOW;
 862:Src/stm32f7xx_hal_msp.c ****     GPIO_InitStruct.Alternate = GPIO_AF5_SPI2;
 863:Src/stm32f7xx_hal_msp.c ****     HAL_GPIO_Init(ARDUINO_SCK_D13_GPIO_Port, &GPIO_InitStruct);
 864:Src/stm32f7xx_hal_msp.c **** 
 865:Src/stm32f7xx_hal_msp.c ****     GPIO_InitStruct.Pin = ARDUINO_MISO_D12_Pin|ARDUINO_MOSI_PWM_D11_Pin;
 866:Src/stm32f7xx_hal_msp.c ****     GPIO_InitStruct.Mode = GPIO_MODE_AF_PP;
 867:Src/stm32f7xx_hal_msp.c ****     GPIO_InitStruct.Pull = GPIO_NOPULL;
 868:Src/stm32f7xx_hal_msp.c ****     GPIO_InitStruct.Speed = GPIO_SPEED_FREQ_LOW;
 869:Src/stm32f7xx_hal_msp.c ****     GPIO_InitStruct.Alternate = GPIO_AF5_SPI2;
 870:Src/stm32f7xx_hal_msp.c ****     HAL_GPIO_Init(GPIOB, &GPIO_InitStruct);
 871:Src/stm32f7xx_hal_msp.c **** 
 872:Src/stm32f7xx_hal_msp.c ****   /* USER CODE BEGIN SPI2_MspInit 1 */
 873:Src/stm32f7xx_hal_msp.c **** 
 874:Src/stm32f7xx_hal_msp.c ****   /* USER CODE END SPI2_MspInit 1 */
 875:Src/stm32f7xx_hal_msp.c ****   }
 876:Src/stm32f7xx_hal_msp.c **** 
 877:Src/stm32f7xx_hal_msp.c **** }
 878:Src/stm32f7xx_hal_msp.c **** 
 879:Src/stm32f7xx_hal_msp.c **** void HAL_SPI_MspDeInit(SPI_HandleTypeDef* hspi)
 880:Src/stm32f7xx_hal_msp.c **** {
 881:Src/stm32f7xx_hal_msp.c **** 
 882:Src/stm32f7xx_hal_msp.c ****   if(hspi->Instance==SPI2)
 883:Src/stm32f7xx_hal_msp.c ****   {
 884:Src/stm32f7xx_hal_msp.c ****   /* USER CODE BEGIN SPI2_MspDeInit 0 */
 885:Src/stm32f7xx_hal_msp.c **** 
 886:Src/stm32f7xx_hal_msp.c ****   /* USER CODE END SPI2_MspDeInit 0 */
ARM GAS  C:\Users\Nina\AppData\Local\Temp\ccvtmqTe.s 			page 17


 887:Src/stm32f7xx_hal_msp.c ****     /* Peripheral clock disable */
 888:Src/stm32f7xx_hal_msp.c ****     __HAL_RCC_SPI2_CLK_DISABLE();
 889:Src/stm32f7xx_hal_msp.c ****   
 890:Src/stm32f7xx_hal_msp.c ****     /**SPI2 GPIO Configuration    
 891:Src/stm32f7xx_hal_msp.c ****     PI1     ------> SPI2_SCK
 892:Src/stm32f7xx_hal_msp.c ****     PB14     ------> SPI2_MISO
 893:Src/stm32f7xx_hal_msp.c ****     PB15     ------> SPI2_MOSI 
 894:Src/stm32f7xx_hal_msp.c ****     */
 895:Src/stm32f7xx_hal_msp.c ****     HAL_GPIO_DeInit(ARDUINO_SCK_D13_GPIO_Port, ARDUINO_SCK_D13_Pin);
 896:Src/stm32f7xx_hal_msp.c **** 
 897:Src/stm32f7xx_hal_msp.c ****     HAL_GPIO_DeInit(GPIOB, ARDUINO_MISO_D12_Pin|ARDUINO_MOSI_PWM_D11_Pin);
 898:Src/stm32f7xx_hal_msp.c **** 
 899:Src/stm32f7xx_hal_msp.c ****   /* USER CODE BEGIN SPI2_MspDeInit 1 */
 900:Src/stm32f7xx_hal_msp.c **** 
 901:Src/stm32f7xx_hal_msp.c ****   /* USER CODE END SPI2_MspDeInit 1 */
 902:Src/stm32f7xx_hal_msp.c ****   }
 903:Src/stm32f7xx_hal_msp.c **** 
 904:Src/stm32f7xx_hal_msp.c **** }
 905:Src/stm32f7xx_hal_msp.c **** 
 906:Src/stm32f7xx_hal_msp.c **** void HAL_TIM_Base_MspInit(TIM_HandleTypeDef* htim_base)
 907:Src/stm32f7xx_hal_msp.c **** {
 908:Src/stm32f7xx_hal_msp.c **** 
 909:Src/stm32f7xx_hal_msp.c ****   if(htim_base->Instance==TIM1)
 910:Src/stm32f7xx_hal_msp.c ****   {
 911:Src/stm32f7xx_hal_msp.c ****   /* USER CODE BEGIN TIM1_MspInit 0 */
 912:Src/stm32f7xx_hal_msp.c **** 
 913:Src/stm32f7xx_hal_msp.c ****   /* USER CODE END TIM1_MspInit 0 */
 914:Src/stm32f7xx_hal_msp.c ****     /* Peripheral clock enable */
 915:Src/stm32f7xx_hal_msp.c ****     __HAL_RCC_TIM1_CLK_ENABLE();
 916:Src/stm32f7xx_hal_msp.c ****   /* USER CODE BEGIN TIM1_MspInit 1 */
 917:Src/stm32f7xx_hal_msp.c **** 
 918:Src/stm32f7xx_hal_msp.c ****   /* USER CODE END TIM1_MspInit 1 */
 919:Src/stm32f7xx_hal_msp.c ****   }
 920:Src/stm32f7xx_hal_msp.c ****   else if(htim_base->Instance==TIM2)
 921:Src/stm32f7xx_hal_msp.c ****   {
 922:Src/stm32f7xx_hal_msp.c ****   /* USER CODE BEGIN TIM2_MspInit 0 */
 923:Src/stm32f7xx_hal_msp.c **** 
 924:Src/stm32f7xx_hal_msp.c ****   /* USER CODE END TIM2_MspInit 0 */
 925:Src/stm32f7xx_hal_msp.c ****     /* Peripheral clock enable */
 926:Src/stm32f7xx_hal_msp.c ****     __HAL_RCC_TIM2_CLK_ENABLE();
 927:Src/stm32f7xx_hal_msp.c ****   /* USER CODE BEGIN TIM2_MspInit 1 */
 928:Src/stm32f7xx_hal_msp.c **** 
 929:Src/stm32f7xx_hal_msp.c ****   /* USER CODE END TIM2_MspInit 1 */
 930:Src/stm32f7xx_hal_msp.c ****   }
 931:Src/stm32f7xx_hal_msp.c ****   else if(htim_base->Instance==TIM3)
 932:Src/stm32f7xx_hal_msp.c ****   {
 933:Src/stm32f7xx_hal_msp.c ****   /* USER CODE BEGIN TIM3_MspInit 0 */
 934:Src/stm32f7xx_hal_msp.c **** 
 935:Src/stm32f7xx_hal_msp.c ****   /* USER CODE END TIM3_MspInit 0 */
 936:Src/stm32f7xx_hal_msp.c ****     /* Peripheral clock enable */
 937:Src/stm32f7xx_hal_msp.c ****     __HAL_RCC_TIM3_CLK_ENABLE();
 938:Src/stm32f7xx_hal_msp.c ****   /* USER CODE BEGIN TIM3_MspInit 1 */
 939:Src/stm32f7xx_hal_msp.c **** 
 940:Src/stm32f7xx_hal_msp.c ****   /* USER CODE END TIM3_MspInit 1 */
 941:Src/stm32f7xx_hal_msp.c ****   }
 942:Src/stm32f7xx_hal_msp.c ****   else if(htim_base->Instance==TIM5)
 943:Src/stm32f7xx_hal_msp.c ****   {
ARM GAS  C:\Users\Nina\AppData\Local\Temp\ccvtmqTe.s 			page 18


 944:Src/stm32f7xx_hal_msp.c ****   /* USER CODE BEGIN TIM5_MspInit 0 */
 945:Src/stm32f7xx_hal_msp.c **** 
 946:Src/stm32f7xx_hal_msp.c ****   /* USER CODE END TIM5_MspInit 0 */
 947:Src/stm32f7xx_hal_msp.c ****     /* Peripheral clock enable */
 948:Src/stm32f7xx_hal_msp.c ****     __HAL_RCC_TIM5_CLK_ENABLE();
 949:Src/stm32f7xx_hal_msp.c ****   /* USER CODE BEGIN TIM5_MspInit 1 */
 950:Src/stm32f7xx_hal_msp.c **** 
 951:Src/stm32f7xx_hal_msp.c ****   /* USER CODE END TIM5_MspInit 1 */
 952:Src/stm32f7xx_hal_msp.c ****   }
 953:Src/stm32f7xx_hal_msp.c ****   else if(htim_base->Instance==TIM7)
 954:Src/stm32f7xx_hal_msp.c ****   {
 955:Src/stm32f7xx_hal_msp.c ****   /* USER CODE BEGIN TIM7_MspInit 0 */
 956:Src/stm32f7xx_hal_msp.c **** 
 957:Src/stm32f7xx_hal_msp.c ****   /* USER CODE END TIM7_MspInit 0 */
 958:Src/stm32f7xx_hal_msp.c ****     /* Peripheral clock enable */
 959:Src/stm32f7xx_hal_msp.c ****     __HAL_RCC_TIM7_CLK_ENABLE();
 960:Src/stm32f7xx_hal_msp.c ****   /* USER CODE BEGIN TIM7_MspInit 1 */
 961:Src/stm32f7xx_hal_msp.c **** 
 962:Src/stm32f7xx_hal_msp.c ****   /* USER CODE END TIM7_MspInit 1 */
 963:Src/stm32f7xx_hal_msp.c ****   }
 964:Src/stm32f7xx_hal_msp.c ****   else if(htim_base->Instance==TIM8)
 965:Src/stm32f7xx_hal_msp.c ****   {
 966:Src/stm32f7xx_hal_msp.c ****   /* USER CODE BEGIN TIM8_MspInit 0 */
 967:Src/stm32f7xx_hal_msp.c **** 
 968:Src/stm32f7xx_hal_msp.c ****   /* USER CODE END TIM8_MspInit 0 */
 969:Src/stm32f7xx_hal_msp.c ****     /* Peripheral clock enable */
 970:Src/stm32f7xx_hal_msp.c ****     __HAL_RCC_TIM8_CLK_ENABLE();
 971:Src/stm32f7xx_hal_msp.c ****   /* USER CODE BEGIN TIM8_MspInit 1 */
 972:Src/stm32f7xx_hal_msp.c **** 
 973:Src/stm32f7xx_hal_msp.c ****   /* USER CODE END TIM8_MspInit 1 */
 974:Src/stm32f7xx_hal_msp.c ****   }
 975:Src/stm32f7xx_hal_msp.c **** 
 976:Src/stm32f7xx_hal_msp.c **** }
 977:Src/stm32f7xx_hal_msp.c **** 
 978:Src/stm32f7xx_hal_msp.c **** void HAL_TIM_PWM_MspInit(TIM_HandleTypeDef* htim_pwm)
 979:Src/stm32f7xx_hal_msp.c **** {
 980:Src/stm32f7xx_hal_msp.c **** 
 981:Src/stm32f7xx_hal_msp.c ****   if(htim_pwm->Instance==TIM12)
 982:Src/stm32f7xx_hal_msp.c ****   {
 983:Src/stm32f7xx_hal_msp.c ****   /* USER CODE BEGIN TIM12_MspInit 0 */
 984:Src/stm32f7xx_hal_msp.c **** 
 985:Src/stm32f7xx_hal_msp.c ****   /* USER CODE END TIM12_MspInit 0 */
 986:Src/stm32f7xx_hal_msp.c ****     /* Peripheral clock enable */
 987:Src/stm32f7xx_hal_msp.c ****     __HAL_RCC_TIM12_CLK_ENABLE();
 988:Src/stm32f7xx_hal_msp.c ****   /* USER CODE BEGIN TIM12_MspInit 1 */
 989:Src/stm32f7xx_hal_msp.c **** 
 990:Src/stm32f7xx_hal_msp.c ****   /* USER CODE END TIM12_MspInit 1 */
 991:Src/stm32f7xx_hal_msp.c ****   }
 992:Src/stm32f7xx_hal_msp.c **** 
 993:Src/stm32f7xx_hal_msp.c **** }
 994:Src/stm32f7xx_hal_msp.c **** 
 995:Src/stm32f7xx_hal_msp.c **** void HAL_TIM_MspPostInit(TIM_HandleTypeDef* htim)
 996:Src/stm32f7xx_hal_msp.c **** {
 997:Src/stm32f7xx_hal_msp.c **** 
 998:Src/stm32f7xx_hal_msp.c ****   GPIO_InitTypeDef GPIO_InitStruct;
 999:Src/stm32f7xx_hal_msp.c ****   if(htim->Instance==TIM1)
1000:Src/stm32f7xx_hal_msp.c ****   {
ARM GAS  C:\Users\Nina\AppData\Local\Temp\ccvtmqTe.s 			page 19


1001:Src/stm32f7xx_hal_msp.c ****   /* USER CODE BEGIN TIM1_MspPostInit 0 */
1002:Src/stm32f7xx_hal_msp.c **** 
1003:Src/stm32f7xx_hal_msp.c ****   /* USER CODE END TIM1_MspPostInit 0 */
1004:Src/stm32f7xx_hal_msp.c ****     /**TIM1 GPIO Configuration    
1005:Src/stm32f7xx_hal_msp.c ****     PA8     ------> TIM1_CH1 
1006:Src/stm32f7xx_hal_msp.c ****     */
1007:Src/stm32f7xx_hal_msp.c ****     GPIO_InitStruct.Pin = ARDUINO_PWM_D10_Pin;
1008:Src/stm32f7xx_hal_msp.c ****     GPIO_InitStruct.Mode = GPIO_MODE_AF_PP;
1009:Src/stm32f7xx_hal_msp.c ****     GPIO_InitStruct.Pull = GPIO_NOPULL;
1010:Src/stm32f7xx_hal_msp.c ****     GPIO_InitStruct.Speed = GPIO_SPEED_FREQ_LOW;
1011:Src/stm32f7xx_hal_msp.c ****     GPIO_InitStruct.Alternate = GPIO_AF1_TIM1;
1012:Src/stm32f7xx_hal_msp.c ****     HAL_GPIO_Init(ARDUINO_PWM_D10_GPIO_Port, &GPIO_InitStruct);
1013:Src/stm32f7xx_hal_msp.c **** 
1014:Src/stm32f7xx_hal_msp.c ****   /* USER CODE BEGIN TIM1_MspPostInit 1 */
1015:Src/stm32f7xx_hal_msp.c **** 
1016:Src/stm32f7xx_hal_msp.c ****   /* USER CODE END TIM1_MspPostInit 1 */
1017:Src/stm32f7xx_hal_msp.c ****   }
1018:Src/stm32f7xx_hal_msp.c ****   else if(htim->Instance==TIM2)
1019:Src/stm32f7xx_hal_msp.c ****   {
1020:Src/stm32f7xx_hal_msp.c ****   /* USER CODE BEGIN TIM2_MspPostInit 0 */
1021:Src/stm32f7xx_hal_msp.c **** 
1022:Src/stm32f7xx_hal_msp.c ****   /* USER CODE END TIM2_MspPostInit 0 */
1023:Src/stm32f7xx_hal_msp.c ****   
1024:Src/stm32f7xx_hal_msp.c ****     /**TIM2 GPIO Configuration    
1025:Src/stm32f7xx_hal_msp.c ****     PA15     ------> TIM2_CH1 
1026:Src/stm32f7xx_hal_msp.c ****     */
1027:Src/stm32f7xx_hal_msp.c ****     GPIO_InitStruct.Pin = ARDUINO_PWM_D9_Pin;
1028:Src/stm32f7xx_hal_msp.c ****     GPIO_InitStruct.Mode = GPIO_MODE_AF_PP;
1029:Src/stm32f7xx_hal_msp.c ****     GPIO_InitStruct.Pull = GPIO_NOPULL;
1030:Src/stm32f7xx_hal_msp.c ****     GPIO_InitStruct.Speed = GPIO_SPEED_FREQ_LOW;
1031:Src/stm32f7xx_hal_msp.c ****     GPIO_InitStruct.Alternate = GPIO_AF1_TIM2;
1032:Src/stm32f7xx_hal_msp.c ****     HAL_GPIO_Init(ARDUINO_PWM_D9_GPIO_Port, &GPIO_InitStruct);
1033:Src/stm32f7xx_hal_msp.c **** 
1034:Src/stm32f7xx_hal_msp.c ****   /* USER CODE BEGIN TIM2_MspPostInit 1 */
1035:Src/stm32f7xx_hal_msp.c **** 
1036:Src/stm32f7xx_hal_msp.c ****   /* USER CODE END TIM2_MspPostInit 1 */
1037:Src/stm32f7xx_hal_msp.c ****   }
1038:Src/stm32f7xx_hal_msp.c ****   else if(htim->Instance==TIM3)
1039:Src/stm32f7xx_hal_msp.c ****   {
1040:Src/stm32f7xx_hal_msp.c ****   /* USER CODE BEGIN TIM3_MspPostInit 0 */
1041:Src/stm32f7xx_hal_msp.c **** 
1042:Src/stm32f7xx_hal_msp.c ****   /* USER CODE END TIM3_MspPostInit 0 */
1043:Src/stm32f7xx_hal_msp.c ****   
1044:Src/stm32f7xx_hal_msp.c ****     /**TIM3 GPIO Configuration    
1045:Src/stm32f7xx_hal_msp.c ****     PB4     ------> TIM3_CH1 
1046:Src/stm32f7xx_hal_msp.c ****     */
1047:Src/stm32f7xx_hal_msp.c ****     GPIO_InitStruct.Pin = ARDUINO_PWM_D3_Pin;
1048:Src/stm32f7xx_hal_msp.c ****     GPIO_InitStruct.Mode = GPIO_MODE_AF_PP;
1049:Src/stm32f7xx_hal_msp.c ****     GPIO_InitStruct.Pull = GPIO_NOPULL;
1050:Src/stm32f7xx_hal_msp.c ****     GPIO_InitStruct.Speed = GPIO_SPEED_FREQ_LOW;
1051:Src/stm32f7xx_hal_msp.c ****     GPIO_InitStruct.Alternate = GPIO_AF2_TIM3;
1052:Src/stm32f7xx_hal_msp.c ****     HAL_GPIO_Init(ARDUINO_PWM_D3_GPIO_Port, &GPIO_InitStruct);
1053:Src/stm32f7xx_hal_msp.c **** 
1054:Src/stm32f7xx_hal_msp.c ****   /* USER CODE BEGIN TIM3_MspPostInit 1 */
1055:Src/stm32f7xx_hal_msp.c **** 
1056:Src/stm32f7xx_hal_msp.c ****   /* USER CODE END TIM3_MspPostInit 1 */
1057:Src/stm32f7xx_hal_msp.c ****   }
ARM GAS  C:\Users\Nina\AppData\Local\Temp\ccvtmqTe.s 			page 20


1058:Src/stm32f7xx_hal_msp.c ****   else if(htim->Instance==TIM5)
1059:Src/stm32f7xx_hal_msp.c ****   {
1060:Src/stm32f7xx_hal_msp.c ****   /* USER CODE BEGIN TIM5_MspPostInit 0 */
1061:Src/stm32f7xx_hal_msp.c **** 
1062:Src/stm32f7xx_hal_msp.c ****   /* USER CODE END TIM5_MspPostInit 0 */
1063:Src/stm32f7xx_hal_msp.c ****   
1064:Src/stm32f7xx_hal_msp.c ****     /**TIM5 GPIO Configuration    
1065:Src/stm32f7xx_hal_msp.c ****     PI0     ------> TIM5_CH4 
1066:Src/stm32f7xx_hal_msp.c ****     */
1067:Src/stm32f7xx_hal_msp.c ****     GPIO_InitStruct.Pin = ARDUINO_PWM_CS_D5_Pin;
1068:Src/stm32f7xx_hal_msp.c ****     GPIO_InitStruct.Mode = GPIO_MODE_AF_PP;
1069:Src/stm32f7xx_hal_msp.c ****     GPIO_InitStruct.Pull = GPIO_NOPULL;
1070:Src/stm32f7xx_hal_msp.c ****     GPIO_InitStruct.Speed = GPIO_SPEED_FREQ_LOW;
1071:Src/stm32f7xx_hal_msp.c ****     GPIO_InitStruct.Alternate = GPIO_AF2_TIM5;
1072:Src/stm32f7xx_hal_msp.c ****     HAL_GPIO_Init(ARDUINO_PWM_CS_D5_GPIO_Port, &GPIO_InitStruct);
1073:Src/stm32f7xx_hal_msp.c **** 
1074:Src/stm32f7xx_hal_msp.c ****   /* USER CODE BEGIN TIM5_MspPostInit 1 */
1075:Src/stm32f7xx_hal_msp.c **** 
1076:Src/stm32f7xx_hal_msp.c ****   /* USER CODE END TIM5_MspPostInit 1 */
1077:Src/stm32f7xx_hal_msp.c ****   }
1078:Src/stm32f7xx_hal_msp.c ****   else if(htim->Instance==TIM12)
1079:Src/stm32f7xx_hal_msp.c ****   {
1080:Src/stm32f7xx_hal_msp.c ****   /* USER CODE BEGIN TIM12_MspPostInit 0 */
1081:Src/stm32f7xx_hal_msp.c **** 
1082:Src/stm32f7xx_hal_msp.c ****   /* USER CODE END TIM12_MspPostInit 0 */
1083:Src/stm32f7xx_hal_msp.c ****   
1084:Src/stm32f7xx_hal_msp.c ****     /**TIM12 GPIO Configuration    
1085:Src/stm32f7xx_hal_msp.c ****     PH6     ------> TIM12_CH1 
1086:Src/stm32f7xx_hal_msp.c ****     */
1087:Src/stm32f7xx_hal_msp.c ****     GPIO_InitStruct.Pin = ARDUINO_PWM_D6_Pin;
1088:Src/stm32f7xx_hal_msp.c ****     GPIO_InitStruct.Mode = GPIO_MODE_AF_PP;
1089:Src/stm32f7xx_hal_msp.c ****     GPIO_InitStruct.Pull = GPIO_NOPULL;
1090:Src/stm32f7xx_hal_msp.c ****     GPIO_InitStruct.Speed = GPIO_SPEED_FREQ_LOW;
1091:Src/stm32f7xx_hal_msp.c ****     GPIO_InitStruct.Alternate = GPIO_AF9_TIM12;
1092:Src/stm32f7xx_hal_msp.c ****     HAL_GPIO_Init(ARDUINO_PWM_D6_GPIO_Port, &GPIO_InitStruct);
1093:Src/stm32f7xx_hal_msp.c **** 
1094:Src/stm32f7xx_hal_msp.c ****   /* USER CODE BEGIN TIM12_MspPostInit 1 */
1095:Src/stm32f7xx_hal_msp.c **** 
1096:Src/stm32f7xx_hal_msp.c ****   /* USER CODE END TIM12_MspPostInit 1 */
1097:Src/stm32f7xx_hal_msp.c ****   }
1098:Src/stm32f7xx_hal_msp.c **** 
1099:Src/stm32f7xx_hal_msp.c **** }
1100:Src/stm32f7xx_hal_msp.c **** 
1101:Src/stm32f7xx_hal_msp.c **** void HAL_TIM_Base_MspDeInit(TIM_HandleTypeDef* htim_base)
1102:Src/stm32f7xx_hal_msp.c **** {
1103:Src/stm32f7xx_hal_msp.c **** 
1104:Src/stm32f7xx_hal_msp.c ****   if(htim_base->Instance==TIM1)
1105:Src/stm32f7xx_hal_msp.c ****   {
1106:Src/stm32f7xx_hal_msp.c ****   /* USER CODE BEGIN TIM1_MspDeInit 0 */
1107:Src/stm32f7xx_hal_msp.c **** 
1108:Src/stm32f7xx_hal_msp.c ****   /* USER CODE END TIM1_MspDeInit 0 */
1109:Src/stm32f7xx_hal_msp.c ****     /* Peripheral clock disable */
1110:Src/stm32f7xx_hal_msp.c ****     __HAL_RCC_TIM1_CLK_DISABLE();
1111:Src/stm32f7xx_hal_msp.c ****   /* USER CODE BEGIN TIM1_MspDeInit 1 */
1112:Src/stm32f7xx_hal_msp.c **** 
1113:Src/stm32f7xx_hal_msp.c ****   /* USER CODE END TIM1_MspDeInit 1 */
1114:Src/stm32f7xx_hal_msp.c ****   }
ARM GAS  C:\Users\Nina\AppData\Local\Temp\ccvtmqTe.s 			page 21


1115:Src/stm32f7xx_hal_msp.c ****   else if(htim_base->Instance==TIM2)
1116:Src/stm32f7xx_hal_msp.c ****   {
1117:Src/stm32f7xx_hal_msp.c ****   /* USER CODE BEGIN TIM2_MspDeInit 0 */
1118:Src/stm32f7xx_hal_msp.c **** 
1119:Src/stm32f7xx_hal_msp.c ****   /* USER CODE END TIM2_MspDeInit 0 */
1120:Src/stm32f7xx_hal_msp.c ****     /* Peripheral clock disable */
1121:Src/stm32f7xx_hal_msp.c ****     __HAL_RCC_TIM2_CLK_DISABLE();
1122:Src/stm32f7xx_hal_msp.c ****   /* USER CODE BEGIN TIM2_MspDeInit 1 */
1123:Src/stm32f7xx_hal_msp.c **** 
1124:Src/stm32f7xx_hal_msp.c ****   /* USER CODE END TIM2_MspDeInit 1 */
1125:Src/stm32f7xx_hal_msp.c ****   }
1126:Src/stm32f7xx_hal_msp.c ****   else if(htim_base->Instance==TIM3)
1127:Src/stm32f7xx_hal_msp.c ****   {
1128:Src/stm32f7xx_hal_msp.c ****   /* USER CODE BEGIN TIM3_MspDeInit 0 */
1129:Src/stm32f7xx_hal_msp.c **** 
1130:Src/stm32f7xx_hal_msp.c ****   /* USER CODE END TIM3_MspDeInit 0 */
1131:Src/stm32f7xx_hal_msp.c ****     /* Peripheral clock disable */
1132:Src/stm32f7xx_hal_msp.c ****     __HAL_RCC_TIM3_CLK_DISABLE();
1133:Src/stm32f7xx_hal_msp.c ****   /* USER CODE BEGIN TIM3_MspDeInit 1 */
1134:Src/stm32f7xx_hal_msp.c **** 
1135:Src/stm32f7xx_hal_msp.c ****   /* USER CODE END TIM3_MspDeInit 1 */
1136:Src/stm32f7xx_hal_msp.c ****   }
1137:Src/stm32f7xx_hal_msp.c ****   else if(htim_base->Instance==TIM5)
1138:Src/stm32f7xx_hal_msp.c ****   {
1139:Src/stm32f7xx_hal_msp.c ****   /* USER CODE BEGIN TIM5_MspDeInit 0 */
1140:Src/stm32f7xx_hal_msp.c **** 
1141:Src/stm32f7xx_hal_msp.c ****   /* USER CODE END TIM5_MspDeInit 0 */
1142:Src/stm32f7xx_hal_msp.c ****     /* Peripheral clock disable */
1143:Src/stm32f7xx_hal_msp.c ****     __HAL_RCC_TIM5_CLK_DISABLE();
1144:Src/stm32f7xx_hal_msp.c ****   /* USER CODE BEGIN TIM5_MspDeInit 1 */
1145:Src/stm32f7xx_hal_msp.c **** 
1146:Src/stm32f7xx_hal_msp.c ****   /* USER CODE END TIM5_MspDeInit 1 */
1147:Src/stm32f7xx_hal_msp.c ****   }
1148:Src/stm32f7xx_hal_msp.c ****   else if(htim_base->Instance==TIM7)
1149:Src/stm32f7xx_hal_msp.c ****   {
1150:Src/stm32f7xx_hal_msp.c ****   /* USER CODE BEGIN TIM7_MspDeInit 0 */
1151:Src/stm32f7xx_hal_msp.c **** 
1152:Src/stm32f7xx_hal_msp.c ****   /* USER CODE END TIM7_MspDeInit 0 */
1153:Src/stm32f7xx_hal_msp.c ****     /* Peripheral clock disable */
1154:Src/stm32f7xx_hal_msp.c ****     __HAL_RCC_TIM7_CLK_DISABLE();
1155:Src/stm32f7xx_hal_msp.c ****   /* USER CODE BEGIN TIM7_MspDeInit 1 */
1156:Src/stm32f7xx_hal_msp.c **** 
1157:Src/stm32f7xx_hal_msp.c ****   /* USER CODE END TIM7_MspDeInit 1 */
1158:Src/stm32f7xx_hal_msp.c ****   }
1159:Src/stm32f7xx_hal_msp.c ****   else if(htim_base->Instance==TIM8)
1160:Src/stm32f7xx_hal_msp.c ****   {
1161:Src/stm32f7xx_hal_msp.c ****   /* USER CODE BEGIN TIM8_MspDeInit 0 */
1162:Src/stm32f7xx_hal_msp.c **** 
1163:Src/stm32f7xx_hal_msp.c ****   /* USER CODE END TIM8_MspDeInit 0 */
1164:Src/stm32f7xx_hal_msp.c ****     /* Peripheral clock disable */
1165:Src/stm32f7xx_hal_msp.c ****     __HAL_RCC_TIM8_CLK_DISABLE();
1166:Src/stm32f7xx_hal_msp.c ****   /* USER CODE BEGIN TIM8_MspDeInit 1 */
1167:Src/stm32f7xx_hal_msp.c **** 
1168:Src/stm32f7xx_hal_msp.c ****   /* USER CODE END TIM8_MspDeInit 1 */
1169:Src/stm32f7xx_hal_msp.c ****   }
1170:Src/stm32f7xx_hal_msp.c **** 
1171:Src/stm32f7xx_hal_msp.c **** }
ARM GAS  C:\Users\Nina\AppData\Local\Temp\ccvtmqTe.s 			page 22


1172:Src/stm32f7xx_hal_msp.c **** 
1173:Src/stm32f7xx_hal_msp.c **** void HAL_TIM_PWM_MspDeInit(TIM_HandleTypeDef* htim_pwm)
1174:Src/stm32f7xx_hal_msp.c **** {
1175:Src/stm32f7xx_hal_msp.c **** 
1176:Src/stm32f7xx_hal_msp.c ****   if(htim_pwm->Instance==TIM12)
1177:Src/stm32f7xx_hal_msp.c ****   {
1178:Src/stm32f7xx_hal_msp.c ****   /* USER CODE BEGIN TIM12_MspDeInit 0 */
1179:Src/stm32f7xx_hal_msp.c **** 
1180:Src/stm32f7xx_hal_msp.c ****   /* USER CODE END TIM12_MspDeInit 0 */
1181:Src/stm32f7xx_hal_msp.c ****     /* Peripheral clock disable */
1182:Src/stm32f7xx_hal_msp.c ****     __HAL_RCC_TIM12_CLK_DISABLE();
1183:Src/stm32f7xx_hal_msp.c ****   /* USER CODE BEGIN TIM12_MspDeInit 1 */
1184:Src/stm32f7xx_hal_msp.c **** 
1185:Src/stm32f7xx_hal_msp.c ****   /* USER CODE END TIM12_MspDeInit 1 */
1186:Src/stm32f7xx_hal_msp.c ****   }
1187:Src/stm32f7xx_hal_msp.c **** 
1188:Src/stm32f7xx_hal_msp.c **** }
1189:Src/stm32f7xx_hal_msp.c **** 
1190:Src/stm32f7xx_hal_msp.c **** void HAL_UART_MspInit(UART_HandleTypeDef* huart)
1191:Src/stm32f7xx_hal_msp.c **** {
1192:Src/stm32f7xx_hal_msp.c **** 
1193:Src/stm32f7xx_hal_msp.c ****   GPIO_InitTypeDef GPIO_InitStruct;
1194:Src/stm32f7xx_hal_msp.c ****   if(huart->Instance==USART1)
1195:Src/stm32f7xx_hal_msp.c ****   {
1196:Src/stm32f7xx_hal_msp.c ****   /* USER CODE BEGIN USART1_MspInit 0 */
1197:Src/stm32f7xx_hal_msp.c **** 
1198:Src/stm32f7xx_hal_msp.c ****   /* USER CODE END USART1_MspInit 0 */
1199:Src/stm32f7xx_hal_msp.c ****     /* Peripheral clock enable */
1200:Src/stm32f7xx_hal_msp.c ****     __HAL_RCC_USART1_CLK_ENABLE();
1201:Src/stm32f7xx_hal_msp.c ****   
1202:Src/stm32f7xx_hal_msp.c ****     /**USART1 GPIO Configuration    
1203:Src/stm32f7xx_hal_msp.c ****     PB7     ------> USART1_RX
1204:Src/stm32f7xx_hal_msp.c ****     PA9     ------> USART1_TX 
1205:Src/stm32f7xx_hal_msp.c ****     */
1206:Src/stm32f7xx_hal_msp.c ****     GPIO_InitStruct.Pin = VCP_RX_Pin;
1207:Src/stm32f7xx_hal_msp.c ****     GPIO_InitStruct.Mode = GPIO_MODE_AF_PP;
1208:Src/stm32f7xx_hal_msp.c ****     GPIO_InitStruct.Pull = GPIO_NOPULL;
1209:Src/stm32f7xx_hal_msp.c ****     GPIO_InitStruct.Speed = GPIO_SPEED_FREQ_LOW;
1210:Src/stm32f7xx_hal_msp.c ****     GPIO_InitStruct.Alternate = GPIO_AF7_USART1;
1211:Src/stm32f7xx_hal_msp.c ****     HAL_GPIO_Init(VCP_RX_GPIO_Port, &GPIO_InitStruct);
1212:Src/stm32f7xx_hal_msp.c **** 
1213:Src/stm32f7xx_hal_msp.c ****     GPIO_InitStruct.Pin = VCP_TX_Pin;
1214:Src/stm32f7xx_hal_msp.c ****     GPIO_InitStruct.Mode = GPIO_MODE_AF_PP;
1215:Src/stm32f7xx_hal_msp.c ****     GPIO_InitStruct.Pull = GPIO_NOPULL;
1216:Src/stm32f7xx_hal_msp.c ****     GPIO_InitStruct.Speed = GPIO_SPEED_FREQ_LOW;
1217:Src/stm32f7xx_hal_msp.c ****     GPIO_InitStruct.Alternate = GPIO_AF7_USART1;
1218:Src/stm32f7xx_hal_msp.c ****     HAL_GPIO_Init(VCP_TX_GPIO_Port, &GPIO_InitStruct);
1219:Src/stm32f7xx_hal_msp.c **** 
1220:Src/stm32f7xx_hal_msp.c ****   /* USER CODE BEGIN USART1_MspInit 1 */
1221:Src/stm32f7xx_hal_msp.c **** 
1222:Src/stm32f7xx_hal_msp.c ****   /* USER CODE END USART1_MspInit 1 */
1223:Src/stm32f7xx_hal_msp.c ****   }
1224:Src/stm32f7xx_hal_msp.c ****   else if(huart->Instance==USART6)
1225:Src/stm32f7xx_hal_msp.c ****   {
1226:Src/stm32f7xx_hal_msp.c ****   /* USER CODE BEGIN USART6_MspInit 0 */
1227:Src/stm32f7xx_hal_msp.c **** 
1228:Src/stm32f7xx_hal_msp.c ****   /* USER CODE END USART6_MspInit 0 */
ARM GAS  C:\Users\Nina\AppData\Local\Temp\ccvtmqTe.s 			page 23


1229:Src/stm32f7xx_hal_msp.c ****     /* Peripheral clock enable */
1230:Src/stm32f7xx_hal_msp.c ****     __HAL_RCC_USART6_CLK_ENABLE();
1231:Src/stm32f7xx_hal_msp.c ****   
1232:Src/stm32f7xx_hal_msp.c ****     /**USART6 GPIO Configuration    
1233:Src/stm32f7xx_hal_msp.c ****     PC7     ------> USART6_RX
1234:Src/stm32f7xx_hal_msp.c ****     PC6     ------> USART6_TX 
1235:Src/stm32f7xx_hal_msp.c ****     */
1236:Src/stm32f7xx_hal_msp.c ****     GPIO_InitStruct.Pin = ARDUINO_RX_D0_Pin|ARDUINO_TX_D1_Pin;
1237:Src/stm32f7xx_hal_msp.c ****     GPIO_InitStruct.Mode = GPIO_MODE_AF_PP;
1238:Src/stm32f7xx_hal_msp.c ****     GPIO_InitStruct.Pull = GPIO_NOPULL;
1239:Src/stm32f7xx_hal_msp.c ****     GPIO_InitStruct.Speed = GPIO_SPEED_FREQ_VERY_HIGH;
1240:Src/stm32f7xx_hal_msp.c ****     GPIO_InitStruct.Alternate = GPIO_AF8_USART6;
1241:Src/stm32f7xx_hal_msp.c ****     HAL_GPIO_Init(GPIOC, &GPIO_InitStruct);
1242:Src/stm32f7xx_hal_msp.c **** 
1243:Src/stm32f7xx_hal_msp.c ****   /* USER CODE BEGIN USART6_MspInit 1 */
1244:Src/stm32f7xx_hal_msp.c **** 
1245:Src/stm32f7xx_hal_msp.c ****   /* USER CODE END USART6_MspInit 1 */
1246:Src/stm32f7xx_hal_msp.c ****   }
1247:Src/stm32f7xx_hal_msp.c **** 
1248:Src/stm32f7xx_hal_msp.c **** }
1249:Src/stm32f7xx_hal_msp.c **** 
1250:Src/stm32f7xx_hal_msp.c **** void HAL_UART_MspDeInit(UART_HandleTypeDef* huart)
1251:Src/stm32f7xx_hal_msp.c **** {
1252:Src/stm32f7xx_hal_msp.c **** 
1253:Src/stm32f7xx_hal_msp.c ****   if(huart->Instance==USART1)
1254:Src/stm32f7xx_hal_msp.c ****   {
1255:Src/stm32f7xx_hal_msp.c ****   /* USER CODE BEGIN USART1_MspDeInit 0 */
1256:Src/stm32f7xx_hal_msp.c **** 
1257:Src/stm32f7xx_hal_msp.c ****   /* USER CODE END USART1_MspDeInit 0 */
1258:Src/stm32f7xx_hal_msp.c ****     /* Peripheral clock disable */
1259:Src/stm32f7xx_hal_msp.c ****     __HAL_RCC_USART1_CLK_DISABLE();
1260:Src/stm32f7xx_hal_msp.c ****   
1261:Src/stm32f7xx_hal_msp.c ****     /**USART1 GPIO Configuration    
1262:Src/stm32f7xx_hal_msp.c ****     PB7     ------> USART1_RX
1263:Src/stm32f7xx_hal_msp.c ****     PA9     ------> USART1_TX 
1264:Src/stm32f7xx_hal_msp.c ****     */
1265:Src/stm32f7xx_hal_msp.c ****     HAL_GPIO_DeInit(VCP_RX_GPIO_Port, VCP_RX_Pin);
1266:Src/stm32f7xx_hal_msp.c **** 
1267:Src/stm32f7xx_hal_msp.c ****     HAL_GPIO_DeInit(VCP_TX_GPIO_Port, VCP_TX_Pin);
1268:Src/stm32f7xx_hal_msp.c **** 
1269:Src/stm32f7xx_hal_msp.c ****   /* USER CODE BEGIN USART1_MspDeInit 1 */
1270:Src/stm32f7xx_hal_msp.c **** 
1271:Src/stm32f7xx_hal_msp.c ****   /* USER CODE END USART1_MspDeInit 1 */
1272:Src/stm32f7xx_hal_msp.c ****   }
1273:Src/stm32f7xx_hal_msp.c ****   else if(huart->Instance==USART6)
1274:Src/stm32f7xx_hal_msp.c ****   {
1275:Src/stm32f7xx_hal_msp.c ****   /* USER CODE BEGIN USART6_MspDeInit 0 */
1276:Src/stm32f7xx_hal_msp.c **** 
1277:Src/stm32f7xx_hal_msp.c ****   /* USER CODE END USART6_MspDeInit 0 */
1278:Src/stm32f7xx_hal_msp.c ****     /* Peripheral clock disable */
1279:Src/stm32f7xx_hal_msp.c ****     __HAL_RCC_USART6_CLK_DISABLE();
1280:Src/stm32f7xx_hal_msp.c ****   
1281:Src/stm32f7xx_hal_msp.c ****     /**USART6 GPIO Configuration    
1282:Src/stm32f7xx_hal_msp.c ****     PC7     ------> USART6_RX
1283:Src/stm32f7xx_hal_msp.c ****     PC6     ------> USART6_TX 
1284:Src/stm32f7xx_hal_msp.c ****     */
1285:Src/stm32f7xx_hal_msp.c ****     HAL_GPIO_DeInit(GPIOC, ARDUINO_RX_D0_Pin|ARDUINO_TX_D1_Pin);
ARM GAS  C:\Users\Nina\AppData\Local\Temp\ccvtmqTe.s 			page 24


1286:Src/stm32f7xx_hal_msp.c **** 
1287:Src/stm32f7xx_hal_msp.c ****   /* USER CODE BEGIN USART6_MspDeInit 1 */
1288:Src/stm32f7xx_hal_msp.c **** 
1289:Src/stm32f7xx_hal_msp.c ****   /* USER CODE END USART6_MspDeInit 1 */
1290:Src/stm32f7xx_hal_msp.c ****   }
1291:Src/stm32f7xx_hal_msp.c **** 
1292:Src/stm32f7xx_hal_msp.c **** }
1293:Src/stm32f7xx_hal_msp.c **** 
1294:Src/stm32f7xx_hal_msp.c **** static uint32_t FMC_Initialized = 0;
1295:Src/stm32f7xx_hal_msp.c **** 
1296:Src/stm32f7xx_hal_msp.c **** static void HAL_FMC_MspInit(void){
  28              		.loc 1 1296 34 view -0
  29              		.cfi_startproc
  30              		@ args = 0, pretend = 0, frame = 24
  31              		@ frame_needed = 0, uses_anonymous_args = 0
1297:Src/stm32f7xx_hal_msp.c ****   /* USER CODE BEGIN FMC_MspInit 0 */
1298:Src/stm32f7xx_hal_msp.c **** 
1299:Src/stm32f7xx_hal_msp.c ****   /* USER CODE END FMC_MspInit 0 */
1300:Src/stm32f7xx_hal_msp.c ****   GPIO_InitTypeDef GPIO_InitStruct;
  32              		.loc 1 1300 3 view .LVU1
1301:Src/stm32f7xx_hal_msp.c ****   if (FMC_Initialized) {
  33              		.loc 1 1301 3 view .LVU2
  34              		.loc 1 1301 7 is_stmt 0 view .LVU3
  35 0000 2C4B     		ldr	r3, .L9
  36 0002 1B68     		ldr	r3, [r3]
  37              		.loc 1 1301 6 view .LVU4
  38 0004 03B1     		cbz	r3, .L8
  39 0006 7047     		bx	lr
  40              	.L8:
1296:Src/stm32f7xx_hal_msp.c ****   /* USER CODE BEGIN FMC_MspInit 0 */
  41              		.loc 1 1296 34 view .LVU5
  42 0008 F0B5     		push	{r4, r5, r6, r7, lr}
  43              	.LCFI0:
  44              		.cfi_def_cfa_offset 20
  45              		.cfi_offset 4, -20
  46              		.cfi_offset 5, -16
  47              		.cfi_offset 6, -12
  48              		.cfi_offset 7, -8
  49              		.cfi_offset 14, -4
  50 000a 87B0     		sub	sp, sp, #28
  51              	.LCFI1:
  52              		.cfi_def_cfa_offset 48
1302:Src/stm32f7xx_hal_msp.c ****     return;
1303:Src/stm32f7xx_hal_msp.c ****   }
1304:Src/stm32f7xx_hal_msp.c ****   FMC_Initialized = 1;
  53              		.loc 1 1304 3 is_stmt 1 view .LVU6
  54              		.loc 1 1304 19 is_stmt 0 view .LVU7
  55 000c 294B     		ldr	r3, .L9
  56 000e 0122     		movs	r2, #1
  57 0010 1A60     		str	r2, [r3]
1305:Src/stm32f7xx_hal_msp.c ****   /* Peripheral clock enable */
1306:Src/stm32f7xx_hal_msp.c ****   __HAL_RCC_FMC_CLK_ENABLE();
  58              		.loc 1 1306 3 is_stmt 1 view .LVU8
  59              	.LBB2:
  60              		.loc 1 1306 3 view .LVU9
  61              		.loc 1 1306 3 view .LVU10
  62 0012 294B     		ldr	r3, .L9+4
ARM GAS  C:\Users\Nina\AppData\Local\Temp\ccvtmqTe.s 			page 25


  63 0014 9A6B     		ldr	r2, [r3, #56]
  64 0016 42F00102 		orr	r2, r2, #1
  65 001a 9A63     		str	r2, [r3, #56]
  66              		.loc 1 1306 3 view .LVU11
  67 001c 9B6B     		ldr	r3, [r3, #56]
  68 001e 03F00103 		and	r3, r3, #1
  69 0022 0093     		str	r3, [sp]
  70              		.loc 1 1306 3 view .LVU12
  71 0024 009B     		ldr	r3, [sp]
  72              	.LBE2:
  73              		.loc 1 1306 3 view .LVU13
1307:Src/stm32f7xx_hal_msp.c ****   
1308:Src/stm32f7xx_hal_msp.c ****   /** FMC GPIO Configuration  
1309:Src/stm32f7xx_hal_msp.c ****   PE1   ------> FMC_NBL1
1310:Src/stm32f7xx_hal_msp.c ****   PE0   ------> FMC_NBL0
1311:Src/stm32f7xx_hal_msp.c ****   PG15   ------> FMC_SDNCAS
1312:Src/stm32f7xx_hal_msp.c ****   PD0   ------> FMC_D2
1313:Src/stm32f7xx_hal_msp.c ****   PD1   ------> FMC_D3
1314:Src/stm32f7xx_hal_msp.c ****   PF0   ------> FMC_A0
1315:Src/stm32f7xx_hal_msp.c ****   PF1   ------> FMC_A1
1316:Src/stm32f7xx_hal_msp.c ****   PF2   ------> FMC_A2
1317:Src/stm32f7xx_hal_msp.c ****   PF3   ------> FMC_A3
1318:Src/stm32f7xx_hal_msp.c ****   PG8   ------> FMC_SDCLK
1319:Src/stm32f7xx_hal_msp.c ****   PF4   ------> FMC_A4
1320:Src/stm32f7xx_hal_msp.c ****   PH5   ------> FMC_SDNWE
1321:Src/stm32f7xx_hal_msp.c ****   PH3   ------> FMC_SDNE0
1322:Src/stm32f7xx_hal_msp.c ****   PF5   ------> FMC_A5
1323:Src/stm32f7xx_hal_msp.c ****   PD15   ------> FMC_D1
1324:Src/stm32f7xx_hal_msp.c ****   PD10   ------> FMC_D15
1325:Src/stm32f7xx_hal_msp.c ****   PC3   ------> FMC_SDCKE0
1326:Src/stm32f7xx_hal_msp.c ****   PD14   ------> FMC_D0
1327:Src/stm32f7xx_hal_msp.c ****   PD9   ------> FMC_D14
1328:Src/stm32f7xx_hal_msp.c ****   PD8   ------> FMC_D13
1329:Src/stm32f7xx_hal_msp.c ****   PF12   ------> FMC_A6
1330:Src/stm32f7xx_hal_msp.c ****   PG1   ------> FMC_A11
1331:Src/stm32f7xx_hal_msp.c ****   PF15   ------> FMC_A9
1332:Src/stm32f7xx_hal_msp.c ****   PF13   ------> FMC_A7
1333:Src/stm32f7xx_hal_msp.c ****   PG0   ------> FMC_A10
1334:Src/stm32f7xx_hal_msp.c ****   PE8   ------> FMC_D5
1335:Src/stm32f7xx_hal_msp.c ****   PG5   ------> FMC_BA1
1336:Src/stm32f7xx_hal_msp.c ****   PG4   ------> FMC_BA0
1337:Src/stm32f7xx_hal_msp.c ****   PF14   ------> FMC_A8
1338:Src/stm32f7xx_hal_msp.c ****   PF11   ------> FMC_SDNRAS
1339:Src/stm32f7xx_hal_msp.c ****   PE9   ------> FMC_D6
1340:Src/stm32f7xx_hal_msp.c ****   PE11   ------> FMC_D8
1341:Src/stm32f7xx_hal_msp.c ****   PE14   ------> FMC_D11
1342:Src/stm32f7xx_hal_msp.c ****   PE7   ------> FMC_D4
1343:Src/stm32f7xx_hal_msp.c ****   PE10   ------> FMC_D7
1344:Src/stm32f7xx_hal_msp.c ****   PE12   ------> FMC_D9
1345:Src/stm32f7xx_hal_msp.c ****   PE15   ------> FMC_D12
1346:Src/stm32f7xx_hal_msp.c ****   PE13   ------> FMC_D10
1347:Src/stm32f7xx_hal_msp.c ****   */
1348:Src/stm32f7xx_hal_msp.c ****   GPIO_InitStruct.Pin = FMC_NBL1_Pin|FMC_NBL0_Pin|FMC_D5_Pin|FMC_D6_Pin 
  74              		.loc 1 1348 3 view .LVU14
  75              		.loc 1 1348 23 is_stmt 0 view .LVU15
  76 0026 4FF68373 		movw	r3, #65411
  77 002a 0193     		str	r3, [sp, #4]
ARM GAS  C:\Users\Nina\AppData\Local\Temp\ccvtmqTe.s 			page 26


1349:Src/stm32f7xx_hal_msp.c ****                           |FMC_D8_Pin|FMC_D11_Pin|FMC_D4_Pin|FMC_D7_Pin 
1350:Src/stm32f7xx_hal_msp.c ****                           |FMC_D9_Pin|FMC_D12_Pin|FMC_D10_Pin;
1351:Src/stm32f7xx_hal_msp.c ****   GPIO_InitStruct.Mode = GPIO_MODE_AF_PP;
  78              		.loc 1 1351 3 is_stmt 1 view .LVU16
  79              		.loc 1 1351 24 is_stmt 0 view .LVU17
  80 002c 0227     		movs	r7, #2
  81 002e 0297     		str	r7, [sp, #8]
1352:Src/stm32f7xx_hal_msp.c ****   GPIO_InitStruct.Pull = GPIO_NOPULL;
  82              		.loc 1 1352 3 is_stmt 1 view .LVU18
  83              		.loc 1 1352 24 is_stmt 0 view .LVU19
  84 0030 0026     		movs	r6, #0
  85 0032 0396     		str	r6, [sp, #12]
1353:Src/stm32f7xx_hal_msp.c ****   GPIO_InitStruct.Speed = GPIO_SPEED_FREQ_VERY_HIGH;
  86              		.loc 1 1353 3 is_stmt 1 view .LVU20
  87              		.loc 1 1353 25 is_stmt 0 view .LVU21
  88 0034 0325     		movs	r5, #3
  89 0036 0495     		str	r5, [sp, #16]
1354:Src/stm32f7xx_hal_msp.c ****   GPIO_InitStruct.Alternate = GPIO_AF12_FMC;
  90              		.loc 1 1354 3 is_stmt 1 view .LVU22
  91              		.loc 1 1354 29 is_stmt 0 view .LVU23
  92 0038 0C24     		movs	r4, #12
  93 003a 0594     		str	r4, [sp, #20]
1355:Src/stm32f7xx_hal_msp.c ****   HAL_GPIO_Init(GPIOE, &GPIO_InitStruct);
  94              		.loc 1 1355 3 is_stmt 1 view .LVU24
  95 003c 01A9     		add	r1, sp, #4
  96 003e 1F48     		ldr	r0, .L9+8
  97 0040 FFF7FEFF 		bl	HAL_GPIO_Init
  98              	.LVL0:
1356:Src/stm32f7xx_hal_msp.c **** 
1357:Src/stm32f7xx_hal_msp.c ****   GPIO_InitStruct.Pin = FMC_SDNCAS_Pin|FMC_SDCLK_Pin|FMC_A11_Pin|FMC_A10_Pin 
  99              		.loc 1 1357 3 view .LVU25
 100              		.loc 1 1357 23 is_stmt 0 view .LVU26
 101 0044 48F23313 		movw	r3, #33075
 102 0048 0193     		str	r3, [sp, #4]
1358:Src/stm32f7xx_hal_msp.c ****                           |FMC_BA1_Pin|FMC_BA0_Pin;
1359:Src/stm32f7xx_hal_msp.c ****   GPIO_InitStruct.Mode = GPIO_MODE_AF_PP;
 103              		.loc 1 1359 3 is_stmt 1 view .LVU27
 104              		.loc 1 1359 24 is_stmt 0 view .LVU28
 105 004a 0297     		str	r7, [sp, #8]
1360:Src/stm32f7xx_hal_msp.c ****   GPIO_InitStruct.Pull = GPIO_NOPULL;
 106              		.loc 1 1360 3 is_stmt 1 view .LVU29
 107              		.loc 1 1360 24 is_stmt 0 view .LVU30
 108 004c 0396     		str	r6, [sp, #12]
1361:Src/stm32f7xx_hal_msp.c ****   GPIO_InitStruct.Speed = GPIO_SPEED_FREQ_VERY_HIGH;
 109              		.loc 1 1361 3 is_stmt 1 view .LVU31
 110              		.loc 1 1361 25 is_stmt 0 view .LVU32
 111 004e 0495     		str	r5, [sp, #16]
1362:Src/stm32f7xx_hal_msp.c ****   GPIO_InitStruct.Alternate = GPIO_AF12_FMC;
 112              		.loc 1 1362 3 is_stmt 1 view .LVU33
 113              		.loc 1 1362 29 is_stmt 0 view .LVU34
 114 0050 0594     		str	r4, [sp, #20]
1363:Src/stm32f7xx_hal_msp.c ****   HAL_GPIO_Init(GPIOG, &GPIO_InitStruct);
 115              		.loc 1 1363 3 is_stmt 1 view .LVU35
 116 0052 01A9     		add	r1, sp, #4
 117 0054 1A48     		ldr	r0, .L9+12
 118 0056 FFF7FEFF 		bl	HAL_GPIO_Init
 119              	.LVL1:
ARM GAS  C:\Users\Nina\AppData\Local\Temp\ccvtmqTe.s 			page 27


1364:Src/stm32f7xx_hal_msp.c **** 
1365:Src/stm32f7xx_hal_msp.c ****   GPIO_InitStruct.Pin = FMC_D2_Pin|FMC_D3_Pin|FMC_D1_Pin|FMC_D15_Pin 
 120              		.loc 1 1365 3 view .LVU36
 121              		.loc 1 1365 23 is_stmt 0 view .LVU37
 122 005a 4CF20373 		movw	r3, #50947
 123 005e 0193     		str	r3, [sp, #4]
1366:Src/stm32f7xx_hal_msp.c ****                           |FMC_D0_Pin|FMC_D14_Pin|FMC_D13_Pin;
1367:Src/stm32f7xx_hal_msp.c ****   GPIO_InitStruct.Mode = GPIO_MODE_AF_PP;
 124              		.loc 1 1367 3 is_stmt 1 view .LVU38
 125              		.loc 1 1367 24 is_stmt 0 view .LVU39
 126 0060 0297     		str	r7, [sp, #8]
1368:Src/stm32f7xx_hal_msp.c ****   GPIO_InitStruct.Pull = GPIO_NOPULL;
 127              		.loc 1 1368 3 is_stmt 1 view .LVU40
 128              		.loc 1 1368 24 is_stmt 0 view .LVU41
 129 0062 0396     		str	r6, [sp, #12]
1369:Src/stm32f7xx_hal_msp.c ****   GPIO_InitStruct.Speed = GPIO_SPEED_FREQ_VERY_HIGH;
 130              		.loc 1 1369 3 is_stmt 1 view .LVU42
 131              		.loc 1 1369 25 is_stmt 0 view .LVU43
 132 0064 0495     		str	r5, [sp, #16]
1370:Src/stm32f7xx_hal_msp.c ****   GPIO_InitStruct.Alternate = GPIO_AF12_FMC;
 133              		.loc 1 1370 3 is_stmt 1 view .LVU44
 134              		.loc 1 1370 29 is_stmt 0 view .LVU45
 135 0066 0594     		str	r4, [sp, #20]
1371:Src/stm32f7xx_hal_msp.c ****   HAL_GPIO_Init(GPIOD, &GPIO_InitStruct);
 136              		.loc 1 1371 3 is_stmt 1 view .LVU46
 137 0068 01A9     		add	r1, sp, #4
 138 006a 1648     		ldr	r0, .L9+16
 139 006c FFF7FEFF 		bl	HAL_GPIO_Init
 140              	.LVL2:
1372:Src/stm32f7xx_hal_msp.c **** 
1373:Src/stm32f7xx_hal_msp.c ****   GPIO_InitStruct.Pin = FMC_A0_Pin|FMC_A1_Pin|FMC_A2_Pin|FMC_A3_Pin 
 141              		.loc 1 1373 3 view .LVU47
 142              		.loc 1 1373 23 is_stmt 0 view .LVU48
 143 0070 4FF63F03 		movw	r3, #63551
 144 0074 0193     		str	r3, [sp, #4]
1374:Src/stm32f7xx_hal_msp.c ****                           |FMC_A4_Pin|FMC_A5_Pin|FMC_A6_Pin|FMC_A9_Pin 
1375:Src/stm32f7xx_hal_msp.c ****                           |FMC_A7_Pin|FMC_A8_Pin|FMC_SDNRAS_Pin;
1376:Src/stm32f7xx_hal_msp.c ****   GPIO_InitStruct.Mode = GPIO_MODE_AF_PP;
 145              		.loc 1 1376 3 is_stmt 1 view .LVU49
 146              		.loc 1 1376 24 is_stmt 0 view .LVU50
 147 0076 0297     		str	r7, [sp, #8]
1377:Src/stm32f7xx_hal_msp.c ****   GPIO_InitStruct.Pull = GPIO_NOPULL;
 148              		.loc 1 1377 3 is_stmt 1 view .LVU51
 149              		.loc 1 1377 24 is_stmt 0 view .LVU52
 150 0078 0396     		str	r6, [sp, #12]
1378:Src/stm32f7xx_hal_msp.c ****   GPIO_InitStruct.Speed = GPIO_SPEED_FREQ_VERY_HIGH;
 151              		.loc 1 1378 3 is_stmt 1 view .LVU53
 152              		.loc 1 1378 25 is_stmt 0 view .LVU54
 153 007a 0495     		str	r5, [sp, #16]
1379:Src/stm32f7xx_hal_msp.c ****   GPIO_InitStruct.Alternate = GPIO_AF12_FMC;
 154              		.loc 1 1379 3 is_stmt 1 view .LVU55
 155              		.loc 1 1379 29 is_stmt 0 view .LVU56
 156 007c 0594     		str	r4, [sp, #20]
1380:Src/stm32f7xx_hal_msp.c ****   HAL_GPIO_Init(GPIOF, &GPIO_InitStruct);
 157              		.loc 1 1380 3 is_stmt 1 view .LVU57
 158 007e 01A9     		add	r1, sp, #4
 159 0080 1148     		ldr	r0, .L9+20
ARM GAS  C:\Users\Nina\AppData\Local\Temp\ccvtmqTe.s 			page 28


 160 0082 FFF7FEFF 		bl	HAL_GPIO_Init
 161              	.LVL3:
1381:Src/stm32f7xx_hal_msp.c **** 
1382:Src/stm32f7xx_hal_msp.c ****   GPIO_InitStruct.Pin = FMC_SDNME_Pin|FMC_SDNE0_Pin;
 162              		.loc 1 1382 3 view .LVU58
 163              		.loc 1 1382 23 is_stmt 0 view .LVU59
 164 0086 2823     		movs	r3, #40
 165 0088 0193     		str	r3, [sp, #4]
1383:Src/stm32f7xx_hal_msp.c ****   GPIO_InitStruct.Mode = GPIO_MODE_AF_PP;
 166              		.loc 1 1383 3 is_stmt 1 view .LVU60
 167              		.loc 1 1383 24 is_stmt 0 view .LVU61
 168 008a 0297     		str	r7, [sp, #8]
1384:Src/stm32f7xx_hal_msp.c ****   GPIO_InitStruct.Pull = GPIO_NOPULL;
 169              		.loc 1 1384 3 is_stmt 1 view .LVU62
 170              		.loc 1 1384 24 is_stmt 0 view .LVU63
 171 008c 0396     		str	r6, [sp, #12]
1385:Src/stm32f7xx_hal_msp.c ****   GPIO_InitStruct.Speed = GPIO_SPEED_FREQ_VERY_HIGH;
 172              		.loc 1 1385 3 is_stmt 1 view .LVU64
 173              		.loc 1 1385 25 is_stmt 0 view .LVU65
 174 008e 0495     		str	r5, [sp, #16]
1386:Src/stm32f7xx_hal_msp.c ****   GPIO_InitStruct.Alternate = GPIO_AF12_FMC;
 175              		.loc 1 1386 3 is_stmt 1 view .LVU66
 176              		.loc 1 1386 29 is_stmt 0 view .LVU67
 177 0090 0594     		str	r4, [sp, #20]
1387:Src/stm32f7xx_hal_msp.c ****   HAL_GPIO_Init(GPIOH, &GPIO_InitStruct);
 178              		.loc 1 1387 3 is_stmt 1 view .LVU68
 179 0092 01A9     		add	r1, sp, #4
 180 0094 0D48     		ldr	r0, .L9+24
 181 0096 FFF7FEFF 		bl	HAL_GPIO_Init
 182              	.LVL4:
1388:Src/stm32f7xx_hal_msp.c **** 
1389:Src/stm32f7xx_hal_msp.c ****   GPIO_InitStruct.Pin = FMC_SDCKE0_Pin;
 183              		.loc 1 1389 3 view .LVU69
 184              		.loc 1 1389 23 is_stmt 0 view .LVU70
 185 009a 0823     		movs	r3, #8
 186 009c 0193     		str	r3, [sp, #4]
1390:Src/stm32f7xx_hal_msp.c ****   GPIO_InitStruct.Mode = GPIO_MODE_AF_PP;
 187              		.loc 1 1390 3 is_stmt 1 view .LVU71
 188              		.loc 1 1390 24 is_stmt 0 view .LVU72
 189 009e 0297     		str	r7, [sp, #8]
1391:Src/stm32f7xx_hal_msp.c ****   GPIO_InitStruct.Pull = GPIO_NOPULL;
 190              		.loc 1 1391 3 is_stmt 1 view .LVU73
 191              		.loc 1 1391 24 is_stmt 0 view .LVU74
 192 00a0 0396     		str	r6, [sp, #12]
1392:Src/stm32f7xx_hal_msp.c ****   GPIO_InitStruct.Speed = GPIO_SPEED_FREQ_VERY_HIGH;
 193              		.loc 1 1392 3 is_stmt 1 view .LVU75
 194              		.loc 1 1392 25 is_stmt 0 view .LVU76
 195 00a2 0495     		str	r5, [sp, #16]
1393:Src/stm32f7xx_hal_msp.c ****   GPIO_InitStruct.Alternate = GPIO_AF12_FMC;
 196              		.loc 1 1393 3 is_stmt 1 view .LVU77
 197              		.loc 1 1393 29 is_stmt 0 view .LVU78
 198 00a4 0594     		str	r4, [sp, #20]
1394:Src/stm32f7xx_hal_msp.c ****   HAL_GPIO_Init(FMC_SDCKE0_GPIO_Port, &GPIO_InitStruct);
 199              		.loc 1 1394 3 is_stmt 1 view .LVU79
 200 00a6 01A9     		add	r1, sp, #4
 201 00a8 0948     		ldr	r0, .L9+28
 202 00aa FFF7FEFF 		bl	HAL_GPIO_Init
ARM GAS  C:\Users\Nina\AppData\Local\Temp\ccvtmqTe.s 			page 29


 203              	.LVL5:
1395:Src/stm32f7xx_hal_msp.c **** 
1396:Src/stm32f7xx_hal_msp.c ****   /* USER CODE BEGIN FMC_MspInit 1 */
1397:Src/stm32f7xx_hal_msp.c **** 
1398:Src/stm32f7xx_hal_msp.c ****   /* USER CODE END FMC_MspInit 1 */
1399:Src/stm32f7xx_hal_msp.c **** }
 204              		.loc 1 1399 1 is_stmt 0 view .LVU80
 205 00ae 07B0     		add	sp, sp, #28
 206              	.LCFI2:
 207              		.cfi_def_cfa_offset 20
 208              		@ sp needed
 209 00b0 F0BD     		pop	{r4, r5, r6, r7, pc}
 210              	.L10:
 211 00b2 00BF     		.align	2
 212              	.L9:
 213 00b4 00000000 		.word	.LANCHOR0
 214 00b8 00380240 		.word	1073887232
 215 00bc 00100240 		.word	1073876992
 216 00c0 00180240 		.word	1073879040
 217 00c4 000C0240 		.word	1073875968
 218 00c8 00140240 		.word	1073878016
 219 00cc 001C0240 		.word	1073880064
 220 00d0 00080240 		.word	1073874944
 221              		.cfi_endproc
 222              	.LFE168:
 224              		.section	.text.HAL_FMC_MspDeInit,"ax",%progbits
 225              		.align	1
 226              		.syntax unified
 227              		.thumb
 228              		.thumb_func
 229              		.fpu fpv5-sp-d16
 231              	HAL_FMC_MspDeInit:
 232              	.LFB170:
1400:Src/stm32f7xx_hal_msp.c **** 
1401:Src/stm32f7xx_hal_msp.c **** void HAL_SDRAM_MspInit(SDRAM_HandleTypeDef* hsdram){
1402:Src/stm32f7xx_hal_msp.c ****   /* USER CODE BEGIN SDRAM_MspInit 0 */
1403:Src/stm32f7xx_hal_msp.c **** 
1404:Src/stm32f7xx_hal_msp.c ****   /* USER CODE END SDRAM_MspInit 0 */
1405:Src/stm32f7xx_hal_msp.c ****   HAL_FMC_MspInit();
1406:Src/stm32f7xx_hal_msp.c ****   /* USER CODE BEGIN SDRAM_MspInit 1 */
1407:Src/stm32f7xx_hal_msp.c **** 
1408:Src/stm32f7xx_hal_msp.c ****   /* USER CODE END SDRAM_MspInit 1 */
1409:Src/stm32f7xx_hal_msp.c **** }
1410:Src/stm32f7xx_hal_msp.c **** 
1411:Src/stm32f7xx_hal_msp.c **** static uint32_t FMC_DeInitialized = 0;
1412:Src/stm32f7xx_hal_msp.c **** 
1413:Src/stm32f7xx_hal_msp.c **** static void HAL_FMC_MspDeInit(void){
 233              		.loc 1 1413 36 is_stmt 1 view -0
 234              		.cfi_startproc
 235              		@ args = 0, pretend = 0, frame = 0
 236              		@ frame_needed = 0, uses_anonymous_args = 0
 237 0000 08B5     		push	{r3, lr}
 238              	.LCFI3:
 239              		.cfi_def_cfa_offset 8
 240              		.cfi_offset 3, -8
 241              		.cfi_offset 14, -4
1414:Src/stm32f7xx_hal_msp.c ****   /* USER CODE BEGIN FMC_MspDeInit 0 */
ARM GAS  C:\Users\Nina\AppData\Local\Temp\ccvtmqTe.s 			page 30


1415:Src/stm32f7xx_hal_msp.c **** 
1416:Src/stm32f7xx_hal_msp.c ****   /* USER CODE END FMC_MspDeInit 0 */
1417:Src/stm32f7xx_hal_msp.c ****   if (FMC_DeInitialized) {
 242              		.loc 1 1417 3 view .LVU82
 243              		.loc 1 1417 7 is_stmt 0 view .LVU83
 244 0002 144B     		ldr	r3, .L15
 245 0004 1B68     		ldr	r3, [r3]
 246              		.loc 1 1417 6 view .LVU84
 247 0006 03B1     		cbz	r3, .L14
 248              	.L11:
1418:Src/stm32f7xx_hal_msp.c ****     return;
1419:Src/stm32f7xx_hal_msp.c ****   }
1420:Src/stm32f7xx_hal_msp.c ****   FMC_DeInitialized = 1;
1421:Src/stm32f7xx_hal_msp.c ****   /* Peripheral clock enable */
1422:Src/stm32f7xx_hal_msp.c ****   __HAL_RCC_FMC_CLK_DISABLE();
1423:Src/stm32f7xx_hal_msp.c ****   
1424:Src/stm32f7xx_hal_msp.c ****   /** FMC GPIO Configuration  
1425:Src/stm32f7xx_hal_msp.c ****   PE1   ------> FMC_NBL1
1426:Src/stm32f7xx_hal_msp.c ****   PE0   ------> FMC_NBL0
1427:Src/stm32f7xx_hal_msp.c ****   PG15   ------> FMC_SDNCAS
1428:Src/stm32f7xx_hal_msp.c ****   PD0   ------> FMC_D2
1429:Src/stm32f7xx_hal_msp.c ****   PD1   ------> FMC_D3
1430:Src/stm32f7xx_hal_msp.c ****   PF0   ------> FMC_A0
1431:Src/stm32f7xx_hal_msp.c ****   PF1   ------> FMC_A1
1432:Src/stm32f7xx_hal_msp.c ****   PF2   ------> FMC_A2
1433:Src/stm32f7xx_hal_msp.c ****   PF3   ------> FMC_A3
1434:Src/stm32f7xx_hal_msp.c ****   PG8   ------> FMC_SDCLK
1435:Src/stm32f7xx_hal_msp.c ****   PF4   ------> FMC_A4
1436:Src/stm32f7xx_hal_msp.c ****   PH5   ------> FMC_SDNWE
1437:Src/stm32f7xx_hal_msp.c ****   PH3   ------> FMC_SDNE0
1438:Src/stm32f7xx_hal_msp.c ****   PF5   ------> FMC_A5
1439:Src/stm32f7xx_hal_msp.c ****   PD15   ------> FMC_D1
1440:Src/stm32f7xx_hal_msp.c ****   PD10   ------> FMC_D15
1441:Src/stm32f7xx_hal_msp.c ****   PC3   ------> FMC_SDCKE0
1442:Src/stm32f7xx_hal_msp.c ****   PD14   ------> FMC_D0
1443:Src/stm32f7xx_hal_msp.c ****   PD9   ------> FMC_D14
1444:Src/stm32f7xx_hal_msp.c ****   PD8   ------> FMC_D13
1445:Src/stm32f7xx_hal_msp.c ****   PF12   ------> FMC_A6
1446:Src/stm32f7xx_hal_msp.c ****   PG1   ------> FMC_A11
1447:Src/stm32f7xx_hal_msp.c ****   PF15   ------> FMC_A9
1448:Src/stm32f7xx_hal_msp.c ****   PF13   ------> FMC_A7
1449:Src/stm32f7xx_hal_msp.c ****   PG0   ------> FMC_A10
1450:Src/stm32f7xx_hal_msp.c ****   PE8   ------> FMC_D5
1451:Src/stm32f7xx_hal_msp.c ****   PG5   ------> FMC_BA1
1452:Src/stm32f7xx_hal_msp.c ****   PG4   ------> FMC_BA0
1453:Src/stm32f7xx_hal_msp.c ****   PF14   ------> FMC_A8
1454:Src/stm32f7xx_hal_msp.c ****   PF11   ------> FMC_SDNRAS
1455:Src/stm32f7xx_hal_msp.c ****   PE9   ------> FMC_D6
1456:Src/stm32f7xx_hal_msp.c ****   PE11   ------> FMC_D8
1457:Src/stm32f7xx_hal_msp.c ****   PE14   ------> FMC_D11
1458:Src/stm32f7xx_hal_msp.c ****   PE7   ------> FMC_D4
1459:Src/stm32f7xx_hal_msp.c ****   PE10   ------> FMC_D7
1460:Src/stm32f7xx_hal_msp.c ****   PE12   ------> FMC_D9
1461:Src/stm32f7xx_hal_msp.c ****   PE15   ------> FMC_D12
1462:Src/stm32f7xx_hal_msp.c ****   PE13   ------> FMC_D10
1463:Src/stm32f7xx_hal_msp.c ****   */
1464:Src/stm32f7xx_hal_msp.c ****   HAL_GPIO_DeInit(GPIOE, FMC_NBL1_Pin|FMC_NBL0_Pin|FMC_D5_Pin|FMC_D6_Pin 
ARM GAS  C:\Users\Nina\AppData\Local\Temp\ccvtmqTe.s 			page 31


1465:Src/stm32f7xx_hal_msp.c ****                           |FMC_D8_Pin|FMC_D11_Pin|FMC_D4_Pin|FMC_D7_Pin 
1466:Src/stm32f7xx_hal_msp.c ****                           |FMC_D9_Pin|FMC_D12_Pin|FMC_D10_Pin);
1467:Src/stm32f7xx_hal_msp.c **** 
1468:Src/stm32f7xx_hal_msp.c ****   HAL_GPIO_DeInit(GPIOG, FMC_SDNCAS_Pin|FMC_SDCLK_Pin|FMC_A11_Pin|FMC_A10_Pin 
1469:Src/stm32f7xx_hal_msp.c ****                           |FMC_BA1_Pin|FMC_BA0_Pin);
1470:Src/stm32f7xx_hal_msp.c **** 
1471:Src/stm32f7xx_hal_msp.c ****   HAL_GPIO_DeInit(GPIOD, FMC_D2_Pin|FMC_D3_Pin|FMC_D1_Pin|FMC_D15_Pin 
1472:Src/stm32f7xx_hal_msp.c ****                           |FMC_D0_Pin|FMC_D14_Pin|FMC_D13_Pin);
1473:Src/stm32f7xx_hal_msp.c **** 
1474:Src/stm32f7xx_hal_msp.c ****   HAL_GPIO_DeInit(GPIOF, FMC_A0_Pin|FMC_A1_Pin|FMC_A2_Pin|FMC_A3_Pin 
1475:Src/stm32f7xx_hal_msp.c ****                           |FMC_A4_Pin|FMC_A5_Pin|FMC_A6_Pin|FMC_A9_Pin 
1476:Src/stm32f7xx_hal_msp.c ****                           |FMC_A7_Pin|FMC_A8_Pin|FMC_SDNRAS_Pin);
1477:Src/stm32f7xx_hal_msp.c **** 
1478:Src/stm32f7xx_hal_msp.c ****   HAL_GPIO_DeInit(GPIOH, FMC_SDNME_Pin|FMC_SDNE0_Pin);
1479:Src/stm32f7xx_hal_msp.c **** 
1480:Src/stm32f7xx_hal_msp.c ****   HAL_GPIO_DeInit(FMC_SDCKE0_GPIO_Port, FMC_SDCKE0_Pin);
1481:Src/stm32f7xx_hal_msp.c **** 
1482:Src/stm32f7xx_hal_msp.c ****   /* USER CODE BEGIN FMC_MspDeInit 1 */
1483:Src/stm32f7xx_hal_msp.c **** 
1484:Src/stm32f7xx_hal_msp.c ****   /* USER CODE END FMC_MspDeInit 1 */
1485:Src/stm32f7xx_hal_msp.c **** }
 249              		.loc 1 1485 1 view .LVU85
 250 0008 08BD     		pop	{r3, pc}
 251              	.L14:
1420:Src/stm32f7xx_hal_msp.c ****   /* Peripheral clock enable */
 252              		.loc 1 1420 3 is_stmt 1 view .LVU86
1420:Src/stm32f7xx_hal_msp.c ****   /* Peripheral clock enable */
 253              		.loc 1 1420 21 is_stmt 0 view .LVU87
 254 000a 124B     		ldr	r3, .L15
 255 000c 0122     		movs	r2, #1
 256 000e 1A60     		str	r2, [r3]
1422:Src/stm32f7xx_hal_msp.c ****   
 257              		.loc 1 1422 3 is_stmt 1 view .LVU88
 258 0010 114A     		ldr	r2, .L15+4
 259 0012 936B     		ldr	r3, [r2, #56]
 260 0014 23F00103 		bic	r3, r3, #1
 261 0018 9363     		str	r3, [r2, #56]
1464:Src/stm32f7xx_hal_msp.c ****                           |FMC_D8_Pin|FMC_D11_Pin|FMC_D4_Pin|FMC_D7_Pin 
 262              		.loc 1 1464 3 view .LVU89
 263 001a 4FF68371 		movw	r1, #65411
 264 001e 0F48     		ldr	r0, .L15+8
 265 0020 FFF7FEFF 		bl	HAL_GPIO_DeInit
 266              	.LVL6:
1468:Src/stm32f7xx_hal_msp.c ****                           |FMC_BA1_Pin|FMC_BA0_Pin);
 267              		.loc 1 1468 3 view .LVU90
 268 0024 48F23311 		movw	r1, #33075
 269 0028 0D48     		ldr	r0, .L15+12
 270 002a FFF7FEFF 		bl	HAL_GPIO_DeInit
 271              	.LVL7:
1471:Src/stm32f7xx_hal_msp.c ****                           |FMC_D0_Pin|FMC_D14_Pin|FMC_D13_Pin);
 272              		.loc 1 1471 3 view .LVU91
 273 002e 4CF20371 		movw	r1, #50947
 274 0032 0C48     		ldr	r0, .L15+16
 275 0034 FFF7FEFF 		bl	HAL_GPIO_DeInit
 276              	.LVL8:
1474:Src/stm32f7xx_hal_msp.c ****                           |FMC_A4_Pin|FMC_A5_Pin|FMC_A6_Pin|FMC_A9_Pin 
 277              		.loc 1 1474 3 view .LVU92
ARM GAS  C:\Users\Nina\AppData\Local\Temp\ccvtmqTe.s 			page 32


 278 0038 4FF63F01 		movw	r1, #63551
 279 003c 0A48     		ldr	r0, .L15+20
 280 003e FFF7FEFF 		bl	HAL_GPIO_DeInit
 281              	.LVL9:
1478:Src/stm32f7xx_hal_msp.c **** 
 282              		.loc 1 1478 3 view .LVU93
 283 0042 2821     		movs	r1, #40
 284 0044 0948     		ldr	r0, .L15+24
 285 0046 FFF7FEFF 		bl	HAL_GPIO_DeInit
 286              	.LVL10:
1480:Src/stm32f7xx_hal_msp.c **** 
 287              		.loc 1 1480 3 view .LVU94
 288 004a 0821     		movs	r1, #8
 289 004c 0848     		ldr	r0, .L15+28
 290 004e FFF7FEFF 		bl	HAL_GPIO_DeInit
 291              	.LVL11:
 292 0052 D9E7     		b	.L11
 293              	.L16:
 294              		.align	2
 295              	.L15:
 296 0054 00000000 		.word	.LANCHOR1
 297 0058 00380240 		.word	1073887232
 298 005c 00100240 		.word	1073876992
 299 0060 00180240 		.word	1073879040
 300 0064 000C0240 		.word	1073875968
 301 0068 00140240 		.word	1073878016
 302 006c 001C0240 		.word	1073880064
 303 0070 00080240 		.word	1073874944
 304              		.cfi_endproc
 305              	.LFE170:
 307              		.section	.text.HAL_MspInit,"ax",%progbits
 308              		.align	1
 309              		.global	HAL_MspInit
 310              		.syntax unified
 311              		.thumb
 312              		.thumb_func
 313              		.fpu fpv5-sp-d16
 315              	HAL_MspInit:
 316              	.LFB138:
  61:Src/stm32f7xx_hal_msp.c ****   /* USER CODE BEGIN MspInit 0 */
 317              		.loc 1 61 1 view -0
 318              		.cfi_startproc
 319              		@ args = 0, pretend = 0, frame = 8
 320              		@ frame_needed = 0, uses_anonymous_args = 0
 321 0000 00B5     		push	{lr}
 322              	.LCFI4:
 323              		.cfi_def_cfa_offset 4
 324              		.cfi_offset 14, -4
 325 0002 83B0     		sub	sp, sp, #12
 326              	.LCFI5:
 327              		.cfi_def_cfa_offset 16
  66:Src/stm32f7xx_hal_msp.c ****   __HAL_RCC_SYSCFG_CLK_ENABLE();
 328              		.loc 1 66 3 view .LVU96
 329              	.LBB3:
  66:Src/stm32f7xx_hal_msp.c ****   __HAL_RCC_SYSCFG_CLK_ENABLE();
 330              		.loc 1 66 3 view .LVU97
  66:Src/stm32f7xx_hal_msp.c ****   __HAL_RCC_SYSCFG_CLK_ENABLE();
ARM GAS  C:\Users\Nina\AppData\Local\Temp\ccvtmqTe.s 			page 33


 331              		.loc 1 66 3 view .LVU98
 332 0004 214B     		ldr	r3, .L19
 333 0006 1A6C     		ldr	r2, [r3, #64]
 334 0008 42F08052 		orr	r2, r2, #268435456
 335 000c 1A64     		str	r2, [r3, #64]
  66:Src/stm32f7xx_hal_msp.c ****   __HAL_RCC_SYSCFG_CLK_ENABLE();
 336              		.loc 1 66 3 view .LVU99
 337 000e 1A6C     		ldr	r2, [r3, #64]
 338 0010 02F08052 		and	r2, r2, #268435456
 339 0014 0092     		str	r2, [sp]
  66:Src/stm32f7xx_hal_msp.c ****   __HAL_RCC_SYSCFG_CLK_ENABLE();
 340              		.loc 1 66 3 view .LVU100
 341 0016 009A     		ldr	r2, [sp]
 342              	.LBE3:
  66:Src/stm32f7xx_hal_msp.c ****   __HAL_RCC_SYSCFG_CLK_ENABLE();
 343              		.loc 1 66 3 view .LVU101
  67:Src/stm32f7xx_hal_msp.c **** 
 344              		.loc 1 67 3 view .LVU102
 345              	.LBB4:
  67:Src/stm32f7xx_hal_msp.c **** 
 346              		.loc 1 67 3 view .LVU103
  67:Src/stm32f7xx_hal_msp.c **** 
 347              		.loc 1 67 3 view .LVU104
 348 0018 5A6C     		ldr	r2, [r3, #68]
 349 001a 42F48042 		orr	r2, r2, #16384
 350 001e 5A64     		str	r2, [r3, #68]
  67:Src/stm32f7xx_hal_msp.c **** 
 351              		.loc 1 67 3 view .LVU105
 352 0020 5B6C     		ldr	r3, [r3, #68]
 353 0022 03F48043 		and	r3, r3, #16384
 354 0026 0193     		str	r3, [sp, #4]
  67:Src/stm32f7xx_hal_msp.c **** 
 355              		.loc 1 67 3 view .LVU106
 356 0028 019B     		ldr	r3, [sp, #4]
 357              	.LBE4:
  67:Src/stm32f7xx_hal_msp.c **** 
 358              		.loc 1 67 3 view .LVU107
  69:Src/stm32f7xx_hal_msp.c **** 
 359              		.loc 1 69 3 view .LVU108
 360 002a 0320     		movs	r0, #3
 361 002c FFF7FEFF 		bl	HAL_NVIC_SetPriorityGrouping
 362              	.LVL12:
  73:Src/stm32f7xx_hal_msp.c ****   /* BusFault_IRQn interrupt configuration */
 363              		.loc 1 73 3 view .LVU109
 364 0030 0022     		movs	r2, #0
 365 0032 1146     		mov	r1, r2
 366 0034 6FF00B00 		mvn	r0, #11
 367 0038 FFF7FEFF 		bl	HAL_NVIC_SetPriority
 368              	.LVL13:
  75:Src/stm32f7xx_hal_msp.c ****   /* UsageFault_IRQn interrupt configuration */
 369              		.loc 1 75 3 view .LVU110
 370 003c 0022     		movs	r2, #0
 371 003e 1146     		mov	r1, r2
 372 0040 6FF00A00 		mvn	r0, #10
 373 0044 FFF7FEFF 		bl	HAL_NVIC_SetPriority
 374              	.LVL14:
  77:Src/stm32f7xx_hal_msp.c ****   /* SVCall_IRQn interrupt configuration */
ARM GAS  C:\Users\Nina\AppData\Local\Temp\ccvtmqTe.s 			page 34


 375              		.loc 1 77 3 view .LVU111
 376 0048 0022     		movs	r2, #0
 377 004a 1146     		mov	r1, r2
 378 004c 6FF00900 		mvn	r0, #9
 379 0050 FFF7FEFF 		bl	HAL_NVIC_SetPriority
 380              	.LVL15:
  79:Src/stm32f7xx_hal_msp.c ****   /* DebugMonitor_IRQn interrupt configuration */
 381              		.loc 1 79 3 view .LVU112
 382 0054 0022     		movs	r2, #0
 383 0056 1146     		mov	r1, r2
 384 0058 6FF00400 		mvn	r0, #4
 385 005c FFF7FEFF 		bl	HAL_NVIC_SetPriority
 386              	.LVL16:
  81:Src/stm32f7xx_hal_msp.c ****   /* PendSV_IRQn interrupt configuration */
 387              		.loc 1 81 3 view .LVU113
 388 0060 0022     		movs	r2, #0
 389 0062 1146     		mov	r1, r2
 390 0064 6FF00300 		mvn	r0, #3
 391 0068 FFF7FEFF 		bl	HAL_NVIC_SetPriority
 392              	.LVL17:
  83:Src/stm32f7xx_hal_msp.c ****   /* SysTick_IRQn interrupt configuration */
 393              		.loc 1 83 3 view .LVU114
 394 006c 0022     		movs	r2, #0
 395 006e 0F21     		movs	r1, #15
 396 0070 6FF00100 		mvn	r0, #1
 397 0074 FFF7FEFF 		bl	HAL_NVIC_SetPriority
 398              	.LVL18:
  85:Src/stm32f7xx_hal_msp.c **** 
 399              		.loc 1 85 3 view .LVU115
 400 0078 0022     		movs	r2, #0
 401 007a 0F21     		movs	r1, #15
 402 007c 4FF0FF30 		mov	r0, #-1
 403 0080 FFF7FEFF 		bl	HAL_NVIC_SetPriority
 404              	.LVL19:
  90:Src/stm32f7xx_hal_msp.c **** 
 405              		.loc 1 90 1 is_stmt 0 view .LVU116
 406 0084 03B0     		add	sp, sp, #12
 407              	.LCFI6:
 408              		.cfi_def_cfa_offset 4
 409              		@ sp needed
 410 0086 5DF804FB 		ldr	pc, [sp], #4
 411              	.L20:
 412 008a 00BF     		.align	2
 413              	.L19:
 414 008c 00380240 		.word	1073887232
 415              		.cfi_endproc
 416              	.LFE138:
 418              		.section	.text.HAL_ADC_MspInit,"ax",%progbits
 419              		.align	1
 420              		.global	HAL_ADC_MspInit
 421              		.syntax unified
 422              		.thumb
 423              		.thumb_func
 424              		.fpu fpv5-sp-d16
 426              	HAL_ADC_MspInit:
 427              	.LVL20:
 428              	.LFB139:
ARM GAS  C:\Users\Nina\AppData\Local\Temp\ccvtmqTe.s 			page 35


  93:Src/stm32f7xx_hal_msp.c **** 
 429              		.loc 1 93 1 is_stmt 1 view -0
 430              		.cfi_startproc
 431              		@ args = 0, pretend = 0, frame = 24
 432              		@ frame_needed = 0, uses_anonymous_args = 0
  95:Src/stm32f7xx_hal_msp.c ****   if(hadc->Instance==ADC3)
 433              		.loc 1 95 3 view .LVU118
  96:Src/stm32f7xx_hal_msp.c ****   {
 434              		.loc 1 96 3 view .LVU119
  96:Src/stm32f7xx_hal_msp.c ****   {
 435              		.loc 1 96 10 is_stmt 0 view .LVU120
 436 0000 0268     		ldr	r2, [r0]
  96:Src/stm32f7xx_hal_msp.c ****   {
 437              		.loc 1 96 5 view .LVU121
 438 0002 134B     		ldr	r3, .L28
 439 0004 9A42     		cmp	r2, r3
 440 0006 00D0     		beq	.L27
 441 0008 7047     		bx	lr
 442              	.L27:
  93:Src/stm32f7xx_hal_msp.c **** 
 443              		.loc 1 93 1 view .LVU122
 444 000a 30B5     		push	{r4, r5, lr}
 445              	.LCFI7:
 446              		.cfi_def_cfa_offset 12
 447              		.cfi_offset 4, -12
 448              		.cfi_offset 5, -8
 449              		.cfi_offset 14, -4
 450 000c 87B0     		sub	sp, sp, #28
 451              	.LCFI8:
 452              		.cfi_def_cfa_offset 40
 102:Src/stm32f7xx_hal_msp.c ****   
 453              		.loc 1 102 5 is_stmt 1 view .LVU123
 454              	.LBB5:
 102:Src/stm32f7xx_hal_msp.c ****   
 455              		.loc 1 102 5 view .LVU124
 102:Src/stm32f7xx_hal_msp.c ****   
 456              		.loc 1 102 5 view .LVU125
 457 000e 03F58B33 		add	r3, r3, #71168
 458 0012 5A6C     		ldr	r2, [r3, #68]
 459 0014 42F48062 		orr	r2, r2, #1024
 460 0018 5A64     		str	r2, [r3, #68]
 102:Src/stm32f7xx_hal_msp.c ****   
 461              		.loc 1 102 5 view .LVU126
 462 001a 5B6C     		ldr	r3, [r3, #68]
 463 001c 03F48063 		and	r3, r3, #1024
 464 0020 0093     		str	r3, [sp]
 102:Src/stm32f7xx_hal_msp.c ****   
 465              		.loc 1 102 5 view .LVU127
 466 0022 009B     		ldr	r3, [sp]
 467              	.LBE5:
 102:Src/stm32f7xx_hal_msp.c ****   
 468              		.loc 1 102 5 view .LVU128
 112:Src/stm32f7xx_hal_msp.c ****                           |ARDUINO_A3_Pin;
 469              		.loc 1 112 5 view .LVU129
 112:Src/stm32f7xx_hal_msp.c ****                           |ARDUINO_A3_Pin;
 470              		.loc 1 112 25 is_stmt 0 view .LVU130
 471 0024 4FF4F863 		mov	r3, #1984
ARM GAS  C:\Users\Nina\AppData\Local\Temp\ccvtmqTe.s 			page 36


 472 0028 0193     		str	r3, [sp, #4]
 114:Src/stm32f7xx_hal_msp.c ****     GPIO_InitStruct.Pull = GPIO_NOPULL;
 473              		.loc 1 114 5 is_stmt 1 view .LVU131
 114:Src/stm32f7xx_hal_msp.c ****     GPIO_InitStruct.Pull = GPIO_NOPULL;
 474              		.loc 1 114 26 is_stmt 0 view .LVU132
 475 002a 0325     		movs	r5, #3
 476 002c 0295     		str	r5, [sp, #8]
 115:Src/stm32f7xx_hal_msp.c ****     HAL_GPIO_Init(GPIOF, &GPIO_InitStruct);
 477              		.loc 1 115 5 is_stmt 1 view .LVU133
 115:Src/stm32f7xx_hal_msp.c ****     HAL_GPIO_Init(GPIOF, &GPIO_InitStruct);
 478              		.loc 1 115 26 is_stmt 0 view .LVU134
 479 002e 0024     		movs	r4, #0
 480 0030 0394     		str	r4, [sp, #12]
 116:Src/stm32f7xx_hal_msp.c **** 
 481              		.loc 1 116 5 is_stmt 1 view .LVU135
 482 0032 01A9     		add	r1, sp, #4
 483 0034 0748     		ldr	r0, .L28+4
 484              	.LVL21:
 116:Src/stm32f7xx_hal_msp.c **** 
 485              		.loc 1 116 5 is_stmt 0 view .LVU136
 486 0036 FFF7FEFF 		bl	HAL_GPIO_Init
 487              	.LVL22:
 118:Src/stm32f7xx_hal_msp.c ****     GPIO_InitStruct.Mode = GPIO_MODE_ANALOG;
 488              		.loc 1 118 5 is_stmt 1 view .LVU137
 118:Src/stm32f7xx_hal_msp.c ****     GPIO_InitStruct.Mode = GPIO_MODE_ANALOG;
 489              		.loc 1 118 25 is_stmt 0 view .LVU138
 490 003a 0123     		movs	r3, #1
 491 003c 0193     		str	r3, [sp, #4]
 119:Src/stm32f7xx_hal_msp.c ****     GPIO_InitStruct.Pull = GPIO_NOPULL;
 492              		.loc 1 119 5 is_stmt 1 view .LVU139
 119:Src/stm32f7xx_hal_msp.c ****     GPIO_InitStruct.Pull = GPIO_NOPULL;
 493              		.loc 1 119 26 is_stmt 0 view .LVU140
 494 003e 0295     		str	r5, [sp, #8]
 120:Src/stm32f7xx_hal_msp.c ****     HAL_GPIO_Init(ARDUINO_A0_GPIO_Port, &GPIO_InitStruct);
 495              		.loc 1 120 5 is_stmt 1 view .LVU141
 120:Src/stm32f7xx_hal_msp.c ****     HAL_GPIO_Init(ARDUINO_A0_GPIO_Port, &GPIO_InitStruct);
 496              		.loc 1 120 26 is_stmt 0 view .LVU142
 497 0040 0394     		str	r4, [sp, #12]
 121:Src/stm32f7xx_hal_msp.c **** 
 498              		.loc 1 121 5 is_stmt 1 view .LVU143
 499 0042 01A9     		add	r1, sp, #4
 500 0044 0448     		ldr	r0, .L28+8
 501 0046 FFF7FEFF 		bl	HAL_GPIO_Init
 502              	.LVL23:
 128:Src/stm32f7xx_hal_msp.c **** 
 503              		.loc 1 128 1 is_stmt 0 view .LVU144
 504 004a 07B0     		add	sp, sp, #28
 505              	.LCFI9:
 506              		.cfi_def_cfa_offset 12
 507              		@ sp needed
 508 004c 30BD     		pop	{r4, r5, pc}
 509              	.L29:
 510 004e 00BF     		.align	2
 511              	.L28:
 512 0050 00220140 		.word	1073816064
 513 0054 00140240 		.word	1073878016
 514 0058 00000240 		.word	1073872896
ARM GAS  C:\Users\Nina\AppData\Local\Temp\ccvtmqTe.s 			page 37


 515              		.cfi_endproc
 516              	.LFE139:
 518              		.section	.text.HAL_ADC_MspDeInit,"ax",%progbits
 519              		.align	1
 520              		.global	HAL_ADC_MspDeInit
 521              		.syntax unified
 522              		.thumb
 523              		.thumb_func
 524              		.fpu fpv5-sp-d16
 526              	HAL_ADC_MspDeInit:
 527              	.LVL24:
 528              	.LFB140:
 131:Src/stm32f7xx_hal_msp.c **** 
 529              		.loc 1 131 1 is_stmt 1 view -0
 530              		.cfi_startproc
 531              		@ args = 0, pretend = 0, frame = 0
 532              		@ frame_needed = 0, uses_anonymous_args = 0
 131:Src/stm32f7xx_hal_msp.c **** 
 533              		.loc 1 131 1 is_stmt 0 view .LVU146
 534 0000 08B5     		push	{r3, lr}
 535              	.LCFI10:
 536              		.cfi_def_cfa_offset 8
 537              		.cfi_offset 3, -8
 538              		.cfi_offset 14, -4
 133:Src/stm32f7xx_hal_msp.c ****   {
 539              		.loc 1 133 3 is_stmt 1 view .LVU147
 133:Src/stm32f7xx_hal_msp.c ****   {
 540              		.loc 1 133 10 is_stmt 0 view .LVU148
 541 0002 0268     		ldr	r2, [r0]
 133:Src/stm32f7xx_hal_msp.c ****   {
 542              		.loc 1 133 5 view .LVU149
 543 0004 094B     		ldr	r3, .L34
 544 0006 9A42     		cmp	r2, r3
 545 0008 00D0     		beq	.L33
 546              	.LVL25:
 547              	.L30:
 159:Src/stm32f7xx_hal_msp.c **** 
 548              		.loc 1 159 1 view .LVU150
 549 000a 08BD     		pop	{r3, pc}
 550              	.LVL26:
 551              	.L33:
 139:Src/stm32f7xx_hal_msp.c ****   
 552              		.loc 1 139 5 is_stmt 1 view .LVU151
 553 000c 084A     		ldr	r2, .L34+4
 554 000e 536C     		ldr	r3, [r2, #68]
 555 0010 23F48063 		bic	r3, r3, #1024
 556 0014 5364     		str	r3, [r2, #68]
 149:Src/stm32f7xx_hal_msp.c ****                           |ARDUINO_A3_Pin);
 557              		.loc 1 149 5 view .LVU152
 558 0016 4FF4F861 		mov	r1, #1984
 559 001a 0648     		ldr	r0, .L34+8
 560              	.LVL27:
 149:Src/stm32f7xx_hal_msp.c ****                           |ARDUINO_A3_Pin);
 561              		.loc 1 149 5 is_stmt 0 view .LVU153
 562 001c FFF7FEFF 		bl	HAL_GPIO_DeInit
 563              	.LVL28:
 152:Src/stm32f7xx_hal_msp.c **** 
ARM GAS  C:\Users\Nina\AppData\Local\Temp\ccvtmqTe.s 			page 38


 564              		.loc 1 152 5 is_stmt 1 view .LVU154
 565 0020 0121     		movs	r1, #1
 566 0022 0548     		ldr	r0, .L34+12
 567 0024 FFF7FEFF 		bl	HAL_GPIO_DeInit
 568              	.LVL29:
 159:Src/stm32f7xx_hal_msp.c **** 
 569              		.loc 1 159 1 is_stmt 0 view .LVU155
 570 0028 EFE7     		b	.L30
 571              	.L35:
 572 002a 00BF     		.align	2
 573              	.L34:
 574 002c 00220140 		.word	1073816064
 575 0030 00380240 		.word	1073887232
 576 0034 00140240 		.word	1073878016
 577 0038 00000240 		.word	1073872896
 578              		.cfi_endproc
 579              	.LFE140:
 581              		.section	.text.HAL_CRC_MspInit,"ax",%progbits
 582              		.align	1
 583              		.global	HAL_CRC_MspInit
 584              		.syntax unified
 585              		.thumb
 586              		.thumb_func
 587              		.fpu fpv5-sp-d16
 589              	HAL_CRC_MspInit:
 590              	.LVL30:
 591              	.LFB141:
 162:Src/stm32f7xx_hal_msp.c **** 
 592              		.loc 1 162 1 is_stmt 1 view -0
 593              		.cfi_startproc
 594              		@ args = 0, pretend = 0, frame = 8
 595              		@ frame_needed = 0, uses_anonymous_args = 0
 596              		@ link register save eliminated.
 164:Src/stm32f7xx_hal_msp.c ****   {
 597              		.loc 1 164 3 view .LVU157
 164:Src/stm32f7xx_hal_msp.c ****   {
 598              		.loc 1 164 10 is_stmt 0 view .LVU158
 599 0000 0268     		ldr	r2, [r0]
 164:Src/stm32f7xx_hal_msp.c ****   {
 600              		.loc 1 164 5 view .LVU159
 601 0002 094B     		ldr	r3, .L43
 602 0004 9A42     		cmp	r2, r3
 603 0006 00D0     		beq	.L42
 604 0008 7047     		bx	lr
 605              	.L42:
 162:Src/stm32f7xx_hal_msp.c **** 
 606              		.loc 1 162 1 view .LVU160
 607 000a 82B0     		sub	sp, sp, #8
 608              	.LCFI11:
 609              		.cfi_def_cfa_offset 8
 170:Src/stm32f7xx_hal_msp.c ****   /* USER CODE BEGIN CRC_MspInit 1 */
 610              		.loc 1 170 5 is_stmt 1 view .LVU161
 611              	.LBB6:
 170:Src/stm32f7xx_hal_msp.c ****   /* USER CODE BEGIN CRC_MspInit 1 */
 612              		.loc 1 170 5 view .LVU162
 170:Src/stm32f7xx_hal_msp.c ****   /* USER CODE BEGIN CRC_MspInit 1 */
 613              		.loc 1 170 5 view .LVU163
ARM GAS  C:\Users\Nina\AppData\Local\Temp\ccvtmqTe.s 			page 39


 614 000c 03F50063 		add	r3, r3, #2048
 615 0010 1A6B     		ldr	r2, [r3, #48]
 616 0012 42F48052 		orr	r2, r2, #4096
 617 0016 1A63     		str	r2, [r3, #48]
 170:Src/stm32f7xx_hal_msp.c ****   /* USER CODE BEGIN CRC_MspInit 1 */
 618              		.loc 1 170 5 view .LVU164
 619 0018 1B6B     		ldr	r3, [r3, #48]
 620 001a 03F48053 		and	r3, r3, #4096
 621 001e 0193     		str	r3, [sp, #4]
 170:Src/stm32f7xx_hal_msp.c ****   /* USER CODE BEGIN CRC_MspInit 1 */
 622              		.loc 1 170 5 view .LVU165
 623 0020 019B     		ldr	r3, [sp, #4]
 624              	.LBE6:
 170:Src/stm32f7xx_hal_msp.c ****   /* USER CODE BEGIN CRC_MspInit 1 */
 625              		.loc 1 170 5 view .LVU166
 176:Src/stm32f7xx_hal_msp.c **** 
 626              		.loc 1 176 1 is_stmt 0 view .LVU167
 627 0022 02B0     		add	sp, sp, #8
 628              	.LCFI12:
 629              		.cfi_def_cfa_offset 0
 630              		@ sp needed
 631 0024 7047     		bx	lr
 632              	.L44:
 633 0026 00BF     		.align	2
 634              	.L43:
 635 0028 00300240 		.word	1073885184
 636              		.cfi_endproc
 637              	.LFE141:
 639              		.section	.text.HAL_CRC_MspDeInit,"ax",%progbits
 640              		.align	1
 641              		.global	HAL_CRC_MspDeInit
 642              		.syntax unified
 643              		.thumb
 644              		.thumb_func
 645              		.fpu fpv5-sp-d16
 647              	HAL_CRC_MspDeInit:
 648              	.LVL31:
 649              	.LFB142:
 179:Src/stm32f7xx_hal_msp.c **** 
 650              		.loc 1 179 1 is_stmt 1 view -0
 651              		.cfi_startproc
 652              		@ args = 0, pretend = 0, frame = 0
 653              		@ frame_needed = 0, uses_anonymous_args = 0
 654              		@ link register save eliminated.
 181:Src/stm32f7xx_hal_msp.c ****   {
 655              		.loc 1 181 3 view .LVU169
 181:Src/stm32f7xx_hal_msp.c ****   {
 656              		.loc 1 181 10 is_stmt 0 view .LVU170
 657 0000 0268     		ldr	r2, [r0]
 181:Src/stm32f7xx_hal_msp.c ****   {
 658              		.loc 1 181 5 view .LVU171
 659 0002 054B     		ldr	r3, .L48
 660 0004 9A42     		cmp	r2, r3
 661 0006 00D0     		beq	.L47
 662              	.L45:
 193:Src/stm32f7xx_hal_msp.c **** 
 663              		.loc 1 193 1 view .LVU172
ARM GAS  C:\Users\Nina\AppData\Local\Temp\ccvtmqTe.s 			page 40


 664 0008 7047     		bx	lr
 665              	.L47:
 187:Src/stm32f7xx_hal_msp.c ****   /* USER CODE BEGIN CRC_MspDeInit 1 */
 666              		.loc 1 187 5 is_stmt 1 view .LVU173
 667 000a 044A     		ldr	r2, .L48+4
 668 000c 136B     		ldr	r3, [r2, #48]
 669 000e 23F48053 		bic	r3, r3, #4096
 670 0012 1363     		str	r3, [r2, #48]
 193:Src/stm32f7xx_hal_msp.c **** 
 671              		.loc 1 193 1 is_stmt 0 view .LVU174
 672 0014 F8E7     		b	.L45
 673              	.L49:
 674 0016 00BF     		.align	2
 675              	.L48:
 676 0018 00300240 		.word	1073885184
 677 001c 00380240 		.word	1073887232
 678              		.cfi_endproc
 679              	.LFE142:
 681              		.section	.text.HAL_DCMI_MspInit,"ax",%progbits
 682              		.align	1
 683              		.global	HAL_DCMI_MspInit
 684              		.syntax unified
 685              		.thumb
 686              		.thumb_func
 687              		.fpu fpv5-sp-d16
 689              	HAL_DCMI_MspInit:
 690              	.LVL32:
 691              	.LFB143:
 196:Src/stm32f7xx_hal_msp.c **** 
 692              		.loc 1 196 1 is_stmt 1 view -0
 693              		.cfi_startproc
 694              		@ args = 0, pretend = 0, frame = 24
 695              		@ frame_needed = 0, uses_anonymous_args = 0
 198:Src/stm32f7xx_hal_msp.c ****   if(hdcmi->Instance==DCMI)
 696              		.loc 1 198 3 view .LVU176
 199:Src/stm32f7xx_hal_msp.c ****   {
 697              		.loc 1 199 3 view .LVU177
 199:Src/stm32f7xx_hal_msp.c ****   {
 698              		.loc 1 199 11 is_stmt 0 view .LVU178
 699 0000 0268     		ldr	r2, [r0]
 199:Src/stm32f7xx_hal_msp.c ****   {
 700              		.loc 1 199 5 view .LVU179
 701 0002 244B     		ldr	r3, .L57
 702 0004 9A42     		cmp	r2, r3
 703 0006 00D0     		beq	.L56
 704 0008 7047     		bx	lr
 705              	.L56:
 196:Src/stm32f7xx_hal_msp.c **** 
 706              		.loc 1 196 1 view .LVU180
 707 000a 70B5     		push	{r4, r5, r6, lr}
 708              	.LCFI13:
 709              		.cfi_def_cfa_offset 16
 710              		.cfi_offset 4, -16
 711              		.cfi_offset 5, -12
 712              		.cfi_offset 6, -8
 713              		.cfi_offset 14, -4
 714 000c 86B0     		sub	sp, sp, #24
ARM GAS  C:\Users\Nina\AppData\Local\Temp\ccvtmqTe.s 			page 41


 715              	.LCFI14:
 716              		.cfi_def_cfa_offset 40
 205:Src/stm32f7xx_hal_msp.c ****   
 717              		.loc 1 205 5 is_stmt 1 view .LVU181
 718              	.LBB7:
 205:Src/stm32f7xx_hal_msp.c ****   
 719              		.loc 1 205 5 view .LVU182
 205:Src/stm32f7xx_hal_msp.c ****   
 720              		.loc 1 205 5 view .LVU183
 721 000e 224B     		ldr	r3, .L57+4
 722 0010 5A6B     		ldr	r2, [r3, #52]
 723 0012 42F00102 		orr	r2, r2, #1
 724 0016 5A63     		str	r2, [r3, #52]
 205:Src/stm32f7xx_hal_msp.c ****   
 725              		.loc 1 205 5 view .LVU184
 726 0018 5B6B     		ldr	r3, [r3, #52]
 727 001a 03F00103 		and	r3, r3, #1
 728 001e 0093     		str	r3, [sp]
 205:Src/stm32f7xx_hal_msp.c ****   
 729              		.loc 1 205 5 view .LVU185
 730 0020 009B     		ldr	r3, [sp]
 731              	.LBE7:
 205:Src/stm32f7xx_hal_msp.c ****   
 732              		.loc 1 205 5 view .LVU186
 220:Src/stm32f7xx_hal_msp.c ****     GPIO_InitStruct.Mode = GPIO_MODE_AF_PP;
 733              		.loc 1 220 5 view .LVU187
 220:Src/stm32f7xx_hal_msp.c ****     GPIO_InitStruct.Mode = GPIO_MODE_AF_PP;
 734              		.loc 1 220 25 is_stmt 0 view .LVU188
 735 0022 6023     		movs	r3, #96
 736 0024 0193     		str	r3, [sp, #4]
 221:Src/stm32f7xx_hal_msp.c ****     GPIO_InitStruct.Pull = GPIO_NOPULL;
 737              		.loc 1 221 5 is_stmt 1 view .LVU189
 221:Src/stm32f7xx_hal_msp.c ****     GPIO_InitStruct.Pull = GPIO_NOPULL;
 738              		.loc 1 221 26 is_stmt 0 view .LVU190
 739 0026 0226     		movs	r6, #2
 740 0028 0296     		str	r6, [sp, #8]
 222:Src/stm32f7xx_hal_msp.c ****     GPIO_InitStruct.Speed = GPIO_SPEED_FREQ_LOW;
 741              		.loc 1 222 5 is_stmt 1 view .LVU191
 222:Src/stm32f7xx_hal_msp.c ****     GPIO_InitStruct.Speed = GPIO_SPEED_FREQ_LOW;
 742              		.loc 1 222 26 is_stmt 0 view .LVU192
 743 002a 0024     		movs	r4, #0
 744 002c 0394     		str	r4, [sp, #12]
 223:Src/stm32f7xx_hal_msp.c ****     GPIO_InitStruct.Alternate = GPIO_AF13_DCMI;
 745              		.loc 1 223 5 is_stmt 1 view .LVU193
 223:Src/stm32f7xx_hal_msp.c ****     GPIO_InitStruct.Alternate = GPIO_AF13_DCMI;
 746              		.loc 1 223 27 is_stmt 0 view .LVU194
 747 002e 0494     		str	r4, [sp, #16]
 224:Src/stm32f7xx_hal_msp.c ****     HAL_GPIO_Init(GPIOE, &GPIO_InitStruct);
 748              		.loc 1 224 5 is_stmt 1 view .LVU195
 224:Src/stm32f7xx_hal_msp.c ****     HAL_GPIO_Init(GPIOE, &GPIO_InitStruct);
 749              		.loc 1 224 31 is_stmt 0 view .LVU196
 750 0030 0D25     		movs	r5, #13
 751 0032 0595     		str	r5, [sp, #20]
 225:Src/stm32f7xx_hal_msp.c **** 
 752              		.loc 1 225 5 is_stmt 1 view .LVU197
 753 0034 01A9     		add	r1, sp, #4
 754 0036 1948     		ldr	r0, .L57+8
ARM GAS  C:\Users\Nina\AppData\Local\Temp\ccvtmqTe.s 			page 42


 755              	.LVL33:
 225:Src/stm32f7xx_hal_msp.c **** 
 756              		.loc 1 225 5 is_stmt 0 view .LVU198
 757 0038 FFF7FEFF 		bl	HAL_GPIO_Init
 758              	.LVL34:
 227:Src/stm32f7xx_hal_msp.c ****     GPIO_InitStruct.Mode = GPIO_MODE_AF_PP;
 759              		.loc 1 227 5 is_stmt 1 view .LVU199
 227:Src/stm32f7xx_hal_msp.c ****     GPIO_InitStruct.Mode = GPIO_MODE_AF_PP;
 760              		.loc 1 227 25 is_stmt 0 view .LVU200
 761 003c 0823     		movs	r3, #8
 762 003e 0193     		str	r3, [sp, #4]
 228:Src/stm32f7xx_hal_msp.c ****     GPIO_InitStruct.Pull = GPIO_NOPULL;
 763              		.loc 1 228 5 is_stmt 1 view .LVU201
 228:Src/stm32f7xx_hal_msp.c ****     GPIO_InitStruct.Pull = GPIO_NOPULL;
 764              		.loc 1 228 26 is_stmt 0 view .LVU202
 765 0040 0296     		str	r6, [sp, #8]
 229:Src/stm32f7xx_hal_msp.c ****     GPIO_InitStruct.Speed = GPIO_SPEED_FREQ_LOW;
 766              		.loc 1 229 5 is_stmt 1 view .LVU203
 229:Src/stm32f7xx_hal_msp.c ****     GPIO_InitStruct.Speed = GPIO_SPEED_FREQ_LOW;
 767              		.loc 1 229 26 is_stmt 0 view .LVU204
 768 0042 0394     		str	r4, [sp, #12]
 230:Src/stm32f7xx_hal_msp.c ****     GPIO_InitStruct.Alternate = GPIO_AF13_DCMI;
 769              		.loc 1 230 5 is_stmt 1 view .LVU205
 230:Src/stm32f7xx_hal_msp.c ****     GPIO_InitStruct.Alternate = GPIO_AF13_DCMI;
 770              		.loc 1 230 27 is_stmt 0 view .LVU206
 771 0044 0494     		str	r4, [sp, #16]
 231:Src/stm32f7xx_hal_msp.c ****     HAL_GPIO_Init(DCMI_D5_GPIO_Port, &GPIO_InitStruct);
 772              		.loc 1 231 5 is_stmt 1 view .LVU207
 231:Src/stm32f7xx_hal_msp.c ****     HAL_GPIO_Init(DCMI_D5_GPIO_Port, &GPIO_InitStruct);
 773              		.loc 1 231 31 is_stmt 0 view .LVU208
 774 0046 0595     		str	r5, [sp, #20]
 232:Src/stm32f7xx_hal_msp.c **** 
 775              		.loc 1 232 5 is_stmt 1 view .LVU209
 776 0048 01A9     		add	r1, sp, #4
 777 004a 1548     		ldr	r0, .L57+12
 778 004c FFF7FEFF 		bl	HAL_GPIO_Init
 779              	.LVL35:
 234:Src/stm32f7xx_hal_msp.c ****     GPIO_InitStruct.Mode = GPIO_MODE_AF_PP;
 780              		.loc 1 234 5 view .LVU210
 234:Src/stm32f7xx_hal_msp.c ****     GPIO_InitStruct.Mode = GPIO_MODE_AF_PP;
 781              		.loc 1 234 25 is_stmt 0 view .LVU211
 782 0050 4FF40073 		mov	r3, #512
 783 0054 0193     		str	r3, [sp, #4]
 235:Src/stm32f7xx_hal_msp.c ****     GPIO_InitStruct.Pull = GPIO_NOPULL;
 784              		.loc 1 235 5 is_stmt 1 view .LVU212
 235:Src/stm32f7xx_hal_msp.c ****     GPIO_InitStruct.Pull = GPIO_NOPULL;
 785              		.loc 1 235 26 is_stmt 0 view .LVU213
 786 0056 0296     		str	r6, [sp, #8]
 236:Src/stm32f7xx_hal_msp.c ****     GPIO_InitStruct.Speed = GPIO_SPEED_FREQ_LOW;
 787              		.loc 1 236 5 is_stmt 1 view .LVU214
 236:Src/stm32f7xx_hal_msp.c ****     GPIO_InitStruct.Speed = GPIO_SPEED_FREQ_LOW;
 788              		.loc 1 236 26 is_stmt 0 view .LVU215
 789 0058 0394     		str	r4, [sp, #12]
 237:Src/stm32f7xx_hal_msp.c ****     GPIO_InitStruct.Alternate = GPIO_AF13_DCMI;
 790              		.loc 1 237 5 is_stmt 1 view .LVU216
 237:Src/stm32f7xx_hal_msp.c ****     GPIO_InitStruct.Alternate = GPIO_AF13_DCMI;
 791              		.loc 1 237 27 is_stmt 0 view .LVU217
ARM GAS  C:\Users\Nina\AppData\Local\Temp\ccvtmqTe.s 			page 43


 792 005a 0494     		str	r4, [sp, #16]
 238:Src/stm32f7xx_hal_msp.c ****     HAL_GPIO_Init(DCMI_VSYNC_GPIO_Port, &GPIO_InitStruct);
 793              		.loc 1 238 5 is_stmt 1 view .LVU218
 238:Src/stm32f7xx_hal_msp.c ****     HAL_GPIO_Init(DCMI_VSYNC_GPIO_Port, &GPIO_InitStruct);
 794              		.loc 1 238 31 is_stmt 0 view .LVU219
 795 005c 0595     		str	r5, [sp, #20]
 239:Src/stm32f7xx_hal_msp.c **** 
 796              		.loc 1 239 5 is_stmt 1 view .LVU220
 797 005e 01A9     		add	r1, sp, #4
 798 0060 1048     		ldr	r0, .L57+16
 799 0062 FFF7FEFF 		bl	HAL_GPIO_Init
 800              	.LVL36:
 241:Src/stm32f7xx_hal_msp.c ****                           |DCMI_D1_Pin;
 801              		.loc 1 241 5 view .LVU221
 241:Src/stm32f7xx_hal_msp.c ****                           |DCMI_D1_Pin;
 802              		.loc 1 241 25 is_stmt 0 view .LVU222
 803 0066 4FF4BC43 		mov	r3, #24064
 804 006a 0193     		str	r3, [sp, #4]
 243:Src/stm32f7xx_hal_msp.c ****     GPIO_InitStruct.Pull = GPIO_NOPULL;
 805              		.loc 1 243 5 is_stmt 1 view .LVU223
 243:Src/stm32f7xx_hal_msp.c ****     GPIO_InitStruct.Pull = GPIO_NOPULL;
 806              		.loc 1 243 26 is_stmt 0 view .LVU224
 807 006c 0296     		str	r6, [sp, #8]
 244:Src/stm32f7xx_hal_msp.c ****     GPIO_InitStruct.Speed = GPIO_SPEED_FREQ_LOW;
 808              		.loc 1 244 5 is_stmt 1 view .LVU225
 244:Src/stm32f7xx_hal_msp.c ****     GPIO_InitStruct.Speed = GPIO_SPEED_FREQ_LOW;
 809              		.loc 1 244 26 is_stmt 0 view .LVU226
 810 006e 0394     		str	r4, [sp, #12]
 245:Src/stm32f7xx_hal_msp.c ****     GPIO_InitStruct.Alternate = GPIO_AF13_DCMI;
 811              		.loc 1 245 5 is_stmt 1 view .LVU227
 245:Src/stm32f7xx_hal_msp.c ****     GPIO_InitStruct.Alternate = GPIO_AF13_DCMI;
 812              		.loc 1 245 27 is_stmt 0 view .LVU228
 813 0070 0494     		str	r4, [sp, #16]
 246:Src/stm32f7xx_hal_msp.c ****     HAL_GPIO_Init(GPIOH, &GPIO_InitStruct);
 814              		.loc 1 246 5 is_stmt 1 view .LVU229
 246:Src/stm32f7xx_hal_msp.c ****     HAL_GPIO_Init(GPIOH, &GPIO_InitStruct);
 815              		.loc 1 246 31 is_stmt 0 view .LVU230
 816 0072 0595     		str	r5, [sp, #20]
 247:Src/stm32f7xx_hal_msp.c **** 
 817              		.loc 1 247 5 is_stmt 1 view .LVU231
 818 0074 01A9     		add	r1, sp, #4
 819 0076 0C48     		ldr	r0, .L57+20
 820 0078 FFF7FEFF 		bl	HAL_GPIO_Init
 821              	.LVL37:
 249:Src/stm32f7xx_hal_msp.c ****     GPIO_InitStruct.Mode = GPIO_MODE_AF_PP;
 822              		.loc 1 249 5 view .LVU232
 249:Src/stm32f7xx_hal_msp.c ****     GPIO_InitStruct.Mode = GPIO_MODE_AF_PP;
 823              		.loc 1 249 25 is_stmt 0 view .LVU233
 824 007c 5023     		movs	r3, #80
 825 007e 0193     		str	r3, [sp, #4]
 250:Src/stm32f7xx_hal_msp.c ****     GPIO_InitStruct.Pull = GPIO_NOPULL;
 826              		.loc 1 250 5 is_stmt 1 view .LVU234
 250:Src/stm32f7xx_hal_msp.c ****     GPIO_InitStruct.Pull = GPIO_NOPULL;
 827              		.loc 1 250 26 is_stmt 0 view .LVU235
 828 0080 0296     		str	r6, [sp, #8]
 251:Src/stm32f7xx_hal_msp.c ****     GPIO_InitStruct.Speed = GPIO_SPEED_FREQ_LOW;
 829              		.loc 1 251 5 is_stmt 1 view .LVU236
ARM GAS  C:\Users\Nina\AppData\Local\Temp\ccvtmqTe.s 			page 44


 251:Src/stm32f7xx_hal_msp.c ****     GPIO_InitStruct.Speed = GPIO_SPEED_FREQ_LOW;
 830              		.loc 1 251 26 is_stmt 0 view .LVU237
 831 0082 0394     		str	r4, [sp, #12]
 252:Src/stm32f7xx_hal_msp.c ****     GPIO_InitStruct.Alternate = GPIO_AF13_DCMI;
 832              		.loc 1 252 5 is_stmt 1 view .LVU238
 252:Src/stm32f7xx_hal_msp.c ****     GPIO_InitStruct.Alternate = GPIO_AF13_DCMI;
 833              		.loc 1 252 27 is_stmt 0 view .LVU239
 834 0084 0494     		str	r4, [sp, #16]
 253:Src/stm32f7xx_hal_msp.c ****     HAL_GPIO_Init(GPIOA, &GPIO_InitStruct);
 835              		.loc 1 253 5 is_stmt 1 view .LVU240
 253:Src/stm32f7xx_hal_msp.c ****     HAL_GPIO_Init(GPIOA, &GPIO_InitStruct);
 836              		.loc 1 253 31 is_stmt 0 view .LVU241
 837 0086 0595     		str	r5, [sp, #20]
 254:Src/stm32f7xx_hal_msp.c **** 
 838              		.loc 1 254 5 is_stmt 1 view .LVU242
 839 0088 01A9     		add	r1, sp, #4
 840 008a 0848     		ldr	r0, .L57+24
 841 008c FFF7FEFF 		bl	HAL_GPIO_Init
 842              	.LVL38:
 261:Src/stm32f7xx_hal_msp.c **** 
 843              		.loc 1 261 1 is_stmt 0 view .LVU243
 844 0090 06B0     		add	sp, sp, #24
 845              	.LCFI15:
 846              		.cfi_def_cfa_offset 16
 847              		@ sp needed
 848 0092 70BD     		pop	{r4, r5, r6, pc}
 849              	.L58:
 850              		.align	2
 851              	.L57:
 852 0094 00000550 		.word	1342504960
 853 0098 00380240 		.word	1073887232
 854 009c 00100240 		.word	1073876992
 855 00a0 000C0240 		.word	1073875968
 856 00a4 00180240 		.word	1073879040
 857 00a8 001C0240 		.word	1073880064
 858 00ac 00000240 		.word	1073872896
 859              		.cfi_endproc
 860              	.LFE143:
 862              		.section	.text.HAL_DCMI_MspDeInit,"ax",%progbits
 863              		.align	1
 864              		.global	HAL_DCMI_MspDeInit
 865              		.syntax unified
 866              		.thumb
 867              		.thumb_func
 868              		.fpu fpv5-sp-d16
 870              	HAL_DCMI_MspDeInit:
 871              	.LVL39:
 872              	.LFB144:
 264:Src/stm32f7xx_hal_msp.c **** 
 873              		.loc 1 264 1 is_stmt 1 view -0
 874              		.cfi_startproc
 875              		@ args = 0, pretend = 0, frame = 0
 876              		@ frame_needed = 0, uses_anonymous_args = 0
 264:Src/stm32f7xx_hal_msp.c **** 
 877              		.loc 1 264 1 is_stmt 0 view .LVU245
 878 0000 08B5     		push	{r3, lr}
 879              	.LCFI16:
ARM GAS  C:\Users\Nina\AppData\Local\Temp\ccvtmqTe.s 			page 45


 880              		.cfi_def_cfa_offset 8
 881              		.cfi_offset 3, -8
 882              		.cfi_offset 14, -4
 266:Src/stm32f7xx_hal_msp.c ****   {
 883              		.loc 1 266 3 is_stmt 1 view .LVU246
 266:Src/stm32f7xx_hal_msp.c ****   {
 884              		.loc 1 266 11 is_stmt 0 view .LVU247
 885 0002 0268     		ldr	r2, [r0]
 266:Src/stm32f7xx_hal_msp.c ****   {
 886              		.loc 1 266 5 view .LVU248
 887 0004 0F4B     		ldr	r3, .L63
 888 0006 9A42     		cmp	r2, r3
 889 0008 00D0     		beq	.L62
 890              	.LVL40:
 891              	.L59:
 303:Src/stm32f7xx_hal_msp.c **** 
 892              		.loc 1 303 1 view .LVU249
 893 000a 08BD     		pop	{r3, pc}
 894              	.LVL41:
 895              	.L62:
 272:Src/stm32f7xx_hal_msp.c ****   
 896              		.loc 1 272 5 is_stmt 1 view .LVU250
 897 000c 0E4A     		ldr	r2, .L63+4
 898 000e 536B     		ldr	r3, [r2, #52]
 899 0010 23F00103 		bic	r3, r3, #1
 900 0014 5363     		str	r3, [r2, #52]
 287:Src/stm32f7xx_hal_msp.c **** 
 901              		.loc 1 287 5 view .LVU251
 902 0016 6021     		movs	r1, #96
 903 0018 0C48     		ldr	r0, .L63+8
 904              	.LVL42:
 287:Src/stm32f7xx_hal_msp.c **** 
 905              		.loc 1 287 5 is_stmt 0 view .LVU252
 906 001a FFF7FEFF 		bl	HAL_GPIO_DeInit
 907              	.LVL43:
 289:Src/stm32f7xx_hal_msp.c **** 
 908              		.loc 1 289 5 is_stmt 1 view .LVU253
 909 001e 0821     		movs	r1, #8
 910 0020 0B48     		ldr	r0, .L63+12
 911 0022 FFF7FEFF 		bl	HAL_GPIO_DeInit
 912              	.LVL44:
 291:Src/stm32f7xx_hal_msp.c **** 
 913              		.loc 1 291 5 view .LVU254
 914 0026 4FF40071 		mov	r1, #512
 915 002a 0A48     		ldr	r0, .L63+16
 916 002c FFF7FEFF 		bl	HAL_GPIO_DeInit
 917              	.LVL45:
 293:Src/stm32f7xx_hal_msp.c ****                           |DCMI_D1_Pin);
 918              		.loc 1 293 5 view .LVU255
 919 0030 4FF4BC41 		mov	r1, #24064
 920 0034 0848     		ldr	r0, .L63+20
 921 0036 FFF7FEFF 		bl	HAL_GPIO_DeInit
 922              	.LVL46:
 296:Src/stm32f7xx_hal_msp.c **** 
 923              		.loc 1 296 5 view .LVU256
 924 003a 5021     		movs	r1, #80
 925 003c 0748     		ldr	r0, .L63+24
ARM GAS  C:\Users\Nina\AppData\Local\Temp\ccvtmqTe.s 			page 46


 926 003e FFF7FEFF 		bl	HAL_GPIO_DeInit
 927              	.LVL47:
 303:Src/stm32f7xx_hal_msp.c **** 
 928              		.loc 1 303 1 is_stmt 0 view .LVU257
 929 0042 E2E7     		b	.L59
 930              	.L64:
 931              		.align	2
 932              	.L63:
 933 0044 00000550 		.word	1342504960
 934 0048 00380240 		.word	1073887232
 935 004c 00100240 		.word	1073876992
 936 0050 000C0240 		.word	1073875968
 937 0054 00180240 		.word	1073879040
 938 0058 001C0240 		.word	1073880064
 939 005c 00000240 		.word	1073872896
 940              		.cfi_endproc
 941              	.LFE144:
 943              		.section	.text.HAL_DMA2D_MspInit,"ax",%progbits
 944              		.align	1
 945              		.global	HAL_DMA2D_MspInit
 946              		.syntax unified
 947              		.thumb
 948              		.thumb_func
 949              		.fpu fpv5-sp-d16
 951              	HAL_DMA2D_MspInit:
 952              	.LVL48:
 953              	.LFB145:
 306:Src/stm32f7xx_hal_msp.c **** 
 954              		.loc 1 306 1 is_stmt 1 view -0
 955              		.cfi_startproc
 956              		@ args = 0, pretend = 0, frame = 8
 957              		@ frame_needed = 0, uses_anonymous_args = 0
 308:Src/stm32f7xx_hal_msp.c ****   {
 958              		.loc 1 308 3 view .LVU259
 308:Src/stm32f7xx_hal_msp.c ****   {
 959              		.loc 1 308 12 is_stmt 0 view .LVU260
 960 0000 0268     		ldr	r2, [r0]
 308:Src/stm32f7xx_hal_msp.c ****   {
 961              		.loc 1 308 5 view .LVU261
 962 0002 0E4B     		ldr	r3, .L72
 963 0004 9A42     		cmp	r2, r3
 964 0006 00D0     		beq	.L71
 965 0008 7047     		bx	lr
 966              	.L71:
 306:Src/stm32f7xx_hal_msp.c **** 
 967              		.loc 1 306 1 view .LVU262
 968 000a 00B5     		push	{lr}
 969              	.LCFI17:
 970              		.cfi_def_cfa_offset 4
 971              		.cfi_offset 14, -4
 972 000c 83B0     		sub	sp, sp, #12
 973              	.LCFI18:
 974              		.cfi_def_cfa_offset 16
 314:Src/stm32f7xx_hal_msp.c ****     /* DMA2D interrupt Init */
 975              		.loc 1 314 5 is_stmt 1 view .LVU263
 976              	.LBB8:
 314:Src/stm32f7xx_hal_msp.c ****     /* DMA2D interrupt Init */
ARM GAS  C:\Users\Nina\AppData\Local\Temp\ccvtmqTe.s 			page 47


 977              		.loc 1 314 5 view .LVU264
 314:Src/stm32f7xx_hal_msp.c ****     /* DMA2D interrupt Init */
 978              		.loc 1 314 5 view .LVU265
 979 000e A3F5F043 		sub	r3, r3, #30720
 980 0012 1A6B     		ldr	r2, [r3, #48]
 981 0014 42F40002 		orr	r2, r2, #8388608
 982 0018 1A63     		str	r2, [r3, #48]
 314:Src/stm32f7xx_hal_msp.c ****     /* DMA2D interrupt Init */
 983              		.loc 1 314 5 view .LVU266
 984 001a 1B6B     		ldr	r3, [r3, #48]
 985 001c 03F40003 		and	r3, r3, #8388608
 986 0020 0193     		str	r3, [sp, #4]
 314:Src/stm32f7xx_hal_msp.c ****     /* DMA2D interrupt Init */
 987              		.loc 1 314 5 view .LVU267
 988 0022 019B     		ldr	r3, [sp, #4]
 989              	.LBE8:
 314:Src/stm32f7xx_hal_msp.c ****     /* DMA2D interrupt Init */
 990              		.loc 1 314 5 view .LVU268
 316:Src/stm32f7xx_hal_msp.c ****     HAL_NVIC_EnableIRQ(DMA2D_IRQn);
 991              		.loc 1 316 5 view .LVU269
 992 0024 0022     		movs	r2, #0
 993 0026 0521     		movs	r1, #5
 994 0028 5A20     		movs	r0, #90
 995              	.LVL49:
 316:Src/stm32f7xx_hal_msp.c ****     HAL_NVIC_EnableIRQ(DMA2D_IRQn);
 996              		.loc 1 316 5 is_stmt 0 view .LVU270
 997 002a FFF7FEFF 		bl	HAL_NVIC_SetPriority
 998              	.LVL50:
 317:Src/stm32f7xx_hal_msp.c ****   /* USER CODE BEGIN DMA2D_MspInit 1 */
 999              		.loc 1 317 5 is_stmt 1 view .LVU271
 1000 002e 5A20     		movs	r0, #90
 1001 0030 FFF7FEFF 		bl	HAL_NVIC_EnableIRQ
 1002              	.LVL51:
 323:Src/stm32f7xx_hal_msp.c **** 
 1003              		.loc 1 323 1 is_stmt 0 view .LVU272
 1004 0034 03B0     		add	sp, sp, #12
 1005              	.LCFI19:
 1006              		.cfi_def_cfa_offset 4
 1007              		@ sp needed
 1008 0036 5DF804FB 		ldr	pc, [sp], #4
 1009              	.L73:
 1010 003a 00BF     		.align	2
 1011              	.L72:
 1012 003c 00B00240 		.word	1073917952
 1013              		.cfi_endproc
 1014              	.LFE145:
 1016              		.section	.text.HAL_DMA2D_MspDeInit,"ax",%progbits
 1017              		.align	1
 1018              		.global	HAL_DMA2D_MspDeInit
 1019              		.syntax unified
 1020              		.thumb
 1021              		.thumb_func
 1022              		.fpu fpv5-sp-d16
 1024              	HAL_DMA2D_MspDeInit:
 1025              	.LVL52:
 1026              	.LFB146:
 326:Src/stm32f7xx_hal_msp.c **** 
ARM GAS  C:\Users\Nina\AppData\Local\Temp\ccvtmqTe.s 			page 48


 1027              		.loc 1 326 1 is_stmt 1 view -0
 1028              		.cfi_startproc
 1029              		@ args = 0, pretend = 0, frame = 0
 1030              		@ frame_needed = 0, uses_anonymous_args = 0
 326:Src/stm32f7xx_hal_msp.c **** 
 1031              		.loc 1 326 1 is_stmt 0 view .LVU274
 1032 0000 08B5     		push	{r3, lr}
 1033              	.LCFI20:
 1034              		.cfi_def_cfa_offset 8
 1035              		.cfi_offset 3, -8
 1036              		.cfi_offset 14, -4
 328:Src/stm32f7xx_hal_msp.c ****   {
 1037              		.loc 1 328 3 is_stmt 1 view .LVU275
 328:Src/stm32f7xx_hal_msp.c ****   {
 1038              		.loc 1 328 12 is_stmt 0 view .LVU276
 1039 0002 0268     		ldr	r2, [r0]
 328:Src/stm32f7xx_hal_msp.c ****   {
 1040              		.loc 1 328 5 view .LVU277
 1041 0004 064B     		ldr	r3, .L78
 1042 0006 9A42     		cmp	r2, r3
 1043 0008 00D0     		beq	.L77
 1044              	.LVL53:
 1045              	.L74:
 343:Src/stm32f7xx_hal_msp.c **** 
 1046              		.loc 1 343 1 view .LVU278
 1047 000a 08BD     		pop	{r3, pc}
 1048              	.LVL54:
 1049              	.L77:
 334:Src/stm32f7xx_hal_msp.c **** 
 1050              		.loc 1 334 5 is_stmt 1 view .LVU279
 1051 000c 054A     		ldr	r2, .L78+4
 1052 000e 136B     		ldr	r3, [r2, #48]
 1053 0010 23F40003 		bic	r3, r3, #8388608
 1054 0014 1363     		str	r3, [r2, #48]
 337:Src/stm32f7xx_hal_msp.c ****   /* USER CODE BEGIN DMA2D_MspDeInit 1 */
 1055              		.loc 1 337 5 view .LVU280
 1056 0016 5A20     		movs	r0, #90
 1057              	.LVL55:
 337:Src/stm32f7xx_hal_msp.c ****   /* USER CODE BEGIN DMA2D_MspDeInit 1 */
 1058              		.loc 1 337 5 is_stmt 0 view .LVU281
 1059 0018 FFF7FEFF 		bl	HAL_NVIC_DisableIRQ
 1060              	.LVL56:
 343:Src/stm32f7xx_hal_msp.c **** 
 1061              		.loc 1 343 1 view .LVU282
 1062 001c F5E7     		b	.L74
 1063              	.L79:
 1064 001e 00BF     		.align	2
 1065              	.L78:
 1066 0020 00B00240 		.word	1073917952
 1067 0024 00380240 		.word	1073887232
 1068              		.cfi_endproc
 1069              	.LFE146:
 1071              		.section	.text.HAL_I2C_MspInit,"ax",%progbits
 1072              		.align	1
 1073              		.global	HAL_I2C_MspInit
 1074              		.syntax unified
 1075              		.thumb
ARM GAS  C:\Users\Nina\AppData\Local\Temp\ccvtmqTe.s 			page 49


 1076              		.thumb_func
 1077              		.fpu fpv5-sp-d16
 1079              	HAL_I2C_MspInit:
 1080              	.LVL57:
 1081              	.LFB147:
 346:Src/stm32f7xx_hal_msp.c **** 
 1082              		.loc 1 346 1 is_stmt 1 view -0
 1083              		.cfi_startproc
 1084              		@ args = 0, pretend = 0, frame = 32
 1085              		@ frame_needed = 0, uses_anonymous_args = 0
 346:Src/stm32f7xx_hal_msp.c **** 
 1086              		.loc 1 346 1 is_stmt 0 view .LVU284
 1087 0000 00B5     		push	{lr}
 1088              	.LCFI21:
 1089              		.cfi_def_cfa_offset 4
 1090              		.cfi_offset 14, -4
 1091 0002 89B0     		sub	sp, sp, #36
 1092              	.LCFI22:
 1093              		.cfi_def_cfa_offset 40
 348:Src/stm32f7xx_hal_msp.c ****   if(hi2c->Instance==I2C1)
 1094              		.loc 1 348 3 is_stmt 1 view .LVU285
 349:Src/stm32f7xx_hal_msp.c ****   {
 1095              		.loc 1 349 3 view .LVU286
 349:Src/stm32f7xx_hal_msp.c ****   {
 1096              		.loc 1 349 10 is_stmt 0 view .LVU287
 1097 0004 0368     		ldr	r3, [r0]
 349:Src/stm32f7xx_hal_msp.c ****   {
 1098              		.loc 1 349 5 view .LVU288
 1099 0006 1E4A     		ldr	r2, .L86
 1100 0008 9342     		cmp	r3, r2
 1101 000a 05D0     		beq	.L84
 372:Src/stm32f7xx_hal_msp.c ****   {
 1102              		.loc 1 372 8 is_stmt 1 view .LVU289
 372:Src/stm32f7xx_hal_msp.c ****   {
 1103              		.loc 1 372 10 is_stmt 0 view .LVU290
 1104 000c 1D4A     		ldr	r2, .L86+4
 1105 000e 9342     		cmp	r3, r2
 1106 0010 1CD0     		beq	.L85
 1107              	.LVL58:
 1108              	.L80:
 396:Src/stm32f7xx_hal_msp.c **** 
 1109              		.loc 1 396 1 view .LVU291
 1110 0012 09B0     		add	sp, sp, #36
 1111              	.LCFI23:
 1112              		.cfi_remember_state
 1113              		.cfi_def_cfa_offset 4
 1114              		@ sp needed
 1115 0014 5DF804FB 		ldr	pc, [sp], #4
 1116              	.LVL59:
 1117              	.L84:
 1118              	.LCFI24:
 1119              		.cfi_restore_state
 359:Src/stm32f7xx_hal_msp.c ****     GPIO_InitStruct.Mode = GPIO_MODE_AF_OD;
 1120              		.loc 1 359 5 is_stmt 1 view .LVU292
 359:Src/stm32f7xx_hal_msp.c ****     GPIO_InitStruct.Mode = GPIO_MODE_AF_OD;
 1121              		.loc 1 359 25 is_stmt 0 view .LVU293
 1122 0018 4FF44073 		mov	r3, #768
ARM GAS  C:\Users\Nina\AppData\Local\Temp\ccvtmqTe.s 			page 50


 1123 001c 0393     		str	r3, [sp, #12]
 360:Src/stm32f7xx_hal_msp.c ****     GPIO_InitStruct.Pull = GPIO_PULLUP;
 1124              		.loc 1 360 5 is_stmt 1 view .LVU294
 360:Src/stm32f7xx_hal_msp.c ****     GPIO_InitStruct.Pull = GPIO_PULLUP;
 1125              		.loc 1 360 26 is_stmt 0 view .LVU295
 1126 001e 1223     		movs	r3, #18
 1127 0020 0493     		str	r3, [sp, #16]
 361:Src/stm32f7xx_hal_msp.c ****     GPIO_InitStruct.Speed = GPIO_SPEED_FREQ_LOW;
 1128              		.loc 1 361 5 is_stmt 1 view .LVU296
 361:Src/stm32f7xx_hal_msp.c ****     GPIO_InitStruct.Speed = GPIO_SPEED_FREQ_LOW;
 1129              		.loc 1 361 26 is_stmt 0 view .LVU297
 1130 0022 0123     		movs	r3, #1
 1131 0024 0593     		str	r3, [sp, #20]
 362:Src/stm32f7xx_hal_msp.c ****     GPIO_InitStruct.Alternate = GPIO_AF4_I2C1;
 1132              		.loc 1 362 5 is_stmt 1 view .LVU298
 362:Src/stm32f7xx_hal_msp.c ****     GPIO_InitStruct.Alternate = GPIO_AF4_I2C1;
 1133              		.loc 1 362 27 is_stmt 0 view .LVU299
 1134 0026 0023     		movs	r3, #0
 1135 0028 0693     		str	r3, [sp, #24]
 363:Src/stm32f7xx_hal_msp.c ****     HAL_GPIO_Init(GPIOB, &GPIO_InitStruct);
 1136              		.loc 1 363 5 is_stmt 1 view .LVU300
 363:Src/stm32f7xx_hal_msp.c ****     HAL_GPIO_Init(GPIOB, &GPIO_InitStruct);
 1137              		.loc 1 363 31 is_stmt 0 view .LVU301
 1138 002a 0423     		movs	r3, #4
 1139 002c 0793     		str	r3, [sp, #28]
 364:Src/stm32f7xx_hal_msp.c **** 
 1140              		.loc 1 364 5 is_stmt 1 view .LVU302
 1141 002e 03A9     		add	r1, sp, #12
 1142 0030 1548     		ldr	r0, .L86+8
 1143              	.LVL60:
 364:Src/stm32f7xx_hal_msp.c **** 
 1144              		.loc 1 364 5 is_stmt 0 view .LVU303
 1145 0032 FFF7FEFF 		bl	HAL_GPIO_Init
 1146              	.LVL61:
 367:Src/stm32f7xx_hal_msp.c ****   /* USER CODE BEGIN I2C1_MspInit 1 */
 1147              		.loc 1 367 5 is_stmt 1 view .LVU304
 1148              	.LBB9:
 367:Src/stm32f7xx_hal_msp.c ****   /* USER CODE BEGIN I2C1_MspInit 1 */
 1149              		.loc 1 367 5 view .LVU305
 367:Src/stm32f7xx_hal_msp.c ****   /* USER CODE BEGIN I2C1_MspInit 1 */
 1150              		.loc 1 367 5 view .LVU306
 1151 0036 154B     		ldr	r3, .L86+12
 1152 0038 1A6C     		ldr	r2, [r3, #64]
 1153 003a 42F40012 		orr	r2, r2, #2097152
 1154 003e 1A64     		str	r2, [r3, #64]
 367:Src/stm32f7xx_hal_msp.c ****   /* USER CODE BEGIN I2C1_MspInit 1 */
 1155              		.loc 1 367 5 view .LVU307
 1156 0040 1B6C     		ldr	r3, [r3, #64]
 1157 0042 03F40013 		and	r3, r3, #2097152
 1158 0046 0193     		str	r3, [sp, #4]
 367:Src/stm32f7xx_hal_msp.c ****   /* USER CODE BEGIN I2C1_MspInit 1 */
 1159              		.loc 1 367 5 view .LVU308
 1160 0048 019B     		ldr	r3, [sp, #4]
 1161              	.LBE9:
 367:Src/stm32f7xx_hal_msp.c ****   /* USER CODE BEGIN I2C1_MspInit 1 */
 1162              		.loc 1 367 5 view .LVU309
 1163 004a E2E7     		b	.L80
ARM GAS  C:\Users\Nina\AppData\Local\Temp\ccvtmqTe.s 			page 51


 1164              	.LVL62:
 1165              	.L85:
 382:Src/stm32f7xx_hal_msp.c ****     GPIO_InitStruct.Mode = GPIO_MODE_AF_OD;
 1166              		.loc 1 382 5 view .LVU310
 382:Src/stm32f7xx_hal_msp.c ****     GPIO_InitStruct.Mode = GPIO_MODE_AF_OD;
 1167              		.loc 1 382 25 is_stmt 0 view .LVU311
 1168 004c 4FF4C073 		mov	r3, #384
 1169 0050 0393     		str	r3, [sp, #12]
 383:Src/stm32f7xx_hal_msp.c ****     GPIO_InitStruct.Pull = GPIO_PULLUP;
 1170              		.loc 1 383 5 is_stmt 1 view .LVU312
 383:Src/stm32f7xx_hal_msp.c ****     GPIO_InitStruct.Pull = GPIO_PULLUP;
 1171              		.loc 1 383 26 is_stmt 0 view .LVU313
 1172 0052 1223     		movs	r3, #18
 1173 0054 0493     		str	r3, [sp, #16]
 384:Src/stm32f7xx_hal_msp.c ****     GPIO_InitStruct.Speed = GPIO_SPEED_FREQ_VERY_HIGH;
 1174              		.loc 1 384 5 is_stmt 1 view .LVU314
 384:Src/stm32f7xx_hal_msp.c ****     GPIO_InitStruct.Speed = GPIO_SPEED_FREQ_VERY_HIGH;
 1175              		.loc 1 384 26 is_stmt 0 view .LVU315
 1176 0056 0123     		movs	r3, #1
 1177 0058 0593     		str	r3, [sp, #20]
 385:Src/stm32f7xx_hal_msp.c ****     GPIO_InitStruct.Alternate = GPIO_AF4_I2C3;
 1178              		.loc 1 385 5 is_stmt 1 view .LVU316
 385:Src/stm32f7xx_hal_msp.c ****     GPIO_InitStruct.Alternate = GPIO_AF4_I2C3;
 1179              		.loc 1 385 27 is_stmt 0 view .LVU317
 1180 005a 0323     		movs	r3, #3
 1181 005c 0693     		str	r3, [sp, #24]
 386:Src/stm32f7xx_hal_msp.c ****     HAL_GPIO_Init(GPIOH, &GPIO_InitStruct);
 1182              		.loc 1 386 5 is_stmt 1 view .LVU318
 386:Src/stm32f7xx_hal_msp.c ****     HAL_GPIO_Init(GPIOH, &GPIO_InitStruct);
 1183              		.loc 1 386 31 is_stmt 0 view .LVU319
 1184 005e 0423     		movs	r3, #4
 1185 0060 0793     		str	r3, [sp, #28]
 387:Src/stm32f7xx_hal_msp.c **** 
 1186              		.loc 1 387 5 is_stmt 1 view .LVU320
 1187 0062 03A9     		add	r1, sp, #12
 1188 0064 0A48     		ldr	r0, .L86+16
 1189              	.LVL63:
 387:Src/stm32f7xx_hal_msp.c **** 
 1190              		.loc 1 387 5 is_stmt 0 view .LVU321
 1191 0066 FFF7FEFF 		bl	HAL_GPIO_Init
 1192              	.LVL64:
 390:Src/stm32f7xx_hal_msp.c ****   /* USER CODE BEGIN I2C3_MspInit 1 */
 1193              		.loc 1 390 5 is_stmt 1 view .LVU322
 1194              	.LBB10:
 390:Src/stm32f7xx_hal_msp.c ****   /* USER CODE BEGIN I2C3_MspInit 1 */
 1195              		.loc 1 390 5 view .LVU323
 390:Src/stm32f7xx_hal_msp.c ****   /* USER CODE BEGIN I2C3_MspInit 1 */
 1196              		.loc 1 390 5 view .LVU324
 1197 006a 084B     		ldr	r3, .L86+12
 1198 006c 1A6C     		ldr	r2, [r3, #64]
 1199 006e 42F40002 		orr	r2, r2, #8388608
 1200 0072 1A64     		str	r2, [r3, #64]
 390:Src/stm32f7xx_hal_msp.c ****   /* USER CODE BEGIN I2C3_MspInit 1 */
 1201              		.loc 1 390 5 view .LVU325
 1202 0074 1B6C     		ldr	r3, [r3, #64]
 1203 0076 03F40003 		and	r3, r3, #8388608
 1204 007a 0293     		str	r3, [sp, #8]
ARM GAS  C:\Users\Nina\AppData\Local\Temp\ccvtmqTe.s 			page 52


 390:Src/stm32f7xx_hal_msp.c ****   /* USER CODE BEGIN I2C3_MspInit 1 */
 1205              		.loc 1 390 5 view .LVU326
 1206 007c 029B     		ldr	r3, [sp, #8]
 1207              	.LBE10:
 390:Src/stm32f7xx_hal_msp.c ****   /* USER CODE BEGIN I2C3_MspInit 1 */
 1208              		.loc 1 390 5 view .LVU327
 396:Src/stm32f7xx_hal_msp.c **** 
 1209              		.loc 1 396 1 is_stmt 0 view .LVU328
 1210 007e C8E7     		b	.L80
 1211              	.L87:
 1212              		.align	2
 1213              	.L86:
 1214 0080 00540040 		.word	1073763328
 1215 0084 005C0040 		.word	1073765376
 1216 0088 00040240 		.word	1073873920
 1217 008c 00380240 		.word	1073887232
 1218 0090 001C0240 		.word	1073880064
 1219              		.cfi_endproc
 1220              	.LFE147:
 1222              		.section	.text.HAL_I2C_MspDeInit,"ax",%progbits
 1223              		.align	1
 1224              		.global	HAL_I2C_MspDeInit
 1225              		.syntax unified
 1226              		.thumb
 1227              		.thumb_func
 1228              		.fpu fpv5-sp-d16
 1230              	HAL_I2C_MspDeInit:
 1231              	.LVL65:
 1232              	.LFB148:
 399:Src/stm32f7xx_hal_msp.c **** 
 1233              		.loc 1 399 1 is_stmt 1 view -0
 1234              		.cfi_startproc
 1235              		@ args = 0, pretend = 0, frame = 0
 1236              		@ frame_needed = 0, uses_anonymous_args = 0
 399:Src/stm32f7xx_hal_msp.c **** 
 1237              		.loc 1 399 1 is_stmt 0 view .LVU330
 1238 0000 08B5     		push	{r3, lr}
 1239              	.LCFI25:
 1240              		.cfi_def_cfa_offset 8
 1241              		.cfi_offset 3, -8
 1242              		.cfi_offset 14, -4
 401:Src/stm32f7xx_hal_msp.c ****   {
 1243              		.loc 1 401 3 is_stmt 1 view .LVU331
 401:Src/stm32f7xx_hal_msp.c ****   {
 1244              		.loc 1 401 10 is_stmt 0 view .LVU332
 1245 0002 0368     		ldr	r3, [r0]
 401:Src/stm32f7xx_hal_msp.c ****   {
 1246              		.loc 1 401 5 view .LVU333
 1247 0004 0F4A     		ldr	r2, .L94
 1248 0006 9342     		cmp	r3, r2
 1249 0008 03D0     		beq	.L92
 419:Src/stm32f7xx_hal_msp.c ****   {
 1250              		.loc 1 419 8 is_stmt 1 view .LVU334
 419:Src/stm32f7xx_hal_msp.c ****   {
 1251              		.loc 1 419 10 is_stmt 0 view .LVU335
 1252 000a 0F4A     		ldr	r2, .L94+4
 1253 000c 9342     		cmp	r3, r2
ARM GAS  C:\Users\Nina\AppData\Local\Temp\ccvtmqTe.s 			page 53


 1254 000e 0CD0     		beq	.L93
 1255              	.LVL66:
 1256              	.L88:
 438:Src/stm32f7xx_hal_msp.c **** 
 1257              		.loc 1 438 1 view .LVU336
 1258 0010 08BD     		pop	{r3, pc}
 1259              	.LVL67:
 1260              	.L92:
 407:Src/stm32f7xx_hal_msp.c ****   
 1261              		.loc 1 407 5 is_stmt 1 view .LVU337
 1262 0012 02F5F232 		add	r2, r2, #123904
 1263 0016 136C     		ldr	r3, [r2, #64]
 1264 0018 23F40013 		bic	r3, r3, #2097152
 1265 001c 1364     		str	r3, [r2, #64]
 413:Src/stm32f7xx_hal_msp.c **** 
 1266              		.loc 1 413 5 view .LVU338
 1267 001e 4FF44071 		mov	r1, #768
 1268 0022 0A48     		ldr	r0, .L94+8
 1269              	.LVL68:
 413:Src/stm32f7xx_hal_msp.c **** 
 1270              		.loc 1 413 5 is_stmt 0 view .LVU339
 1271 0024 FFF7FEFF 		bl	HAL_GPIO_DeInit
 1272              	.LVL69:
 1273 0028 F2E7     		b	.L88
 1274              	.LVL70:
 1275              	.L93:
 425:Src/stm32f7xx_hal_msp.c ****   
 1276              		.loc 1 425 5 is_stmt 1 view .LVU340
 1277 002a 02F5EE32 		add	r2, r2, #121856
 1278 002e 136C     		ldr	r3, [r2, #64]
 1279 0030 23F40003 		bic	r3, r3, #8388608
 1280 0034 1364     		str	r3, [r2, #64]
 431:Src/stm32f7xx_hal_msp.c **** 
 1281              		.loc 1 431 5 view .LVU341
 1282 0036 4FF4C071 		mov	r1, #384
 1283 003a 0548     		ldr	r0, .L94+12
 1284              	.LVL71:
 431:Src/stm32f7xx_hal_msp.c **** 
 1285              		.loc 1 431 5 is_stmt 0 view .LVU342
 1286 003c FFF7FEFF 		bl	HAL_GPIO_DeInit
 1287              	.LVL72:
 438:Src/stm32f7xx_hal_msp.c **** 
 1288              		.loc 1 438 1 view .LVU343
 1289 0040 E6E7     		b	.L88
 1290              	.L95:
 1291 0042 00BF     		.align	2
 1292              	.L94:
 1293 0044 00540040 		.word	1073763328
 1294 0048 005C0040 		.word	1073765376
 1295 004c 00040240 		.word	1073873920
 1296 0050 001C0240 		.word	1073880064
 1297              		.cfi_endproc
 1298              	.LFE148:
 1300              		.section	.text.HAL_LTDC_MspInit,"ax",%progbits
 1301              		.align	1
 1302              		.global	HAL_LTDC_MspInit
 1303              		.syntax unified
ARM GAS  C:\Users\Nina\AppData\Local\Temp\ccvtmqTe.s 			page 54


 1304              		.thumb
 1305              		.thumb_func
 1306              		.fpu fpv5-sp-d16
 1308              	HAL_LTDC_MspInit:
 1309              	.LVL73:
 1310              	.LFB149:
 441:Src/stm32f7xx_hal_msp.c **** 
 1311              		.loc 1 441 1 is_stmt 1 view -0
 1312              		.cfi_startproc
 1313              		@ args = 0, pretend = 0, frame = 24
 1314              		@ frame_needed = 0, uses_anonymous_args = 0
 443:Src/stm32f7xx_hal_msp.c ****   if(hltdc->Instance==LTDC)
 1315              		.loc 1 443 3 view .LVU345
 444:Src/stm32f7xx_hal_msp.c ****   {
 1316              		.loc 1 444 3 view .LVU346
 444:Src/stm32f7xx_hal_msp.c ****   {
 1317              		.loc 1 444 11 is_stmt 0 view .LVU347
 1318 0000 0268     		ldr	r2, [r0]
 444:Src/stm32f7xx_hal_msp.c ****   {
 1319              		.loc 1 444 5 view .LVU348
 1320 0002 2A4B     		ldr	r3, .L103
 1321 0004 9A42     		cmp	r2, r3
 1322 0006 00D0     		beq	.L102
 1323 0008 7047     		bx	lr
 1324              	.L102:
 441:Src/stm32f7xx_hal_msp.c **** 
 1325              		.loc 1 441 1 view .LVU349
 1326 000a 70B5     		push	{r4, r5, r6, lr}
 1327              	.LCFI26:
 1328              		.cfi_def_cfa_offset 16
 1329              		.cfi_offset 4, -16
 1330              		.cfi_offset 5, -12
 1331              		.cfi_offset 6, -8
 1332              		.cfi_offset 14, -4
 1333 000c 86B0     		sub	sp, sp, #24
 1334              	.LCFI27:
 1335              		.cfi_def_cfa_offset 40
 450:Src/stm32f7xx_hal_msp.c ****   
 1336              		.loc 1 450 5 is_stmt 1 view .LVU350
 1337              	.LBB11:
 450:Src/stm32f7xx_hal_msp.c ****   
 1338              		.loc 1 450 5 view .LVU351
 450:Src/stm32f7xx_hal_msp.c ****   
 1339              		.loc 1 450 5 view .LVU352
 1340 000e 03F55043 		add	r3, r3, #53248
 1341 0012 5A6C     		ldr	r2, [r3, #68]
 1342 0014 42F08062 		orr	r2, r2, #67108864
 1343 0018 5A64     		str	r2, [r3, #68]
 450:Src/stm32f7xx_hal_msp.c ****   
 1344              		.loc 1 450 5 view .LVU353
 1345 001a 5B6C     		ldr	r3, [r3, #68]
 1346 001c 03F08063 		and	r3, r3, #67108864
 1347 0020 0093     		str	r3, [sp]
 450:Src/stm32f7xx_hal_msp.c ****   
 1348              		.loc 1 450 5 view .LVU354
 1349 0022 009B     		ldr	r3, [sp]
 1350              	.LBE11:
ARM GAS  C:\Users\Nina\AppData\Local\Temp\ccvtmqTe.s 			page 55


 450:Src/stm32f7xx_hal_msp.c ****   
 1351              		.loc 1 450 5 view .LVU355
 482:Src/stm32f7xx_hal_msp.c ****     GPIO_InitStruct.Mode = GPIO_MODE_AF_PP;
 1352              		.loc 1 482 5 view .LVU356
 482:Src/stm32f7xx_hal_msp.c ****     GPIO_InitStruct.Mode = GPIO_MODE_AF_PP;
 1353              		.loc 1 482 25 is_stmt 0 view .LVU357
 1354 0024 1023     		movs	r3, #16
 1355 0026 0193     		str	r3, [sp, #4]
 483:Src/stm32f7xx_hal_msp.c ****     GPIO_InitStruct.Pull = GPIO_NOPULL;
 1356              		.loc 1 483 5 is_stmt 1 view .LVU358
 483:Src/stm32f7xx_hal_msp.c ****     GPIO_InitStruct.Pull = GPIO_NOPULL;
 1357              		.loc 1 483 26 is_stmt 0 view .LVU359
 1358 0028 0225     		movs	r5, #2
 1359 002a 0295     		str	r5, [sp, #8]
 484:Src/stm32f7xx_hal_msp.c ****     GPIO_InitStruct.Speed = GPIO_SPEED_FREQ_LOW;
 1360              		.loc 1 484 5 is_stmt 1 view .LVU360
 484:Src/stm32f7xx_hal_msp.c ****     GPIO_InitStruct.Speed = GPIO_SPEED_FREQ_LOW;
 1361              		.loc 1 484 26 is_stmt 0 view .LVU361
 1362 002c 0024     		movs	r4, #0
 1363 002e 0394     		str	r4, [sp, #12]
 485:Src/stm32f7xx_hal_msp.c ****     GPIO_InitStruct.Alternate = GPIO_AF14_LTDC;
 1364              		.loc 1 485 5 is_stmt 1 view .LVU362
 485:Src/stm32f7xx_hal_msp.c ****     GPIO_InitStruct.Alternate = GPIO_AF14_LTDC;
 1365              		.loc 1 485 27 is_stmt 0 view .LVU363
 1366 0030 0494     		str	r4, [sp, #16]
 486:Src/stm32f7xx_hal_msp.c ****     HAL_GPIO_Init(LCD_B0_GPIO_Port, &GPIO_InitStruct);
 1367              		.loc 1 486 5 is_stmt 1 view .LVU364
 486:Src/stm32f7xx_hal_msp.c ****     HAL_GPIO_Init(LCD_B0_GPIO_Port, &GPIO_InitStruct);
 1368              		.loc 1 486 31 is_stmt 0 view .LVU365
 1369 0032 0E26     		movs	r6, #14
 1370 0034 0596     		str	r6, [sp, #20]
 487:Src/stm32f7xx_hal_msp.c **** 
 1371              		.loc 1 487 5 is_stmt 1 view .LVU366
 1372 0036 01A9     		add	r1, sp, #4
 1373 0038 1D48     		ldr	r0, .L103+4
 1374              	.LVL74:
 487:Src/stm32f7xx_hal_msp.c **** 
 1375              		.loc 1 487 5 is_stmt 0 view .LVU367
 1376 003a FFF7FEFF 		bl	HAL_GPIO_Init
 1377              	.LVL75:
 489:Src/stm32f7xx_hal_msp.c ****                           |LCD_G1_Pin|LCD_G3_Pin|LCD_G0_Pin|LCD_G2_Pin 
 1378              		.loc 1 489 5 is_stmt 1 view .LVU368
 489:Src/stm32f7xx_hal_msp.c ****                           |LCD_G1_Pin|LCD_G3_Pin|LCD_G0_Pin|LCD_G2_Pin 
 1379              		.loc 1 489 25 is_stmt 0 view .LVU369
 1380 003e 4EF6FF73 		movw	r3, #61439
 1381 0042 0193     		str	r3, [sp, #4]
 493:Src/stm32f7xx_hal_msp.c ****     GPIO_InitStruct.Pull = GPIO_NOPULL;
 1382              		.loc 1 493 5 is_stmt 1 view .LVU370
 493:Src/stm32f7xx_hal_msp.c ****     GPIO_InitStruct.Pull = GPIO_NOPULL;
 1383              		.loc 1 493 26 is_stmt 0 view .LVU371
 1384 0044 0295     		str	r5, [sp, #8]
 494:Src/stm32f7xx_hal_msp.c ****     GPIO_InitStruct.Speed = GPIO_SPEED_FREQ_LOW;
 1385              		.loc 1 494 5 is_stmt 1 view .LVU372
 494:Src/stm32f7xx_hal_msp.c ****     GPIO_InitStruct.Speed = GPIO_SPEED_FREQ_LOW;
 1386              		.loc 1 494 26 is_stmt 0 view .LVU373
 1387 0046 0394     		str	r4, [sp, #12]
 495:Src/stm32f7xx_hal_msp.c ****     GPIO_InitStruct.Alternate = GPIO_AF14_LTDC;
ARM GAS  C:\Users\Nina\AppData\Local\Temp\ccvtmqTe.s 			page 56


 1388              		.loc 1 495 5 is_stmt 1 view .LVU374
 495:Src/stm32f7xx_hal_msp.c ****     GPIO_InitStruct.Alternate = GPIO_AF14_LTDC;
 1389              		.loc 1 495 27 is_stmt 0 view .LVU375
 1390 0048 0494     		str	r4, [sp, #16]
 496:Src/stm32f7xx_hal_msp.c ****     HAL_GPIO_Init(GPIOJ, &GPIO_InitStruct);
 1391              		.loc 1 496 5 is_stmt 1 view .LVU376
 496:Src/stm32f7xx_hal_msp.c ****     HAL_GPIO_Init(GPIOJ, &GPIO_InitStruct);
 1392              		.loc 1 496 31 is_stmt 0 view .LVU377
 1393 004a 0596     		str	r6, [sp, #20]
 497:Src/stm32f7xx_hal_msp.c **** 
 1394              		.loc 1 497 5 is_stmt 1 view .LVU378
 1395 004c 01A9     		add	r1, sp, #4
 1396 004e 1948     		ldr	r0, .L103+8
 1397 0050 FFF7FEFF 		bl	HAL_GPIO_Init
 1398              	.LVL76:
 499:Src/stm32f7xx_hal_msp.c ****                           |LCD_G6_Pin|LCD_G7_Pin|LCD_G5_Pin;
 1399              		.loc 1 499 5 view .LVU379
 499:Src/stm32f7xx_hal_msp.c ****                           |LCD_G6_Pin|LCD_G7_Pin|LCD_G5_Pin;
 1400              		.loc 1 499 25 is_stmt 0 view .LVU380
 1401 0054 F723     		movs	r3, #247
 1402 0056 0193     		str	r3, [sp, #4]
 501:Src/stm32f7xx_hal_msp.c ****     GPIO_InitStruct.Pull = GPIO_NOPULL;
 1403              		.loc 1 501 5 is_stmt 1 view .LVU381
 501:Src/stm32f7xx_hal_msp.c ****     GPIO_InitStruct.Pull = GPIO_NOPULL;
 1404              		.loc 1 501 26 is_stmt 0 view .LVU382
 1405 0058 0295     		str	r5, [sp, #8]
 502:Src/stm32f7xx_hal_msp.c ****     GPIO_InitStruct.Speed = GPIO_SPEED_FREQ_LOW;
 1406              		.loc 1 502 5 is_stmt 1 view .LVU383
 502:Src/stm32f7xx_hal_msp.c ****     GPIO_InitStruct.Speed = GPIO_SPEED_FREQ_LOW;
 1407              		.loc 1 502 26 is_stmt 0 view .LVU384
 1408 005a 0394     		str	r4, [sp, #12]
 503:Src/stm32f7xx_hal_msp.c ****     GPIO_InitStruct.Alternate = GPIO_AF14_LTDC;
 1409              		.loc 1 503 5 is_stmt 1 view .LVU385
 503:Src/stm32f7xx_hal_msp.c ****     GPIO_InitStruct.Alternate = GPIO_AF14_LTDC;
 1410              		.loc 1 503 27 is_stmt 0 view .LVU386
 1411 005c 0494     		str	r4, [sp, #16]
 504:Src/stm32f7xx_hal_msp.c ****     HAL_GPIO_Init(GPIOK, &GPIO_InitStruct);
 1412              		.loc 1 504 5 is_stmt 1 view .LVU387
 504:Src/stm32f7xx_hal_msp.c ****     HAL_GPIO_Init(GPIOK, &GPIO_InitStruct);
 1413              		.loc 1 504 31 is_stmt 0 view .LVU388
 1414 005e 0596     		str	r6, [sp, #20]
 505:Src/stm32f7xx_hal_msp.c **** 
 1415              		.loc 1 505 5 is_stmt 1 view .LVU389
 1416 0060 01A9     		add	r1, sp, #4
 1417 0062 1548     		ldr	r0, .L103+12
 1418 0064 FFF7FEFF 		bl	HAL_GPIO_Init
 1419              	.LVL77:
 507:Src/stm32f7xx_hal_msp.c ****     GPIO_InitStruct.Mode = GPIO_MODE_AF_PP;
 1420              		.loc 1 507 5 view .LVU390
 507:Src/stm32f7xx_hal_msp.c ****     GPIO_InitStruct.Mode = GPIO_MODE_AF_PP;
 1421              		.loc 1 507 25 is_stmt 0 view .LVU391
 1422 0068 4FF48053 		mov	r3, #4096
 1423 006c 0193     		str	r3, [sp, #4]
 508:Src/stm32f7xx_hal_msp.c ****     GPIO_InitStruct.Pull = GPIO_NOPULL;
 1424              		.loc 1 508 5 is_stmt 1 view .LVU392
 508:Src/stm32f7xx_hal_msp.c ****     GPIO_InitStruct.Pull = GPIO_NOPULL;
 1425              		.loc 1 508 26 is_stmt 0 view .LVU393
ARM GAS  C:\Users\Nina\AppData\Local\Temp\ccvtmqTe.s 			page 57


 1426 006e 0295     		str	r5, [sp, #8]
 509:Src/stm32f7xx_hal_msp.c ****     GPIO_InitStruct.Speed = GPIO_SPEED_FREQ_LOW;
 1427              		.loc 1 509 5 is_stmt 1 view .LVU394
 509:Src/stm32f7xx_hal_msp.c ****     GPIO_InitStruct.Speed = GPIO_SPEED_FREQ_LOW;
 1428              		.loc 1 509 26 is_stmt 0 view .LVU395
 1429 0070 0394     		str	r4, [sp, #12]
 510:Src/stm32f7xx_hal_msp.c ****     GPIO_InitStruct.Alternate = GPIO_AF9_LTDC;
 1430              		.loc 1 510 5 is_stmt 1 view .LVU396
 510:Src/stm32f7xx_hal_msp.c ****     GPIO_InitStruct.Alternate = GPIO_AF9_LTDC;
 1431              		.loc 1 510 27 is_stmt 0 view .LVU397
 1432 0072 0494     		str	r4, [sp, #16]
 511:Src/stm32f7xx_hal_msp.c ****     HAL_GPIO_Init(LCD_B4_GPIO_Port, &GPIO_InitStruct);
 1433              		.loc 1 511 5 is_stmt 1 view .LVU398
 511:Src/stm32f7xx_hal_msp.c ****     HAL_GPIO_Init(LCD_B4_GPIO_Port, &GPIO_InitStruct);
 1434              		.loc 1 511 31 is_stmt 0 view .LVU399
 1435 0074 0923     		movs	r3, #9
 1436 0076 0593     		str	r3, [sp, #20]
 512:Src/stm32f7xx_hal_msp.c **** 
 1437              		.loc 1 512 5 is_stmt 1 view .LVU400
 1438 0078 01A9     		add	r1, sp, #4
 1439 007a 1048     		ldr	r0, .L103+16
 1440 007c FFF7FEFF 		bl	HAL_GPIO_Init
 1441              	.LVL78:
 514:Src/stm32f7xx_hal_msp.c ****     GPIO_InitStruct.Mode = GPIO_MODE_AF_PP;
 1442              		.loc 1 514 5 view .LVU401
 514:Src/stm32f7xx_hal_msp.c ****     GPIO_InitStruct.Mode = GPIO_MODE_AF_PP;
 1443              		.loc 1 514 25 is_stmt 0 view .LVU402
 1444 0080 4FF44643 		mov	r3, #50688
 1445 0084 0193     		str	r3, [sp, #4]
 515:Src/stm32f7xx_hal_msp.c ****     GPIO_InitStruct.Pull = GPIO_NOPULL;
 1446              		.loc 1 515 5 is_stmt 1 view .LVU403
 515:Src/stm32f7xx_hal_msp.c ****     GPIO_InitStruct.Pull = GPIO_NOPULL;
 1447              		.loc 1 515 26 is_stmt 0 view .LVU404
 1448 0086 0295     		str	r5, [sp, #8]
 516:Src/stm32f7xx_hal_msp.c ****     GPIO_InitStruct.Speed = GPIO_SPEED_FREQ_LOW;
 1449              		.loc 1 516 5 is_stmt 1 view .LVU405
 516:Src/stm32f7xx_hal_msp.c ****     GPIO_InitStruct.Speed = GPIO_SPEED_FREQ_LOW;
 1450              		.loc 1 516 26 is_stmt 0 view .LVU406
 1451 0088 0394     		str	r4, [sp, #12]
 517:Src/stm32f7xx_hal_msp.c ****     GPIO_InitStruct.Alternate = GPIO_AF14_LTDC;
 1452              		.loc 1 517 5 is_stmt 1 view .LVU407
 517:Src/stm32f7xx_hal_msp.c ****     GPIO_InitStruct.Alternate = GPIO_AF14_LTDC;
 1453              		.loc 1 517 27 is_stmt 0 view .LVU408
 1454 008a 0494     		str	r4, [sp, #16]
 518:Src/stm32f7xx_hal_msp.c ****     HAL_GPIO_Init(GPIOI, &GPIO_InitStruct);
 1455              		.loc 1 518 5 is_stmt 1 view .LVU409
 518:Src/stm32f7xx_hal_msp.c ****     HAL_GPIO_Init(GPIOI, &GPIO_InitStruct);
 1456              		.loc 1 518 31 is_stmt 0 view .LVU410
 1457 008c 0596     		str	r6, [sp, #20]
 519:Src/stm32f7xx_hal_msp.c **** 
 1458              		.loc 1 519 5 is_stmt 1 view .LVU411
 1459 008e 01A9     		add	r1, sp, #4
 1460 0090 0B48     		ldr	r0, .L103+20
 1461 0092 FFF7FEFF 		bl	HAL_GPIO_Init
 1462              	.LVL79:
 522:Src/stm32f7xx_hal_msp.c ****     HAL_NVIC_EnableIRQ(LTDC_IRQn);
 1463              		.loc 1 522 5 view .LVU412
ARM GAS  C:\Users\Nina\AppData\Local\Temp\ccvtmqTe.s 			page 58


 1464 0096 2246     		mov	r2, r4
 1465 0098 0521     		movs	r1, #5
 1466 009a 5820     		movs	r0, #88
 1467 009c FFF7FEFF 		bl	HAL_NVIC_SetPriority
 1468              	.LVL80:
 523:Src/stm32f7xx_hal_msp.c ****   /* USER CODE BEGIN LTDC_MspInit 1 */
 1469              		.loc 1 523 5 view .LVU413
 1470 00a0 5820     		movs	r0, #88
 1471 00a2 FFF7FEFF 		bl	HAL_NVIC_EnableIRQ
 1472              	.LVL81:
 529:Src/stm32f7xx_hal_msp.c **** 
 1473              		.loc 1 529 1 is_stmt 0 view .LVU414
 1474 00a6 06B0     		add	sp, sp, #24
 1475              	.LCFI28:
 1476              		.cfi_def_cfa_offset 16
 1477              		@ sp needed
 1478 00a8 70BD     		pop	{r4, r5, r6, pc}
 1479              	.L104:
 1480 00aa 00BF     		.align	2
 1481              	.L103:
 1482 00ac 00680140 		.word	1073833984
 1483 00b0 00100240 		.word	1073876992
 1484 00b4 00240240 		.word	1073882112
 1485 00b8 00280240 		.word	1073883136
 1486 00bc 00180240 		.word	1073879040
 1487 00c0 00200240 		.word	1073881088
 1488              		.cfi_endproc
 1489              	.LFE149:
 1491              		.section	.text.HAL_LTDC_MspDeInit,"ax",%progbits
 1492              		.align	1
 1493              		.global	HAL_LTDC_MspDeInit
 1494              		.syntax unified
 1495              		.thumb
 1496              		.thumb_func
 1497              		.fpu fpv5-sp-d16
 1499              	HAL_LTDC_MspDeInit:
 1500              	.LVL82:
 1501              	.LFB150:
 532:Src/stm32f7xx_hal_msp.c **** 
 1502              		.loc 1 532 1 is_stmt 1 view -0
 1503              		.cfi_startproc
 1504              		@ args = 0, pretend = 0, frame = 0
 1505              		@ frame_needed = 0, uses_anonymous_args = 0
 532:Src/stm32f7xx_hal_msp.c **** 
 1506              		.loc 1 532 1 is_stmt 0 view .LVU416
 1507 0000 08B5     		push	{r3, lr}
 1508              	.LCFI29:
 1509              		.cfi_def_cfa_offset 8
 1510              		.cfi_offset 3, -8
 1511              		.cfi_offset 14, -4
 534:Src/stm32f7xx_hal_msp.c ****   {
 1512              		.loc 1 534 3 is_stmt 1 view .LVU417
 534:Src/stm32f7xx_hal_msp.c ****   {
 1513              		.loc 1 534 11 is_stmt 0 view .LVU418
 1514 0002 0268     		ldr	r2, [r0]
 534:Src/stm32f7xx_hal_msp.c ****   {
 1515              		.loc 1 534 5 view .LVU419
ARM GAS  C:\Users\Nina\AppData\Local\Temp\ccvtmqTe.s 			page 59


 1516 0004 114B     		ldr	r3, .L109
 1517 0006 9A42     		cmp	r2, r3
 1518 0008 00D0     		beq	.L108
 1519              	.LVL83:
 1520              	.L105:
 593:Src/stm32f7xx_hal_msp.c **** 
 1521              		.loc 1 593 1 view .LVU420
 1522 000a 08BD     		pop	{r3, pc}
 1523              	.LVL84:
 1524              	.L108:
 540:Src/stm32f7xx_hal_msp.c ****   
 1525              		.loc 1 540 5 is_stmt 1 view .LVU421
 1526 000c 104A     		ldr	r2, .L109+4
 1527 000e 536C     		ldr	r3, [r2, #68]
 1528 0010 23F08063 		bic	r3, r3, #67108864
 1529 0014 5364     		str	r3, [r2, #68]
 572:Src/stm32f7xx_hal_msp.c **** 
 1530              		.loc 1 572 5 view .LVU422
 1531 0016 1021     		movs	r1, #16
 1532 0018 0E48     		ldr	r0, .L109+8
 1533              	.LVL85:
 572:Src/stm32f7xx_hal_msp.c **** 
 1534              		.loc 1 572 5 is_stmt 0 view .LVU423
 1535 001a FFF7FEFF 		bl	HAL_GPIO_DeInit
 1536              	.LVL86:
 574:Src/stm32f7xx_hal_msp.c ****                           |LCD_G1_Pin|LCD_G3_Pin|LCD_G0_Pin|LCD_G2_Pin 
 1537              		.loc 1 574 5 is_stmt 1 view .LVU424
 1538 001e 4EF6FF71 		movw	r1, #61439
 1539 0022 0D48     		ldr	r0, .L109+12
 1540 0024 FFF7FEFF 		bl	HAL_GPIO_DeInit
 1541              	.LVL87:
 579:Src/stm32f7xx_hal_msp.c ****                           |LCD_G6_Pin|LCD_G7_Pin|LCD_G5_Pin);
 1542              		.loc 1 579 5 view .LVU425
 1543 0028 F721     		movs	r1, #247
 1544 002a 0C48     		ldr	r0, .L109+16
 1545 002c FFF7FEFF 		bl	HAL_GPIO_DeInit
 1546              	.LVL88:
 582:Src/stm32f7xx_hal_msp.c **** 
 1547              		.loc 1 582 5 view .LVU426
 1548 0030 4FF48051 		mov	r1, #4096
 1549 0034 0A48     		ldr	r0, .L109+20
 1550 0036 FFF7FEFF 		bl	HAL_GPIO_DeInit
 1551              	.LVL89:
 584:Src/stm32f7xx_hal_msp.c **** 
 1552              		.loc 1 584 5 view .LVU427
 1553 003a 4FF44641 		mov	r1, #50688
 1554 003e 0948     		ldr	r0, .L109+24
 1555 0040 FFF7FEFF 		bl	HAL_GPIO_DeInit
 1556              	.LVL90:
 587:Src/stm32f7xx_hal_msp.c ****   /* USER CODE BEGIN LTDC_MspDeInit 1 */
 1557              		.loc 1 587 5 view .LVU428
 1558 0044 5820     		movs	r0, #88
 1559 0046 FFF7FEFF 		bl	HAL_NVIC_DisableIRQ
 1560              	.LVL91:
 593:Src/stm32f7xx_hal_msp.c **** 
 1561              		.loc 1 593 1 is_stmt 0 view .LVU429
 1562 004a DEE7     		b	.L105
ARM GAS  C:\Users\Nina\AppData\Local\Temp\ccvtmqTe.s 			page 60


 1563              	.L110:
 1564              		.align	2
 1565              	.L109:
 1566 004c 00680140 		.word	1073833984
 1567 0050 00380240 		.word	1073887232
 1568 0054 00100240 		.word	1073876992
 1569 0058 00240240 		.word	1073882112
 1570 005c 00280240 		.word	1073883136
 1571 0060 00180240 		.word	1073879040
 1572 0064 00200240 		.word	1073881088
 1573              		.cfi_endproc
 1574              	.LFE150:
 1576              		.section	.text.HAL_QSPI_MspInit,"ax",%progbits
 1577              		.align	1
 1578              		.global	HAL_QSPI_MspInit
 1579              		.syntax unified
 1580              		.thumb
 1581              		.thumb_func
 1582              		.fpu fpv5-sp-d16
 1584              	HAL_QSPI_MspInit:
 1585              	.LVL92:
 1586              	.LFB151:
 596:Src/stm32f7xx_hal_msp.c **** 
 1587              		.loc 1 596 1 is_stmt 1 view -0
 1588              		.cfi_startproc
 1589              		@ args = 0, pretend = 0, frame = 24
 1590              		@ frame_needed = 0, uses_anonymous_args = 0
 598:Src/stm32f7xx_hal_msp.c ****   if(hqspi->Instance==QUADSPI)
 1591              		.loc 1 598 3 view .LVU431
 599:Src/stm32f7xx_hal_msp.c ****   {
 1592              		.loc 1 599 3 view .LVU432
 599:Src/stm32f7xx_hal_msp.c ****   {
 1593              		.loc 1 599 11 is_stmt 0 view .LVU433
 1594 0000 0268     		ldr	r2, [r0]
 599:Src/stm32f7xx_hal_msp.c ****   {
 1595              		.loc 1 599 5 view .LVU434
 1596 0002 254B     		ldr	r3, .L118
 1597 0004 9A42     		cmp	r2, r3
 1598 0006 00D0     		beq	.L117
 1599 0008 7047     		bx	lr
 1600              	.L117:
 596:Src/stm32f7xx_hal_msp.c **** 
 1601              		.loc 1 596 1 view .LVU435
 1602 000a 2DE9F043 		push	{r4, r5, r6, r7, r8, r9, lr}
 1603              	.LCFI30:
 1604              		.cfi_def_cfa_offset 28
 1605              		.cfi_offset 4, -28
 1606              		.cfi_offset 5, -24
 1607              		.cfi_offset 6, -20
 1608              		.cfi_offset 7, -16
 1609              		.cfi_offset 8, -12
 1610              		.cfi_offset 9, -8
 1611              		.cfi_offset 14, -4
 1612 000e 87B0     		sub	sp, sp, #28
 1613              	.LCFI31:
 1614              		.cfi_def_cfa_offset 56
 605:Src/stm32f7xx_hal_msp.c ****   
ARM GAS  C:\Users\Nina\AppData\Local\Temp\ccvtmqTe.s 			page 61


 1615              		.loc 1 605 5 is_stmt 1 view .LVU436
 1616              	.LBB12:
 605:Src/stm32f7xx_hal_msp.c ****   
 1617              		.loc 1 605 5 view .LVU437
 605:Src/stm32f7xx_hal_msp.c ****   
 1618              		.loc 1 605 5 view .LVU438
 1619 0010 224B     		ldr	r3, .L118+4
 1620 0012 9A6B     		ldr	r2, [r3, #56]
 1621 0014 42F00202 		orr	r2, r2, #2
 1622 0018 9A63     		str	r2, [r3, #56]
 605:Src/stm32f7xx_hal_msp.c ****   
 1623              		.loc 1 605 5 view .LVU439
 1624 001a 9B6B     		ldr	r3, [r3, #56]
 1625 001c 03F00203 		and	r3, r3, #2
 1626 0020 0093     		str	r3, [sp]
 605:Src/stm32f7xx_hal_msp.c ****   
 1627              		.loc 1 605 5 view .LVU440
 1628 0022 009B     		ldr	r3, [sp]
 1629              	.LBE12:
 605:Src/stm32f7xx_hal_msp.c ****   
 1630              		.loc 1 605 5 view .LVU441
 615:Src/stm32f7xx_hal_msp.c ****     GPIO_InitStruct.Mode = GPIO_MODE_AF_PP;
 1631              		.loc 1 615 5 view .LVU442
 615:Src/stm32f7xx_hal_msp.c ****     GPIO_InitStruct.Mode = GPIO_MODE_AF_PP;
 1632              		.loc 1 615 25 is_stmt 0 view .LVU443
 1633 0024 4FF00409 		mov	r9, #4
 1634 0028 CDF80490 		str	r9, [sp, #4]
 616:Src/stm32f7xx_hal_msp.c ****     GPIO_InitStruct.Pull = GPIO_NOPULL;
 1635              		.loc 1 616 5 is_stmt 1 view .LVU444
 616:Src/stm32f7xx_hal_msp.c ****     GPIO_InitStruct.Pull = GPIO_NOPULL;
 1636              		.loc 1 616 26 is_stmt 0 view .LVU445
 1637 002c 0226     		movs	r6, #2
 1638 002e 0296     		str	r6, [sp, #8]
 617:Src/stm32f7xx_hal_msp.c ****     GPIO_InitStruct.Speed = GPIO_SPEED_FREQ_VERY_HIGH;
 1639              		.loc 1 617 5 is_stmt 1 view .LVU446
 617:Src/stm32f7xx_hal_msp.c ****     GPIO_InitStruct.Speed = GPIO_SPEED_FREQ_VERY_HIGH;
 1640              		.loc 1 617 26 is_stmt 0 view .LVU447
 1641 0030 0025     		movs	r5, #0
 1642 0032 0395     		str	r5, [sp, #12]
 618:Src/stm32f7xx_hal_msp.c ****     GPIO_InitStruct.Alternate = GPIO_AF9_QUADSPI;
 1643              		.loc 1 618 5 is_stmt 1 view .LVU448
 618:Src/stm32f7xx_hal_msp.c ****     GPIO_InitStruct.Alternate = GPIO_AF9_QUADSPI;
 1644              		.loc 1 618 27 is_stmt 0 view .LVU449
 1645 0034 0324     		movs	r4, #3
 1646 0036 0494     		str	r4, [sp, #16]
 619:Src/stm32f7xx_hal_msp.c ****     HAL_GPIO_Init(QSPI_D2_GPIO_Port, &GPIO_InitStruct);
 1647              		.loc 1 619 5 is_stmt 1 view .LVU450
 619:Src/stm32f7xx_hal_msp.c ****     HAL_GPIO_Init(QSPI_D2_GPIO_Port, &GPIO_InitStruct);
 1648              		.loc 1 619 31 is_stmt 0 view .LVU451
 1649 0038 0927     		movs	r7, #9
 1650 003a 0597     		str	r7, [sp, #20]
 620:Src/stm32f7xx_hal_msp.c **** 
 1651              		.loc 1 620 5 is_stmt 1 view .LVU452
 1652 003c 0DEB0901 		add	r1, sp, r9
 1653 0040 1748     		ldr	r0, .L118+8
 1654              	.LVL93:
 620:Src/stm32f7xx_hal_msp.c **** 
ARM GAS  C:\Users\Nina\AppData\Local\Temp\ccvtmqTe.s 			page 62


 1655              		.loc 1 620 5 is_stmt 0 view .LVU453
 1656 0042 FFF7FEFF 		bl	HAL_GPIO_Init
 1657              	.LVL94:
 622:Src/stm32f7xx_hal_msp.c ****     GPIO_InitStruct.Mode = GPIO_MODE_AF_PP;
 1658              		.loc 1 622 5 is_stmt 1 view .LVU454
 622:Src/stm32f7xx_hal_msp.c ****     GPIO_InitStruct.Mode = GPIO_MODE_AF_PP;
 1659              		.loc 1 622 25 is_stmt 0 view .LVU455
 1660 0046 4023     		movs	r3, #64
 1661 0048 0193     		str	r3, [sp, #4]
 623:Src/stm32f7xx_hal_msp.c ****     GPIO_InitStruct.Pull = GPIO_NOPULL;
 1662              		.loc 1 623 5 is_stmt 1 view .LVU456
 623:Src/stm32f7xx_hal_msp.c ****     GPIO_InitStruct.Pull = GPIO_NOPULL;
 1663              		.loc 1 623 26 is_stmt 0 view .LVU457
 1664 004a 0296     		str	r6, [sp, #8]
 624:Src/stm32f7xx_hal_msp.c ****     GPIO_InitStruct.Speed = GPIO_SPEED_FREQ_VERY_HIGH;
 1665              		.loc 1 624 5 is_stmt 1 view .LVU458
 624:Src/stm32f7xx_hal_msp.c ****     GPIO_InitStruct.Speed = GPIO_SPEED_FREQ_VERY_HIGH;
 1666              		.loc 1 624 26 is_stmt 0 view .LVU459
 1667 004c 0395     		str	r5, [sp, #12]
 625:Src/stm32f7xx_hal_msp.c ****     GPIO_InitStruct.Alternate = GPIO_AF10_QUADSPI;
 1668              		.loc 1 625 5 is_stmt 1 view .LVU460
 625:Src/stm32f7xx_hal_msp.c ****     GPIO_InitStruct.Alternate = GPIO_AF10_QUADSPI;
 1669              		.loc 1 625 27 is_stmt 0 view .LVU461
 1670 004e 0494     		str	r4, [sp, #16]
 626:Src/stm32f7xx_hal_msp.c ****     HAL_GPIO_Init(QSPI_NCS_GPIO_Port, &GPIO_InitStruct);
 1671              		.loc 1 626 5 is_stmt 1 view .LVU462
 626:Src/stm32f7xx_hal_msp.c ****     HAL_GPIO_Init(QSPI_NCS_GPIO_Port, &GPIO_InitStruct);
 1672              		.loc 1 626 31 is_stmt 0 view .LVU463
 1673 0050 0A23     		movs	r3, #10
 1674 0052 0593     		str	r3, [sp, #20]
 627:Src/stm32f7xx_hal_msp.c **** 
 1675              		.loc 1 627 5 is_stmt 1 view .LVU464
 1676 0054 DFF85080 		ldr	r8, .L118+16
 1677 0058 0DEB0901 		add	r1, sp, r9
 1678 005c 4046     		mov	r0, r8
 1679 005e FFF7FEFF 		bl	HAL_GPIO_Init
 1680              	.LVL95:
 629:Src/stm32f7xx_hal_msp.c ****     GPIO_InitStruct.Mode = GPIO_MODE_AF_PP;
 1681              		.loc 1 629 5 view .LVU465
 629:Src/stm32f7xx_hal_msp.c ****     GPIO_InitStruct.Mode = GPIO_MODE_AF_PP;
 1682              		.loc 1 629 25 is_stmt 0 view .LVU466
 1683 0062 CDF80490 		str	r9, [sp, #4]
 630:Src/stm32f7xx_hal_msp.c ****     GPIO_InitStruct.Pull = GPIO_NOPULL;
 1684              		.loc 1 630 5 is_stmt 1 view .LVU467
 630:Src/stm32f7xx_hal_msp.c ****     GPIO_InitStruct.Pull = GPIO_NOPULL;
 1685              		.loc 1 630 26 is_stmt 0 view .LVU468
 1686 0066 0296     		str	r6, [sp, #8]
 631:Src/stm32f7xx_hal_msp.c ****     GPIO_InitStruct.Speed = GPIO_SPEED_FREQ_VERY_HIGH;
 1687              		.loc 1 631 5 is_stmt 1 view .LVU469
 631:Src/stm32f7xx_hal_msp.c ****     GPIO_InitStruct.Speed = GPIO_SPEED_FREQ_VERY_HIGH;
 1688              		.loc 1 631 26 is_stmt 0 view .LVU470
 1689 0068 0395     		str	r5, [sp, #12]
 632:Src/stm32f7xx_hal_msp.c ****     GPIO_InitStruct.Alternate = GPIO_AF9_QUADSPI;
 1690              		.loc 1 632 5 is_stmt 1 view .LVU471
 632:Src/stm32f7xx_hal_msp.c ****     GPIO_InitStruct.Alternate = GPIO_AF9_QUADSPI;
 1691              		.loc 1 632 27 is_stmt 0 view .LVU472
 1692 006a 0494     		str	r4, [sp, #16]
ARM GAS  C:\Users\Nina\AppData\Local\Temp\ccvtmqTe.s 			page 63


 633:Src/stm32f7xx_hal_msp.c ****     HAL_GPIO_Init(GPIOB, &GPIO_InitStruct);
 1693              		.loc 1 633 5 is_stmt 1 view .LVU473
 633:Src/stm32f7xx_hal_msp.c ****     HAL_GPIO_Init(GPIOB, &GPIO_InitStruct);
 1694              		.loc 1 633 31 is_stmt 0 view .LVU474
 1695 006c 0597     		str	r7, [sp, #20]
 634:Src/stm32f7xx_hal_msp.c **** 
 1696              		.loc 1 634 5 is_stmt 1 view .LVU475
 1697 006e 0DEB0901 		add	r1, sp, r9
 1698 0072 4046     		mov	r0, r8
 1699 0074 FFF7FEFF 		bl	HAL_GPIO_Init
 1700              	.LVL96:
 636:Src/stm32f7xx_hal_msp.c ****     GPIO_InitStruct.Mode = GPIO_MODE_AF_PP;
 1701              		.loc 1 636 5 view .LVU476
 636:Src/stm32f7xx_hal_msp.c ****     GPIO_InitStruct.Mode = GPIO_MODE_AF_PP;
 1702              		.loc 1 636 25 is_stmt 0 view .LVU477
 1703 0078 4FF46053 		mov	r3, #14336
 1704 007c 0193     		str	r3, [sp, #4]
 637:Src/stm32f7xx_hal_msp.c ****     GPIO_InitStruct.Pull = GPIO_NOPULL;
 1705              		.loc 1 637 5 is_stmt 1 view .LVU478
 637:Src/stm32f7xx_hal_msp.c ****     GPIO_InitStruct.Pull = GPIO_NOPULL;
 1706              		.loc 1 637 26 is_stmt 0 view .LVU479
 1707 007e 0296     		str	r6, [sp, #8]
 638:Src/stm32f7xx_hal_msp.c ****     GPIO_InitStruct.Speed = GPIO_SPEED_FREQ_VERY_HIGH;
 1708              		.loc 1 638 5 is_stmt 1 view .LVU480
 638:Src/stm32f7xx_hal_msp.c ****     GPIO_InitStruct.Speed = GPIO_SPEED_FREQ_VERY_HIGH;
 1709              		.loc 1 638 26 is_stmt 0 view .LVU481
 1710 0080 0395     		str	r5, [sp, #12]
 639:Src/stm32f7xx_hal_msp.c ****     GPIO_InitStruct.Alternate = GPIO_AF9_QUADSPI;
 1711              		.loc 1 639 5 is_stmt 1 view .LVU482
 639:Src/stm32f7xx_hal_msp.c ****     GPIO_InitStruct.Alternate = GPIO_AF9_QUADSPI;
 1712              		.loc 1 639 27 is_stmt 0 view .LVU483
 1713 0082 0494     		str	r4, [sp, #16]
 640:Src/stm32f7xx_hal_msp.c ****     HAL_GPIO_Init(GPIOD, &GPIO_InitStruct);
 1714              		.loc 1 640 5 is_stmt 1 view .LVU484
 640:Src/stm32f7xx_hal_msp.c ****     HAL_GPIO_Init(GPIOD, &GPIO_InitStruct);
 1715              		.loc 1 640 31 is_stmt 0 view .LVU485
 1716 0084 0597     		str	r7, [sp, #20]
 641:Src/stm32f7xx_hal_msp.c **** 
 1717              		.loc 1 641 5 is_stmt 1 view .LVU486
 1718 0086 0DEB0901 		add	r1, sp, r9
 1719 008a 0648     		ldr	r0, .L118+12
 1720 008c FFF7FEFF 		bl	HAL_GPIO_Init
 1721              	.LVL97:
 648:Src/stm32f7xx_hal_msp.c **** 
 1722              		.loc 1 648 1 is_stmt 0 view .LVU487
 1723 0090 07B0     		add	sp, sp, #28
 1724              	.LCFI32:
 1725              		.cfi_def_cfa_offset 28
 1726              		@ sp needed
 1727 0092 BDE8F083 		pop	{r4, r5, r6, r7, r8, r9, pc}
 1728              	.L119:
 1729 0096 00BF     		.align	2
 1730              	.L118:
 1731 0098 001000A0 		.word	-1610608640
 1732 009c 00380240 		.word	1073887232
 1733 00a0 00100240 		.word	1073876992
 1734 00a4 000C0240 		.word	1073875968
ARM GAS  C:\Users\Nina\AppData\Local\Temp\ccvtmqTe.s 			page 64


 1735 00a8 00040240 		.word	1073873920
 1736              		.cfi_endproc
 1737              	.LFE151:
 1739              		.section	.text.HAL_QSPI_MspDeInit,"ax",%progbits
 1740              		.align	1
 1741              		.global	HAL_QSPI_MspDeInit
 1742              		.syntax unified
 1743              		.thumb
 1744              		.thumb_func
 1745              		.fpu fpv5-sp-d16
 1747              	HAL_QSPI_MspDeInit:
 1748              	.LVL98:
 1749              	.LFB152:
 651:Src/stm32f7xx_hal_msp.c **** 
 1750              		.loc 1 651 1 is_stmt 1 view -0
 1751              		.cfi_startproc
 1752              		@ args = 0, pretend = 0, frame = 0
 1753              		@ frame_needed = 0, uses_anonymous_args = 0
 651:Src/stm32f7xx_hal_msp.c **** 
 1754              		.loc 1 651 1 is_stmt 0 view .LVU489
 1755 0000 08B5     		push	{r3, lr}
 1756              	.LCFI33:
 1757              		.cfi_def_cfa_offset 8
 1758              		.cfi_offset 3, -8
 1759              		.cfi_offset 14, -4
 653:Src/stm32f7xx_hal_msp.c ****   {
 1760              		.loc 1 653 3 is_stmt 1 view .LVU490
 653:Src/stm32f7xx_hal_msp.c ****   {
 1761              		.loc 1 653 11 is_stmt 0 view .LVU491
 1762 0002 0268     		ldr	r2, [r0]
 653:Src/stm32f7xx_hal_msp.c ****   {
 1763              		.loc 1 653 5 view .LVU492
 1764 0004 0B4B     		ldr	r3, .L124
 1765 0006 9A42     		cmp	r2, r3
 1766 0008 00D0     		beq	.L123
 1767              	.LVL99:
 1768              	.L120:
 680:Src/stm32f7xx_hal_msp.c **** 
 1769              		.loc 1 680 1 view .LVU493
 1770 000a 08BD     		pop	{r3, pc}
 1771              	.LVL100:
 1772              	.L123:
 659:Src/stm32f7xx_hal_msp.c ****   
 1773              		.loc 1 659 5 is_stmt 1 view .LVU494
 1774 000c 0A4A     		ldr	r2, .L124+4
 1775 000e 936B     		ldr	r3, [r2, #56]
 1776 0010 23F00203 		bic	r3, r3, #2
 1777 0014 9363     		str	r3, [r2, #56]
 669:Src/stm32f7xx_hal_msp.c **** 
 1778              		.loc 1 669 5 view .LVU495
 1779 0016 0421     		movs	r1, #4
 1780 0018 0848     		ldr	r0, .L124+8
 1781              	.LVL101:
 669:Src/stm32f7xx_hal_msp.c **** 
 1782              		.loc 1 669 5 is_stmt 0 view .LVU496
 1783 001a FFF7FEFF 		bl	HAL_GPIO_DeInit
 1784              	.LVL102:
ARM GAS  C:\Users\Nina\AppData\Local\Temp\ccvtmqTe.s 			page 65


 671:Src/stm32f7xx_hal_msp.c **** 
 1785              		.loc 1 671 5 is_stmt 1 view .LVU497
 1786 001e 4421     		movs	r1, #68
 1787 0020 0748     		ldr	r0, .L124+12
 1788 0022 FFF7FEFF 		bl	HAL_GPIO_DeInit
 1789              	.LVL103:
 673:Src/stm32f7xx_hal_msp.c **** 
 1790              		.loc 1 673 5 view .LVU498
 1791 0026 4FF46051 		mov	r1, #14336
 1792 002a 0648     		ldr	r0, .L124+16
 1793 002c FFF7FEFF 		bl	HAL_GPIO_DeInit
 1794              	.LVL104:
 680:Src/stm32f7xx_hal_msp.c **** 
 1795              		.loc 1 680 1 is_stmt 0 view .LVU499
 1796 0030 EBE7     		b	.L120
 1797              	.L125:
 1798 0032 00BF     		.align	2
 1799              	.L124:
 1800 0034 001000A0 		.word	-1610608640
 1801 0038 00380240 		.word	1073887232
 1802 003c 00100240 		.word	1073876992
 1803 0040 00040240 		.word	1073873920
 1804 0044 000C0240 		.word	1073875968
 1805              		.cfi_endproc
 1806              	.LFE152:
 1808              		.section	.text.HAL_RTC_MspInit,"ax",%progbits
 1809              		.align	1
 1810              		.global	HAL_RTC_MspInit
 1811              		.syntax unified
 1812              		.thumb
 1813              		.thumb_func
 1814              		.fpu fpv5-sp-d16
 1816              	HAL_RTC_MspInit:
 1817              	.LVL105:
 1818              	.LFB153:
 683:Src/stm32f7xx_hal_msp.c **** 
 1819              		.loc 1 683 1 is_stmt 1 view -0
 1820              		.cfi_startproc
 1821              		@ args = 0, pretend = 0, frame = 0
 1822              		@ frame_needed = 0, uses_anonymous_args = 0
 1823              		@ link register save eliminated.
 685:Src/stm32f7xx_hal_msp.c ****   {
 1824              		.loc 1 685 3 view .LVU501
 685:Src/stm32f7xx_hal_msp.c ****   {
 1825              		.loc 1 685 10 is_stmt 0 view .LVU502
 1826 0000 0268     		ldr	r2, [r0]
 685:Src/stm32f7xx_hal_msp.c ****   {
 1827              		.loc 1 685 5 view .LVU503
 1828 0002 054B     		ldr	r3, .L129
 1829 0004 9A42     		cmp	r2, r3
 1830 0006 00D0     		beq	.L128
 1831              	.L126:
 697:Src/stm32f7xx_hal_msp.c **** 
 1832              		.loc 1 697 1 view .LVU504
 1833 0008 7047     		bx	lr
 1834              	.L128:
 691:Src/stm32f7xx_hal_msp.c ****   /* USER CODE BEGIN RTC_MspInit 1 */
ARM GAS  C:\Users\Nina\AppData\Local\Temp\ccvtmqTe.s 			page 66


 1835              		.loc 1 691 5 is_stmt 1 view .LVU505
 1836 000a 044A     		ldr	r2, .L129+4
 1837 000c 136F     		ldr	r3, [r2, #112]
 1838 000e 43F40043 		orr	r3, r3, #32768
 1839 0012 1367     		str	r3, [r2, #112]
 697:Src/stm32f7xx_hal_msp.c **** 
 1840              		.loc 1 697 1 is_stmt 0 view .LVU506
 1841 0014 F8E7     		b	.L126
 1842              	.L130:
 1843 0016 00BF     		.align	2
 1844              	.L129:
 1845 0018 00280040 		.word	1073752064
 1846 001c 00380240 		.word	1073887232
 1847              		.cfi_endproc
 1848              	.LFE153:
 1850              		.section	.text.HAL_RTC_MspDeInit,"ax",%progbits
 1851              		.align	1
 1852              		.global	HAL_RTC_MspDeInit
 1853              		.syntax unified
 1854              		.thumb
 1855              		.thumb_func
 1856              		.fpu fpv5-sp-d16
 1858              	HAL_RTC_MspDeInit:
 1859              	.LVL106:
 1860              	.LFB154:
 700:Src/stm32f7xx_hal_msp.c **** 
 1861              		.loc 1 700 1 is_stmt 1 view -0
 1862              		.cfi_startproc
 1863              		@ args = 0, pretend = 0, frame = 0
 1864              		@ frame_needed = 0, uses_anonymous_args = 0
 1865              		@ link register save eliminated.
 702:Src/stm32f7xx_hal_msp.c ****   {
 1866              		.loc 1 702 3 view .LVU508
 702:Src/stm32f7xx_hal_msp.c ****   {
 1867              		.loc 1 702 10 is_stmt 0 view .LVU509
 1868 0000 0268     		ldr	r2, [r0]
 702:Src/stm32f7xx_hal_msp.c ****   {
 1869              		.loc 1 702 5 view .LVU510
 1870 0002 054B     		ldr	r3, .L134
 1871 0004 9A42     		cmp	r2, r3
 1872 0006 00D0     		beq	.L133
 1873              	.L131:
 714:Src/stm32f7xx_hal_msp.c **** 
 1874              		.loc 1 714 1 view .LVU511
 1875 0008 7047     		bx	lr
 1876              	.L133:
 708:Src/stm32f7xx_hal_msp.c ****   /* USER CODE BEGIN RTC_MspDeInit 1 */
 1877              		.loc 1 708 5 is_stmt 1 view .LVU512
 1878 000a 044A     		ldr	r2, .L134+4
 1879 000c 136F     		ldr	r3, [r2, #112]
 1880 000e 23F40043 		bic	r3, r3, #32768
 1881 0012 1367     		str	r3, [r2, #112]
 714:Src/stm32f7xx_hal_msp.c **** 
 1882              		.loc 1 714 1 is_stmt 0 view .LVU513
 1883 0014 F8E7     		b	.L131
 1884              	.L135:
 1885 0016 00BF     		.align	2
ARM GAS  C:\Users\Nina\AppData\Local\Temp\ccvtmqTe.s 			page 67


 1886              	.L134:
 1887 0018 00280040 		.word	1073752064
 1888 001c 00380240 		.word	1073887232
 1889              		.cfi_endproc
 1890              	.LFE154:
 1892              		.section	.text.HAL_SD_MspInit,"ax",%progbits
 1893              		.align	1
 1894              		.global	HAL_SD_MspInit
 1895              		.syntax unified
 1896              		.thumb
 1897              		.thumb_func
 1898              		.fpu fpv5-sp-d16
 1900              	HAL_SD_MspInit:
 1901              	.LVL107:
 1902              	.LFB155:
 717:Src/stm32f7xx_hal_msp.c **** 
 1903              		.loc 1 717 1 is_stmt 1 view -0
 1904              		.cfi_startproc
 1905              		@ args = 0, pretend = 0, frame = 24
 1906              		@ frame_needed = 0, uses_anonymous_args = 0
 719:Src/stm32f7xx_hal_msp.c ****   if(hsd->Instance==SDMMC1)
 1907              		.loc 1 719 3 view .LVU515
 720:Src/stm32f7xx_hal_msp.c ****   {
 1908              		.loc 1 720 3 view .LVU516
 720:Src/stm32f7xx_hal_msp.c ****   {
 1909              		.loc 1 720 9 is_stmt 0 view .LVU517
 1910 0000 0268     		ldr	r2, [r0]
 720:Src/stm32f7xx_hal_msp.c ****   {
 1911              		.loc 1 720 5 view .LVU518
 1912 0002 164B     		ldr	r3, .L143
 1913 0004 9A42     		cmp	r2, r3
 1914 0006 00D0     		beq	.L142
 1915 0008 7047     		bx	lr
 1916              	.L142:
 717:Src/stm32f7xx_hal_msp.c **** 
 1917              		.loc 1 717 1 view .LVU519
 1918 000a F0B5     		push	{r4, r5, r6, r7, lr}
 1919              	.LCFI34:
 1920              		.cfi_def_cfa_offset 20
 1921              		.cfi_offset 4, -20
 1922              		.cfi_offset 5, -16
 1923              		.cfi_offset 6, -12
 1924              		.cfi_offset 7, -8
 1925              		.cfi_offset 14, -4
 1926 000c 87B0     		sub	sp, sp, #28
 1927              	.LCFI35:
 1928              		.cfi_def_cfa_offset 48
 726:Src/stm32f7xx_hal_msp.c ****   
 1929              		.loc 1 726 5 is_stmt 1 view .LVU520
 1930              	.LBB13:
 726:Src/stm32f7xx_hal_msp.c ****   
 1931              		.loc 1 726 5 view .LVU521
 726:Src/stm32f7xx_hal_msp.c ****   
 1932              		.loc 1 726 5 view .LVU522
 1933 000e 03F58633 		add	r3, r3, #68608
 1934 0012 5A6C     		ldr	r2, [r3, #68]
 1935 0014 42F40062 		orr	r2, r2, #2048
ARM GAS  C:\Users\Nina\AppData\Local\Temp\ccvtmqTe.s 			page 68


 1936 0018 5A64     		str	r2, [r3, #68]
 726:Src/stm32f7xx_hal_msp.c ****   
 1937              		.loc 1 726 5 view .LVU523
 1938 001a 5B6C     		ldr	r3, [r3, #68]
 1939 001c 03F40063 		and	r3, r3, #2048
 1940 0020 0093     		str	r3, [sp]
 726:Src/stm32f7xx_hal_msp.c ****   
 1941              		.loc 1 726 5 view .LVU524
 1942 0022 009B     		ldr	r3, [sp]
 1943              	.LBE13:
 726:Src/stm32f7xx_hal_msp.c ****   
 1944              		.loc 1 726 5 view .LVU525
 736:Src/stm32f7xx_hal_msp.c ****                           |GPIO_PIN_8;
 1945              		.loc 1 736 5 view .LVU526
 736:Src/stm32f7xx_hal_msp.c ****                           |GPIO_PIN_8;
 1946              		.loc 1 736 25 is_stmt 0 view .LVU527
 1947 0024 4FF4F853 		mov	r3, #7936
 1948 0028 0193     		str	r3, [sp, #4]
 738:Src/stm32f7xx_hal_msp.c ****     GPIO_InitStruct.Pull = GPIO_NOPULL;
 1949              		.loc 1 738 5 is_stmt 1 view .LVU528
 738:Src/stm32f7xx_hal_msp.c ****     GPIO_InitStruct.Pull = GPIO_NOPULL;
 1950              		.loc 1 738 26 is_stmt 0 view .LVU529
 1951 002a 0227     		movs	r7, #2
 1952 002c 0297     		str	r7, [sp, #8]
 739:Src/stm32f7xx_hal_msp.c ****     GPIO_InitStruct.Speed = GPIO_SPEED_FREQ_VERY_HIGH;
 1953              		.loc 1 739 5 is_stmt 1 view .LVU530
 739:Src/stm32f7xx_hal_msp.c ****     GPIO_InitStruct.Speed = GPIO_SPEED_FREQ_VERY_HIGH;
 1954              		.loc 1 739 26 is_stmt 0 view .LVU531
 1955 002e 0026     		movs	r6, #0
 1956 0030 0396     		str	r6, [sp, #12]
 740:Src/stm32f7xx_hal_msp.c ****     GPIO_InitStruct.Alternate = GPIO_AF12_SDMMC1;
 1957              		.loc 1 740 5 is_stmt 1 view .LVU532
 740:Src/stm32f7xx_hal_msp.c ****     GPIO_InitStruct.Alternate = GPIO_AF12_SDMMC1;
 1958              		.loc 1 740 27 is_stmt 0 view .LVU533
 1959 0032 0325     		movs	r5, #3
 1960 0034 0495     		str	r5, [sp, #16]
 741:Src/stm32f7xx_hal_msp.c ****     HAL_GPIO_Init(GPIOC, &GPIO_InitStruct);
 1961              		.loc 1 741 5 is_stmt 1 view .LVU534
 741:Src/stm32f7xx_hal_msp.c ****     HAL_GPIO_Init(GPIOC, &GPIO_InitStruct);
 1962              		.loc 1 741 31 is_stmt 0 view .LVU535
 1963 0036 0C24     		movs	r4, #12
 1964 0038 0594     		str	r4, [sp, #20]
 742:Src/stm32f7xx_hal_msp.c **** 
 1965              		.loc 1 742 5 is_stmt 1 view .LVU536
 1966 003a 01A9     		add	r1, sp, #4
 1967 003c 0848     		ldr	r0, .L143+4
 1968              	.LVL108:
 742:Src/stm32f7xx_hal_msp.c **** 
 1969              		.loc 1 742 5 is_stmt 0 view .LVU537
 1970 003e FFF7FEFF 		bl	HAL_GPIO_Init
 1971              	.LVL109:
 744:Src/stm32f7xx_hal_msp.c ****     GPIO_InitStruct.Mode = GPIO_MODE_AF_PP;
 1972              		.loc 1 744 5 is_stmt 1 view .LVU538
 744:Src/stm32f7xx_hal_msp.c ****     GPIO_InitStruct.Mode = GPIO_MODE_AF_PP;
 1973              		.loc 1 744 25 is_stmt 0 view .LVU539
 1974 0042 0423     		movs	r3, #4
 1975 0044 0193     		str	r3, [sp, #4]
ARM GAS  C:\Users\Nina\AppData\Local\Temp\ccvtmqTe.s 			page 69


 745:Src/stm32f7xx_hal_msp.c ****     GPIO_InitStruct.Pull = GPIO_NOPULL;
 1976              		.loc 1 745 5 is_stmt 1 view .LVU540
 745:Src/stm32f7xx_hal_msp.c ****     GPIO_InitStruct.Pull = GPIO_NOPULL;
 1977              		.loc 1 745 26 is_stmt 0 view .LVU541
 1978 0046 0297     		str	r7, [sp, #8]
 746:Src/stm32f7xx_hal_msp.c ****     GPIO_InitStruct.Speed = GPIO_SPEED_FREQ_VERY_HIGH;
 1979              		.loc 1 746 5 is_stmt 1 view .LVU542
 746:Src/stm32f7xx_hal_msp.c ****     GPIO_InitStruct.Speed = GPIO_SPEED_FREQ_VERY_HIGH;
 1980              		.loc 1 746 26 is_stmt 0 view .LVU543
 1981 0048 0396     		str	r6, [sp, #12]
 747:Src/stm32f7xx_hal_msp.c ****     GPIO_InitStruct.Alternate = GPIO_AF12_SDMMC1;
 1982              		.loc 1 747 5 is_stmt 1 view .LVU544
 747:Src/stm32f7xx_hal_msp.c ****     GPIO_InitStruct.Alternate = GPIO_AF12_SDMMC1;
 1983              		.loc 1 747 27 is_stmt 0 view .LVU545
 1984 004a 0495     		str	r5, [sp, #16]
 748:Src/stm32f7xx_hal_msp.c ****     HAL_GPIO_Init(SDMMC_CMD_GPIO_Port, &GPIO_InitStruct);
 1985              		.loc 1 748 5 is_stmt 1 view .LVU546
 748:Src/stm32f7xx_hal_msp.c ****     HAL_GPIO_Init(SDMMC_CMD_GPIO_Port, &GPIO_InitStruct);
 1986              		.loc 1 748 31 is_stmt 0 view .LVU547
 1987 004c 0594     		str	r4, [sp, #20]
 749:Src/stm32f7xx_hal_msp.c **** 
 1988              		.loc 1 749 5 is_stmt 1 view .LVU548
 1989 004e 0DEB0301 		add	r1, sp, r3
 1990 0052 0448     		ldr	r0, .L143+8
 1991 0054 FFF7FEFF 		bl	HAL_GPIO_Init
 1992              	.LVL110:
 756:Src/stm32f7xx_hal_msp.c **** 
 1993              		.loc 1 756 1 is_stmt 0 view .LVU549
 1994 0058 07B0     		add	sp, sp, #28
 1995              	.LCFI36:
 1996              		.cfi_def_cfa_offset 20
 1997              		@ sp needed
 1998 005a F0BD     		pop	{r4, r5, r6, r7, pc}
 1999              	.L144:
 2000              		.align	2
 2001              	.L143:
 2002 005c 002C0140 		.word	1073818624
 2003 0060 00080240 		.word	1073874944
 2004 0064 000C0240 		.word	1073875968
 2005              		.cfi_endproc
 2006              	.LFE155:
 2008              		.section	.text.HAL_SD_MspDeInit,"ax",%progbits
 2009              		.align	1
 2010              		.global	HAL_SD_MspDeInit
 2011              		.syntax unified
 2012              		.thumb
 2013              		.thumb_func
 2014              		.fpu fpv5-sp-d16
 2016              	HAL_SD_MspDeInit:
 2017              	.LVL111:
 2018              	.LFB156:
 759:Src/stm32f7xx_hal_msp.c **** 
 2019              		.loc 1 759 1 is_stmt 1 view -0
 2020              		.cfi_startproc
 2021              		@ args = 0, pretend = 0, frame = 0
 2022              		@ frame_needed = 0, uses_anonymous_args = 0
 759:Src/stm32f7xx_hal_msp.c **** 
ARM GAS  C:\Users\Nina\AppData\Local\Temp\ccvtmqTe.s 			page 70


 2023              		.loc 1 759 1 is_stmt 0 view .LVU551
 2024 0000 08B5     		push	{r3, lr}
 2025              	.LCFI37:
 2026              		.cfi_def_cfa_offset 8
 2027              		.cfi_offset 3, -8
 2028              		.cfi_offset 14, -4
 761:Src/stm32f7xx_hal_msp.c ****   {
 2029              		.loc 1 761 3 is_stmt 1 view .LVU552
 761:Src/stm32f7xx_hal_msp.c ****   {
 2030              		.loc 1 761 9 is_stmt 0 view .LVU553
 2031 0002 0268     		ldr	r2, [r0]
 761:Src/stm32f7xx_hal_msp.c ****   {
 2032              		.loc 1 761 5 view .LVU554
 2033 0004 094B     		ldr	r3, .L149
 2034 0006 9A42     		cmp	r2, r3
 2035 0008 00D0     		beq	.L148
 2036              	.LVL112:
 2037              	.L145:
 787:Src/stm32f7xx_hal_msp.c **** 
 2038              		.loc 1 787 1 view .LVU555
 2039 000a 08BD     		pop	{r3, pc}
 2040              	.LVL113:
 2041              	.L148:
 767:Src/stm32f7xx_hal_msp.c ****   
 2042              		.loc 1 767 5 is_stmt 1 view .LVU556
 2043 000c 084A     		ldr	r2, .L149+4
 2044 000e 536C     		ldr	r3, [r2, #68]
 2045 0010 23F40063 		bic	r3, r3, #2048
 2046 0014 5364     		str	r3, [r2, #68]
 777:Src/stm32f7xx_hal_msp.c ****                           |GPIO_PIN_8);
 2047              		.loc 1 777 5 view .LVU557
 2048 0016 4FF4F851 		mov	r1, #7936
 2049 001a 0648     		ldr	r0, .L149+8
 2050              	.LVL114:
 777:Src/stm32f7xx_hal_msp.c ****                           |GPIO_PIN_8);
 2051              		.loc 1 777 5 is_stmt 0 view .LVU558
 2052 001c FFF7FEFF 		bl	HAL_GPIO_DeInit
 2053              	.LVL115:
 780:Src/stm32f7xx_hal_msp.c **** 
 2054              		.loc 1 780 5 is_stmt 1 view .LVU559
 2055 0020 0421     		movs	r1, #4
 2056 0022 0548     		ldr	r0, .L149+12
 2057 0024 FFF7FEFF 		bl	HAL_GPIO_DeInit
 2058              	.LVL116:
 787:Src/stm32f7xx_hal_msp.c **** 
 2059              		.loc 1 787 1 is_stmt 0 view .LVU560
 2060 0028 EFE7     		b	.L145
 2061              	.L150:
 2062 002a 00BF     		.align	2
 2063              	.L149:
 2064 002c 002C0140 		.word	1073818624
 2065 0030 00380240 		.word	1073887232
 2066 0034 00080240 		.word	1073874944
 2067 0038 000C0240 		.word	1073875968
 2068              		.cfi_endproc
 2069              	.LFE156:
 2071              		.section	.text.HAL_SPDIFRX_MspInit,"ax",%progbits
ARM GAS  C:\Users\Nina\AppData\Local\Temp\ccvtmqTe.s 			page 71


 2072              		.align	1
 2073              		.global	HAL_SPDIFRX_MspInit
 2074              		.syntax unified
 2075              		.thumb
 2076              		.thumb_func
 2077              		.fpu fpv5-sp-d16
 2079              	HAL_SPDIFRX_MspInit:
 2080              	.LVL117:
 2081              	.LFB157:
 790:Src/stm32f7xx_hal_msp.c **** 
 2082              		.loc 1 790 1 is_stmt 1 view -0
 2083              		.cfi_startproc
 2084              		@ args = 0, pretend = 0, frame = 24
 2085              		@ frame_needed = 0, uses_anonymous_args = 0
 792:Src/stm32f7xx_hal_msp.c ****   if(hspdifrx->Instance==SPDIFRX)
 2086              		.loc 1 792 3 view .LVU562
 793:Src/stm32f7xx_hal_msp.c ****   {
 2087              		.loc 1 793 3 view .LVU563
 793:Src/stm32f7xx_hal_msp.c ****   {
 2088              		.loc 1 793 14 is_stmt 0 view .LVU564
 2089 0000 0368     		ldr	r3, [r0]
 793:Src/stm32f7xx_hal_msp.c ****   {
 2090              		.loc 1 793 5 view .LVU565
 2091 0002 B3F1402F 		cmp	r3, #1073758208
 2092 0006 00D0     		beq	.L157
 2093 0008 7047     		bx	lr
 2094              	.L157:
 790:Src/stm32f7xx_hal_msp.c **** 
 2095              		.loc 1 790 1 view .LVU566
 2096 000a 00B5     		push	{lr}
 2097              	.LCFI38:
 2098              		.cfi_def_cfa_offset 4
 2099              		.cfi_offset 14, -4
 2100 000c 87B0     		sub	sp, sp, #28
 2101              	.LCFI39:
 2102              		.cfi_def_cfa_offset 32
 799:Src/stm32f7xx_hal_msp.c ****   
 2103              		.loc 1 799 5 is_stmt 1 view .LVU567
 2104              	.LBB14:
 799:Src/stm32f7xx_hal_msp.c ****   
 2105              		.loc 1 799 5 view .LVU568
 799:Src/stm32f7xx_hal_msp.c ****   
 2106              		.loc 1 799 5 view .LVU569
 2107 000e 03F5FC33 		add	r3, r3, #129024
 2108 0012 1A6C     		ldr	r2, [r3, #64]
 2109 0014 42F48032 		orr	r2, r2, #65536
 2110 0018 1A64     		str	r2, [r3, #64]
 799:Src/stm32f7xx_hal_msp.c ****   
 2111              		.loc 1 799 5 view .LVU570
 2112 001a 1B6C     		ldr	r3, [r3, #64]
 2113 001c 03F48033 		and	r3, r3, #65536
 2114 0020 0093     		str	r3, [sp]
 799:Src/stm32f7xx_hal_msp.c ****   
 2115              		.loc 1 799 5 view .LVU571
 2116 0022 009B     		ldr	r3, [sp]
 2117              	.LBE14:
 799:Src/stm32f7xx_hal_msp.c ****   
ARM GAS  C:\Users\Nina\AppData\Local\Temp\ccvtmqTe.s 			page 72


 2118              		.loc 1 799 5 view .LVU572
 804:Src/stm32f7xx_hal_msp.c ****     GPIO_InitStruct.Mode = GPIO_MODE_AF_PP;
 2119              		.loc 1 804 5 view .LVU573
 804:Src/stm32f7xx_hal_msp.c ****     GPIO_InitStruct.Mode = GPIO_MODE_AF_PP;
 2120              		.loc 1 804 25 is_stmt 0 view .LVU574
 2121 0024 8023     		movs	r3, #128
 2122 0026 0193     		str	r3, [sp, #4]
 805:Src/stm32f7xx_hal_msp.c ****     GPIO_InitStruct.Pull = GPIO_NOPULL;
 2123              		.loc 1 805 5 is_stmt 1 view .LVU575
 805:Src/stm32f7xx_hal_msp.c ****     GPIO_InitStruct.Pull = GPIO_NOPULL;
 2124              		.loc 1 805 26 is_stmt 0 view .LVU576
 2125 0028 0223     		movs	r3, #2
 2126 002a 0293     		str	r3, [sp, #8]
 806:Src/stm32f7xx_hal_msp.c ****     GPIO_InitStruct.Speed = GPIO_SPEED_FREQ_LOW;
 2127              		.loc 1 806 5 is_stmt 1 view .LVU577
 806:Src/stm32f7xx_hal_msp.c ****     GPIO_InitStruct.Speed = GPIO_SPEED_FREQ_LOW;
 2128              		.loc 1 806 26 is_stmt 0 view .LVU578
 2129 002c 0023     		movs	r3, #0
 2130 002e 0393     		str	r3, [sp, #12]
 807:Src/stm32f7xx_hal_msp.c ****     GPIO_InitStruct.Alternate = GPIO_AF8_SPDIFRX;
 2131              		.loc 1 807 5 is_stmt 1 view .LVU579
 807:Src/stm32f7xx_hal_msp.c ****     GPIO_InitStruct.Alternate = GPIO_AF8_SPDIFRX;
 2132              		.loc 1 807 27 is_stmt 0 view .LVU580
 2133 0030 0493     		str	r3, [sp, #16]
 808:Src/stm32f7xx_hal_msp.c ****     HAL_GPIO_Init(SPDIF_RX0_GPIO_Port, &GPIO_InitStruct);
 2134              		.loc 1 808 5 is_stmt 1 view .LVU581
 808:Src/stm32f7xx_hal_msp.c ****     HAL_GPIO_Init(SPDIF_RX0_GPIO_Port, &GPIO_InitStruct);
 2135              		.loc 1 808 31 is_stmt 0 view .LVU582
 2136 0032 0823     		movs	r3, #8
 2137 0034 0593     		str	r3, [sp, #20]
 809:Src/stm32f7xx_hal_msp.c **** 
 2138              		.loc 1 809 5 is_stmt 1 view .LVU583
 2139 0036 01A9     		add	r1, sp, #4
 2140 0038 0248     		ldr	r0, .L158
 2141              	.LVL118:
 809:Src/stm32f7xx_hal_msp.c **** 
 2142              		.loc 1 809 5 is_stmt 0 view .LVU584
 2143 003a FFF7FEFF 		bl	HAL_GPIO_Init
 2144              	.LVL119:
 816:Src/stm32f7xx_hal_msp.c **** 
 2145              		.loc 1 816 1 view .LVU585
 2146 003e 07B0     		add	sp, sp, #28
 2147              	.LCFI40:
 2148              		.cfi_def_cfa_offset 4
 2149              		@ sp needed
 2150 0040 5DF804FB 		ldr	pc, [sp], #4
 2151              	.L159:
 2152              		.align	2
 2153              	.L158:
 2154 0044 000C0240 		.word	1073875968
 2155              		.cfi_endproc
 2156              	.LFE157:
 2158              		.section	.text.HAL_SPDIFRX_MspDeInit,"ax",%progbits
 2159              		.align	1
 2160              		.global	HAL_SPDIFRX_MspDeInit
 2161              		.syntax unified
 2162              		.thumb
ARM GAS  C:\Users\Nina\AppData\Local\Temp\ccvtmqTe.s 			page 73


 2163              		.thumb_func
 2164              		.fpu fpv5-sp-d16
 2166              	HAL_SPDIFRX_MspDeInit:
 2167              	.LVL120:
 2168              	.LFB158:
 819:Src/stm32f7xx_hal_msp.c **** 
 2169              		.loc 1 819 1 is_stmt 1 view -0
 2170              		.cfi_startproc
 2171              		@ args = 0, pretend = 0, frame = 0
 2172              		@ frame_needed = 0, uses_anonymous_args = 0
 819:Src/stm32f7xx_hal_msp.c **** 
 2173              		.loc 1 819 1 is_stmt 0 view .LVU587
 2174 0000 08B5     		push	{r3, lr}
 2175              	.LCFI41:
 2176              		.cfi_def_cfa_offset 8
 2177              		.cfi_offset 3, -8
 2178              		.cfi_offset 14, -4
 821:Src/stm32f7xx_hal_msp.c ****   {
 2179              		.loc 1 821 3 is_stmt 1 view .LVU588
 821:Src/stm32f7xx_hal_msp.c ****   {
 2180              		.loc 1 821 14 is_stmt 0 view .LVU589
 2181 0002 0368     		ldr	r3, [r0]
 821:Src/stm32f7xx_hal_msp.c ****   {
 2182              		.loc 1 821 5 view .LVU590
 2183 0004 B3F1402F 		cmp	r3, #1073758208
 2184 0008 00D0     		beq	.L163
 2185              	.LVL121:
 2186              	.L160:
 839:Src/stm32f7xx_hal_msp.c **** 
 2187              		.loc 1 839 1 view .LVU591
 2188 000a 08BD     		pop	{r3, pc}
 2189              	.LVL122:
 2190              	.L163:
 827:Src/stm32f7xx_hal_msp.c ****   
 2191              		.loc 1 827 5 is_stmt 1 view .LVU592
 2192 000c 044A     		ldr	r2, .L164
 2193 000e 136C     		ldr	r3, [r2, #64]
 2194 0010 23F48033 		bic	r3, r3, #65536
 2195 0014 1364     		str	r3, [r2, #64]
 832:Src/stm32f7xx_hal_msp.c **** 
 2196              		.loc 1 832 5 view .LVU593
 2197 0016 8021     		movs	r1, #128
 2198 0018 0248     		ldr	r0, .L164+4
 2199              	.LVL123:
 832:Src/stm32f7xx_hal_msp.c **** 
 2200              		.loc 1 832 5 is_stmt 0 view .LVU594
 2201 001a FFF7FEFF 		bl	HAL_GPIO_DeInit
 2202              	.LVL124:
 839:Src/stm32f7xx_hal_msp.c **** 
 2203              		.loc 1 839 1 view .LVU595
 2204 001e F4E7     		b	.L160
 2205              	.L165:
 2206              		.align	2
 2207              	.L164:
 2208 0020 00380240 		.word	1073887232
 2209 0024 000C0240 		.word	1073875968
 2210              		.cfi_endproc
ARM GAS  C:\Users\Nina\AppData\Local\Temp\ccvtmqTe.s 			page 74


 2211              	.LFE158:
 2213              		.section	.text.HAL_SPI_MspInit,"ax",%progbits
 2214              		.align	1
 2215              		.global	HAL_SPI_MspInit
 2216              		.syntax unified
 2217              		.thumb
 2218              		.thumb_func
 2219              		.fpu fpv5-sp-d16
 2221              	HAL_SPI_MspInit:
 2222              	.LVL125:
 2223              	.LFB159:
 842:Src/stm32f7xx_hal_msp.c **** 
 2224              		.loc 1 842 1 is_stmt 1 view -0
 2225              		.cfi_startproc
 2226              		@ args = 0, pretend = 0, frame = 24
 2227              		@ frame_needed = 0, uses_anonymous_args = 0
 844:Src/stm32f7xx_hal_msp.c ****   if(hspi->Instance==SPI2)
 2228              		.loc 1 844 3 view .LVU597
 845:Src/stm32f7xx_hal_msp.c ****   {
 2229              		.loc 1 845 3 view .LVU598
 845:Src/stm32f7xx_hal_msp.c ****   {
 2230              		.loc 1 845 10 is_stmt 0 view .LVU599
 2231 0000 0268     		ldr	r2, [r0]
 845:Src/stm32f7xx_hal_msp.c ****   {
 2232              		.loc 1 845 5 view .LVU600
 2233 0002 154B     		ldr	r3, .L173
 2234 0004 9A42     		cmp	r2, r3
 2235 0006 00D0     		beq	.L172
 2236 0008 7047     		bx	lr
 2237              	.L172:
 842:Src/stm32f7xx_hal_msp.c **** 
 2238              		.loc 1 842 1 view .LVU601
 2239 000a 70B5     		push	{r4, r5, r6, lr}
 2240              	.LCFI42:
 2241              		.cfi_def_cfa_offset 16
 2242              		.cfi_offset 4, -16
 2243              		.cfi_offset 5, -12
 2244              		.cfi_offset 6, -8
 2245              		.cfi_offset 14, -4
 2246 000c 86B0     		sub	sp, sp, #24
 2247              	.LCFI43:
 2248              		.cfi_def_cfa_offset 40
 851:Src/stm32f7xx_hal_msp.c ****   
 2249              		.loc 1 851 5 is_stmt 1 view .LVU602
 2250              	.LBB15:
 851:Src/stm32f7xx_hal_msp.c ****   
 2251              		.loc 1 851 5 view .LVU603
 851:Src/stm32f7xx_hal_msp.c ****   
 2252              		.loc 1 851 5 view .LVU604
 2253 000e 03F50033 		add	r3, r3, #131072
 2254 0012 1A6C     		ldr	r2, [r3, #64]
 2255 0014 42F48042 		orr	r2, r2, #16384
 2256 0018 1A64     		str	r2, [r3, #64]
 851:Src/stm32f7xx_hal_msp.c ****   
 2257              		.loc 1 851 5 view .LVU605
 2258 001a 1B6C     		ldr	r3, [r3, #64]
 2259 001c 03F48043 		and	r3, r3, #16384
ARM GAS  C:\Users\Nina\AppData\Local\Temp\ccvtmqTe.s 			page 75


 2260 0020 0093     		str	r3, [sp]
 851:Src/stm32f7xx_hal_msp.c ****   
 2261              		.loc 1 851 5 view .LVU606
 2262 0022 009B     		ldr	r3, [sp]
 2263              	.LBE15:
 851:Src/stm32f7xx_hal_msp.c ****   
 2264              		.loc 1 851 5 view .LVU607
 858:Src/stm32f7xx_hal_msp.c ****     GPIO_InitStruct.Mode = GPIO_MODE_AF_PP;
 2265              		.loc 1 858 5 view .LVU608
 858:Src/stm32f7xx_hal_msp.c ****     GPIO_InitStruct.Mode = GPIO_MODE_AF_PP;
 2266              		.loc 1 858 25 is_stmt 0 view .LVU609
 2267 0024 0225     		movs	r5, #2
 2268 0026 0195     		str	r5, [sp, #4]
 859:Src/stm32f7xx_hal_msp.c ****     GPIO_InitStruct.Pull = GPIO_NOPULL;
 2269              		.loc 1 859 5 is_stmt 1 view .LVU610
 859:Src/stm32f7xx_hal_msp.c ****     GPIO_InitStruct.Pull = GPIO_NOPULL;
 2270              		.loc 1 859 26 is_stmt 0 view .LVU611
 2271 0028 0295     		str	r5, [sp, #8]
 860:Src/stm32f7xx_hal_msp.c ****     GPIO_InitStruct.Speed = GPIO_SPEED_FREQ_LOW;
 2272              		.loc 1 860 5 is_stmt 1 view .LVU612
 860:Src/stm32f7xx_hal_msp.c ****     GPIO_InitStruct.Speed = GPIO_SPEED_FREQ_LOW;
 2273              		.loc 1 860 26 is_stmt 0 view .LVU613
 2274 002a 0024     		movs	r4, #0
 2275 002c 0394     		str	r4, [sp, #12]
 861:Src/stm32f7xx_hal_msp.c ****     GPIO_InitStruct.Alternate = GPIO_AF5_SPI2;
 2276              		.loc 1 861 5 is_stmt 1 view .LVU614
 861:Src/stm32f7xx_hal_msp.c ****     GPIO_InitStruct.Alternate = GPIO_AF5_SPI2;
 2277              		.loc 1 861 27 is_stmt 0 view .LVU615
 2278 002e 0494     		str	r4, [sp, #16]
 862:Src/stm32f7xx_hal_msp.c ****     HAL_GPIO_Init(ARDUINO_SCK_D13_GPIO_Port, &GPIO_InitStruct);
 2279              		.loc 1 862 5 is_stmt 1 view .LVU616
 862:Src/stm32f7xx_hal_msp.c ****     HAL_GPIO_Init(ARDUINO_SCK_D13_GPIO_Port, &GPIO_InitStruct);
 2280              		.loc 1 862 31 is_stmt 0 view .LVU617
 2281 0030 0526     		movs	r6, #5
 2282 0032 0596     		str	r6, [sp, #20]
 863:Src/stm32f7xx_hal_msp.c **** 
 2283              		.loc 1 863 5 is_stmt 1 view .LVU618
 2284 0034 01A9     		add	r1, sp, #4
 2285 0036 0948     		ldr	r0, .L173+4
 2286              	.LVL126:
 863:Src/stm32f7xx_hal_msp.c **** 
 2287              		.loc 1 863 5 is_stmt 0 view .LVU619
 2288 0038 FFF7FEFF 		bl	HAL_GPIO_Init
 2289              	.LVL127:
 865:Src/stm32f7xx_hal_msp.c ****     GPIO_InitStruct.Mode = GPIO_MODE_AF_PP;
 2290              		.loc 1 865 5 is_stmt 1 view .LVU620
 865:Src/stm32f7xx_hal_msp.c ****     GPIO_InitStruct.Mode = GPIO_MODE_AF_PP;
 2291              		.loc 1 865 25 is_stmt 0 view .LVU621
 2292 003c 4FF44043 		mov	r3, #49152
 2293 0040 0193     		str	r3, [sp, #4]
 866:Src/stm32f7xx_hal_msp.c ****     GPIO_InitStruct.Pull = GPIO_NOPULL;
 2294              		.loc 1 866 5 is_stmt 1 view .LVU622
 866:Src/stm32f7xx_hal_msp.c ****     GPIO_InitStruct.Pull = GPIO_NOPULL;
 2295              		.loc 1 866 26 is_stmt 0 view .LVU623
 2296 0042 0295     		str	r5, [sp, #8]
 867:Src/stm32f7xx_hal_msp.c ****     GPIO_InitStruct.Speed = GPIO_SPEED_FREQ_LOW;
 2297              		.loc 1 867 5 is_stmt 1 view .LVU624
ARM GAS  C:\Users\Nina\AppData\Local\Temp\ccvtmqTe.s 			page 76


 867:Src/stm32f7xx_hal_msp.c ****     GPIO_InitStruct.Speed = GPIO_SPEED_FREQ_LOW;
 2298              		.loc 1 867 26 is_stmt 0 view .LVU625
 2299 0044 0394     		str	r4, [sp, #12]
 868:Src/stm32f7xx_hal_msp.c ****     GPIO_InitStruct.Alternate = GPIO_AF5_SPI2;
 2300              		.loc 1 868 5 is_stmt 1 view .LVU626
 868:Src/stm32f7xx_hal_msp.c ****     GPIO_InitStruct.Alternate = GPIO_AF5_SPI2;
 2301              		.loc 1 868 27 is_stmt 0 view .LVU627
 2302 0046 0494     		str	r4, [sp, #16]
 869:Src/stm32f7xx_hal_msp.c ****     HAL_GPIO_Init(GPIOB, &GPIO_InitStruct);
 2303              		.loc 1 869 5 is_stmt 1 view .LVU628
 869:Src/stm32f7xx_hal_msp.c ****     HAL_GPIO_Init(GPIOB, &GPIO_InitStruct);
 2304              		.loc 1 869 31 is_stmt 0 view .LVU629
 2305 0048 0596     		str	r6, [sp, #20]
 870:Src/stm32f7xx_hal_msp.c **** 
 2306              		.loc 1 870 5 is_stmt 1 view .LVU630
 2307 004a 01A9     		add	r1, sp, #4
 2308 004c 0448     		ldr	r0, .L173+8
 2309 004e FFF7FEFF 		bl	HAL_GPIO_Init
 2310              	.LVL128:
 877:Src/stm32f7xx_hal_msp.c **** 
 2311              		.loc 1 877 1 is_stmt 0 view .LVU631
 2312 0052 06B0     		add	sp, sp, #24
 2313              	.LCFI44:
 2314              		.cfi_def_cfa_offset 16
 2315              		@ sp needed
 2316 0054 70BD     		pop	{r4, r5, r6, pc}
 2317              	.L174:
 2318 0056 00BF     		.align	2
 2319              	.L173:
 2320 0058 00380040 		.word	1073756160
 2321 005c 00200240 		.word	1073881088
 2322 0060 00040240 		.word	1073873920
 2323              		.cfi_endproc
 2324              	.LFE159:
 2326              		.section	.text.HAL_SPI_MspDeInit,"ax",%progbits
 2327              		.align	1
 2328              		.global	HAL_SPI_MspDeInit
 2329              		.syntax unified
 2330              		.thumb
 2331              		.thumb_func
 2332              		.fpu fpv5-sp-d16
 2334              	HAL_SPI_MspDeInit:
 2335              	.LVL129:
 2336              	.LFB160:
 880:Src/stm32f7xx_hal_msp.c **** 
 2337              		.loc 1 880 1 is_stmt 1 view -0
 2338              		.cfi_startproc
 2339              		@ args = 0, pretend = 0, frame = 0
 2340              		@ frame_needed = 0, uses_anonymous_args = 0
 880:Src/stm32f7xx_hal_msp.c **** 
 2341              		.loc 1 880 1 is_stmt 0 view .LVU633
 2342 0000 08B5     		push	{r3, lr}
 2343              	.LCFI45:
 2344              		.cfi_def_cfa_offset 8
 2345              		.cfi_offset 3, -8
 2346              		.cfi_offset 14, -4
 882:Src/stm32f7xx_hal_msp.c ****   {
ARM GAS  C:\Users\Nina\AppData\Local\Temp\ccvtmqTe.s 			page 77


 2347              		.loc 1 882 3 is_stmt 1 view .LVU634
 882:Src/stm32f7xx_hal_msp.c ****   {
 2348              		.loc 1 882 10 is_stmt 0 view .LVU635
 2349 0002 0268     		ldr	r2, [r0]
 882:Src/stm32f7xx_hal_msp.c ****   {
 2350              		.loc 1 882 5 view .LVU636
 2351 0004 094B     		ldr	r3, .L179
 2352 0006 9A42     		cmp	r2, r3
 2353 0008 00D0     		beq	.L178
 2354              	.LVL130:
 2355              	.L175:
 904:Src/stm32f7xx_hal_msp.c **** 
 2356              		.loc 1 904 1 view .LVU637
 2357 000a 08BD     		pop	{r3, pc}
 2358              	.LVL131:
 2359              	.L178:
 888:Src/stm32f7xx_hal_msp.c ****   
 2360              		.loc 1 888 5 is_stmt 1 view .LVU638
 2361 000c 084A     		ldr	r2, .L179+4
 2362 000e 136C     		ldr	r3, [r2, #64]
 2363 0010 23F48043 		bic	r3, r3, #16384
 2364 0014 1364     		str	r3, [r2, #64]
 895:Src/stm32f7xx_hal_msp.c **** 
 2365              		.loc 1 895 5 view .LVU639
 2366 0016 0221     		movs	r1, #2
 2367 0018 0648     		ldr	r0, .L179+8
 2368              	.LVL132:
 895:Src/stm32f7xx_hal_msp.c **** 
 2369              		.loc 1 895 5 is_stmt 0 view .LVU640
 2370 001a FFF7FEFF 		bl	HAL_GPIO_DeInit
 2371              	.LVL133:
 897:Src/stm32f7xx_hal_msp.c **** 
 2372              		.loc 1 897 5 is_stmt 1 view .LVU641
 2373 001e 4FF44041 		mov	r1, #49152
 2374 0022 0548     		ldr	r0, .L179+12
 2375 0024 FFF7FEFF 		bl	HAL_GPIO_DeInit
 2376              	.LVL134:
 904:Src/stm32f7xx_hal_msp.c **** 
 2377              		.loc 1 904 1 is_stmt 0 view .LVU642
 2378 0028 EFE7     		b	.L175
 2379              	.L180:
 2380 002a 00BF     		.align	2
 2381              	.L179:
 2382 002c 00380040 		.word	1073756160
 2383 0030 00380240 		.word	1073887232
 2384 0034 00200240 		.word	1073881088
 2385 0038 00040240 		.word	1073873920
 2386              		.cfi_endproc
 2387              	.LFE160:
 2389              		.section	.text.HAL_TIM_Base_MspInit,"ax",%progbits
 2390              		.align	1
 2391              		.global	HAL_TIM_Base_MspInit
 2392              		.syntax unified
 2393              		.thumb
 2394              		.thumb_func
 2395              		.fpu fpv5-sp-d16
 2397              	HAL_TIM_Base_MspInit:
ARM GAS  C:\Users\Nina\AppData\Local\Temp\ccvtmqTe.s 			page 78


 2398              	.LVL135:
 2399              	.LFB161:
 907:Src/stm32f7xx_hal_msp.c **** 
 2400              		.loc 1 907 1 is_stmt 1 view -0
 2401              		.cfi_startproc
 2402              		@ args = 0, pretend = 0, frame = 24
 2403              		@ frame_needed = 0, uses_anonymous_args = 0
 2404              		@ link register save eliminated.
 907:Src/stm32f7xx_hal_msp.c **** 
 2405              		.loc 1 907 1 is_stmt 0 view .LVU644
 2406 0000 86B0     		sub	sp, sp, #24
 2407              	.LCFI46:
 2408              		.cfi_def_cfa_offset 24
 909:Src/stm32f7xx_hal_msp.c ****   {
 2409              		.loc 1 909 3 is_stmt 1 view .LVU645
 909:Src/stm32f7xx_hal_msp.c ****   {
 2410              		.loc 1 909 15 is_stmt 0 view .LVU646
 2411 0002 0368     		ldr	r3, [r0]
 909:Src/stm32f7xx_hal_msp.c ****   {
 2412              		.loc 1 909 5 view .LVU647
 2413 0004 2A4A     		ldr	r2, .L194
 2414 0006 9342     		cmp	r3, r2
 2415 0008 19D0     		beq	.L189
 920:Src/stm32f7xx_hal_msp.c ****   {
 2416              		.loc 1 920 8 is_stmt 1 view .LVU648
 920:Src/stm32f7xx_hal_msp.c ****   {
 2417              		.loc 1 920 10 is_stmt 0 view .LVU649
 2418 000a B3F1804F 		cmp	r3, #1073741824
 2419 000e 22D0     		beq	.L190
 931:Src/stm32f7xx_hal_msp.c ****   {
 2420              		.loc 1 931 8 is_stmt 1 view .LVU650
 931:Src/stm32f7xx_hal_msp.c ****   {
 2421              		.loc 1 931 10 is_stmt 0 view .LVU651
 2422 0010 284A     		ldr	r2, .L194+4
 2423 0012 9342     		cmp	r3, r2
 2424 0014 2BD0     		beq	.L191
 942:Src/stm32f7xx_hal_msp.c ****   {
 2425              		.loc 1 942 8 is_stmt 1 view .LVU652
 942:Src/stm32f7xx_hal_msp.c ****   {
 2426              		.loc 1 942 10 is_stmt 0 view .LVU653
 2427 0016 284A     		ldr	r2, .L194+8
 2428 0018 9342     		cmp	r3, r2
 2429 001a 33D0     		beq	.L192
 953:Src/stm32f7xx_hal_msp.c ****   {
 2430              		.loc 1 953 8 is_stmt 1 view .LVU654
 953:Src/stm32f7xx_hal_msp.c ****   {
 2431              		.loc 1 953 10 is_stmt 0 view .LVU655
 2432 001c 274A     		ldr	r2, .L194+12
 2433 001e 9342     		cmp	r3, r2
 2434 0020 3BD0     		beq	.L193
 964:Src/stm32f7xx_hal_msp.c ****   {
 2435              		.loc 1 964 8 is_stmt 1 view .LVU656
 964:Src/stm32f7xx_hal_msp.c ****   {
 2436              		.loc 1 964 10 is_stmt 0 view .LVU657
 2437 0022 274A     		ldr	r2, .L194+16
 2438 0024 9342     		cmp	r3, r2
 2439 0026 14D1     		bne	.L181
ARM GAS  C:\Users\Nina\AppData\Local\Temp\ccvtmqTe.s 			page 79


 970:Src/stm32f7xx_hal_msp.c ****   /* USER CODE BEGIN TIM8_MspInit 1 */
 2440              		.loc 1 970 5 is_stmt 1 view .LVU658
 2441              	.LBB16:
 970:Src/stm32f7xx_hal_msp.c ****   /* USER CODE BEGIN TIM8_MspInit 1 */
 2442              		.loc 1 970 5 view .LVU659
 970:Src/stm32f7xx_hal_msp.c ****   /* USER CODE BEGIN TIM8_MspInit 1 */
 2443              		.loc 1 970 5 view .LVU660
 2444 0028 264B     		ldr	r3, .L194+20
 2445 002a 5A6C     		ldr	r2, [r3, #68]
 2446 002c 42F00202 		orr	r2, r2, #2
 2447 0030 5A64     		str	r2, [r3, #68]
 970:Src/stm32f7xx_hal_msp.c ****   /* USER CODE BEGIN TIM8_MspInit 1 */
 2448              		.loc 1 970 5 view .LVU661
 2449 0032 5B6C     		ldr	r3, [r3, #68]
 2450 0034 03F00203 		and	r3, r3, #2
 2451 0038 0593     		str	r3, [sp, #20]
 970:Src/stm32f7xx_hal_msp.c ****   /* USER CODE BEGIN TIM8_MspInit 1 */
 2452              		.loc 1 970 5 view .LVU662
 2453 003a 059B     		ldr	r3, [sp, #20]
 2454              	.LBE16:
 970:Src/stm32f7xx_hal_msp.c ****   /* USER CODE BEGIN TIM8_MspInit 1 */
 2455              		.loc 1 970 5 view .LVU663
 976:Src/stm32f7xx_hal_msp.c **** 
 2456              		.loc 1 976 1 is_stmt 0 view .LVU664
 2457 003c 09E0     		b	.L181
 2458              	.L189:
 915:Src/stm32f7xx_hal_msp.c ****   /* USER CODE BEGIN TIM1_MspInit 1 */
 2459              		.loc 1 915 5 is_stmt 1 view .LVU665
 2460              	.LBB17:
 915:Src/stm32f7xx_hal_msp.c ****   /* USER CODE BEGIN TIM1_MspInit 1 */
 2461              		.loc 1 915 5 view .LVU666
 915:Src/stm32f7xx_hal_msp.c ****   /* USER CODE BEGIN TIM1_MspInit 1 */
 2462              		.loc 1 915 5 view .LVU667
 2463 003e 214B     		ldr	r3, .L194+20
 2464 0040 5A6C     		ldr	r2, [r3, #68]
 2465 0042 42F00102 		orr	r2, r2, #1
 2466 0046 5A64     		str	r2, [r3, #68]
 915:Src/stm32f7xx_hal_msp.c ****   /* USER CODE BEGIN TIM1_MspInit 1 */
 2467              		.loc 1 915 5 view .LVU668
 2468 0048 5B6C     		ldr	r3, [r3, #68]
 2469 004a 03F00103 		and	r3, r3, #1
 2470 004e 0093     		str	r3, [sp]
 915:Src/stm32f7xx_hal_msp.c ****   /* USER CODE BEGIN TIM1_MspInit 1 */
 2471              		.loc 1 915 5 view .LVU669
 2472 0050 009B     		ldr	r3, [sp]
 2473              	.LBE17:
 915:Src/stm32f7xx_hal_msp.c ****   /* USER CODE BEGIN TIM1_MspInit 1 */
 2474              		.loc 1 915 5 view .LVU670
 2475              	.L181:
 976:Src/stm32f7xx_hal_msp.c **** 
 2476              		.loc 1 976 1 is_stmt 0 view .LVU671
 2477 0052 06B0     		add	sp, sp, #24
 2478              	.LCFI47:
 2479              		.cfi_remember_state
 2480              		.cfi_def_cfa_offset 0
 2481              		@ sp needed
 2482 0054 7047     		bx	lr
ARM GAS  C:\Users\Nina\AppData\Local\Temp\ccvtmqTe.s 			page 80


 2483              	.L190:
 2484              	.LCFI48:
 2485              		.cfi_restore_state
 926:Src/stm32f7xx_hal_msp.c ****   /* USER CODE BEGIN TIM2_MspInit 1 */
 2486              		.loc 1 926 5 is_stmt 1 view .LVU672
 2487              	.LBB18:
 926:Src/stm32f7xx_hal_msp.c ****   /* USER CODE BEGIN TIM2_MspInit 1 */
 2488              		.loc 1 926 5 view .LVU673
 926:Src/stm32f7xx_hal_msp.c ****   /* USER CODE BEGIN TIM2_MspInit 1 */
 2489              		.loc 1 926 5 view .LVU674
 2490 0056 03F50E33 		add	r3, r3, #145408
 2491 005a 1A6C     		ldr	r2, [r3, #64]
 2492 005c 42F00102 		orr	r2, r2, #1
 2493 0060 1A64     		str	r2, [r3, #64]
 926:Src/stm32f7xx_hal_msp.c ****   /* USER CODE BEGIN TIM2_MspInit 1 */
 2494              		.loc 1 926 5 view .LVU675
 2495 0062 1B6C     		ldr	r3, [r3, #64]
 2496 0064 03F00103 		and	r3, r3, #1
 2497 0068 0193     		str	r3, [sp, #4]
 926:Src/stm32f7xx_hal_msp.c ****   /* USER CODE BEGIN TIM2_MspInit 1 */
 2498              		.loc 1 926 5 view .LVU676
 2499 006a 019B     		ldr	r3, [sp, #4]
 2500              	.LBE18:
 926:Src/stm32f7xx_hal_msp.c ****   /* USER CODE BEGIN TIM2_MspInit 1 */
 2501              		.loc 1 926 5 view .LVU677
 2502 006c F1E7     		b	.L181
 2503              	.L191:
 937:Src/stm32f7xx_hal_msp.c ****   /* USER CODE BEGIN TIM3_MspInit 1 */
 2504              		.loc 1 937 5 view .LVU678
 2505              	.LBB19:
 937:Src/stm32f7xx_hal_msp.c ****   /* USER CODE BEGIN TIM3_MspInit 1 */
 2506              		.loc 1 937 5 view .LVU679
 937:Src/stm32f7xx_hal_msp.c ****   /* USER CODE BEGIN TIM3_MspInit 1 */
 2507              		.loc 1 937 5 view .LVU680
 2508 006e 154B     		ldr	r3, .L194+20
 2509 0070 1A6C     		ldr	r2, [r3, #64]
 2510 0072 42F00202 		orr	r2, r2, #2
 2511 0076 1A64     		str	r2, [r3, #64]
 937:Src/stm32f7xx_hal_msp.c ****   /* USER CODE BEGIN TIM3_MspInit 1 */
 2512              		.loc 1 937 5 view .LVU681
 2513 0078 1B6C     		ldr	r3, [r3, #64]
 2514 007a 03F00203 		and	r3, r3, #2
 2515 007e 0293     		str	r3, [sp, #8]
 937:Src/stm32f7xx_hal_msp.c ****   /* USER CODE BEGIN TIM3_MspInit 1 */
 2516              		.loc 1 937 5 view .LVU682
 2517 0080 029B     		ldr	r3, [sp, #8]
 2518              	.LBE19:
 937:Src/stm32f7xx_hal_msp.c ****   /* USER CODE BEGIN TIM3_MspInit 1 */
 2519              		.loc 1 937 5 view .LVU683
 2520 0082 E6E7     		b	.L181
 2521              	.L192:
 948:Src/stm32f7xx_hal_msp.c ****   /* USER CODE BEGIN TIM5_MspInit 1 */
 2522              		.loc 1 948 5 view .LVU684
 2523              	.LBB20:
 948:Src/stm32f7xx_hal_msp.c ****   /* USER CODE BEGIN TIM5_MspInit 1 */
 2524              		.loc 1 948 5 view .LVU685
 948:Src/stm32f7xx_hal_msp.c ****   /* USER CODE BEGIN TIM5_MspInit 1 */
ARM GAS  C:\Users\Nina\AppData\Local\Temp\ccvtmqTe.s 			page 81


 2525              		.loc 1 948 5 view .LVU686
 2526 0084 0F4B     		ldr	r3, .L194+20
 2527 0086 1A6C     		ldr	r2, [r3, #64]
 2528 0088 42F00802 		orr	r2, r2, #8
 2529 008c 1A64     		str	r2, [r3, #64]
 948:Src/stm32f7xx_hal_msp.c ****   /* USER CODE BEGIN TIM5_MspInit 1 */
 2530              		.loc 1 948 5 view .LVU687
 2531 008e 1B6C     		ldr	r3, [r3, #64]
 2532 0090 03F00803 		and	r3, r3, #8
 2533 0094 0393     		str	r3, [sp, #12]
 948:Src/stm32f7xx_hal_msp.c ****   /* USER CODE BEGIN TIM5_MspInit 1 */
 2534              		.loc 1 948 5 view .LVU688
 2535 0096 039B     		ldr	r3, [sp, #12]
 2536              	.LBE20:
 948:Src/stm32f7xx_hal_msp.c ****   /* USER CODE BEGIN TIM5_MspInit 1 */
 2537              		.loc 1 948 5 view .LVU689
 2538 0098 DBE7     		b	.L181
 2539              	.L193:
 959:Src/stm32f7xx_hal_msp.c ****   /* USER CODE BEGIN TIM7_MspInit 1 */
 2540              		.loc 1 959 5 view .LVU690
 2541              	.LBB21:
 959:Src/stm32f7xx_hal_msp.c ****   /* USER CODE BEGIN TIM7_MspInit 1 */
 2542              		.loc 1 959 5 view .LVU691
 959:Src/stm32f7xx_hal_msp.c ****   /* USER CODE BEGIN TIM7_MspInit 1 */
 2543              		.loc 1 959 5 view .LVU692
 2544 009a 0A4B     		ldr	r3, .L194+20
 2545 009c 1A6C     		ldr	r2, [r3, #64]
 2546 009e 42F02002 		orr	r2, r2, #32
 2547 00a2 1A64     		str	r2, [r3, #64]
 959:Src/stm32f7xx_hal_msp.c ****   /* USER CODE BEGIN TIM7_MspInit 1 */
 2548              		.loc 1 959 5 view .LVU693
 2549 00a4 1B6C     		ldr	r3, [r3, #64]
 2550 00a6 03F02003 		and	r3, r3, #32
 2551 00aa 0493     		str	r3, [sp, #16]
 959:Src/stm32f7xx_hal_msp.c ****   /* USER CODE BEGIN TIM7_MspInit 1 */
 2552              		.loc 1 959 5 view .LVU694
 2553 00ac 049B     		ldr	r3, [sp, #16]
 2554              	.LBE21:
 959:Src/stm32f7xx_hal_msp.c ****   /* USER CODE BEGIN TIM7_MspInit 1 */
 2555              		.loc 1 959 5 view .LVU695
 2556 00ae D0E7     		b	.L181
 2557              	.L195:
 2558              		.align	2
 2559              	.L194:
 2560 00b0 00000140 		.word	1073807360
 2561 00b4 00040040 		.word	1073742848
 2562 00b8 000C0040 		.word	1073744896
 2563 00bc 00140040 		.word	1073746944
 2564 00c0 00040140 		.word	1073808384
 2565 00c4 00380240 		.word	1073887232
 2566              		.cfi_endproc
 2567              	.LFE161:
 2569              		.section	.text.HAL_TIM_PWM_MspInit,"ax",%progbits
 2570              		.align	1
 2571              		.global	HAL_TIM_PWM_MspInit
 2572              		.syntax unified
 2573              		.thumb
ARM GAS  C:\Users\Nina\AppData\Local\Temp\ccvtmqTe.s 			page 82


 2574              		.thumb_func
 2575              		.fpu fpv5-sp-d16
 2577              	HAL_TIM_PWM_MspInit:
 2578              	.LVL136:
 2579              	.LFB162:
 979:Src/stm32f7xx_hal_msp.c **** 
 2580              		.loc 1 979 1 view -0
 2581              		.cfi_startproc
 2582              		@ args = 0, pretend = 0, frame = 8
 2583              		@ frame_needed = 0, uses_anonymous_args = 0
 2584              		@ link register save eliminated.
 981:Src/stm32f7xx_hal_msp.c ****   {
 2585              		.loc 1 981 3 view .LVU697
 981:Src/stm32f7xx_hal_msp.c ****   {
 2586              		.loc 1 981 14 is_stmt 0 view .LVU698
 2587 0000 0268     		ldr	r2, [r0]
 981:Src/stm32f7xx_hal_msp.c ****   {
 2588              		.loc 1 981 5 view .LVU699
 2589 0002 094B     		ldr	r3, .L203
 2590 0004 9A42     		cmp	r2, r3
 2591 0006 00D0     		beq	.L202
 2592 0008 7047     		bx	lr
 2593              	.L202:
 979:Src/stm32f7xx_hal_msp.c **** 
 2594              		.loc 1 979 1 view .LVU700
 2595 000a 82B0     		sub	sp, sp, #8
 2596              	.LCFI49:
 2597              		.cfi_def_cfa_offset 8
 987:Src/stm32f7xx_hal_msp.c ****   /* USER CODE BEGIN TIM12_MspInit 1 */
 2598              		.loc 1 987 5 is_stmt 1 view .LVU701
 2599              	.LBB22:
 987:Src/stm32f7xx_hal_msp.c ****   /* USER CODE BEGIN TIM12_MspInit 1 */
 2600              		.loc 1 987 5 view .LVU702
 987:Src/stm32f7xx_hal_msp.c ****   /* USER CODE BEGIN TIM12_MspInit 1 */
 2601              		.loc 1 987 5 view .LVU703
 2602 000c 03F50833 		add	r3, r3, #139264
 2603 0010 1A6C     		ldr	r2, [r3, #64]
 2604 0012 42F04002 		orr	r2, r2, #64
 2605 0016 1A64     		str	r2, [r3, #64]
 987:Src/stm32f7xx_hal_msp.c ****   /* USER CODE BEGIN TIM12_MspInit 1 */
 2606              		.loc 1 987 5 view .LVU704
 2607 0018 1B6C     		ldr	r3, [r3, #64]
 2608 001a 03F04003 		and	r3, r3, #64
 2609 001e 0193     		str	r3, [sp, #4]
 987:Src/stm32f7xx_hal_msp.c ****   /* USER CODE BEGIN TIM12_MspInit 1 */
 2610              		.loc 1 987 5 view .LVU705
 2611 0020 019B     		ldr	r3, [sp, #4]
 2612              	.LBE22:
 987:Src/stm32f7xx_hal_msp.c ****   /* USER CODE BEGIN TIM12_MspInit 1 */
 2613              		.loc 1 987 5 view .LVU706
 993:Src/stm32f7xx_hal_msp.c **** 
 2614              		.loc 1 993 1 is_stmt 0 view .LVU707
 2615 0022 02B0     		add	sp, sp, #8
 2616              	.LCFI50:
 2617              		.cfi_def_cfa_offset 0
 2618              		@ sp needed
 2619 0024 7047     		bx	lr
ARM GAS  C:\Users\Nina\AppData\Local\Temp\ccvtmqTe.s 			page 83


 2620              	.L204:
 2621 0026 00BF     		.align	2
 2622              	.L203:
 2623 0028 00180040 		.word	1073747968
 2624              		.cfi_endproc
 2625              	.LFE162:
 2627              		.section	.text.HAL_TIM_MspPostInit,"ax",%progbits
 2628              		.align	1
 2629              		.global	HAL_TIM_MspPostInit
 2630              		.syntax unified
 2631              		.thumb
 2632              		.thumb_func
 2633              		.fpu fpv5-sp-d16
 2635              	HAL_TIM_MspPostInit:
 2636              	.LVL137:
 2637              	.LFB163:
 996:Src/stm32f7xx_hal_msp.c **** 
 2638              		.loc 1 996 1 is_stmt 1 view -0
 2639              		.cfi_startproc
 2640              		@ args = 0, pretend = 0, frame = 24
 2641              		@ frame_needed = 0, uses_anonymous_args = 0
 996:Src/stm32f7xx_hal_msp.c **** 
 2642              		.loc 1 996 1 is_stmt 0 view .LVU709
 2643 0000 00B5     		push	{lr}
 2644              	.LCFI51:
 2645              		.cfi_def_cfa_offset 4
 2646              		.cfi_offset 14, -4
 2647 0002 87B0     		sub	sp, sp, #28
 2648              	.LCFI52:
 2649              		.cfi_def_cfa_offset 32
 998:Src/stm32f7xx_hal_msp.c ****   if(htim->Instance==TIM1)
 2650              		.loc 1 998 3 is_stmt 1 view .LVU710
 999:Src/stm32f7xx_hal_msp.c ****   {
 2651              		.loc 1 999 3 view .LVU711
 999:Src/stm32f7xx_hal_msp.c ****   {
 2652              		.loc 1 999 10 is_stmt 0 view .LVU712
 2653 0004 0368     		ldr	r3, [r0]
 999:Src/stm32f7xx_hal_msp.c ****   {
 2654              		.loc 1 999 5 view .LVU713
 2655 0006 2C4A     		ldr	r2, .L217
 2656 0008 9342     		cmp	r3, r2
 2657 000a 0ED0     		beq	.L212
1018:Src/stm32f7xx_hal_msp.c ****   {
 2658              		.loc 1 1018 8 is_stmt 1 view .LVU714
1018:Src/stm32f7xx_hal_msp.c ****   {
 2659              		.loc 1 1018 10 is_stmt 0 view .LVU715
 2660 000c B3F1804F 		cmp	r3, #1073741824
 2661 0010 1AD0     		beq	.L213
1038:Src/stm32f7xx_hal_msp.c ****   {
 2662              		.loc 1 1038 8 is_stmt 1 view .LVU716
1038:Src/stm32f7xx_hal_msp.c ****   {
 2663              		.loc 1 1038 10 is_stmt 0 view .LVU717
 2664 0012 2A4A     		ldr	r2, .L217+4
 2665 0014 9342     		cmp	r3, r2
 2666 0016 26D0     		beq	.L214
1058:Src/stm32f7xx_hal_msp.c ****   {
 2667              		.loc 1 1058 8 is_stmt 1 view .LVU718
ARM GAS  C:\Users\Nina\AppData\Local\Temp\ccvtmqTe.s 			page 84


1058:Src/stm32f7xx_hal_msp.c ****   {
 2668              		.loc 1 1058 10 is_stmt 0 view .LVU719
 2669 0018 294A     		ldr	r2, .L217+8
 2670 001a 9342     		cmp	r3, r2
 2671 001c 30D0     		beq	.L215
1078:Src/stm32f7xx_hal_msp.c ****   {
 2672              		.loc 1 1078 8 is_stmt 1 view .LVU720
1078:Src/stm32f7xx_hal_msp.c ****   {
 2673              		.loc 1 1078 10 is_stmt 0 view .LVU721
 2674 001e 294A     		ldr	r2, .L217+12
 2675 0020 9342     		cmp	r3, r2
 2676 0022 3AD0     		beq	.L216
 2677              	.LVL138:
 2678              	.L205:
1099:Src/stm32f7xx_hal_msp.c **** 
 2679              		.loc 1 1099 1 view .LVU722
 2680 0024 07B0     		add	sp, sp, #28
 2681              	.LCFI53:
 2682              		.cfi_remember_state
 2683              		.cfi_def_cfa_offset 4
 2684              		@ sp needed
 2685 0026 5DF804FB 		ldr	pc, [sp], #4
 2686              	.LVL139:
 2687              	.L212:
 2688              	.LCFI54:
 2689              		.cfi_restore_state
1007:Src/stm32f7xx_hal_msp.c ****     GPIO_InitStruct.Mode = GPIO_MODE_AF_PP;
 2690              		.loc 1 1007 5 is_stmt 1 view .LVU723
1007:Src/stm32f7xx_hal_msp.c ****     GPIO_InitStruct.Mode = GPIO_MODE_AF_PP;
 2691              		.loc 1 1007 25 is_stmt 0 view .LVU724
 2692 002a 4FF48073 		mov	r3, #256
 2693 002e 0193     		str	r3, [sp, #4]
1008:Src/stm32f7xx_hal_msp.c ****     GPIO_InitStruct.Pull = GPIO_NOPULL;
 2694              		.loc 1 1008 5 is_stmt 1 view .LVU725
1008:Src/stm32f7xx_hal_msp.c ****     GPIO_InitStruct.Pull = GPIO_NOPULL;
 2695              		.loc 1 1008 26 is_stmt 0 view .LVU726
 2696 0030 0223     		movs	r3, #2
 2697 0032 0293     		str	r3, [sp, #8]
1009:Src/stm32f7xx_hal_msp.c ****     GPIO_InitStruct.Speed = GPIO_SPEED_FREQ_LOW;
 2698              		.loc 1 1009 5 is_stmt 1 view .LVU727
1009:Src/stm32f7xx_hal_msp.c ****     GPIO_InitStruct.Speed = GPIO_SPEED_FREQ_LOW;
 2699              		.loc 1 1009 26 is_stmt 0 view .LVU728
 2700 0034 0023     		movs	r3, #0
 2701 0036 0393     		str	r3, [sp, #12]
1010:Src/stm32f7xx_hal_msp.c ****     GPIO_InitStruct.Alternate = GPIO_AF1_TIM1;
 2702              		.loc 1 1010 5 is_stmt 1 view .LVU729
1010:Src/stm32f7xx_hal_msp.c ****     GPIO_InitStruct.Alternate = GPIO_AF1_TIM1;
 2703              		.loc 1 1010 27 is_stmt 0 view .LVU730
 2704 0038 0493     		str	r3, [sp, #16]
1011:Src/stm32f7xx_hal_msp.c ****     HAL_GPIO_Init(ARDUINO_PWM_D10_GPIO_Port, &GPIO_InitStruct);
 2705              		.loc 1 1011 5 is_stmt 1 view .LVU731
1011:Src/stm32f7xx_hal_msp.c ****     HAL_GPIO_Init(ARDUINO_PWM_D10_GPIO_Port, &GPIO_InitStruct);
 2706              		.loc 1 1011 31 is_stmt 0 view .LVU732
 2707 003a 0123     		movs	r3, #1
 2708 003c 0593     		str	r3, [sp, #20]
1012:Src/stm32f7xx_hal_msp.c **** 
 2709              		.loc 1 1012 5 is_stmt 1 view .LVU733
ARM GAS  C:\Users\Nina\AppData\Local\Temp\ccvtmqTe.s 			page 85


 2710 003e 01A9     		add	r1, sp, #4
 2711 0040 2148     		ldr	r0, .L217+16
 2712              	.LVL140:
1012:Src/stm32f7xx_hal_msp.c **** 
 2713              		.loc 1 1012 5 is_stmt 0 view .LVU734
 2714 0042 FFF7FEFF 		bl	HAL_GPIO_Init
 2715              	.LVL141:
 2716 0046 EDE7     		b	.L205
 2717              	.LVL142:
 2718              	.L213:
1027:Src/stm32f7xx_hal_msp.c ****     GPIO_InitStruct.Mode = GPIO_MODE_AF_PP;
 2719              		.loc 1 1027 5 is_stmt 1 view .LVU735
1027:Src/stm32f7xx_hal_msp.c ****     GPIO_InitStruct.Mode = GPIO_MODE_AF_PP;
 2720              		.loc 1 1027 25 is_stmt 0 view .LVU736
 2721 0048 4FF40043 		mov	r3, #32768
 2722 004c 0193     		str	r3, [sp, #4]
1028:Src/stm32f7xx_hal_msp.c ****     GPIO_InitStruct.Pull = GPIO_NOPULL;
 2723              		.loc 1 1028 5 is_stmt 1 view .LVU737
1028:Src/stm32f7xx_hal_msp.c ****     GPIO_InitStruct.Pull = GPIO_NOPULL;
 2724              		.loc 1 1028 26 is_stmt 0 view .LVU738
 2725 004e 0223     		movs	r3, #2
 2726 0050 0293     		str	r3, [sp, #8]
1029:Src/stm32f7xx_hal_msp.c ****     GPIO_InitStruct.Speed = GPIO_SPEED_FREQ_LOW;
 2727              		.loc 1 1029 5 is_stmt 1 view .LVU739
1029:Src/stm32f7xx_hal_msp.c ****     GPIO_InitStruct.Speed = GPIO_SPEED_FREQ_LOW;
 2728              		.loc 1 1029 26 is_stmt 0 view .LVU740
 2729 0052 0023     		movs	r3, #0
 2730 0054 0393     		str	r3, [sp, #12]
1030:Src/stm32f7xx_hal_msp.c ****     GPIO_InitStruct.Alternate = GPIO_AF1_TIM2;
 2731              		.loc 1 1030 5 is_stmt 1 view .LVU741
1030:Src/stm32f7xx_hal_msp.c ****     GPIO_InitStruct.Alternate = GPIO_AF1_TIM2;
 2732              		.loc 1 1030 27 is_stmt 0 view .LVU742
 2733 0056 0493     		str	r3, [sp, #16]
1031:Src/stm32f7xx_hal_msp.c ****     HAL_GPIO_Init(ARDUINO_PWM_D9_GPIO_Port, &GPIO_InitStruct);
 2734              		.loc 1 1031 5 is_stmt 1 view .LVU743
1031:Src/stm32f7xx_hal_msp.c ****     HAL_GPIO_Init(ARDUINO_PWM_D9_GPIO_Port, &GPIO_InitStruct);
 2735              		.loc 1 1031 31 is_stmt 0 view .LVU744
 2736 0058 0123     		movs	r3, #1
 2737 005a 0593     		str	r3, [sp, #20]
1032:Src/stm32f7xx_hal_msp.c **** 
 2738              		.loc 1 1032 5 is_stmt 1 view .LVU745
 2739 005c 01A9     		add	r1, sp, #4
 2740 005e 1A48     		ldr	r0, .L217+16
 2741              	.LVL143:
1032:Src/stm32f7xx_hal_msp.c **** 
 2742              		.loc 1 1032 5 is_stmt 0 view .LVU746
 2743 0060 FFF7FEFF 		bl	HAL_GPIO_Init
 2744              	.LVL144:
 2745 0064 DEE7     		b	.L205
 2746              	.LVL145:
 2747              	.L214:
1047:Src/stm32f7xx_hal_msp.c ****     GPIO_InitStruct.Mode = GPIO_MODE_AF_PP;
 2748              		.loc 1 1047 5 is_stmt 1 view .LVU747
1047:Src/stm32f7xx_hal_msp.c ****     GPIO_InitStruct.Mode = GPIO_MODE_AF_PP;
 2749              		.loc 1 1047 25 is_stmt 0 view .LVU748
 2750 0066 1023     		movs	r3, #16
 2751 0068 0193     		str	r3, [sp, #4]
ARM GAS  C:\Users\Nina\AppData\Local\Temp\ccvtmqTe.s 			page 86


1048:Src/stm32f7xx_hal_msp.c ****     GPIO_InitStruct.Pull = GPIO_NOPULL;
 2752              		.loc 1 1048 5 is_stmt 1 view .LVU749
1048:Src/stm32f7xx_hal_msp.c ****     GPIO_InitStruct.Pull = GPIO_NOPULL;
 2753              		.loc 1 1048 26 is_stmt 0 view .LVU750
 2754 006a 0223     		movs	r3, #2
 2755 006c 0293     		str	r3, [sp, #8]
1049:Src/stm32f7xx_hal_msp.c ****     GPIO_InitStruct.Speed = GPIO_SPEED_FREQ_LOW;
 2756              		.loc 1 1049 5 is_stmt 1 view .LVU751
1049:Src/stm32f7xx_hal_msp.c ****     GPIO_InitStruct.Speed = GPIO_SPEED_FREQ_LOW;
 2757              		.loc 1 1049 26 is_stmt 0 view .LVU752
 2758 006e 0022     		movs	r2, #0
 2759 0070 0392     		str	r2, [sp, #12]
1050:Src/stm32f7xx_hal_msp.c ****     GPIO_InitStruct.Alternate = GPIO_AF2_TIM3;
 2760              		.loc 1 1050 5 is_stmt 1 view .LVU753
1050:Src/stm32f7xx_hal_msp.c ****     GPIO_InitStruct.Alternate = GPIO_AF2_TIM3;
 2761              		.loc 1 1050 27 is_stmt 0 view .LVU754
 2762 0072 0492     		str	r2, [sp, #16]
1051:Src/stm32f7xx_hal_msp.c ****     HAL_GPIO_Init(ARDUINO_PWM_D3_GPIO_Port, &GPIO_InitStruct);
 2763              		.loc 1 1051 5 is_stmt 1 view .LVU755
1051:Src/stm32f7xx_hal_msp.c ****     HAL_GPIO_Init(ARDUINO_PWM_D3_GPIO_Port, &GPIO_InitStruct);
 2764              		.loc 1 1051 31 is_stmt 0 view .LVU756
 2765 0074 0593     		str	r3, [sp, #20]
1052:Src/stm32f7xx_hal_msp.c **** 
 2766              		.loc 1 1052 5 is_stmt 1 view .LVU757
 2767 0076 01A9     		add	r1, sp, #4
 2768 0078 1448     		ldr	r0, .L217+20
 2769              	.LVL146:
1052:Src/stm32f7xx_hal_msp.c **** 
 2770              		.loc 1 1052 5 is_stmt 0 view .LVU758
 2771 007a FFF7FEFF 		bl	HAL_GPIO_Init
 2772              	.LVL147:
 2773 007e D1E7     		b	.L205
 2774              	.LVL148:
 2775              	.L215:
1067:Src/stm32f7xx_hal_msp.c ****     GPIO_InitStruct.Mode = GPIO_MODE_AF_PP;
 2776              		.loc 1 1067 5 is_stmt 1 view .LVU759
1067:Src/stm32f7xx_hal_msp.c ****     GPIO_InitStruct.Mode = GPIO_MODE_AF_PP;
 2777              		.loc 1 1067 25 is_stmt 0 view .LVU760
 2778 0080 0123     		movs	r3, #1
 2779 0082 0193     		str	r3, [sp, #4]
1068:Src/stm32f7xx_hal_msp.c ****     GPIO_InitStruct.Pull = GPIO_NOPULL;
 2780              		.loc 1 1068 5 is_stmt 1 view .LVU761
1068:Src/stm32f7xx_hal_msp.c ****     GPIO_InitStruct.Pull = GPIO_NOPULL;
 2781              		.loc 1 1068 26 is_stmt 0 view .LVU762
 2782 0084 0223     		movs	r3, #2
 2783 0086 0293     		str	r3, [sp, #8]
1069:Src/stm32f7xx_hal_msp.c ****     GPIO_InitStruct.Speed = GPIO_SPEED_FREQ_LOW;
