ARM GAS  C:\Users\Nina\AppData\Local\Temp\cc8ClKuc.s 			page 1


   1              		.cpu cortex-m7
   2              		.eabi_attribute 27, 1
   3              		.eabi_attribute 28, 1
   4              		.eabi_attribute 20, 1
   5              		.eabi_attribute 21, 1
   6              		.eabi_attribute 23, 3
   7              		.eabi_attribute 24, 1
   8              		.eabi_attribute 25, 1
   9              		.eabi_attribute 26, 1
  10              		.eabi_attribute 30, 1
  11              		.eabi_attribute 34, 1
  12              		.eabi_attribute 18, 4
  13              		.file	"stm32f7xx_hal_dcmi.c"
  14              		.text
  15              	.Ltext0:
  16              		.cfi_sections	.debug_frame
  17              		.section	.text.DCMI_DMAXferCplt,"ax",%progbits
  18              		.align	1
  19              		.arch armv7e-m
  20              		.syntax unified
  21              		.thumb
  22              		.thumb_func
  23              		.fpu fpv5-sp-d16
  25              	DCMI_DMAXferCplt:
  26              	.LVL0:
  27              	.LFB156:
  28              		.file 1 "Drivers/STM32F7xx_HAL_Driver/Src/stm32f7xx_hal_dcmi.c"
   1:Drivers/STM32F7xx_HAL_Driver/Src/stm32f7xx_hal_dcmi.c **** /**
   2:Drivers/STM32F7xx_HAL_Driver/Src/stm32f7xx_hal_dcmi.c ****   ******************************************************************************
   3:Drivers/STM32F7xx_HAL_Driver/Src/stm32f7xx_hal_dcmi.c ****   * @file    stm32f7xx_hal_dcmi.c
   4:Drivers/STM32F7xx_HAL_Driver/Src/stm32f7xx_hal_dcmi.c ****   * @author  MCD Application Team
   5:Drivers/STM32F7xx_HAL_Driver/Src/stm32f7xx_hal_dcmi.c ****   * @brief   DCMI HAL module driver
   6:Drivers/STM32F7xx_HAL_Driver/Src/stm32f7xx_hal_dcmi.c ****   *          This file provides firmware functions to manage the following 
   7:Drivers/STM32F7xx_HAL_Driver/Src/stm32f7xx_hal_dcmi.c ****   *          functionalities of the Digital Camera Interface (DCMI) peripheral:
   8:Drivers/STM32F7xx_HAL_Driver/Src/stm32f7xx_hal_dcmi.c ****   *           + Initialization and de-initialization functions
   9:Drivers/STM32F7xx_HAL_Driver/Src/stm32f7xx_hal_dcmi.c ****   *           + IO operation functions
  10:Drivers/STM32F7xx_HAL_Driver/Src/stm32f7xx_hal_dcmi.c ****   *           + Peripheral Control functions 
  11:Drivers/STM32F7xx_HAL_Driver/Src/stm32f7xx_hal_dcmi.c ****   *           + Peripheral State and Error functions  
  12:Drivers/STM32F7xx_HAL_Driver/Src/stm32f7xx_hal_dcmi.c ****   *           
  13:Drivers/STM32F7xx_HAL_Driver/Src/stm32f7xx_hal_dcmi.c ****   @verbatim
  14:Drivers/STM32F7xx_HAL_Driver/Src/stm32f7xx_hal_dcmi.c ****   ==============================================================================
  15:Drivers/STM32F7xx_HAL_Driver/Src/stm32f7xx_hal_dcmi.c ****                         ##### How to use this driver #####
  16:Drivers/STM32F7xx_HAL_Driver/Src/stm32f7xx_hal_dcmi.c ****   ==============================================================================
  17:Drivers/STM32F7xx_HAL_Driver/Src/stm32f7xx_hal_dcmi.c ****   [..]
  18:Drivers/STM32F7xx_HAL_Driver/Src/stm32f7xx_hal_dcmi.c ****       The sequence below describes how to use this driver to capture image
  19:Drivers/STM32F7xx_HAL_Driver/Src/stm32f7xx_hal_dcmi.c ****       from a camera module connected to the DCMI Interface.
  20:Drivers/STM32F7xx_HAL_Driver/Src/stm32f7xx_hal_dcmi.c ****       This sequence does not take into account the configuration of the
  21:Drivers/STM32F7xx_HAL_Driver/Src/stm32f7xx_hal_dcmi.c ****       camera module, which should be made before to configure and enable
  22:Drivers/STM32F7xx_HAL_Driver/Src/stm32f7xx_hal_dcmi.c ****       the DCMI to capture images.
  23:Drivers/STM32F7xx_HAL_Driver/Src/stm32f7xx_hal_dcmi.c **** 
  24:Drivers/STM32F7xx_HAL_Driver/Src/stm32f7xx_hal_dcmi.c ****     (#) Program the required configuration through following parameters:
  25:Drivers/STM32F7xx_HAL_Driver/Src/stm32f7xx_hal_dcmi.c ****         horizontal and vertical polarity, pixel clock polarity, Capture Rate,
  26:Drivers/STM32F7xx_HAL_Driver/Src/stm32f7xx_hal_dcmi.c ****         Synchronization Mode, code of the frame delimiter and data width 
  27:Drivers/STM32F7xx_HAL_Driver/Src/stm32f7xx_hal_dcmi.c ****         using HAL_DCMI_Init() function.
  28:Drivers/STM32F7xx_HAL_Driver/Src/stm32f7xx_hal_dcmi.c **** 
  29:Drivers/STM32F7xx_HAL_Driver/Src/stm32f7xx_hal_dcmi.c ****     (#) Configure the DMA2_Stream1 channel1 to transfer Data from DCMI DR
  30:Drivers/STM32F7xx_HAL_Driver/Src/stm32f7xx_hal_dcmi.c ****         register to the destination memory buffer.
ARM GAS  C:\Users\Nina\AppData\Local\Temp\cc8ClKuc.s 			page 2


  31:Drivers/STM32F7xx_HAL_Driver/Src/stm32f7xx_hal_dcmi.c **** 
  32:Drivers/STM32F7xx_HAL_Driver/Src/stm32f7xx_hal_dcmi.c ****     (#) Program the required configuration through following parameters:
  33:Drivers/STM32F7xx_HAL_Driver/Src/stm32f7xx_hal_dcmi.c ****         DCMI mode, destination memory Buffer address and the data length 
  34:Drivers/STM32F7xx_HAL_Driver/Src/stm32f7xx_hal_dcmi.c ****         and enable capture using HAL_DCMI_Start_DMA() function.
  35:Drivers/STM32F7xx_HAL_Driver/Src/stm32f7xx_hal_dcmi.c **** 
  36:Drivers/STM32F7xx_HAL_Driver/Src/stm32f7xx_hal_dcmi.c ****     (#) Optionally, configure and Enable the CROP feature to select a rectangular
  37:Drivers/STM32F7xx_HAL_Driver/Src/stm32f7xx_hal_dcmi.c ****         window from the received image using HAL_DCMI_ConfigCrop() 
  38:Drivers/STM32F7xx_HAL_Driver/Src/stm32f7xx_hal_dcmi.c ****         and HAL_DCMI_EnableCROP() functions
  39:Drivers/STM32F7xx_HAL_Driver/Src/stm32f7xx_hal_dcmi.c **** 
  40:Drivers/STM32F7xx_HAL_Driver/Src/stm32f7xx_hal_dcmi.c ****     (#) The capture can be stopped using HAL_DCMI_Stop() function.
  41:Drivers/STM32F7xx_HAL_Driver/Src/stm32f7xx_hal_dcmi.c **** 
  42:Drivers/STM32F7xx_HAL_Driver/Src/stm32f7xx_hal_dcmi.c ****     (#) To control DCMI state you can use the function HAL_DCMI_GetState().
  43:Drivers/STM32F7xx_HAL_Driver/Src/stm32f7xx_hal_dcmi.c **** 
  44:Drivers/STM32F7xx_HAL_Driver/Src/stm32f7xx_hal_dcmi.c ****      *** DCMI HAL driver macros list ***
  45:Drivers/STM32F7xx_HAL_Driver/Src/stm32f7xx_hal_dcmi.c ****      ============================================= 
  46:Drivers/STM32F7xx_HAL_Driver/Src/stm32f7xx_hal_dcmi.c ****      [..]
  47:Drivers/STM32F7xx_HAL_Driver/Src/stm32f7xx_hal_dcmi.c ****        Below the list of most used macros in DCMI HAL driver.
  48:Drivers/STM32F7xx_HAL_Driver/Src/stm32f7xx_hal_dcmi.c ****        
  49:Drivers/STM32F7xx_HAL_Driver/Src/stm32f7xx_hal_dcmi.c ****       (+) __HAL_DCMI_ENABLE: Enable the DCMI peripheral.
  50:Drivers/STM32F7xx_HAL_Driver/Src/stm32f7xx_hal_dcmi.c ****       (+) __HAL_DCMI_DISABLE: Disable the DCMI peripheral.
  51:Drivers/STM32F7xx_HAL_Driver/Src/stm32f7xx_hal_dcmi.c ****       (+) __HAL_DCMI_GET_FLAG: Get the DCMI pending flags.
  52:Drivers/STM32F7xx_HAL_Driver/Src/stm32f7xx_hal_dcmi.c ****       (+) __HAL_DCMI_CLEAR_FLAG: Clear the DCMI pending flags.
  53:Drivers/STM32F7xx_HAL_Driver/Src/stm32f7xx_hal_dcmi.c ****       (+) __HAL_DCMI_ENABLE_IT: Enable the specified DCMI interrupts.
  54:Drivers/STM32F7xx_HAL_Driver/Src/stm32f7xx_hal_dcmi.c ****       (+) __HAL_DCMI_DISABLE_IT: Disable the specified DCMI interrupts.
  55:Drivers/STM32F7xx_HAL_Driver/Src/stm32f7xx_hal_dcmi.c ****       (+) __HAL_DCMI_GET_IT_SOURCE: Check whether the specified DCMI interrupt has occurred or not.
  56:Drivers/STM32F7xx_HAL_Driver/Src/stm32f7xx_hal_dcmi.c ****  
  57:Drivers/STM32F7xx_HAL_Driver/Src/stm32f7xx_hal_dcmi.c ****      [..] 
  58:Drivers/STM32F7xx_HAL_Driver/Src/stm32f7xx_hal_dcmi.c ****        (@) You can refer to the DCMI HAL driver header file for more useful macros
  59:Drivers/STM32F7xx_HAL_Driver/Src/stm32f7xx_hal_dcmi.c ****       
  60:Drivers/STM32F7xx_HAL_Driver/Src/stm32f7xx_hal_dcmi.c ****   @endverbatim
  61:Drivers/STM32F7xx_HAL_Driver/Src/stm32f7xx_hal_dcmi.c ****   ******************************************************************************
  62:Drivers/STM32F7xx_HAL_Driver/Src/stm32f7xx_hal_dcmi.c ****   * @attention
  63:Drivers/STM32F7xx_HAL_Driver/Src/stm32f7xx_hal_dcmi.c ****   *
  64:Drivers/STM32F7xx_HAL_Driver/Src/stm32f7xx_hal_dcmi.c ****   * <h2><center>&copy; COPYRIGHT(c) 2017 STMicroelectronics</center></h2>
  65:Drivers/STM32F7xx_HAL_Driver/Src/stm32f7xx_hal_dcmi.c ****   *
  66:Drivers/STM32F7xx_HAL_Driver/Src/stm32f7xx_hal_dcmi.c ****   * Redistribution and use in source and binary forms, with or without modification,
  67:Drivers/STM32F7xx_HAL_Driver/Src/stm32f7xx_hal_dcmi.c ****   * are permitted provided that the following conditions are met:
  68:Drivers/STM32F7xx_HAL_Driver/Src/stm32f7xx_hal_dcmi.c ****   *   1. Redistributions of source code must retain the above copyright notice,
  69:Drivers/STM32F7xx_HAL_Driver/Src/stm32f7xx_hal_dcmi.c ****   *      this list of conditions and the following disclaimer.
  70:Drivers/STM32F7xx_HAL_Driver/Src/stm32f7xx_hal_dcmi.c ****   *   2. Redistributions in binary form must reproduce the above copyright notice,
  71:Drivers/STM32F7xx_HAL_Driver/Src/stm32f7xx_hal_dcmi.c ****   *      this list of conditions and the following disclaimer in the documentation
  72:Drivers/STM32F7xx_HAL_Driver/Src/stm32f7xx_hal_dcmi.c ****   *      and/or other materials provided with the distribution.
  73:Drivers/STM32F7xx_HAL_Driver/Src/stm32f7xx_hal_dcmi.c ****   *   3. Neither the name of STMicroelectronics nor the names of its contributors
  74:Drivers/STM32F7xx_HAL_Driver/Src/stm32f7xx_hal_dcmi.c ****   *      may be used to endorse or promote products derived from this software
  75:Drivers/STM32F7xx_HAL_Driver/Src/stm32f7xx_hal_dcmi.c ****   *      without specific prior written permission.
  76:Drivers/STM32F7xx_HAL_Driver/Src/stm32f7xx_hal_dcmi.c ****   *
  77:Drivers/STM32F7xx_HAL_Driver/Src/stm32f7xx_hal_dcmi.c ****   * THIS SOFTWARE IS PROVIDED BY THE COPYRIGHT HOLDERS AND CONTRIBUTORS "AS IS"
  78:Drivers/STM32F7xx_HAL_Driver/Src/stm32f7xx_hal_dcmi.c ****   * AND ANY EXPRESS OR IMPLIED WARRANTIES, INCLUDING, BUT NOT LIMITED TO, THE
  79:Drivers/STM32F7xx_HAL_Driver/Src/stm32f7xx_hal_dcmi.c ****   * IMPLIED WARRANTIES OF MERCHANTABILITY AND FITNESS FOR A PARTICULAR PURPOSE ARE
  80:Drivers/STM32F7xx_HAL_Driver/Src/stm32f7xx_hal_dcmi.c ****   * DISCLAIMED. IN NO EVENT SHALL THE COPYRIGHT HOLDER OR CONTRIBUTORS BE LIABLE
  81:Drivers/STM32F7xx_HAL_Driver/Src/stm32f7xx_hal_dcmi.c ****   * FOR ANY DIRECT, INDIRECT, INCIDENTAL, SPECIAL, EXEMPLARY, OR CONSEQUENTIAL
  82:Drivers/STM32F7xx_HAL_Driver/Src/stm32f7xx_hal_dcmi.c ****   * DAMAGES (INCLUDING, BUT NOT LIMITED TO, PROCUREMENT OF SUBSTITUTE GOODS OR
  83:Drivers/STM32F7xx_HAL_Driver/Src/stm32f7xx_hal_dcmi.c ****   * SERVICES; LOSS OF USE, DATA, OR PROFITS; OR BUSINESS INTERRUPTION) HOWEVER
  84:Drivers/STM32F7xx_HAL_Driver/Src/stm32f7xx_hal_dcmi.c ****   * CAUSED AND ON ANY THEORY OF LIABILITY, WHETHER IN CONTRACT, STRICT LIABILITY,
  85:Drivers/STM32F7xx_HAL_Driver/Src/stm32f7xx_hal_dcmi.c ****   * OR TORT (INCLUDING NEGLIGENCE OR OTHERWISE) ARISING IN ANY WAY OUT OF THE USE
  86:Drivers/STM32F7xx_HAL_Driver/Src/stm32f7xx_hal_dcmi.c ****   * OF THIS SOFTWARE, EVEN IF ADVISED OF THE POSSIBILITY OF SUCH DAMAGE.
  87:Drivers/STM32F7xx_HAL_Driver/Src/stm32f7xx_hal_dcmi.c ****   *
ARM GAS  C:\Users\Nina\AppData\Local\Temp\cc8ClKuc.s 			page 3


  88:Drivers/STM32F7xx_HAL_Driver/Src/stm32f7xx_hal_dcmi.c ****   ******************************************************************************
  89:Drivers/STM32F7xx_HAL_Driver/Src/stm32f7xx_hal_dcmi.c ****   */ 
  90:Drivers/STM32F7xx_HAL_Driver/Src/stm32f7xx_hal_dcmi.c **** 
  91:Drivers/STM32F7xx_HAL_Driver/Src/stm32f7xx_hal_dcmi.c **** /* Includes ------------------------------------------------------------------*/
  92:Drivers/STM32F7xx_HAL_Driver/Src/stm32f7xx_hal_dcmi.c **** #include "stm32f7xx_hal.h"
  93:Drivers/STM32F7xx_HAL_Driver/Src/stm32f7xx_hal_dcmi.c **** 
  94:Drivers/STM32F7xx_HAL_Driver/Src/stm32f7xx_hal_dcmi.c **** /** @addtogroup STM32F7xx_HAL_Driver
  95:Drivers/STM32F7xx_HAL_Driver/Src/stm32f7xx_hal_dcmi.c ****   * @{
  96:Drivers/STM32F7xx_HAL_Driver/Src/stm32f7xx_hal_dcmi.c ****   */
  97:Drivers/STM32F7xx_HAL_Driver/Src/stm32f7xx_hal_dcmi.c **** /** @defgroup DCMI DCMI
  98:Drivers/STM32F7xx_HAL_Driver/Src/stm32f7xx_hal_dcmi.c ****   * @brief DCMI HAL module driver
  99:Drivers/STM32F7xx_HAL_Driver/Src/stm32f7xx_hal_dcmi.c ****   * @{
 100:Drivers/STM32F7xx_HAL_Driver/Src/stm32f7xx_hal_dcmi.c ****   */
 101:Drivers/STM32F7xx_HAL_Driver/Src/stm32f7xx_hal_dcmi.c **** 
 102:Drivers/STM32F7xx_HAL_Driver/Src/stm32f7xx_hal_dcmi.c **** #ifdef HAL_DCMI_MODULE_ENABLED
 103:Drivers/STM32F7xx_HAL_Driver/Src/stm32f7xx_hal_dcmi.c **** #if defined (DCMI)
 104:Drivers/STM32F7xx_HAL_Driver/Src/stm32f7xx_hal_dcmi.c **** 
 105:Drivers/STM32F7xx_HAL_Driver/Src/stm32f7xx_hal_dcmi.c **** /* Private typedef -----------------------------------------------------------*/
 106:Drivers/STM32F7xx_HAL_Driver/Src/stm32f7xx_hal_dcmi.c **** /* Private define ------------------------------------------------------------*/
 107:Drivers/STM32F7xx_HAL_Driver/Src/stm32f7xx_hal_dcmi.c **** #define HAL_TIMEOUT_DCMI_STOP    ((uint32_t)1000) /* Set timeout to 1s  */
 108:Drivers/STM32F7xx_HAL_Driver/Src/stm32f7xx_hal_dcmi.c **** 
 109:Drivers/STM32F7xx_HAL_Driver/Src/stm32f7xx_hal_dcmi.c **** /* Private macro -------------------------------------------------------------*/
 110:Drivers/STM32F7xx_HAL_Driver/Src/stm32f7xx_hal_dcmi.c **** /* Private variables ---------------------------------------------------------*/
 111:Drivers/STM32F7xx_HAL_Driver/Src/stm32f7xx_hal_dcmi.c **** /* Private function prototypes -----------------------------------------------*/
 112:Drivers/STM32F7xx_HAL_Driver/Src/stm32f7xx_hal_dcmi.c **** static void       DCMI_DMAXferCplt(DMA_HandleTypeDef *hdma);
 113:Drivers/STM32F7xx_HAL_Driver/Src/stm32f7xx_hal_dcmi.c **** static void       DCMI_DMAError(DMA_HandleTypeDef *hdma);
 114:Drivers/STM32F7xx_HAL_Driver/Src/stm32f7xx_hal_dcmi.c **** 
 115:Drivers/STM32F7xx_HAL_Driver/Src/stm32f7xx_hal_dcmi.c **** /* Exported functions --------------------------------------------------------*/
 116:Drivers/STM32F7xx_HAL_Driver/Src/stm32f7xx_hal_dcmi.c **** 
 117:Drivers/STM32F7xx_HAL_Driver/Src/stm32f7xx_hal_dcmi.c **** /** @defgroup DCMI_Exported_Functions DCMI Exported Functions
 118:Drivers/STM32F7xx_HAL_Driver/Src/stm32f7xx_hal_dcmi.c ****   * @{
 119:Drivers/STM32F7xx_HAL_Driver/Src/stm32f7xx_hal_dcmi.c ****   */
 120:Drivers/STM32F7xx_HAL_Driver/Src/stm32f7xx_hal_dcmi.c **** 
 121:Drivers/STM32F7xx_HAL_Driver/Src/stm32f7xx_hal_dcmi.c **** /** @defgroup DCMI_Exported_Functions_Group1 Initialization and Configuration functions
 122:Drivers/STM32F7xx_HAL_Driver/Src/stm32f7xx_hal_dcmi.c ****  *  @brief   Initialization and Configuration functions
 123:Drivers/STM32F7xx_HAL_Driver/Src/stm32f7xx_hal_dcmi.c ****  *
 124:Drivers/STM32F7xx_HAL_Driver/Src/stm32f7xx_hal_dcmi.c **** @verbatim   
 125:Drivers/STM32F7xx_HAL_Driver/Src/stm32f7xx_hal_dcmi.c ****  ===============================================================================
 126:Drivers/STM32F7xx_HAL_Driver/Src/stm32f7xx_hal_dcmi.c ****                 ##### Initialization and Configuration functions #####
 127:Drivers/STM32F7xx_HAL_Driver/Src/stm32f7xx_hal_dcmi.c ****  ===============================================================================  
 128:Drivers/STM32F7xx_HAL_Driver/Src/stm32f7xx_hal_dcmi.c ****     [..]  This section provides functions allowing to:
 129:Drivers/STM32F7xx_HAL_Driver/Src/stm32f7xx_hal_dcmi.c ****       (+) Initialize and configure the DCMI
 130:Drivers/STM32F7xx_HAL_Driver/Src/stm32f7xx_hal_dcmi.c ****       (+) De-initialize the DCMI 
 131:Drivers/STM32F7xx_HAL_Driver/Src/stm32f7xx_hal_dcmi.c **** 
 132:Drivers/STM32F7xx_HAL_Driver/Src/stm32f7xx_hal_dcmi.c **** @endverbatim
 133:Drivers/STM32F7xx_HAL_Driver/Src/stm32f7xx_hal_dcmi.c ****   * @{
 134:Drivers/STM32F7xx_HAL_Driver/Src/stm32f7xx_hal_dcmi.c ****   */
 135:Drivers/STM32F7xx_HAL_Driver/Src/stm32f7xx_hal_dcmi.c ****   
 136:Drivers/STM32F7xx_HAL_Driver/Src/stm32f7xx_hal_dcmi.c **** /**
 137:Drivers/STM32F7xx_HAL_Driver/Src/stm32f7xx_hal_dcmi.c ****   * @brief  Initializes the DCMI according to the specified
 138:Drivers/STM32F7xx_HAL_Driver/Src/stm32f7xx_hal_dcmi.c ****   *         parameters in the DCMI_InitTypeDef and create the associated handle.
 139:Drivers/STM32F7xx_HAL_Driver/Src/stm32f7xx_hal_dcmi.c ****   * @param  hdcmi pointer to a DCMI_HandleTypeDef structure that contains
 140:Drivers/STM32F7xx_HAL_Driver/Src/stm32f7xx_hal_dcmi.c ****   *                the configuration information for DCMI.
 141:Drivers/STM32F7xx_HAL_Driver/Src/stm32f7xx_hal_dcmi.c ****   * @retval HAL status
 142:Drivers/STM32F7xx_HAL_Driver/Src/stm32f7xx_hal_dcmi.c ****   */
 143:Drivers/STM32F7xx_HAL_Driver/Src/stm32f7xx_hal_dcmi.c **** HAL_StatusTypeDef HAL_DCMI_Init(DCMI_HandleTypeDef *hdcmi)
 144:Drivers/STM32F7xx_HAL_Driver/Src/stm32f7xx_hal_dcmi.c **** {     
ARM GAS  C:\Users\Nina\AppData\Local\Temp\cc8ClKuc.s 			page 4


 145:Drivers/STM32F7xx_HAL_Driver/Src/stm32f7xx_hal_dcmi.c ****   /* Check the DCMI peripheral state */
 146:Drivers/STM32F7xx_HAL_Driver/Src/stm32f7xx_hal_dcmi.c ****   if(hdcmi == NULL)
 147:Drivers/STM32F7xx_HAL_Driver/Src/stm32f7xx_hal_dcmi.c ****   {
 148:Drivers/STM32F7xx_HAL_Driver/Src/stm32f7xx_hal_dcmi.c ****      return HAL_ERROR;
 149:Drivers/STM32F7xx_HAL_Driver/Src/stm32f7xx_hal_dcmi.c ****   }
 150:Drivers/STM32F7xx_HAL_Driver/Src/stm32f7xx_hal_dcmi.c ****   
 151:Drivers/STM32F7xx_HAL_Driver/Src/stm32f7xx_hal_dcmi.c ****   /* Check function parameters */
 152:Drivers/STM32F7xx_HAL_Driver/Src/stm32f7xx_hal_dcmi.c ****   assert_param(IS_DCMI_ALL_INSTANCE(hdcmi->Instance));
 153:Drivers/STM32F7xx_HAL_Driver/Src/stm32f7xx_hal_dcmi.c ****   assert_param(IS_DCMI_PCKPOLARITY(hdcmi->Init.PCKPolarity));
 154:Drivers/STM32F7xx_HAL_Driver/Src/stm32f7xx_hal_dcmi.c ****   assert_param(IS_DCMI_VSPOLARITY(hdcmi->Init.VSPolarity));
 155:Drivers/STM32F7xx_HAL_Driver/Src/stm32f7xx_hal_dcmi.c ****   assert_param(IS_DCMI_HSPOLARITY(hdcmi->Init.HSPolarity));
 156:Drivers/STM32F7xx_HAL_Driver/Src/stm32f7xx_hal_dcmi.c ****   assert_param(IS_DCMI_SYNCHRO(hdcmi->Init.SynchroMode));
 157:Drivers/STM32F7xx_HAL_Driver/Src/stm32f7xx_hal_dcmi.c ****   assert_param(IS_DCMI_CAPTURE_RATE(hdcmi->Init.CaptureRate));
 158:Drivers/STM32F7xx_HAL_Driver/Src/stm32f7xx_hal_dcmi.c ****   assert_param(IS_DCMI_EXTENDED_DATA(hdcmi->Init.ExtendedDataMode));
 159:Drivers/STM32F7xx_HAL_Driver/Src/stm32f7xx_hal_dcmi.c ****   assert_param(IS_DCMI_MODE_JPEG(hdcmi->Init.JPEGMode));
 160:Drivers/STM32F7xx_HAL_Driver/Src/stm32f7xx_hal_dcmi.c **** 
 161:Drivers/STM32F7xx_HAL_Driver/Src/stm32f7xx_hal_dcmi.c ****   assert_param(IS_DCMI_BYTE_SELECT_MODE(hdcmi->Init.ByteSelectMode));
 162:Drivers/STM32F7xx_HAL_Driver/Src/stm32f7xx_hal_dcmi.c ****   assert_param(IS_DCMI_BYTE_SELECT_START(hdcmi->Init.ByteSelectStart));
 163:Drivers/STM32F7xx_HAL_Driver/Src/stm32f7xx_hal_dcmi.c ****   assert_param(IS_DCMI_LINE_SELECT_MODE(hdcmi->Init.LineSelectMode));
 164:Drivers/STM32F7xx_HAL_Driver/Src/stm32f7xx_hal_dcmi.c ****   assert_param(IS_DCMI_LINE_SELECT_START(hdcmi->Init.LineSelectStart));
 165:Drivers/STM32F7xx_HAL_Driver/Src/stm32f7xx_hal_dcmi.c ****                 
 166:Drivers/STM32F7xx_HAL_Driver/Src/stm32f7xx_hal_dcmi.c ****   if(hdcmi->State == HAL_DCMI_STATE_RESET)
 167:Drivers/STM32F7xx_HAL_Driver/Src/stm32f7xx_hal_dcmi.c ****   {
 168:Drivers/STM32F7xx_HAL_Driver/Src/stm32f7xx_hal_dcmi.c ****     /* Init the low level hardware */
 169:Drivers/STM32F7xx_HAL_Driver/Src/stm32f7xx_hal_dcmi.c ****     HAL_DCMI_MspInit(hdcmi);
 170:Drivers/STM32F7xx_HAL_Driver/Src/stm32f7xx_hal_dcmi.c ****   } 
 171:Drivers/STM32F7xx_HAL_Driver/Src/stm32f7xx_hal_dcmi.c ****   
 172:Drivers/STM32F7xx_HAL_Driver/Src/stm32f7xx_hal_dcmi.c ****   /* Change the DCMI state */
 173:Drivers/STM32F7xx_HAL_Driver/Src/stm32f7xx_hal_dcmi.c ****   hdcmi->State = HAL_DCMI_STATE_BUSY; 
 174:Drivers/STM32F7xx_HAL_Driver/Src/stm32f7xx_hal_dcmi.c ****                           /* Configures the HS, VS, DE and PC polarity */
 175:Drivers/STM32F7xx_HAL_Driver/Src/stm32f7xx_hal_dcmi.c ****   hdcmi->Instance->CR &= ~(DCMI_CR_PCKPOL | DCMI_CR_HSPOL  | DCMI_CR_VSPOL  | DCMI_CR_EDM_0 |\
 176:Drivers/STM32F7xx_HAL_Driver/Src/stm32f7xx_hal_dcmi.c ****                            DCMI_CR_EDM_1  | DCMI_CR_FCRC_0 | DCMI_CR_FCRC_1 | DCMI_CR_JPEG  |\
 177:Drivers/STM32F7xx_HAL_Driver/Src/stm32f7xx_hal_dcmi.c ****                            DCMI_CR_ESS | DCMI_CR_BSM_0 | DCMI_CR_BSM_1 | DCMI_CR_OEBS |\
 178:Drivers/STM32F7xx_HAL_Driver/Src/stm32f7xx_hal_dcmi.c ****                            DCMI_CR_LSM | DCMI_CR_OELS);
 179:Drivers/STM32F7xx_HAL_Driver/Src/stm32f7xx_hal_dcmi.c **** 
 180:Drivers/STM32F7xx_HAL_Driver/Src/stm32f7xx_hal_dcmi.c ****   hdcmi->Instance->CR |=  (uint32_t)(hdcmi->Init.SynchroMode | hdcmi->Init.CaptureRate |\
 181:Drivers/STM32F7xx_HAL_Driver/Src/stm32f7xx_hal_dcmi.c ****                                      hdcmi->Init.VSPolarity  | hdcmi->Init.HSPolarity  |\
 182:Drivers/STM32F7xx_HAL_Driver/Src/stm32f7xx_hal_dcmi.c ****                                      hdcmi->Init.PCKPolarity | hdcmi->Init.ExtendedDataMode |\
 183:Drivers/STM32F7xx_HAL_Driver/Src/stm32f7xx_hal_dcmi.c ****                                      hdcmi->Init.JPEGMode | hdcmi->Init.ByteSelectMode |\
 184:Drivers/STM32F7xx_HAL_Driver/Src/stm32f7xx_hal_dcmi.c ****                                      hdcmi->Init.ByteSelectStart | hdcmi->Init.LineSelectMode |\
 185:Drivers/STM32F7xx_HAL_Driver/Src/stm32f7xx_hal_dcmi.c ****                                      hdcmi->Init.LineSelectStart);
 186:Drivers/STM32F7xx_HAL_Driver/Src/stm32f7xx_hal_dcmi.c ****                                      
 187:Drivers/STM32F7xx_HAL_Driver/Src/stm32f7xx_hal_dcmi.c ****   if(hdcmi->Init.SynchroMode == DCMI_SYNCHRO_EMBEDDED)
 188:Drivers/STM32F7xx_HAL_Driver/Src/stm32f7xx_hal_dcmi.c ****   {
 189:Drivers/STM32F7xx_HAL_Driver/Src/stm32f7xx_hal_dcmi.c ****     hdcmi->Instance->ESCR = (((uint32_t)hdcmi->Init.SyncroCode.FrameStartCode)    |\
 190:Drivers/STM32F7xx_HAL_Driver/Src/stm32f7xx_hal_dcmi.c ****                              ((uint32_t)hdcmi->Init.SyncroCode.LineStartCode << DCMI_ESCR_LSC_Pos)|
 191:Drivers/STM32F7xx_HAL_Driver/Src/stm32f7xx_hal_dcmi.c ****                              ((uint32_t)hdcmi->Init.SyncroCode.LineEndCode << DCMI_ESCR_LEC_Pos) |\
 192:Drivers/STM32F7xx_HAL_Driver/Src/stm32f7xx_hal_dcmi.c ****                              ((uint32_t)hdcmi->Init.SyncroCode.FrameEndCode << DCMI_ESCR_FEC_Pos));
 193:Drivers/STM32F7xx_HAL_Driver/Src/stm32f7xx_hal_dcmi.c **** 
 194:Drivers/STM32F7xx_HAL_Driver/Src/stm32f7xx_hal_dcmi.c ****   }
 195:Drivers/STM32F7xx_HAL_Driver/Src/stm32f7xx_hal_dcmi.c **** 
 196:Drivers/STM32F7xx_HAL_Driver/Src/stm32f7xx_hal_dcmi.c ****   /* Enable the Line, Vsync, Error and Overrun interrupts */
 197:Drivers/STM32F7xx_HAL_Driver/Src/stm32f7xx_hal_dcmi.c ****   __HAL_DCMI_ENABLE_IT(hdcmi, DCMI_IT_LINE | DCMI_IT_VSYNC | DCMI_IT_ERR | DCMI_IT_OVR);
 198:Drivers/STM32F7xx_HAL_Driver/Src/stm32f7xx_hal_dcmi.c **** 
 199:Drivers/STM32F7xx_HAL_Driver/Src/stm32f7xx_hal_dcmi.c ****   /* Update error code */
 200:Drivers/STM32F7xx_HAL_Driver/Src/stm32f7xx_hal_dcmi.c ****   hdcmi->ErrorCode = HAL_DCMI_ERROR_NONE;
 201:Drivers/STM32F7xx_HAL_Driver/Src/stm32f7xx_hal_dcmi.c ****   
ARM GAS  C:\Users\Nina\AppData\Local\Temp\cc8ClKuc.s 			page 5


 202:Drivers/STM32F7xx_HAL_Driver/Src/stm32f7xx_hal_dcmi.c ****   /* Initialize the DCMI state*/
 203:Drivers/STM32F7xx_HAL_Driver/Src/stm32f7xx_hal_dcmi.c ****   hdcmi->State  = HAL_DCMI_STATE_READY;
 204:Drivers/STM32F7xx_HAL_Driver/Src/stm32f7xx_hal_dcmi.c **** 
 205:Drivers/STM32F7xx_HAL_Driver/Src/stm32f7xx_hal_dcmi.c ****   return HAL_OK;
 206:Drivers/STM32F7xx_HAL_Driver/Src/stm32f7xx_hal_dcmi.c **** }
 207:Drivers/STM32F7xx_HAL_Driver/Src/stm32f7xx_hal_dcmi.c **** 
 208:Drivers/STM32F7xx_HAL_Driver/Src/stm32f7xx_hal_dcmi.c **** /**
 209:Drivers/STM32F7xx_HAL_Driver/Src/stm32f7xx_hal_dcmi.c ****   * @brief  Deinitializes the DCMI peripheral registers to their default reset
 210:Drivers/STM32F7xx_HAL_Driver/Src/stm32f7xx_hal_dcmi.c ****   *         values.
 211:Drivers/STM32F7xx_HAL_Driver/Src/stm32f7xx_hal_dcmi.c ****   * @param  hdcmi pointer to a DCMI_HandleTypeDef structure that contains
 212:Drivers/STM32F7xx_HAL_Driver/Src/stm32f7xx_hal_dcmi.c ****   *                the configuration information for DCMI.
 213:Drivers/STM32F7xx_HAL_Driver/Src/stm32f7xx_hal_dcmi.c ****   * @retval HAL status
 214:Drivers/STM32F7xx_HAL_Driver/Src/stm32f7xx_hal_dcmi.c ****   */
 215:Drivers/STM32F7xx_HAL_Driver/Src/stm32f7xx_hal_dcmi.c **** 
 216:Drivers/STM32F7xx_HAL_Driver/Src/stm32f7xx_hal_dcmi.c **** HAL_StatusTypeDef HAL_DCMI_DeInit(DCMI_HandleTypeDef *hdcmi)
 217:Drivers/STM32F7xx_HAL_Driver/Src/stm32f7xx_hal_dcmi.c **** {
 218:Drivers/STM32F7xx_HAL_Driver/Src/stm32f7xx_hal_dcmi.c ****   /* DeInit the low level hardware */
 219:Drivers/STM32F7xx_HAL_Driver/Src/stm32f7xx_hal_dcmi.c ****   HAL_DCMI_MspDeInit(hdcmi);
 220:Drivers/STM32F7xx_HAL_Driver/Src/stm32f7xx_hal_dcmi.c **** 
 221:Drivers/STM32F7xx_HAL_Driver/Src/stm32f7xx_hal_dcmi.c ****   /* Update error code */
 222:Drivers/STM32F7xx_HAL_Driver/Src/stm32f7xx_hal_dcmi.c ****   hdcmi->ErrorCode = HAL_DCMI_ERROR_NONE;
 223:Drivers/STM32F7xx_HAL_Driver/Src/stm32f7xx_hal_dcmi.c **** 
 224:Drivers/STM32F7xx_HAL_Driver/Src/stm32f7xx_hal_dcmi.c ****   /* Initialize the DCMI state*/
 225:Drivers/STM32F7xx_HAL_Driver/Src/stm32f7xx_hal_dcmi.c ****   hdcmi->State = HAL_DCMI_STATE_RESET;
 226:Drivers/STM32F7xx_HAL_Driver/Src/stm32f7xx_hal_dcmi.c **** 
 227:Drivers/STM32F7xx_HAL_Driver/Src/stm32f7xx_hal_dcmi.c ****   /* Release Lock */
 228:Drivers/STM32F7xx_HAL_Driver/Src/stm32f7xx_hal_dcmi.c ****   __HAL_UNLOCK(hdcmi);
 229:Drivers/STM32F7xx_HAL_Driver/Src/stm32f7xx_hal_dcmi.c **** 
 230:Drivers/STM32F7xx_HAL_Driver/Src/stm32f7xx_hal_dcmi.c ****   return HAL_OK;
 231:Drivers/STM32F7xx_HAL_Driver/Src/stm32f7xx_hal_dcmi.c **** }
 232:Drivers/STM32F7xx_HAL_Driver/Src/stm32f7xx_hal_dcmi.c **** 
 233:Drivers/STM32F7xx_HAL_Driver/Src/stm32f7xx_hal_dcmi.c **** /**
 234:Drivers/STM32F7xx_HAL_Driver/Src/stm32f7xx_hal_dcmi.c ****   * @brief  Initializes the DCMI MSP.
 235:Drivers/STM32F7xx_HAL_Driver/Src/stm32f7xx_hal_dcmi.c ****   * @param  hdcmi pointer to a DCMI_HandleTypeDef structure that contains
 236:Drivers/STM32F7xx_HAL_Driver/Src/stm32f7xx_hal_dcmi.c ****   *                the configuration information for DCMI.
 237:Drivers/STM32F7xx_HAL_Driver/Src/stm32f7xx_hal_dcmi.c ****   * @retval None
 238:Drivers/STM32F7xx_HAL_Driver/Src/stm32f7xx_hal_dcmi.c ****   */
 239:Drivers/STM32F7xx_HAL_Driver/Src/stm32f7xx_hal_dcmi.c **** __weak void HAL_DCMI_MspInit(DCMI_HandleTypeDef* hdcmi)
 240:Drivers/STM32F7xx_HAL_Driver/Src/stm32f7xx_hal_dcmi.c **** {
 241:Drivers/STM32F7xx_HAL_Driver/Src/stm32f7xx_hal_dcmi.c ****   /* Prevent unused argument(s) compilation warning */
 242:Drivers/STM32F7xx_HAL_Driver/Src/stm32f7xx_hal_dcmi.c ****   UNUSED(hdcmi);
 243:Drivers/STM32F7xx_HAL_Driver/Src/stm32f7xx_hal_dcmi.c ****  
 244:Drivers/STM32F7xx_HAL_Driver/Src/stm32f7xx_hal_dcmi.c ****   /* NOTE : This function Should not be modified, when the callback is needed,
 245:Drivers/STM32F7xx_HAL_Driver/Src/stm32f7xx_hal_dcmi.c ****             the HAL_DCMI_MspInit could be implemented in the user file
 246:Drivers/STM32F7xx_HAL_Driver/Src/stm32f7xx_hal_dcmi.c ****    */ 
 247:Drivers/STM32F7xx_HAL_Driver/Src/stm32f7xx_hal_dcmi.c **** }
 248:Drivers/STM32F7xx_HAL_Driver/Src/stm32f7xx_hal_dcmi.c **** 
 249:Drivers/STM32F7xx_HAL_Driver/Src/stm32f7xx_hal_dcmi.c **** /**
 250:Drivers/STM32F7xx_HAL_Driver/Src/stm32f7xx_hal_dcmi.c ****   * @brief  DeInitializes the DCMI MSP.
 251:Drivers/STM32F7xx_HAL_Driver/Src/stm32f7xx_hal_dcmi.c ****   * @param  hdcmi pointer to a DCMI_HandleTypeDef structure that contains
 252:Drivers/STM32F7xx_HAL_Driver/Src/stm32f7xx_hal_dcmi.c ****   *                the configuration information for DCMI.
 253:Drivers/STM32F7xx_HAL_Driver/Src/stm32f7xx_hal_dcmi.c ****   * @retval None
 254:Drivers/STM32F7xx_HAL_Driver/Src/stm32f7xx_hal_dcmi.c ****   */
 255:Drivers/STM32F7xx_HAL_Driver/Src/stm32f7xx_hal_dcmi.c **** __weak void HAL_DCMI_MspDeInit(DCMI_HandleTypeDef* hdcmi)
 256:Drivers/STM32F7xx_HAL_Driver/Src/stm32f7xx_hal_dcmi.c **** {
 257:Drivers/STM32F7xx_HAL_Driver/Src/stm32f7xx_hal_dcmi.c ****   /* Prevent unused argument(s) compilation warning */
 258:Drivers/STM32F7xx_HAL_Driver/Src/stm32f7xx_hal_dcmi.c ****   UNUSED(hdcmi);
ARM GAS  C:\Users\Nina\AppData\Local\Temp\cc8ClKuc.s 			page 6


 259:Drivers/STM32F7xx_HAL_Driver/Src/stm32f7xx_hal_dcmi.c ****  
 260:Drivers/STM32F7xx_HAL_Driver/Src/stm32f7xx_hal_dcmi.c ****   /* NOTE : This function Should not be modified, when the callback is needed,
 261:Drivers/STM32F7xx_HAL_Driver/Src/stm32f7xx_hal_dcmi.c ****             the HAL_DCMI_MspDeInit could be implemented in the user file
 262:Drivers/STM32F7xx_HAL_Driver/Src/stm32f7xx_hal_dcmi.c ****    */
 263:Drivers/STM32F7xx_HAL_Driver/Src/stm32f7xx_hal_dcmi.c **** }
 264:Drivers/STM32F7xx_HAL_Driver/Src/stm32f7xx_hal_dcmi.c **** 
 265:Drivers/STM32F7xx_HAL_Driver/Src/stm32f7xx_hal_dcmi.c **** /**
 266:Drivers/STM32F7xx_HAL_Driver/Src/stm32f7xx_hal_dcmi.c ****   * @}
 267:Drivers/STM32F7xx_HAL_Driver/Src/stm32f7xx_hal_dcmi.c ****   */
 268:Drivers/STM32F7xx_HAL_Driver/Src/stm32f7xx_hal_dcmi.c **** /** @defgroup DCMI_Exported_Functions_Group2 IO operation functions 
 269:Drivers/STM32F7xx_HAL_Driver/Src/stm32f7xx_hal_dcmi.c ****  *  @brief   IO operation functions  
 270:Drivers/STM32F7xx_HAL_Driver/Src/stm32f7xx_hal_dcmi.c ****  *
 271:Drivers/STM32F7xx_HAL_Driver/Src/stm32f7xx_hal_dcmi.c **** @verbatim   
 272:Drivers/STM32F7xx_HAL_Driver/Src/stm32f7xx_hal_dcmi.c ****  ===============================================================================
 273:Drivers/STM32F7xx_HAL_Driver/Src/stm32f7xx_hal_dcmi.c ****                       #####  IO operation functions  #####
 274:Drivers/STM32F7xx_HAL_Driver/Src/stm32f7xx_hal_dcmi.c ****  ===============================================================================  
 275:Drivers/STM32F7xx_HAL_Driver/Src/stm32f7xx_hal_dcmi.c ****     [..]  This section provides functions allowing to:
 276:Drivers/STM32F7xx_HAL_Driver/Src/stm32f7xx_hal_dcmi.c ****       (+) Configure destination address and data length and 
 277:Drivers/STM32F7xx_HAL_Driver/Src/stm32f7xx_hal_dcmi.c ****           Enables DCMI DMA request and enables DCMI capture
 278:Drivers/STM32F7xx_HAL_Driver/Src/stm32f7xx_hal_dcmi.c ****       (+) Stop the DCMI capture.
 279:Drivers/STM32F7xx_HAL_Driver/Src/stm32f7xx_hal_dcmi.c ****       (+) Handles DCMI interrupt request.
 280:Drivers/STM32F7xx_HAL_Driver/Src/stm32f7xx_hal_dcmi.c **** 
 281:Drivers/STM32F7xx_HAL_Driver/Src/stm32f7xx_hal_dcmi.c **** @endverbatim
 282:Drivers/STM32F7xx_HAL_Driver/Src/stm32f7xx_hal_dcmi.c ****   * @{
 283:Drivers/STM32F7xx_HAL_Driver/Src/stm32f7xx_hal_dcmi.c ****   */
 284:Drivers/STM32F7xx_HAL_Driver/Src/stm32f7xx_hal_dcmi.c **** 
 285:Drivers/STM32F7xx_HAL_Driver/Src/stm32f7xx_hal_dcmi.c **** /**
 286:Drivers/STM32F7xx_HAL_Driver/Src/stm32f7xx_hal_dcmi.c ****   * @brief  Enables DCMI DMA request and enables DCMI capture  
 287:Drivers/STM32F7xx_HAL_Driver/Src/stm32f7xx_hal_dcmi.c ****   * @param  hdcmi     pointer to a DCMI_HandleTypeDef structure that contains
 288:Drivers/STM32F7xx_HAL_Driver/Src/stm32f7xx_hal_dcmi.c ****   *                    the configuration information for DCMI.
 289:Drivers/STM32F7xx_HAL_Driver/Src/stm32f7xx_hal_dcmi.c ****   * @param  DCMI_Mode DCMI capture mode snapshot or continuous grab.
 290:Drivers/STM32F7xx_HAL_Driver/Src/stm32f7xx_hal_dcmi.c ****   * @param  pData     The destination memory Buffer address (LCD Frame buffer).
 291:Drivers/STM32F7xx_HAL_Driver/Src/stm32f7xx_hal_dcmi.c ****   * @param  Length    The length of capture to be transferred.
 292:Drivers/STM32F7xx_HAL_Driver/Src/stm32f7xx_hal_dcmi.c ****   * @retval HAL status
 293:Drivers/STM32F7xx_HAL_Driver/Src/stm32f7xx_hal_dcmi.c ****   */
 294:Drivers/STM32F7xx_HAL_Driver/Src/stm32f7xx_hal_dcmi.c **** HAL_StatusTypeDef HAL_DCMI_Start_DMA(DCMI_HandleTypeDef* hdcmi, uint32_t DCMI_Mode, uint32_t pData,
 295:Drivers/STM32F7xx_HAL_Driver/Src/stm32f7xx_hal_dcmi.c **** {  
 296:Drivers/STM32F7xx_HAL_Driver/Src/stm32f7xx_hal_dcmi.c ****   /* Initialize the second memory address */
 297:Drivers/STM32F7xx_HAL_Driver/Src/stm32f7xx_hal_dcmi.c ****   uint32_t SecondMemAddress = 0;
 298:Drivers/STM32F7xx_HAL_Driver/Src/stm32f7xx_hal_dcmi.c **** 
 299:Drivers/STM32F7xx_HAL_Driver/Src/stm32f7xx_hal_dcmi.c ****   /* Check function parameters */
 300:Drivers/STM32F7xx_HAL_Driver/Src/stm32f7xx_hal_dcmi.c ****   assert_param(IS_DCMI_CAPTURE_MODE(DCMI_Mode));
 301:Drivers/STM32F7xx_HAL_Driver/Src/stm32f7xx_hal_dcmi.c **** 
 302:Drivers/STM32F7xx_HAL_Driver/Src/stm32f7xx_hal_dcmi.c ****   /* Process Locked */
 303:Drivers/STM32F7xx_HAL_Driver/Src/stm32f7xx_hal_dcmi.c ****   __HAL_LOCK(hdcmi);
 304:Drivers/STM32F7xx_HAL_Driver/Src/stm32f7xx_hal_dcmi.c ****   
 305:Drivers/STM32F7xx_HAL_Driver/Src/stm32f7xx_hal_dcmi.c ****   /* Lock the DCMI peripheral state */
 306:Drivers/STM32F7xx_HAL_Driver/Src/stm32f7xx_hal_dcmi.c ****   hdcmi->State = HAL_DCMI_STATE_BUSY;
 307:Drivers/STM32F7xx_HAL_Driver/Src/stm32f7xx_hal_dcmi.c **** 
 308:Drivers/STM32F7xx_HAL_Driver/Src/stm32f7xx_hal_dcmi.c ****   /* Enable DCMI by setting DCMIEN bit */
 309:Drivers/STM32F7xx_HAL_Driver/Src/stm32f7xx_hal_dcmi.c ****   __HAL_DCMI_ENABLE(hdcmi);
 310:Drivers/STM32F7xx_HAL_Driver/Src/stm32f7xx_hal_dcmi.c ****   
 311:Drivers/STM32F7xx_HAL_Driver/Src/stm32f7xx_hal_dcmi.c ****   /* Configure the DCMI Mode */
 312:Drivers/STM32F7xx_HAL_Driver/Src/stm32f7xx_hal_dcmi.c ****   hdcmi->Instance->CR &= ~(DCMI_CR_CM);
 313:Drivers/STM32F7xx_HAL_Driver/Src/stm32f7xx_hal_dcmi.c ****   hdcmi->Instance->CR |=  (uint32_t)(DCMI_Mode);
 314:Drivers/STM32F7xx_HAL_Driver/Src/stm32f7xx_hal_dcmi.c **** 
 315:Drivers/STM32F7xx_HAL_Driver/Src/stm32f7xx_hal_dcmi.c ****   /* Set the DMA memory0 conversion complete callback */
ARM GAS  C:\Users\Nina\AppData\Local\Temp\cc8ClKuc.s 			page 7


 316:Drivers/STM32F7xx_HAL_Driver/Src/stm32f7xx_hal_dcmi.c ****   hdcmi->DMA_Handle->XferCpltCallback = DCMI_DMAXferCplt;
 317:Drivers/STM32F7xx_HAL_Driver/Src/stm32f7xx_hal_dcmi.c **** 
 318:Drivers/STM32F7xx_HAL_Driver/Src/stm32f7xx_hal_dcmi.c ****   /* Set the DMA error callback */
 319:Drivers/STM32F7xx_HAL_Driver/Src/stm32f7xx_hal_dcmi.c ****   hdcmi->DMA_Handle->XferErrorCallback = DCMI_DMAError;
 320:Drivers/STM32F7xx_HAL_Driver/Src/stm32f7xx_hal_dcmi.c **** 
 321:Drivers/STM32F7xx_HAL_Driver/Src/stm32f7xx_hal_dcmi.c ****   /* Set the dma abort callback */
 322:Drivers/STM32F7xx_HAL_Driver/Src/stm32f7xx_hal_dcmi.c ****   hdcmi->DMA_Handle->XferAbortCallback = NULL;
 323:Drivers/STM32F7xx_HAL_Driver/Src/stm32f7xx_hal_dcmi.c **** 
 324:Drivers/STM32F7xx_HAL_Driver/Src/stm32f7xx_hal_dcmi.c ****   /* Reset transfer counters value */ 
 325:Drivers/STM32F7xx_HAL_Driver/Src/stm32f7xx_hal_dcmi.c ****   hdcmi->XferCount = 0;
 326:Drivers/STM32F7xx_HAL_Driver/Src/stm32f7xx_hal_dcmi.c ****   hdcmi->XferTransferNumber = 0;
 327:Drivers/STM32F7xx_HAL_Driver/Src/stm32f7xx_hal_dcmi.c ****   
 328:Drivers/STM32F7xx_HAL_Driver/Src/stm32f7xx_hal_dcmi.c ****   if(Length <= 0xFFFF)
 329:Drivers/STM32F7xx_HAL_Driver/Src/stm32f7xx_hal_dcmi.c ****   {
 330:Drivers/STM32F7xx_HAL_Driver/Src/stm32f7xx_hal_dcmi.c ****     /* Enable the DMA Stream */
 331:Drivers/STM32F7xx_HAL_Driver/Src/stm32f7xx_hal_dcmi.c ****     HAL_DMA_Start_IT(hdcmi->DMA_Handle, (uint32_t)&hdcmi->Instance->DR, (uint32_t)pData, Length);
 332:Drivers/STM32F7xx_HAL_Driver/Src/stm32f7xx_hal_dcmi.c ****   }
 333:Drivers/STM32F7xx_HAL_Driver/Src/stm32f7xx_hal_dcmi.c ****   else /* DCMI_DOUBLE_BUFFER Mode */
 334:Drivers/STM32F7xx_HAL_Driver/Src/stm32f7xx_hal_dcmi.c ****   {
 335:Drivers/STM32F7xx_HAL_Driver/Src/stm32f7xx_hal_dcmi.c ****     /* Set the DMA memory1 conversion complete callback */
 336:Drivers/STM32F7xx_HAL_Driver/Src/stm32f7xx_hal_dcmi.c ****     hdcmi->DMA_Handle->XferM1CpltCallback = DCMI_DMAXferCplt; 
 337:Drivers/STM32F7xx_HAL_Driver/Src/stm32f7xx_hal_dcmi.c **** 
 338:Drivers/STM32F7xx_HAL_Driver/Src/stm32f7xx_hal_dcmi.c ****     /* Initialize transfer parameters */
 339:Drivers/STM32F7xx_HAL_Driver/Src/stm32f7xx_hal_dcmi.c ****     hdcmi->XferCount = 1;
 340:Drivers/STM32F7xx_HAL_Driver/Src/stm32f7xx_hal_dcmi.c ****     hdcmi->XferSize = Length;
 341:Drivers/STM32F7xx_HAL_Driver/Src/stm32f7xx_hal_dcmi.c ****     hdcmi->pBuffPtr = pData;
 342:Drivers/STM32F7xx_HAL_Driver/Src/stm32f7xx_hal_dcmi.c ****       
 343:Drivers/STM32F7xx_HAL_Driver/Src/stm32f7xx_hal_dcmi.c ****     /* Get the number of buffer */
 344:Drivers/STM32F7xx_HAL_Driver/Src/stm32f7xx_hal_dcmi.c ****     while(hdcmi->XferSize > 0xFFFF)
 345:Drivers/STM32F7xx_HAL_Driver/Src/stm32f7xx_hal_dcmi.c ****     {
 346:Drivers/STM32F7xx_HAL_Driver/Src/stm32f7xx_hal_dcmi.c ****       hdcmi->XferSize = (hdcmi->XferSize/2);
 347:Drivers/STM32F7xx_HAL_Driver/Src/stm32f7xx_hal_dcmi.c ****       hdcmi->XferCount = hdcmi->XferCount*2;
 348:Drivers/STM32F7xx_HAL_Driver/Src/stm32f7xx_hal_dcmi.c ****     }
 349:Drivers/STM32F7xx_HAL_Driver/Src/stm32f7xx_hal_dcmi.c **** 
 350:Drivers/STM32F7xx_HAL_Driver/Src/stm32f7xx_hal_dcmi.c ****     /* Update DCMI counter  and transfer number*/
 351:Drivers/STM32F7xx_HAL_Driver/Src/stm32f7xx_hal_dcmi.c ****     hdcmi->XferCount = (hdcmi->XferCount - 2);
 352:Drivers/STM32F7xx_HAL_Driver/Src/stm32f7xx_hal_dcmi.c ****     hdcmi->XferTransferNumber = hdcmi->XferCount;
 353:Drivers/STM32F7xx_HAL_Driver/Src/stm32f7xx_hal_dcmi.c **** 
 354:Drivers/STM32F7xx_HAL_Driver/Src/stm32f7xx_hal_dcmi.c ****     /* Update second memory address */
 355:Drivers/STM32F7xx_HAL_Driver/Src/stm32f7xx_hal_dcmi.c ****     SecondMemAddress = (uint32_t)(pData + (4*hdcmi->XferSize));
 356:Drivers/STM32F7xx_HAL_Driver/Src/stm32f7xx_hal_dcmi.c **** 
 357:Drivers/STM32F7xx_HAL_Driver/Src/stm32f7xx_hal_dcmi.c ****     /* Start DMA multi buffer transfer */
 358:Drivers/STM32F7xx_HAL_Driver/Src/stm32f7xx_hal_dcmi.c ****     HAL_DMAEx_MultiBufferStart_IT(hdcmi->DMA_Handle, (uint32_t)&hdcmi->Instance->DR, (uint32_t)pDat
 359:Drivers/STM32F7xx_HAL_Driver/Src/stm32f7xx_hal_dcmi.c ****   }
 360:Drivers/STM32F7xx_HAL_Driver/Src/stm32f7xx_hal_dcmi.c ****   
 361:Drivers/STM32F7xx_HAL_Driver/Src/stm32f7xx_hal_dcmi.c ****   /* Enable Capture */
 362:Drivers/STM32F7xx_HAL_Driver/Src/stm32f7xx_hal_dcmi.c ****   hdcmi->Instance->CR |= DCMI_CR_CAPTURE;
 363:Drivers/STM32F7xx_HAL_Driver/Src/stm32f7xx_hal_dcmi.c **** 
 364:Drivers/STM32F7xx_HAL_Driver/Src/stm32f7xx_hal_dcmi.c ****   /* Release Lock */
 365:Drivers/STM32F7xx_HAL_Driver/Src/stm32f7xx_hal_dcmi.c ****   __HAL_UNLOCK(hdcmi);
 366:Drivers/STM32F7xx_HAL_Driver/Src/stm32f7xx_hal_dcmi.c **** 
 367:Drivers/STM32F7xx_HAL_Driver/Src/stm32f7xx_hal_dcmi.c ****   /* Return function status */
 368:Drivers/STM32F7xx_HAL_Driver/Src/stm32f7xx_hal_dcmi.c ****   return HAL_OK;
 369:Drivers/STM32F7xx_HAL_Driver/Src/stm32f7xx_hal_dcmi.c **** }
 370:Drivers/STM32F7xx_HAL_Driver/Src/stm32f7xx_hal_dcmi.c **** 
 371:Drivers/STM32F7xx_HAL_Driver/Src/stm32f7xx_hal_dcmi.c **** /**
 372:Drivers/STM32F7xx_HAL_Driver/Src/stm32f7xx_hal_dcmi.c ****   * @brief  Disable DCMI DMA request and Disable DCMI capture  
ARM GAS  C:\Users\Nina\AppData\Local\Temp\cc8ClKuc.s 			page 8


 373:Drivers/STM32F7xx_HAL_Driver/Src/stm32f7xx_hal_dcmi.c ****   * @param  hdcmi pointer to a DCMI_HandleTypeDef structure that contains
 374:Drivers/STM32F7xx_HAL_Driver/Src/stm32f7xx_hal_dcmi.c ****   *                the configuration information for DCMI. 
 375:Drivers/STM32F7xx_HAL_Driver/Src/stm32f7xx_hal_dcmi.c ****   * @retval HAL status     
 376:Drivers/STM32F7xx_HAL_Driver/Src/stm32f7xx_hal_dcmi.c ****   */
 377:Drivers/STM32F7xx_HAL_Driver/Src/stm32f7xx_hal_dcmi.c **** HAL_StatusTypeDef HAL_DCMI_Stop(DCMI_HandleTypeDef* hdcmi)
 378:Drivers/STM32F7xx_HAL_Driver/Src/stm32f7xx_hal_dcmi.c **** {
 379:Drivers/STM32F7xx_HAL_Driver/Src/stm32f7xx_hal_dcmi.c ****   register uint32_t count = HAL_TIMEOUT_DCMI_STOP * (SystemCoreClock /8/1000);
 380:Drivers/STM32F7xx_HAL_Driver/Src/stm32f7xx_hal_dcmi.c ****   HAL_StatusTypeDef status = HAL_OK;
 381:Drivers/STM32F7xx_HAL_Driver/Src/stm32f7xx_hal_dcmi.c **** 
 382:Drivers/STM32F7xx_HAL_Driver/Src/stm32f7xx_hal_dcmi.c ****   /* Process locked */
 383:Drivers/STM32F7xx_HAL_Driver/Src/stm32f7xx_hal_dcmi.c ****   __HAL_LOCK(hdcmi);
 384:Drivers/STM32F7xx_HAL_Driver/Src/stm32f7xx_hal_dcmi.c ****   
 385:Drivers/STM32F7xx_HAL_Driver/Src/stm32f7xx_hal_dcmi.c ****   /* Lock the DCMI peripheral state */
 386:Drivers/STM32F7xx_HAL_Driver/Src/stm32f7xx_hal_dcmi.c ****   hdcmi->State = HAL_DCMI_STATE_BUSY;
 387:Drivers/STM32F7xx_HAL_Driver/Src/stm32f7xx_hal_dcmi.c **** 
 388:Drivers/STM32F7xx_HAL_Driver/Src/stm32f7xx_hal_dcmi.c ****   /* Disable Capture */
 389:Drivers/STM32F7xx_HAL_Driver/Src/stm32f7xx_hal_dcmi.c ****   hdcmi->Instance->CR &= ~(DCMI_CR_CAPTURE);
 390:Drivers/STM32F7xx_HAL_Driver/Src/stm32f7xx_hal_dcmi.c **** 
 391:Drivers/STM32F7xx_HAL_Driver/Src/stm32f7xx_hal_dcmi.c ****   /* Check if the DCMI capture effectively disabled */
 392:Drivers/STM32F7xx_HAL_Driver/Src/stm32f7xx_hal_dcmi.c ****   do
 393:Drivers/STM32F7xx_HAL_Driver/Src/stm32f7xx_hal_dcmi.c ****   {
 394:Drivers/STM32F7xx_HAL_Driver/Src/stm32f7xx_hal_dcmi.c ****     if (count-- == 0)
 395:Drivers/STM32F7xx_HAL_Driver/Src/stm32f7xx_hal_dcmi.c ****     {
 396:Drivers/STM32F7xx_HAL_Driver/Src/stm32f7xx_hal_dcmi.c ****       /* Update error code */
 397:Drivers/STM32F7xx_HAL_Driver/Src/stm32f7xx_hal_dcmi.c ****       hdcmi->ErrorCode |= HAL_DCMI_ERROR_TIMEOUT;
 398:Drivers/STM32F7xx_HAL_Driver/Src/stm32f7xx_hal_dcmi.c ****       
 399:Drivers/STM32F7xx_HAL_Driver/Src/stm32f7xx_hal_dcmi.c ****       status = HAL_TIMEOUT;
 400:Drivers/STM32F7xx_HAL_Driver/Src/stm32f7xx_hal_dcmi.c ****       break;
 401:Drivers/STM32F7xx_HAL_Driver/Src/stm32f7xx_hal_dcmi.c ****     } 
 402:Drivers/STM32F7xx_HAL_Driver/Src/stm32f7xx_hal_dcmi.c ****   }
 403:Drivers/STM32F7xx_HAL_Driver/Src/stm32f7xx_hal_dcmi.c ****   while((hdcmi->Instance->CR & DCMI_CR_CAPTURE) != 0);
 404:Drivers/STM32F7xx_HAL_Driver/Src/stm32f7xx_hal_dcmi.c **** 
 405:Drivers/STM32F7xx_HAL_Driver/Src/stm32f7xx_hal_dcmi.c ****   /* Disable the DCMI */
 406:Drivers/STM32F7xx_HAL_Driver/Src/stm32f7xx_hal_dcmi.c ****   __HAL_DCMI_DISABLE(hdcmi);
 407:Drivers/STM32F7xx_HAL_Driver/Src/stm32f7xx_hal_dcmi.c **** 
 408:Drivers/STM32F7xx_HAL_Driver/Src/stm32f7xx_hal_dcmi.c ****   /* Disable the DMA */
 409:Drivers/STM32F7xx_HAL_Driver/Src/stm32f7xx_hal_dcmi.c ****   HAL_DMA_Abort(hdcmi->DMA_Handle);
 410:Drivers/STM32F7xx_HAL_Driver/Src/stm32f7xx_hal_dcmi.c **** 
 411:Drivers/STM32F7xx_HAL_Driver/Src/stm32f7xx_hal_dcmi.c ****   /* Update error code */
 412:Drivers/STM32F7xx_HAL_Driver/Src/stm32f7xx_hal_dcmi.c ****   hdcmi->ErrorCode |= HAL_DCMI_ERROR_NONE;
 413:Drivers/STM32F7xx_HAL_Driver/Src/stm32f7xx_hal_dcmi.c **** 
 414:Drivers/STM32F7xx_HAL_Driver/Src/stm32f7xx_hal_dcmi.c ****   /* Change DCMI state */
 415:Drivers/STM32F7xx_HAL_Driver/Src/stm32f7xx_hal_dcmi.c ****   hdcmi->State = HAL_DCMI_STATE_READY;
 416:Drivers/STM32F7xx_HAL_Driver/Src/stm32f7xx_hal_dcmi.c **** 
 417:Drivers/STM32F7xx_HAL_Driver/Src/stm32f7xx_hal_dcmi.c ****   /* Process Unlocked */
 418:Drivers/STM32F7xx_HAL_Driver/Src/stm32f7xx_hal_dcmi.c ****   __HAL_UNLOCK(hdcmi);
 419:Drivers/STM32F7xx_HAL_Driver/Src/stm32f7xx_hal_dcmi.c **** 
 420:Drivers/STM32F7xx_HAL_Driver/Src/stm32f7xx_hal_dcmi.c ****   /* Return function status */
 421:Drivers/STM32F7xx_HAL_Driver/Src/stm32f7xx_hal_dcmi.c ****   return status;
 422:Drivers/STM32F7xx_HAL_Driver/Src/stm32f7xx_hal_dcmi.c **** }
 423:Drivers/STM32F7xx_HAL_Driver/Src/stm32f7xx_hal_dcmi.c **** 
 424:Drivers/STM32F7xx_HAL_Driver/Src/stm32f7xx_hal_dcmi.c **** /**
 425:Drivers/STM32F7xx_HAL_Driver/Src/stm32f7xx_hal_dcmi.c ****   * @brief  Suspend DCMI capture  
 426:Drivers/STM32F7xx_HAL_Driver/Src/stm32f7xx_hal_dcmi.c ****   * @param  hdcmi pointer to a DCMI_HandleTypeDef structure that contains
 427:Drivers/STM32F7xx_HAL_Driver/Src/stm32f7xx_hal_dcmi.c ****   *                the configuration information for DCMI. 
 428:Drivers/STM32F7xx_HAL_Driver/Src/stm32f7xx_hal_dcmi.c ****   * @retval HAL status     
 429:Drivers/STM32F7xx_HAL_Driver/Src/stm32f7xx_hal_dcmi.c ****   */
ARM GAS  C:\Users\Nina\AppData\Local\Temp\cc8ClKuc.s 			page 9


 430:Drivers/STM32F7xx_HAL_Driver/Src/stm32f7xx_hal_dcmi.c **** HAL_StatusTypeDef HAL_DCMI_Suspend(DCMI_HandleTypeDef* hdcmi)
 431:Drivers/STM32F7xx_HAL_Driver/Src/stm32f7xx_hal_dcmi.c **** {
 432:Drivers/STM32F7xx_HAL_Driver/Src/stm32f7xx_hal_dcmi.c ****   register uint32_t count = HAL_TIMEOUT_DCMI_STOP * (SystemCoreClock /8/1000);
 433:Drivers/STM32F7xx_HAL_Driver/Src/stm32f7xx_hal_dcmi.c ****   HAL_StatusTypeDef status = HAL_OK;
 434:Drivers/STM32F7xx_HAL_Driver/Src/stm32f7xx_hal_dcmi.c **** 
 435:Drivers/STM32F7xx_HAL_Driver/Src/stm32f7xx_hal_dcmi.c ****   /* Process locked */
 436:Drivers/STM32F7xx_HAL_Driver/Src/stm32f7xx_hal_dcmi.c ****   __HAL_LOCK(hdcmi);
 437:Drivers/STM32F7xx_HAL_Driver/Src/stm32f7xx_hal_dcmi.c **** 
 438:Drivers/STM32F7xx_HAL_Driver/Src/stm32f7xx_hal_dcmi.c ****   if(hdcmi->State == HAL_DCMI_STATE_BUSY)
 439:Drivers/STM32F7xx_HAL_Driver/Src/stm32f7xx_hal_dcmi.c ****   {
 440:Drivers/STM32F7xx_HAL_Driver/Src/stm32f7xx_hal_dcmi.c ****     /* Change DCMI state */
 441:Drivers/STM32F7xx_HAL_Driver/Src/stm32f7xx_hal_dcmi.c ****     hdcmi->State = HAL_DCMI_STATE_SUSPENDED;
 442:Drivers/STM32F7xx_HAL_Driver/Src/stm32f7xx_hal_dcmi.c **** 
 443:Drivers/STM32F7xx_HAL_Driver/Src/stm32f7xx_hal_dcmi.c ****     /* Disable Capture */
 444:Drivers/STM32F7xx_HAL_Driver/Src/stm32f7xx_hal_dcmi.c ****     hdcmi->Instance->CR &= ~(DCMI_CR_CAPTURE);
 445:Drivers/STM32F7xx_HAL_Driver/Src/stm32f7xx_hal_dcmi.c **** 
 446:Drivers/STM32F7xx_HAL_Driver/Src/stm32f7xx_hal_dcmi.c ****     /* Check if the DCMI capture effectively disabled */
 447:Drivers/STM32F7xx_HAL_Driver/Src/stm32f7xx_hal_dcmi.c ****     do
 448:Drivers/STM32F7xx_HAL_Driver/Src/stm32f7xx_hal_dcmi.c ****     {
 449:Drivers/STM32F7xx_HAL_Driver/Src/stm32f7xx_hal_dcmi.c ****       if (count-- == 0)
 450:Drivers/STM32F7xx_HAL_Driver/Src/stm32f7xx_hal_dcmi.c ****       {        
 451:Drivers/STM32F7xx_HAL_Driver/Src/stm32f7xx_hal_dcmi.c ****         /* Update error code */
 452:Drivers/STM32F7xx_HAL_Driver/Src/stm32f7xx_hal_dcmi.c ****         hdcmi->ErrorCode |= HAL_DCMI_ERROR_TIMEOUT;
 453:Drivers/STM32F7xx_HAL_Driver/Src/stm32f7xx_hal_dcmi.c ****         
 454:Drivers/STM32F7xx_HAL_Driver/Src/stm32f7xx_hal_dcmi.c ****         /* Change DCMI state */
 455:Drivers/STM32F7xx_HAL_Driver/Src/stm32f7xx_hal_dcmi.c ****         hdcmi->State = HAL_DCMI_STATE_READY;
 456:Drivers/STM32F7xx_HAL_Driver/Src/stm32f7xx_hal_dcmi.c ****         
 457:Drivers/STM32F7xx_HAL_Driver/Src/stm32f7xx_hal_dcmi.c ****         status = HAL_TIMEOUT;
 458:Drivers/STM32F7xx_HAL_Driver/Src/stm32f7xx_hal_dcmi.c ****         break;
 459:Drivers/STM32F7xx_HAL_Driver/Src/stm32f7xx_hal_dcmi.c ****       }
 460:Drivers/STM32F7xx_HAL_Driver/Src/stm32f7xx_hal_dcmi.c ****     }
 461:Drivers/STM32F7xx_HAL_Driver/Src/stm32f7xx_hal_dcmi.c ****     while((hdcmi->Instance->CR & DCMI_CR_CAPTURE) != 0);
 462:Drivers/STM32F7xx_HAL_Driver/Src/stm32f7xx_hal_dcmi.c ****   }    
 463:Drivers/STM32F7xx_HAL_Driver/Src/stm32f7xx_hal_dcmi.c ****   /* Process Unlocked */
 464:Drivers/STM32F7xx_HAL_Driver/Src/stm32f7xx_hal_dcmi.c ****   __HAL_UNLOCK(hdcmi);
 465:Drivers/STM32F7xx_HAL_Driver/Src/stm32f7xx_hal_dcmi.c ****   
 466:Drivers/STM32F7xx_HAL_Driver/Src/stm32f7xx_hal_dcmi.c ****   /* Return function status */
 467:Drivers/STM32F7xx_HAL_Driver/Src/stm32f7xx_hal_dcmi.c ****   return status;
 468:Drivers/STM32F7xx_HAL_Driver/Src/stm32f7xx_hal_dcmi.c **** }
 469:Drivers/STM32F7xx_HAL_Driver/Src/stm32f7xx_hal_dcmi.c **** 
 470:Drivers/STM32F7xx_HAL_Driver/Src/stm32f7xx_hal_dcmi.c **** /**
 471:Drivers/STM32F7xx_HAL_Driver/Src/stm32f7xx_hal_dcmi.c ****   * @brief  Resume DCMI capture  
 472:Drivers/STM32F7xx_HAL_Driver/Src/stm32f7xx_hal_dcmi.c ****   * @param  hdcmi pointer to a DCMI_HandleTypeDef structure that contains
 473:Drivers/STM32F7xx_HAL_Driver/Src/stm32f7xx_hal_dcmi.c ****   *                the configuration information for DCMI. 
 474:Drivers/STM32F7xx_HAL_Driver/Src/stm32f7xx_hal_dcmi.c ****   * @retval HAL status     
 475:Drivers/STM32F7xx_HAL_Driver/Src/stm32f7xx_hal_dcmi.c ****   */
 476:Drivers/STM32F7xx_HAL_Driver/Src/stm32f7xx_hal_dcmi.c **** HAL_StatusTypeDef HAL_DCMI_Resume(DCMI_HandleTypeDef* hdcmi)
 477:Drivers/STM32F7xx_HAL_Driver/Src/stm32f7xx_hal_dcmi.c **** {
 478:Drivers/STM32F7xx_HAL_Driver/Src/stm32f7xx_hal_dcmi.c ****   /* Process locked */
 479:Drivers/STM32F7xx_HAL_Driver/Src/stm32f7xx_hal_dcmi.c ****   __HAL_LOCK(hdcmi);
 480:Drivers/STM32F7xx_HAL_Driver/Src/stm32f7xx_hal_dcmi.c ****   
 481:Drivers/STM32F7xx_HAL_Driver/Src/stm32f7xx_hal_dcmi.c ****   if(hdcmi->State == HAL_DCMI_STATE_SUSPENDED)
 482:Drivers/STM32F7xx_HAL_Driver/Src/stm32f7xx_hal_dcmi.c ****   {
 483:Drivers/STM32F7xx_HAL_Driver/Src/stm32f7xx_hal_dcmi.c ****     /* Change DCMI state */
 484:Drivers/STM32F7xx_HAL_Driver/Src/stm32f7xx_hal_dcmi.c ****     hdcmi->State = HAL_DCMI_STATE_BUSY;
 485:Drivers/STM32F7xx_HAL_Driver/Src/stm32f7xx_hal_dcmi.c ****     
 486:Drivers/STM32F7xx_HAL_Driver/Src/stm32f7xx_hal_dcmi.c ****     /* Disable Capture */
ARM GAS  C:\Users\Nina\AppData\Local\Temp\cc8ClKuc.s 			page 10


 487:Drivers/STM32F7xx_HAL_Driver/Src/stm32f7xx_hal_dcmi.c ****     hdcmi->Instance->CR |= DCMI_CR_CAPTURE;
 488:Drivers/STM32F7xx_HAL_Driver/Src/stm32f7xx_hal_dcmi.c ****   } 
 489:Drivers/STM32F7xx_HAL_Driver/Src/stm32f7xx_hal_dcmi.c ****   /* Process Unlocked */
 490:Drivers/STM32F7xx_HAL_Driver/Src/stm32f7xx_hal_dcmi.c ****   __HAL_UNLOCK(hdcmi);
 491:Drivers/STM32F7xx_HAL_Driver/Src/stm32f7xx_hal_dcmi.c ****   
 492:Drivers/STM32F7xx_HAL_Driver/Src/stm32f7xx_hal_dcmi.c ****   /* Return function status */
 493:Drivers/STM32F7xx_HAL_Driver/Src/stm32f7xx_hal_dcmi.c ****   return HAL_OK;
 494:Drivers/STM32F7xx_HAL_Driver/Src/stm32f7xx_hal_dcmi.c **** }
 495:Drivers/STM32F7xx_HAL_Driver/Src/stm32f7xx_hal_dcmi.c **** 
 496:Drivers/STM32F7xx_HAL_Driver/Src/stm32f7xx_hal_dcmi.c **** /**
 497:Drivers/STM32F7xx_HAL_Driver/Src/stm32f7xx_hal_dcmi.c ****   * @brief  Handles DCMI interrupt request.
 498:Drivers/STM32F7xx_HAL_Driver/Src/stm32f7xx_hal_dcmi.c ****   * @param  hdcmi pointer to a DCMI_HandleTypeDef structure that contains
 499:Drivers/STM32F7xx_HAL_Driver/Src/stm32f7xx_hal_dcmi.c ****   *                the configuration information for the DCMI.
 500:Drivers/STM32F7xx_HAL_Driver/Src/stm32f7xx_hal_dcmi.c ****   * @retval None
 501:Drivers/STM32F7xx_HAL_Driver/Src/stm32f7xx_hal_dcmi.c ****   */
 502:Drivers/STM32F7xx_HAL_Driver/Src/stm32f7xx_hal_dcmi.c **** void HAL_DCMI_IRQHandler(DCMI_HandleTypeDef *hdcmi)
 503:Drivers/STM32F7xx_HAL_Driver/Src/stm32f7xx_hal_dcmi.c **** {  
 504:Drivers/STM32F7xx_HAL_Driver/Src/stm32f7xx_hal_dcmi.c ****   uint32_t isr_value = READ_REG(hdcmi->Instance->MISR);
 505:Drivers/STM32F7xx_HAL_Driver/Src/stm32f7xx_hal_dcmi.c ****   
 506:Drivers/STM32F7xx_HAL_Driver/Src/stm32f7xx_hal_dcmi.c ****   /* Synchronization error interrupt management *******************************/
 507:Drivers/STM32F7xx_HAL_Driver/Src/stm32f7xx_hal_dcmi.c ****   if((isr_value & DCMI_FLAG_ERRRI) == DCMI_FLAG_ERRRI)
 508:Drivers/STM32F7xx_HAL_Driver/Src/stm32f7xx_hal_dcmi.c ****   {
 509:Drivers/STM32F7xx_HAL_Driver/Src/stm32f7xx_hal_dcmi.c ****     /* Clear the Synchronization error flag */
 510:Drivers/STM32F7xx_HAL_Driver/Src/stm32f7xx_hal_dcmi.c ****     __HAL_DCMI_CLEAR_FLAG(hdcmi, DCMI_FLAG_ERRRI);
 511:Drivers/STM32F7xx_HAL_Driver/Src/stm32f7xx_hal_dcmi.c ****     
 512:Drivers/STM32F7xx_HAL_Driver/Src/stm32f7xx_hal_dcmi.c ****     /* Update error code */
 513:Drivers/STM32F7xx_HAL_Driver/Src/stm32f7xx_hal_dcmi.c ****     hdcmi->ErrorCode |= HAL_DCMI_ERROR_SYNC;
 514:Drivers/STM32F7xx_HAL_Driver/Src/stm32f7xx_hal_dcmi.c ****     
 515:Drivers/STM32F7xx_HAL_Driver/Src/stm32f7xx_hal_dcmi.c ****     /* Change DCMI state */
 516:Drivers/STM32F7xx_HAL_Driver/Src/stm32f7xx_hal_dcmi.c ****     hdcmi->State = HAL_DCMI_STATE_ERROR;
 517:Drivers/STM32F7xx_HAL_Driver/Src/stm32f7xx_hal_dcmi.c ****     
 518:Drivers/STM32F7xx_HAL_Driver/Src/stm32f7xx_hal_dcmi.c ****     /* Set the synchronization error callback */
 519:Drivers/STM32F7xx_HAL_Driver/Src/stm32f7xx_hal_dcmi.c ****     hdcmi->DMA_Handle->XferAbortCallback = DCMI_DMAError;
 520:Drivers/STM32F7xx_HAL_Driver/Src/stm32f7xx_hal_dcmi.c ****     
 521:Drivers/STM32F7xx_HAL_Driver/Src/stm32f7xx_hal_dcmi.c ****     /* Abort the DMA Transfer */
 522:Drivers/STM32F7xx_HAL_Driver/Src/stm32f7xx_hal_dcmi.c ****     HAL_DMA_Abort_IT(hdcmi->DMA_Handle); 
 523:Drivers/STM32F7xx_HAL_Driver/Src/stm32f7xx_hal_dcmi.c ****   }
 524:Drivers/STM32F7xx_HAL_Driver/Src/stm32f7xx_hal_dcmi.c ****   /* Overflow interrupt management ********************************************/
 525:Drivers/STM32F7xx_HAL_Driver/Src/stm32f7xx_hal_dcmi.c ****   if((isr_value & DCMI_FLAG_OVRRI) == DCMI_FLAG_OVRRI)
 526:Drivers/STM32F7xx_HAL_Driver/Src/stm32f7xx_hal_dcmi.c ****   {
 527:Drivers/STM32F7xx_HAL_Driver/Src/stm32f7xx_hal_dcmi.c ****     /* Clear the Overflow flag */
 528:Drivers/STM32F7xx_HAL_Driver/Src/stm32f7xx_hal_dcmi.c ****     __HAL_DCMI_CLEAR_FLAG(hdcmi, DCMI_FLAG_OVRRI);
 529:Drivers/STM32F7xx_HAL_Driver/Src/stm32f7xx_hal_dcmi.c ****     
 530:Drivers/STM32F7xx_HAL_Driver/Src/stm32f7xx_hal_dcmi.c ****     /* Update error code */
 531:Drivers/STM32F7xx_HAL_Driver/Src/stm32f7xx_hal_dcmi.c ****     hdcmi->ErrorCode |= HAL_DCMI_ERROR_OVR;
 532:Drivers/STM32F7xx_HAL_Driver/Src/stm32f7xx_hal_dcmi.c ****     
 533:Drivers/STM32F7xx_HAL_Driver/Src/stm32f7xx_hal_dcmi.c ****     /* Change DCMI state */
 534:Drivers/STM32F7xx_HAL_Driver/Src/stm32f7xx_hal_dcmi.c ****     hdcmi->State = HAL_DCMI_STATE_ERROR;
 535:Drivers/STM32F7xx_HAL_Driver/Src/stm32f7xx_hal_dcmi.c ****     
 536:Drivers/STM32F7xx_HAL_Driver/Src/stm32f7xx_hal_dcmi.c ****     /* Set the overflow callback */
 537:Drivers/STM32F7xx_HAL_Driver/Src/stm32f7xx_hal_dcmi.c ****     hdcmi->DMA_Handle->XferAbortCallback = DCMI_DMAError;
 538:Drivers/STM32F7xx_HAL_Driver/Src/stm32f7xx_hal_dcmi.c ****     
 539:Drivers/STM32F7xx_HAL_Driver/Src/stm32f7xx_hal_dcmi.c ****     /* Abort the DMA Transfer */
 540:Drivers/STM32F7xx_HAL_Driver/Src/stm32f7xx_hal_dcmi.c ****     HAL_DMA_Abort_IT(hdcmi->DMA_Handle);
 541:Drivers/STM32F7xx_HAL_Driver/Src/stm32f7xx_hal_dcmi.c ****   }
 542:Drivers/STM32F7xx_HAL_Driver/Src/stm32f7xx_hal_dcmi.c ****   /* Line Interrupt management ************************************************/
 543:Drivers/STM32F7xx_HAL_Driver/Src/stm32f7xx_hal_dcmi.c ****   if((isr_value & DCMI_FLAG_LINERI) == DCMI_FLAG_LINERI)
ARM GAS  C:\Users\Nina\AppData\Local\Temp\cc8ClKuc.s 			page 11


 544:Drivers/STM32F7xx_HAL_Driver/Src/stm32f7xx_hal_dcmi.c ****   {
 545:Drivers/STM32F7xx_HAL_Driver/Src/stm32f7xx_hal_dcmi.c ****     /* Clear the Line interrupt flag */  
 546:Drivers/STM32F7xx_HAL_Driver/Src/stm32f7xx_hal_dcmi.c ****     __HAL_DCMI_CLEAR_FLAG(hdcmi, DCMI_FLAG_LINERI);
 547:Drivers/STM32F7xx_HAL_Driver/Src/stm32f7xx_hal_dcmi.c ****     
 548:Drivers/STM32F7xx_HAL_Driver/Src/stm32f7xx_hal_dcmi.c ****     /* Line interrupt Callback */
 549:Drivers/STM32F7xx_HAL_Driver/Src/stm32f7xx_hal_dcmi.c ****     HAL_DCMI_LineEventCallback(hdcmi);
 550:Drivers/STM32F7xx_HAL_Driver/Src/stm32f7xx_hal_dcmi.c ****   }
 551:Drivers/STM32F7xx_HAL_Driver/Src/stm32f7xx_hal_dcmi.c ****   /* VSYNC interrupt management ***********************************************/
 552:Drivers/STM32F7xx_HAL_Driver/Src/stm32f7xx_hal_dcmi.c ****   if((isr_value & DCMI_FLAG_VSYNCRI) == DCMI_FLAG_VSYNCRI)
 553:Drivers/STM32F7xx_HAL_Driver/Src/stm32f7xx_hal_dcmi.c ****   {
 554:Drivers/STM32F7xx_HAL_Driver/Src/stm32f7xx_hal_dcmi.c ****     /* Clear the VSYNC flag */
 555:Drivers/STM32F7xx_HAL_Driver/Src/stm32f7xx_hal_dcmi.c ****     __HAL_DCMI_CLEAR_FLAG(hdcmi, DCMI_FLAG_VSYNCRI);
 556:Drivers/STM32F7xx_HAL_Driver/Src/stm32f7xx_hal_dcmi.c ****     
 557:Drivers/STM32F7xx_HAL_Driver/Src/stm32f7xx_hal_dcmi.c ****     /* VSYNC Callback */
 558:Drivers/STM32F7xx_HAL_Driver/Src/stm32f7xx_hal_dcmi.c ****     HAL_DCMI_VsyncEventCallback(hdcmi);
 559:Drivers/STM32F7xx_HAL_Driver/Src/stm32f7xx_hal_dcmi.c ****   }
 560:Drivers/STM32F7xx_HAL_Driver/Src/stm32f7xx_hal_dcmi.c ****   /* FRAME interrupt management ***********************************************/
 561:Drivers/STM32F7xx_HAL_Driver/Src/stm32f7xx_hal_dcmi.c ****   if((isr_value & DCMI_FLAG_FRAMERI) == DCMI_FLAG_FRAMERI)   
 562:Drivers/STM32F7xx_HAL_Driver/Src/stm32f7xx_hal_dcmi.c ****   {
 563:Drivers/STM32F7xx_HAL_Driver/Src/stm32f7xx_hal_dcmi.c ****     /* When snapshot mode, disable Vsync, Error and Overrun interrupts */
 564:Drivers/STM32F7xx_HAL_Driver/Src/stm32f7xx_hal_dcmi.c ****     if((hdcmi->Instance->CR & DCMI_CR_CM) == DCMI_MODE_SNAPSHOT)
 565:Drivers/STM32F7xx_HAL_Driver/Src/stm32f7xx_hal_dcmi.c ****     { 
 566:Drivers/STM32F7xx_HAL_Driver/Src/stm32f7xx_hal_dcmi.c ****       /* Disable the Line, Vsync, Error and Overrun interrupts */
 567:Drivers/STM32F7xx_HAL_Driver/Src/stm32f7xx_hal_dcmi.c ****       __HAL_DCMI_DISABLE_IT(hdcmi, DCMI_IT_LINE | DCMI_IT_VSYNC | DCMI_IT_ERR | DCMI_IT_OVR);
 568:Drivers/STM32F7xx_HAL_Driver/Src/stm32f7xx_hal_dcmi.c ****     }
 569:Drivers/STM32F7xx_HAL_Driver/Src/stm32f7xx_hal_dcmi.c ****     
 570:Drivers/STM32F7xx_HAL_Driver/Src/stm32f7xx_hal_dcmi.c ****     /* Disable the Frame interrupt */
 571:Drivers/STM32F7xx_HAL_Driver/Src/stm32f7xx_hal_dcmi.c ****     __HAL_DCMI_DISABLE_IT(hdcmi, DCMI_IT_FRAME);
 572:Drivers/STM32F7xx_HAL_Driver/Src/stm32f7xx_hal_dcmi.c ****     
 573:Drivers/STM32F7xx_HAL_Driver/Src/stm32f7xx_hal_dcmi.c ****     /* Clear the End of Frame flag */
 574:Drivers/STM32F7xx_HAL_Driver/Src/stm32f7xx_hal_dcmi.c ****     __HAL_DCMI_CLEAR_FLAG(hdcmi, DCMI_FLAG_FRAMERI);
 575:Drivers/STM32F7xx_HAL_Driver/Src/stm32f7xx_hal_dcmi.c ****     
 576:Drivers/STM32F7xx_HAL_Driver/Src/stm32f7xx_hal_dcmi.c ****     /* Frame Callback */
 577:Drivers/STM32F7xx_HAL_Driver/Src/stm32f7xx_hal_dcmi.c ****     HAL_DCMI_FrameEventCallback(hdcmi);
 578:Drivers/STM32F7xx_HAL_Driver/Src/stm32f7xx_hal_dcmi.c ****   }
 579:Drivers/STM32F7xx_HAL_Driver/Src/stm32f7xx_hal_dcmi.c **** }
 580:Drivers/STM32F7xx_HAL_Driver/Src/stm32f7xx_hal_dcmi.c **** 
 581:Drivers/STM32F7xx_HAL_Driver/Src/stm32f7xx_hal_dcmi.c **** /**
 582:Drivers/STM32F7xx_HAL_Driver/Src/stm32f7xx_hal_dcmi.c ****   * @brief  Error DCMI callback.
 583:Drivers/STM32F7xx_HAL_Driver/Src/stm32f7xx_hal_dcmi.c ****   * @param  hdcmi pointer to a DCMI_HandleTypeDef structure that contains
 584:Drivers/STM32F7xx_HAL_Driver/Src/stm32f7xx_hal_dcmi.c ****   *                the configuration information for DCMI.
 585:Drivers/STM32F7xx_HAL_Driver/Src/stm32f7xx_hal_dcmi.c ****   * @retval None
 586:Drivers/STM32F7xx_HAL_Driver/Src/stm32f7xx_hal_dcmi.c ****   */
 587:Drivers/STM32F7xx_HAL_Driver/Src/stm32f7xx_hal_dcmi.c **** __weak void HAL_DCMI_ErrorCallback(DCMI_HandleTypeDef *hdcmi)
 588:Drivers/STM32F7xx_HAL_Driver/Src/stm32f7xx_hal_dcmi.c **** {
 589:Drivers/STM32F7xx_HAL_Driver/Src/stm32f7xx_hal_dcmi.c ****   /* Prevent unused argument(s) compilation warning */
 590:Drivers/STM32F7xx_HAL_Driver/Src/stm32f7xx_hal_dcmi.c ****   UNUSED(hdcmi);
 591:Drivers/STM32F7xx_HAL_Driver/Src/stm32f7xx_hal_dcmi.c ****  
 592:Drivers/STM32F7xx_HAL_Driver/Src/stm32f7xx_hal_dcmi.c ****   /* NOTE : This function Should not be modified, when the callback is needed,
 593:Drivers/STM32F7xx_HAL_Driver/Src/stm32f7xx_hal_dcmi.c ****             the HAL_DCMI_ErrorCallback could be implemented in the user file
 594:Drivers/STM32F7xx_HAL_Driver/Src/stm32f7xx_hal_dcmi.c ****    */
 595:Drivers/STM32F7xx_HAL_Driver/Src/stm32f7xx_hal_dcmi.c **** }
 596:Drivers/STM32F7xx_HAL_Driver/Src/stm32f7xx_hal_dcmi.c **** 
 597:Drivers/STM32F7xx_HAL_Driver/Src/stm32f7xx_hal_dcmi.c **** /**
 598:Drivers/STM32F7xx_HAL_Driver/Src/stm32f7xx_hal_dcmi.c ****   * @brief  Line Event callback.
 599:Drivers/STM32F7xx_HAL_Driver/Src/stm32f7xx_hal_dcmi.c ****   * @param  hdcmi pointer to a DCMI_HandleTypeDef structure that contains
 600:Drivers/STM32F7xx_HAL_Driver/Src/stm32f7xx_hal_dcmi.c ****   *                the configuration information for DCMI.
ARM GAS  C:\Users\Nina\AppData\Local\Temp\cc8ClKuc.s 			page 12


 601:Drivers/STM32F7xx_HAL_Driver/Src/stm32f7xx_hal_dcmi.c ****   * @retval None
 602:Drivers/STM32F7xx_HAL_Driver/Src/stm32f7xx_hal_dcmi.c ****   */
 603:Drivers/STM32F7xx_HAL_Driver/Src/stm32f7xx_hal_dcmi.c **** __weak void HAL_DCMI_LineEventCallback(DCMI_HandleTypeDef *hdcmi)
 604:Drivers/STM32F7xx_HAL_Driver/Src/stm32f7xx_hal_dcmi.c **** {
 605:Drivers/STM32F7xx_HAL_Driver/Src/stm32f7xx_hal_dcmi.c ****   /* NOTE : This function Should not be modified, when the callback is needed,
 606:Drivers/STM32F7xx_HAL_Driver/Src/stm32f7xx_hal_dcmi.c ****             the HAL_DCMI_LineEventCallback could be implemented in the user file
 607:Drivers/STM32F7xx_HAL_Driver/Src/stm32f7xx_hal_dcmi.c ****    */
 608:Drivers/STM32F7xx_HAL_Driver/Src/stm32f7xx_hal_dcmi.c **** }
 609:Drivers/STM32F7xx_HAL_Driver/Src/stm32f7xx_hal_dcmi.c **** 
 610:Drivers/STM32F7xx_HAL_Driver/Src/stm32f7xx_hal_dcmi.c **** /**
 611:Drivers/STM32F7xx_HAL_Driver/Src/stm32f7xx_hal_dcmi.c ****   * @brief  VSYNC Event callback.
 612:Drivers/STM32F7xx_HAL_Driver/Src/stm32f7xx_hal_dcmi.c ****   * @param  hdcmi pointer to a DCMI_HandleTypeDef structure that contains
 613:Drivers/STM32F7xx_HAL_Driver/Src/stm32f7xx_hal_dcmi.c ****   *                the configuration information for DCMI.
 614:Drivers/STM32F7xx_HAL_Driver/Src/stm32f7xx_hal_dcmi.c ****   * @retval None
 615:Drivers/STM32F7xx_HAL_Driver/Src/stm32f7xx_hal_dcmi.c ****   */
 616:Drivers/STM32F7xx_HAL_Driver/Src/stm32f7xx_hal_dcmi.c **** __weak void HAL_DCMI_VsyncEventCallback(DCMI_HandleTypeDef *hdcmi)
 617:Drivers/STM32F7xx_HAL_Driver/Src/stm32f7xx_hal_dcmi.c **** {
 618:Drivers/STM32F7xx_HAL_Driver/Src/stm32f7xx_hal_dcmi.c ****   /* Prevent unused argument(s) compilation warning */
 619:Drivers/STM32F7xx_HAL_Driver/Src/stm32f7xx_hal_dcmi.c ****   UNUSED(hdcmi);
 620:Drivers/STM32F7xx_HAL_Driver/Src/stm32f7xx_hal_dcmi.c ****  
 621:Drivers/STM32F7xx_HAL_Driver/Src/stm32f7xx_hal_dcmi.c ****   /* NOTE : This function Should not be modified, when the callback is needed,
 622:Drivers/STM32F7xx_HAL_Driver/Src/stm32f7xx_hal_dcmi.c ****             the HAL_DCMI_VsyncEventCallback could be implemented in the user file
 623:Drivers/STM32F7xx_HAL_Driver/Src/stm32f7xx_hal_dcmi.c ****    */
 624:Drivers/STM32F7xx_HAL_Driver/Src/stm32f7xx_hal_dcmi.c **** }
 625:Drivers/STM32F7xx_HAL_Driver/Src/stm32f7xx_hal_dcmi.c **** 
 626:Drivers/STM32F7xx_HAL_Driver/Src/stm32f7xx_hal_dcmi.c **** /**
 627:Drivers/STM32F7xx_HAL_Driver/Src/stm32f7xx_hal_dcmi.c ****   * @brief  Frame Event callback.
 628:Drivers/STM32F7xx_HAL_Driver/Src/stm32f7xx_hal_dcmi.c ****   * @param  hdcmi pointer to a DCMI_HandleTypeDef structure that contains
 629:Drivers/STM32F7xx_HAL_Driver/Src/stm32f7xx_hal_dcmi.c ****   *                the configuration information for DCMI.
 630:Drivers/STM32F7xx_HAL_Driver/Src/stm32f7xx_hal_dcmi.c ****   * @retval None
 631:Drivers/STM32F7xx_HAL_Driver/Src/stm32f7xx_hal_dcmi.c ****   */
 632:Drivers/STM32F7xx_HAL_Driver/Src/stm32f7xx_hal_dcmi.c **** __weak void HAL_DCMI_FrameEventCallback(DCMI_HandleTypeDef *hdcmi)
 633:Drivers/STM32F7xx_HAL_Driver/Src/stm32f7xx_hal_dcmi.c **** {
 634:Drivers/STM32F7xx_HAL_Driver/Src/stm32f7xx_hal_dcmi.c ****   /* Prevent unused argument(s) compilation warning */
 635:Drivers/STM32F7xx_HAL_Driver/Src/stm32f7xx_hal_dcmi.c ****   UNUSED(hdcmi);
 636:Drivers/STM32F7xx_HAL_Driver/Src/stm32f7xx_hal_dcmi.c ****  
 637:Drivers/STM32F7xx_HAL_Driver/Src/stm32f7xx_hal_dcmi.c ****   /* NOTE : This function Should not be modified, when the callback is needed,
 638:Drivers/STM32F7xx_HAL_Driver/Src/stm32f7xx_hal_dcmi.c ****             the HAL_DCMI_FrameEventCallback could be implemented in the user file
 639:Drivers/STM32F7xx_HAL_Driver/Src/stm32f7xx_hal_dcmi.c ****    */
 640:Drivers/STM32F7xx_HAL_Driver/Src/stm32f7xx_hal_dcmi.c **** }
 641:Drivers/STM32F7xx_HAL_Driver/Src/stm32f7xx_hal_dcmi.c **** 
 642:Drivers/STM32F7xx_HAL_Driver/Src/stm32f7xx_hal_dcmi.c **** /**
 643:Drivers/STM32F7xx_HAL_Driver/Src/stm32f7xx_hal_dcmi.c ****   * @}
 644:Drivers/STM32F7xx_HAL_Driver/Src/stm32f7xx_hal_dcmi.c ****   */
 645:Drivers/STM32F7xx_HAL_Driver/Src/stm32f7xx_hal_dcmi.c **** 
 646:Drivers/STM32F7xx_HAL_Driver/Src/stm32f7xx_hal_dcmi.c **** /** @defgroup DCMI_Exported_Functions_Group3 Peripheral Control functions
 647:Drivers/STM32F7xx_HAL_Driver/Src/stm32f7xx_hal_dcmi.c ****  *  @brief    Peripheral Control functions 
 648:Drivers/STM32F7xx_HAL_Driver/Src/stm32f7xx_hal_dcmi.c ****  *
 649:Drivers/STM32F7xx_HAL_Driver/Src/stm32f7xx_hal_dcmi.c **** @verbatim   
 650:Drivers/STM32F7xx_HAL_Driver/Src/stm32f7xx_hal_dcmi.c ****  ===============================================================================
 651:Drivers/STM32F7xx_HAL_Driver/Src/stm32f7xx_hal_dcmi.c ****                     ##### Peripheral Control functions #####
 652:Drivers/STM32F7xx_HAL_Driver/Src/stm32f7xx_hal_dcmi.c ****  ===============================================================================  
 653:Drivers/STM32F7xx_HAL_Driver/Src/stm32f7xx_hal_dcmi.c **** [..]  This section provides functions allowing to:
 654:Drivers/STM32F7xx_HAL_Driver/Src/stm32f7xx_hal_dcmi.c ****       (+) Configure the CROP feature.
 655:Drivers/STM32F7xx_HAL_Driver/Src/stm32f7xx_hal_dcmi.c ****       (+) Enable/Disable the CROP feature.
 656:Drivers/STM32F7xx_HAL_Driver/Src/stm32f7xx_hal_dcmi.c ****       (+) Set embedded synchronization delimiters unmasks.
 657:Drivers/STM32F7xx_HAL_Driver/Src/stm32f7xx_hal_dcmi.c **** 
ARM GAS  C:\Users\Nina\AppData\Local\Temp\cc8ClKuc.s 			page 13


 658:Drivers/STM32F7xx_HAL_Driver/Src/stm32f7xx_hal_dcmi.c **** @endverbatim
 659:Drivers/STM32F7xx_HAL_Driver/Src/stm32f7xx_hal_dcmi.c ****   * @{
 660:Drivers/STM32F7xx_HAL_Driver/Src/stm32f7xx_hal_dcmi.c ****   */
 661:Drivers/STM32F7xx_HAL_Driver/Src/stm32f7xx_hal_dcmi.c **** 
 662:Drivers/STM32F7xx_HAL_Driver/Src/stm32f7xx_hal_dcmi.c **** /**
 663:Drivers/STM32F7xx_HAL_Driver/Src/stm32f7xx_hal_dcmi.c ****   * @brief  Configure the DCMI CROP coordinate.
 664:Drivers/STM32F7xx_HAL_Driver/Src/stm32f7xx_hal_dcmi.c ****   * @param  hdcmi pointer to a DCMI_HandleTypeDef structure that contains
 665:Drivers/STM32F7xx_HAL_Driver/Src/stm32f7xx_hal_dcmi.c ****   *                the configuration information for DCMI.
 666:Drivers/STM32F7xx_HAL_Driver/Src/stm32f7xx_hal_dcmi.c ****   * @param  YSize DCMI Line number
 667:Drivers/STM32F7xx_HAL_Driver/Src/stm32f7xx_hal_dcmi.c ****   * @param  XSize DCMI Pixel per line
 668:Drivers/STM32F7xx_HAL_Driver/Src/stm32f7xx_hal_dcmi.c ****   * @param  X0    DCMI window X offset
 669:Drivers/STM32F7xx_HAL_Driver/Src/stm32f7xx_hal_dcmi.c ****   * @param  Y0    DCMI window Y offset
 670:Drivers/STM32F7xx_HAL_Driver/Src/stm32f7xx_hal_dcmi.c ****   * @retval HAL status
 671:Drivers/STM32F7xx_HAL_Driver/Src/stm32f7xx_hal_dcmi.c ****   */
 672:Drivers/STM32F7xx_HAL_Driver/Src/stm32f7xx_hal_dcmi.c **** HAL_StatusTypeDef HAL_DCMI_ConfigCrop(DCMI_HandleTypeDef *hdcmi, uint32_t X0, uint32_t Y0, uint32_t
 673:Drivers/STM32F7xx_HAL_Driver/Src/stm32f7xx_hal_dcmi.c **** {
 674:Drivers/STM32F7xx_HAL_Driver/Src/stm32f7xx_hal_dcmi.c ****   /* Process Locked */
 675:Drivers/STM32F7xx_HAL_Driver/Src/stm32f7xx_hal_dcmi.c ****   __HAL_LOCK(hdcmi);
 676:Drivers/STM32F7xx_HAL_Driver/Src/stm32f7xx_hal_dcmi.c **** 
 677:Drivers/STM32F7xx_HAL_Driver/Src/stm32f7xx_hal_dcmi.c ****   /* Lock the DCMI peripheral state */
 678:Drivers/STM32F7xx_HAL_Driver/Src/stm32f7xx_hal_dcmi.c ****   hdcmi->State = HAL_DCMI_STATE_BUSY;
 679:Drivers/STM32F7xx_HAL_Driver/Src/stm32f7xx_hal_dcmi.c **** 
 680:Drivers/STM32F7xx_HAL_Driver/Src/stm32f7xx_hal_dcmi.c ****   /* Check the parameters */
 681:Drivers/STM32F7xx_HAL_Driver/Src/stm32f7xx_hal_dcmi.c ****   assert_param(IS_DCMI_WINDOW_COORDINATE(X0));
 682:Drivers/STM32F7xx_HAL_Driver/Src/stm32f7xx_hal_dcmi.c ****   assert_param(IS_DCMI_WINDOW_HEIGHT(Y0));
 683:Drivers/STM32F7xx_HAL_Driver/Src/stm32f7xx_hal_dcmi.c ****   assert_param(IS_DCMI_WINDOW_COORDINATE(XSize));
 684:Drivers/STM32F7xx_HAL_Driver/Src/stm32f7xx_hal_dcmi.c ****   assert_param(IS_DCMI_WINDOW_COORDINATE(YSize));
 685:Drivers/STM32F7xx_HAL_Driver/Src/stm32f7xx_hal_dcmi.c **** 	
 686:Drivers/STM32F7xx_HAL_Driver/Src/stm32f7xx_hal_dcmi.c ****   /* Configure CROP */
 687:Drivers/STM32F7xx_HAL_Driver/Src/stm32f7xx_hal_dcmi.c ****   hdcmi->Instance->CWSIZER = (XSize | (YSize << DCMI_CWSIZE_VLINE_Pos));
 688:Drivers/STM32F7xx_HAL_Driver/Src/stm32f7xx_hal_dcmi.c ****   hdcmi->Instance->CWSTRTR = (X0 | (Y0 << DCMI_CWSTRT_VST_Pos));
 689:Drivers/STM32F7xx_HAL_Driver/Src/stm32f7xx_hal_dcmi.c **** 
 690:Drivers/STM32F7xx_HAL_Driver/Src/stm32f7xx_hal_dcmi.c ****   /* Initialize the DCMI state*/
 691:Drivers/STM32F7xx_HAL_Driver/Src/stm32f7xx_hal_dcmi.c ****   hdcmi->State  = HAL_DCMI_STATE_READY;
 692:Drivers/STM32F7xx_HAL_Driver/Src/stm32f7xx_hal_dcmi.c **** 
 693:Drivers/STM32F7xx_HAL_Driver/Src/stm32f7xx_hal_dcmi.c ****   /* Process Unlocked */
 694:Drivers/STM32F7xx_HAL_Driver/Src/stm32f7xx_hal_dcmi.c ****   __HAL_UNLOCK(hdcmi);
 695:Drivers/STM32F7xx_HAL_Driver/Src/stm32f7xx_hal_dcmi.c **** 
 696:Drivers/STM32F7xx_HAL_Driver/Src/stm32f7xx_hal_dcmi.c ****   return HAL_OK;
 697:Drivers/STM32F7xx_HAL_Driver/Src/stm32f7xx_hal_dcmi.c **** }
 698:Drivers/STM32F7xx_HAL_Driver/Src/stm32f7xx_hal_dcmi.c **** 
 699:Drivers/STM32F7xx_HAL_Driver/Src/stm32f7xx_hal_dcmi.c **** /**
 700:Drivers/STM32F7xx_HAL_Driver/Src/stm32f7xx_hal_dcmi.c ****   * @brief  Disable the Crop feature.
 701:Drivers/STM32F7xx_HAL_Driver/Src/stm32f7xx_hal_dcmi.c ****   * @param  hdcmi pointer to a DCMI_HandleTypeDef structure that contains
 702:Drivers/STM32F7xx_HAL_Driver/Src/stm32f7xx_hal_dcmi.c ****   *                the configuration information for DCMI.
 703:Drivers/STM32F7xx_HAL_Driver/Src/stm32f7xx_hal_dcmi.c ****   * @retval HAL status
 704:Drivers/STM32F7xx_HAL_Driver/Src/stm32f7xx_hal_dcmi.c ****   */
 705:Drivers/STM32F7xx_HAL_Driver/Src/stm32f7xx_hal_dcmi.c **** HAL_StatusTypeDef HAL_DCMI_DisableCrop(DCMI_HandleTypeDef *hdcmi)
 706:Drivers/STM32F7xx_HAL_Driver/Src/stm32f7xx_hal_dcmi.c **** {
 707:Drivers/STM32F7xx_HAL_Driver/Src/stm32f7xx_hal_dcmi.c ****   /* Process Locked */
 708:Drivers/STM32F7xx_HAL_Driver/Src/stm32f7xx_hal_dcmi.c ****   __HAL_LOCK(hdcmi);
 709:Drivers/STM32F7xx_HAL_Driver/Src/stm32f7xx_hal_dcmi.c **** 
 710:Drivers/STM32F7xx_HAL_Driver/Src/stm32f7xx_hal_dcmi.c ****   /* Lock the DCMI peripheral state */
 711:Drivers/STM32F7xx_HAL_Driver/Src/stm32f7xx_hal_dcmi.c ****   hdcmi->State = HAL_DCMI_STATE_BUSY;
 712:Drivers/STM32F7xx_HAL_Driver/Src/stm32f7xx_hal_dcmi.c **** 
 713:Drivers/STM32F7xx_HAL_Driver/Src/stm32f7xx_hal_dcmi.c ****   /* Disable DCMI Crop feature */
 714:Drivers/STM32F7xx_HAL_Driver/Src/stm32f7xx_hal_dcmi.c ****   hdcmi->Instance->CR &= ~(uint32_t)DCMI_CR_CROP;  
ARM GAS  C:\Users\Nina\AppData\Local\Temp\cc8ClKuc.s 			page 14


 715:Drivers/STM32F7xx_HAL_Driver/Src/stm32f7xx_hal_dcmi.c **** 
 716:Drivers/STM32F7xx_HAL_Driver/Src/stm32f7xx_hal_dcmi.c ****   /* Change the DCMI state*/
 717:Drivers/STM32F7xx_HAL_Driver/Src/stm32f7xx_hal_dcmi.c ****   hdcmi->State = HAL_DCMI_STATE_READY;   
 718:Drivers/STM32F7xx_HAL_Driver/Src/stm32f7xx_hal_dcmi.c **** 
 719:Drivers/STM32F7xx_HAL_Driver/Src/stm32f7xx_hal_dcmi.c ****   /* Process Unlocked */
 720:Drivers/STM32F7xx_HAL_Driver/Src/stm32f7xx_hal_dcmi.c ****   __HAL_UNLOCK(hdcmi);
 721:Drivers/STM32F7xx_HAL_Driver/Src/stm32f7xx_hal_dcmi.c **** 
 722:Drivers/STM32F7xx_HAL_Driver/Src/stm32f7xx_hal_dcmi.c ****   return HAL_OK;  
 723:Drivers/STM32F7xx_HAL_Driver/Src/stm32f7xx_hal_dcmi.c **** }
 724:Drivers/STM32F7xx_HAL_Driver/Src/stm32f7xx_hal_dcmi.c **** 
 725:Drivers/STM32F7xx_HAL_Driver/Src/stm32f7xx_hal_dcmi.c **** /**
 726:Drivers/STM32F7xx_HAL_Driver/Src/stm32f7xx_hal_dcmi.c ****   * @brief  Enable the Crop feature.
 727:Drivers/STM32F7xx_HAL_Driver/Src/stm32f7xx_hal_dcmi.c ****   * @param  hdcmi pointer to a DCMI_HandleTypeDef structure that contains
 728:Drivers/STM32F7xx_HAL_Driver/Src/stm32f7xx_hal_dcmi.c ****   *                the configuration information for DCMI.
 729:Drivers/STM32F7xx_HAL_Driver/Src/stm32f7xx_hal_dcmi.c ****   * @retval HAL status
 730:Drivers/STM32F7xx_HAL_Driver/Src/stm32f7xx_hal_dcmi.c ****   */
 731:Drivers/STM32F7xx_HAL_Driver/Src/stm32f7xx_hal_dcmi.c **** HAL_StatusTypeDef HAL_DCMI_EnableCrop(DCMI_HandleTypeDef *hdcmi)
 732:Drivers/STM32F7xx_HAL_Driver/Src/stm32f7xx_hal_dcmi.c **** {
 733:Drivers/STM32F7xx_HAL_Driver/Src/stm32f7xx_hal_dcmi.c ****   /* Process Locked */
 734:Drivers/STM32F7xx_HAL_Driver/Src/stm32f7xx_hal_dcmi.c ****   __HAL_LOCK(hdcmi);
 735:Drivers/STM32F7xx_HAL_Driver/Src/stm32f7xx_hal_dcmi.c **** 
 736:Drivers/STM32F7xx_HAL_Driver/Src/stm32f7xx_hal_dcmi.c ****   /* Lock the DCMI peripheral state */
 737:Drivers/STM32F7xx_HAL_Driver/Src/stm32f7xx_hal_dcmi.c ****   hdcmi->State = HAL_DCMI_STATE_BUSY;
 738:Drivers/STM32F7xx_HAL_Driver/Src/stm32f7xx_hal_dcmi.c **** 
 739:Drivers/STM32F7xx_HAL_Driver/Src/stm32f7xx_hal_dcmi.c ****   /* Enable DCMI Crop feature */
 740:Drivers/STM32F7xx_HAL_Driver/Src/stm32f7xx_hal_dcmi.c ****   hdcmi->Instance->CR |= (uint32_t)DCMI_CR_CROP;
 741:Drivers/STM32F7xx_HAL_Driver/Src/stm32f7xx_hal_dcmi.c **** 
 742:Drivers/STM32F7xx_HAL_Driver/Src/stm32f7xx_hal_dcmi.c ****   /* Change the DCMI state*/
 743:Drivers/STM32F7xx_HAL_Driver/Src/stm32f7xx_hal_dcmi.c ****   hdcmi->State = HAL_DCMI_STATE_READY;
 744:Drivers/STM32F7xx_HAL_Driver/Src/stm32f7xx_hal_dcmi.c **** 
 745:Drivers/STM32F7xx_HAL_Driver/Src/stm32f7xx_hal_dcmi.c ****   /* Process Unlocked */
 746:Drivers/STM32F7xx_HAL_Driver/Src/stm32f7xx_hal_dcmi.c ****   __HAL_UNLOCK(hdcmi);
 747:Drivers/STM32F7xx_HAL_Driver/Src/stm32f7xx_hal_dcmi.c **** 
 748:Drivers/STM32F7xx_HAL_Driver/Src/stm32f7xx_hal_dcmi.c ****   return HAL_OK;  
 749:Drivers/STM32F7xx_HAL_Driver/Src/stm32f7xx_hal_dcmi.c **** }
 750:Drivers/STM32F7xx_HAL_Driver/Src/stm32f7xx_hal_dcmi.c **** 
 751:Drivers/STM32F7xx_HAL_Driver/Src/stm32f7xx_hal_dcmi.c **** /**
 752:Drivers/STM32F7xx_HAL_Driver/Src/stm32f7xx_hal_dcmi.c ****   * @}
 753:Drivers/STM32F7xx_HAL_Driver/Src/stm32f7xx_hal_dcmi.c ****   */
 754:Drivers/STM32F7xx_HAL_Driver/Src/stm32f7xx_hal_dcmi.c **** 
 755:Drivers/STM32F7xx_HAL_Driver/Src/stm32f7xx_hal_dcmi.c **** /** @defgroup DCMI_Exported_Functions_Group4 Peripheral State functions
 756:Drivers/STM32F7xx_HAL_Driver/Src/stm32f7xx_hal_dcmi.c ****  *  @brief    Peripheral State functions 
 757:Drivers/STM32F7xx_HAL_Driver/Src/stm32f7xx_hal_dcmi.c ****  *
 758:Drivers/STM32F7xx_HAL_Driver/Src/stm32f7xx_hal_dcmi.c **** @verbatim   
 759:Drivers/STM32F7xx_HAL_Driver/Src/stm32f7xx_hal_dcmi.c ****  ===============================================================================
 760:Drivers/STM32F7xx_HAL_Driver/Src/stm32f7xx_hal_dcmi.c ****                ##### Peripheral State and Errors functions #####
 761:Drivers/STM32F7xx_HAL_Driver/Src/stm32f7xx_hal_dcmi.c ****  ===============================================================================  
 762:Drivers/STM32F7xx_HAL_Driver/Src/stm32f7xx_hal_dcmi.c ****     [..]
 763:Drivers/STM32F7xx_HAL_Driver/Src/stm32f7xx_hal_dcmi.c ****     This subsection provides functions allowing to
 764:Drivers/STM32F7xx_HAL_Driver/Src/stm32f7xx_hal_dcmi.c ****       (+) Check the DCMI state.
 765:Drivers/STM32F7xx_HAL_Driver/Src/stm32f7xx_hal_dcmi.c ****       (+) Get the specific DCMI error flag.  
 766:Drivers/STM32F7xx_HAL_Driver/Src/stm32f7xx_hal_dcmi.c **** 
 767:Drivers/STM32F7xx_HAL_Driver/Src/stm32f7xx_hal_dcmi.c **** @endverbatim
 768:Drivers/STM32F7xx_HAL_Driver/Src/stm32f7xx_hal_dcmi.c ****   * @{
 769:Drivers/STM32F7xx_HAL_Driver/Src/stm32f7xx_hal_dcmi.c ****   */ 
 770:Drivers/STM32F7xx_HAL_Driver/Src/stm32f7xx_hal_dcmi.c **** 
 771:Drivers/STM32F7xx_HAL_Driver/Src/stm32f7xx_hal_dcmi.c **** /**
ARM GAS  C:\Users\Nina\AppData\Local\Temp\cc8ClKuc.s 			page 15


 772:Drivers/STM32F7xx_HAL_Driver/Src/stm32f7xx_hal_dcmi.c ****   * @brief  Return the DCMI state
 773:Drivers/STM32F7xx_HAL_Driver/Src/stm32f7xx_hal_dcmi.c ****   * @param  hdcmi pointer to a DCMI_HandleTypeDef structure that contains
 774:Drivers/STM32F7xx_HAL_Driver/Src/stm32f7xx_hal_dcmi.c ****   *                the configuration information for DCMI.
 775:Drivers/STM32F7xx_HAL_Driver/Src/stm32f7xx_hal_dcmi.c ****   * @retval HAL state
 776:Drivers/STM32F7xx_HAL_Driver/Src/stm32f7xx_hal_dcmi.c ****   */
 777:Drivers/STM32F7xx_HAL_Driver/Src/stm32f7xx_hal_dcmi.c **** HAL_DCMI_StateTypeDef HAL_DCMI_GetState(DCMI_HandleTypeDef *hdcmi)  
 778:Drivers/STM32F7xx_HAL_Driver/Src/stm32f7xx_hal_dcmi.c **** {
 779:Drivers/STM32F7xx_HAL_Driver/Src/stm32f7xx_hal_dcmi.c ****   return hdcmi->State;
 780:Drivers/STM32F7xx_HAL_Driver/Src/stm32f7xx_hal_dcmi.c **** }
 781:Drivers/STM32F7xx_HAL_Driver/Src/stm32f7xx_hal_dcmi.c **** 
 782:Drivers/STM32F7xx_HAL_Driver/Src/stm32f7xx_hal_dcmi.c **** /**
 783:Drivers/STM32F7xx_HAL_Driver/Src/stm32f7xx_hal_dcmi.c **** * @brief  Return the DCMI error code
 784:Drivers/STM32F7xx_HAL_Driver/Src/stm32f7xx_hal_dcmi.c **** * @param  hdcmi  pointer to a DCMI_HandleTypeDef structure that contains
 785:Drivers/STM32F7xx_HAL_Driver/Src/stm32f7xx_hal_dcmi.c ****   *               the configuration information for DCMI.
 786:Drivers/STM32F7xx_HAL_Driver/Src/stm32f7xx_hal_dcmi.c **** * @retval DCMI Error Code
 787:Drivers/STM32F7xx_HAL_Driver/Src/stm32f7xx_hal_dcmi.c **** */
 788:Drivers/STM32F7xx_HAL_Driver/Src/stm32f7xx_hal_dcmi.c **** uint32_t HAL_DCMI_GetError(DCMI_HandleTypeDef *hdcmi)
 789:Drivers/STM32F7xx_HAL_Driver/Src/stm32f7xx_hal_dcmi.c **** {
 790:Drivers/STM32F7xx_HAL_Driver/Src/stm32f7xx_hal_dcmi.c ****   return hdcmi->ErrorCode;
 791:Drivers/STM32F7xx_HAL_Driver/Src/stm32f7xx_hal_dcmi.c **** }
 792:Drivers/STM32F7xx_HAL_Driver/Src/stm32f7xx_hal_dcmi.c **** 
 793:Drivers/STM32F7xx_HAL_Driver/Src/stm32f7xx_hal_dcmi.c **** /**
 794:Drivers/STM32F7xx_HAL_Driver/Src/stm32f7xx_hal_dcmi.c ****   * @}
 795:Drivers/STM32F7xx_HAL_Driver/Src/stm32f7xx_hal_dcmi.c ****   */
 796:Drivers/STM32F7xx_HAL_Driver/Src/stm32f7xx_hal_dcmi.c **** /* Private functions ---------------------------------------------------------*/
 797:Drivers/STM32F7xx_HAL_Driver/Src/stm32f7xx_hal_dcmi.c **** /** @defgroup DCMI_Private_Functions DCMI Private Functions
 798:Drivers/STM32F7xx_HAL_Driver/Src/stm32f7xx_hal_dcmi.c ****   * @{
 799:Drivers/STM32F7xx_HAL_Driver/Src/stm32f7xx_hal_dcmi.c ****   */
 800:Drivers/STM32F7xx_HAL_Driver/Src/stm32f7xx_hal_dcmi.c ****   /**
 801:Drivers/STM32F7xx_HAL_Driver/Src/stm32f7xx_hal_dcmi.c ****   * @brief  DMA conversion complete callback. 
 802:Drivers/STM32F7xx_HAL_Driver/Src/stm32f7xx_hal_dcmi.c ****   * @param  hdma pointer to a DMA_HandleTypeDef structure that contains
 803:Drivers/STM32F7xx_HAL_Driver/Src/stm32f7xx_hal_dcmi.c ****   *                the configuration information for the specified DMA module.
 804:Drivers/STM32F7xx_HAL_Driver/Src/stm32f7xx_hal_dcmi.c ****   * @retval None
 805:Drivers/STM32F7xx_HAL_Driver/Src/stm32f7xx_hal_dcmi.c ****   */
 806:Drivers/STM32F7xx_HAL_Driver/Src/stm32f7xx_hal_dcmi.c **** static void DCMI_DMAXferCplt(DMA_HandleTypeDef *hdma)
 807:Drivers/STM32F7xx_HAL_Driver/Src/stm32f7xx_hal_dcmi.c **** {
  29              		.loc 1 807 1 view -0
  30              		.cfi_startproc
  31              		@ args = 0, pretend = 0, frame = 0
  32              		@ frame_needed = 0, uses_anonymous_args = 0
  33              		.loc 1 807 1 is_stmt 0 view .LVU1
  34 0000 10B5     		push	{r4, lr}
  35              	.LCFI0:
  36              		.cfi_def_cfa_offset 8
  37              		.cfi_offset 4, -8
  38              		.cfi_offset 14, -4
 808:Drivers/STM32F7xx_HAL_Driver/Src/stm32f7xx_hal_dcmi.c ****   uint32_t tmp = 0;
  39              		.loc 1 808 3 is_stmt 1 view .LVU2
  40              	.LVL1:
 809:Drivers/STM32F7xx_HAL_Driver/Src/stm32f7xx_hal_dcmi.c **** 
 810:Drivers/STM32F7xx_HAL_Driver/Src/stm32f7xx_hal_dcmi.c ****   DCMI_HandleTypeDef* hdcmi = ( DCMI_HandleTypeDef* )((DMA_HandleTypeDef* )hdma)->Parent;
  41              		.loc 1 810 3 view .LVU3
  42              		.loc 1 810 23 is_stmt 0 view .LVU4
  43 0002 846B     		ldr	r4, [r0, #56]
  44              	.LVL2:
 811:Drivers/STM32F7xx_HAL_Driver/Src/stm32f7xx_hal_dcmi.c **** 
 812:Drivers/STM32F7xx_HAL_Driver/Src/stm32f7xx_hal_dcmi.c ****   if(hdcmi->XferCount != 0)
ARM GAS  C:\Users\Nina\AppData\Local\Temp\cc8ClKuc.s 			page 16


  45              		.loc 1 812 3 is_stmt 1 view .LVU5
  46              		.loc 1 812 11 is_stmt 0 view .LVU6
  47 0004 A36B     		ldr	r3, [r4, #56]
  48              		.loc 1 812 5 view .LVU7
  49 0006 43B3     		cbz	r3, .L2
 813:Drivers/STM32F7xx_HAL_Driver/Src/stm32f7xx_hal_dcmi.c ****   {
 814:Drivers/STM32F7xx_HAL_Driver/Src/stm32f7xx_hal_dcmi.c ****     /* Update memory 0 address location */
 815:Drivers/STM32F7xx_HAL_Driver/Src/stm32f7xx_hal_dcmi.c ****     tmp = ((hdcmi->DMA_Handle->Instance->CR) & DMA_SxCR_CT);
  50              		.loc 1 815 5 is_stmt 1 view .LVU8
  51              		.loc 1 815 18 is_stmt 0 view .LVU9
  52 0008 A06C     		ldr	r0, [r4, #72]
  53              	.LVL3:
  54              		.loc 1 815 30 view .LVU10
  55 000a 0268     		ldr	r2, [r0]
  56              		.loc 1 815 40 view .LVU11
  57 000c 1368     		ldr	r3, [r2]
  58              		.loc 1 815 9 view .LVU12
  59 000e 03F40023 		and	r3, r3, #524288
  60              	.LVL4:
 816:Drivers/STM32F7xx_HAL_Driver/Src/stm32f7xx_hal_dcmi.c ****     if(((hdcmi->XferCount % 2) == 0) && (tmp != 0))
  61              		.loc 1 816 5 is_stmt 1 view .LVU13
  62              		.loc 1 816 15 is_stmt 0 view .LVU14
  63 0012 A16B     		ldr	r1, [r4, #56]
  64              		.loc 1 816 7 view .LVU15
  65 0014 11F0010F 		tst	r1, #1
  66 0018 00D1     		bne	.L3
  67              		.loc 1 816 38 discriminator 1 view .LVU16
  68 001a 43B9     		cbnz	r3, .L8
  69              	.L3:
 817:Drivers/STM32F7xx_HAL_Driver/Src/stm32f7xx_hal_dcmi.c ****     {
 818:Drivers/STM32F7xx_HAL_Driver/Src/stm32f7xx_hal_dcmi.c ****       tmp = hdcmi->DMA_Handle->Instance->M0AR;
 819:Drivers/STM32F7xx_HAL_Driver/Src/stm32f7xx_hal_dcmi.c ****       HAL_DMAEx_ChangeMemory(hdcmi->DMA_Handle, (tmp + (8*hdcmi->XferSize)), MEMORY0);
 820:Drivers/STM32F7xx_HAL_Driver/Src/stm32f7xx_hal_dcmi.c ****       hdcmi->XferCount--;
 821:Drivers/STM32F7xx_HAL_Driver/Src/stm32f7xx_hal_dcmi.c ****     }
 822:Drivers/STM32F7xx_HAL_Driver/Src/stm32f7xx_hal_dcmi.c ****     /* Update memory 1 address location */
 823:Drivers/STM32F7xx_HAL_Driver/Src/stm32f7xx_hal_dcmi.c ****     else if((hdcmi->DMA_Handle->Instance->CR & DMA_SxCR_CT) == 0)
  70              		.loc 1 823 10 is_stmt 1 view .LVU17
  71              		.loc 1 823 41 is_stmt 0 view .LVU18
  72 001c 1368     		ldr	r3, [r2]
  73              	.LVL5:
  74              		.loc 1 823 12 view .LVU19
  75 001e 13F4002F 		tst	r3, #524288
  76 0022 0FD0     		beq	.L9
  77              	.L4:
 824:Drivers/STM32F7xx_HAL_Driver/Src/stm32f7xx_hal_dcmi.c ****     {
 825:Drivers/STM32F7xx_HAL_Driver/Src/stm32f7xx_hal_dcmi.c ****       tmp = hdcmi->DMA_Handle->Instance->M1AR;
 826:Drivers/STM32F7xx_HAL_Driver/Src/stm32f7xx_hal_dcmi.c ****       HAL_DMAEx_ChangeMemory(hdcmi->DMA_Handle, (tmp + (8*hdcmi->XferSize)), MEMORY1);
 827:Drivers/STM32F7xx_HAL_Driver/Src/stm32f7xx_hal_dcmi.c ****       hdcmi->XferCount--;
 828:Drivers/STM32F7xx_HAL_Driver/Src/stm32f7xx_hal_dcmi.c ****     }
 829:Drivers/STM32F7xx_HAL_Driver/Src/stm32f7xx_hal_dcmi.c ****   }
 830:Drivers/STM32F7xx_HAL_Driver/Src/stm32f7xx_hal_dcmi.c ****   /* Update memory 0 address location */
 831:Drivers/STM32F7xx_HAL_Driver/Src/stm32f7xx_hal_dcmi.c ****   else if((hdcmi->DMA_Handle->Instance->CR & DMA_SxCR_CT) != 0)
 832:Drivers/STM32F7xx_HAL_Driver/Src/stm32f7xx_hal_dcmi.c ****   {
 833:Drivers/STM32F7xx_HAL_Driver/Src/stm32f7xx_hal_dcmi.c ****     hdcmi->DMA_Handle->Instance->M0AR = hdcmi->pBuffPtr;
 834:Drivers/STM32F7xx_HAL_Driver/Src/stm32f7xx_hal_dcmi.c ****   }
 835:Drivers/STM32F7xx_HAL_Driver/Src/stm32f7xx_hal_dcmi.c ****   /* Update memory 1 address location */
 836:Drivers/STM32F7xx_HAL_Driver/Src/stm32f7xx_hal_dcmi.c ****   else if((hdcmi->DMA_Handle->Instance->CR & DMA_SxCR_CT) == 0)
ARM GAS  C:\Users\Nina\AppData\Local\Temp\cc8ClKuc.s 			page 17


 837:Drivers/STM32F7xx_HAL_Driver/Src/stm32f7xx_hal_dcmi.c ****   {
 838:Drivers/STM32F7xx_HAL_Driver/Src/stm32f7xx_hal_dcmi.c ****     tmp = hdcmi->pBuffPtr;
 839:Drivers/STM32F7xx_HAL_Driver/Src/stm32f7xx_hal_dcmi.c ****     hdcmi->DMA_Handle->Instance->M1AR = (tmp + (4*hdcmi->XferSize));
 840:Drivers/STM32F7xx_HAL_Driver/Src/stm32f7xx_hal_dcmi.c ****     hdcmi->XferCount = hdcmi->XferTransferNumber;
 841:Drivers/STM32F7xx_HAL_Driver/Src/stm32f7xx_hal_dcmi.c ****   }
 842:Drivers/STM32F7xx_HAL_Driver/Src/stm32f7xx_hal_dcmi.c **** 
 843:Drivers/STM32F7xx_HAL_Driver/Src/stm32f7xx_hal_dcmi.c ****   /* Check if the frame is transferred */
 844:Drivers/STM32F7xx_HAL_Driver/Src/stm32f7xx_hal_dcmi.c ****   if(hdcmi->XferCount == hdcmi->XferTransferNumber)
  78              		.loc 1 844 3 is_stmt 1 view .LVU20
  79              		.loc 1 844 11 is_stmt 0 view .LVU21
  80 0024 A26B     		ldr	r2, [r4, #56]
  81              		.loc 1 844 31 view .LVU22
  82 0026 236C     		ldr	r3, [r4, #64]
  83              		.loc 1 844 5 view .LVU23
  84 0028 9A42     		cmp	r2, r3
  85 002a 2BD0     		beq	.L10
  86              	.L1:
 845:Drivers/STM32F7xx_HAL_Driver/Src/stm32f7xx_hal_dcmi.c ****   {
 846:Drivers/STM32F7xx_HAL_Driver/Src/stm32f7xx_hal_dcmi.c ****     /* Enable the Frame interrupt */
 847:Drivers/STM32F7xx_HAL_Driver/Src/stm32f7xx_hal_dcmi.c ****     __HAL_DCMI_ENABLE_IT(hdcmi, DCMI_IT_FRAME);
 848:Drivers/STM32F7xx_HAL_Driver/Src/stm32f7xx_hal_dcmi.c ****     
 849:Drivers/STM32F7xx_HAL_Driver/Src/stm32f7xx_hal_dcmi.c ****     /* When snapshot mode, set dcmi state to ready */
 850:Drivers/STM32F7xx_HAL_Driver/Src/stm32f7xx_hal_dcmi.c ****     if((hdcmi->Instance->CR & DCMI_CR_CM) == DCMI_MODE_SNAPSHOT)
 851:Drivers/STM32F7xx_HAL_Driver/Src/stm32f7xx_hal_dcmi.c ****     {  
 852:Drivers/STM32F7xx_HAL_Driver/Src/stm32f7xx_hal_dcmi.c ****       hdcmi->State= HAL_DCMI_STATE_READY;
 853:Drivers/STM32F7xx_HAL_Driver/Src/stm32f7xx_hal_dcmi.c ****     }
 854:Drivers/STM32F7xx_HAL_Driver/Src/stm32f7xx_hal_dcmi.c ****   }  
 855:Drivers/STM32F7xx_HAL_Driver/Src/stm32f7xx_hal_dcmi.c **** }
  87              		.loc 1 855 1 view .LVU24
  88 002c 10BD     		pop	{r4, pc}
  89              	.LVL6:
  90              	.L8:
 818:Drivers/STM32F7xx_HAL_Driver/Src/stm32f7xx_hal_dcmi.c ****       HAL_DMAEx_ChangeMemory(hdcmi->DMA_Handle, (tmp + (8*hdcmi->XferSize)), MEMORY0);
  91              		.loc 1 818 7 is_stmt 1 view .LVU25
 818:Drivers/STM32F7xx_HAL_Driver/Src/stm32f7xx_hal_dcmi.c ****       HAL_DMAEx_ChangeMemory(hdcmi->DMA_Handle, (tmp + (8*hdcmi->XferSize)), MEMORY0);
  92              		.loc 1 818 11 is_stmt 0 view .LVU26
  93 002e D368     		ldr	r3, [r2, #12]
  94              	.LVL7:
 819:Drivers/STM32F7xx_HAL_Driver/Src/stm32f7xx_hal_dcmi.c ****       hdcmi->XferCount--;
  95              		.loc 1 819 7 is_stmt 1 view .LVU27
 819:Drivers/STM32F7xx_HAL_Driver/Src/stm32f7xx_hal_dcmi.c ****       hdcmi->XferCount--;
  96              		.loc 1 819 64 is_stmt 0 view .LVU28
  97 0030 E16B     		ldr	r1, [r4, #60]
 819:Drivers/STM32F7xx_HAL_Driver/Src/stm32f7xx_hal_dcmi.c ****       hdcmi->XferCount--;
  98              		.loc 1 819 7 view .LVU29
  99 0032 0022     		movs	r2, #0
 100 0034 03EBC101 		add	r1, r3, r1, lsl #3
 101 0038 FFF7FEFF 		bl	HAL_DMAEx_ChangeMemory
 102              	.LVL8:
 820:Drivers/STM32F7xx_HAL_Driver/Src/stm32f7xx_hal_dcmi.c ****     }
 103              		.loc 1 820 7 is_stmt 1 view .LVU30
 820:Drivers/STM32F7xx_HAL_Driver/Src/stm32f7xx_hal_dcmi.c ****     }
 104              		.loc 1 820 12 is_stmt 0 view .LVU31
 105 003c A36B     		ldr	r3, [r4, #56]
 820:Drivers/STM32F7xx_HAL_Driver/Src/stm32f7xx_hal_dcmi.c ****     }
 106              		.loc 1 820 23 view .LVU32
 107 003e 013B     		subs	r3, r3, #1
ARM GAS  C:\Users\Nina\AppData\Local\Temp\cc8ClKuc.s 			page 18


 108 0040 A363     		str	r3, [r4, #56]
 109 0042 EFE7     		b	.L4
 110              	.L9:
 825:Drivers/STM32F7xx_HAL_Driver/Src/stm32f7xx_hal_dcmi.c ****       HAL_DMAEx_ChangeMemory(hdcmi->DMA_Handle, (tmp + (8*hdcmi->XferSize)), MEMORY1);
 111              		.loc 1 825 7 is_stmt 1 view .LVU33
 825:Drivers/STM32F7xx_HAL_Driver/Src/stm32f7xx_hal_dcmi.c ****       HAL_DMAEx_ChangeMemory(hdcmi->DMA_Handle, (tmp + (8*hdcmi->XferSize)), MEMORY1);
 112              		.loc 1 825 11 is_stmt 0 view .LVU34
 113 0044 1369     		ldr	r3, [r2, #16]
 114              	.LVL9:
 826:Drivers/STM32F7xx_HAL_Driver/Src/stm32f7xx_hal_dcmi.c ****       hdcmi->XferCount--;
 115              		.loc 1 826 7 is_stmt 1 view .LVU35
 826:Drivers/STM32F7xx_HAL_Driver/Src/stm32f7xx_hal_dcmi.c ****       hdcmi->XferCount--;
 116              		.loc 1 826 64 is_stmt 0 view .LVU36
 117 0046 E16B     		ldr	r1, [r4, #60]
 826:Drivers/STM32F7xx_HAL_Driver/Src/stm32f7xx_hal_dcmi.c ****       hdcmi->XferCount--;
 118              		.loc 1 826 7 view .LVU37
 119 0048 0122     		movs	r2, #1
 120 004a 03EBC101 		add	r1, r3, r1, lsl #3
 121 004e FFF7FEFF 		bl	HAL_DMAEx_ChangeMemory
 122              	.LVL10:
 827:Drivers/STM32F7xx_HAL_Driver/Src/stm32f7xx_hal_dcmi.c ****     }
 123              		.loc 1 827 7 is_stmt 1 view .LVU38
 827:Drivers/STM32F7xx_HAL_Driver/Src/stm32f7xx_hal_dcmi.c ****     }
 124              		.loc 1 827 12 is_stmt 0 view .LVU39
 125 0052 A36B     		ldr	r3, [r4, #56]
 827:Drivers/STM32F7xx_HAL_Driver/Src/stm32f7xx_hal_dcmi.c ****     }
 126              		.loc 1 827 23 view .LVU40
 127 0054 013B     		subs	r3, r3, #1
 128 0056 A363     		str	r3, [r4, #56]
 129 0058 E4E7     		b	.L4
 130              	.LVL11:
 131              	.L2:
 831:Drivers/STM32F7xx_HAL_Driver/Src/stm32f7xx_hal_dcmi.c ****   {
 132              		.loc 1 831 8 is_stmt 1 view .LVU41
 831:Drivers/STM32F7xx_HAL_Driver/Src/stm32f7xx_hal_dcmi.c ****   {
 133              		.loc 1 831 17 is_stmt 0 view .LVU42
 134 005a A36C     		ldr	r3, [r4, #72]
 831:Drivers/STM32F7xx_HAL_Driver/Src/stm32f7xx_hal_dcmi.c ****   {
 135              		.loc 1 831 29 view .LVU43
 136 005c 1B68     		ldr	r3, [r3]
 831:Drivers/STM32F7xx_HAL_Driver/Src/stm32f7xx_hal_dcmi.c ****   {
 137              		.loc 1 831 39 view .LVU44
 138 005e 1A68     		ldr	r2, [r3]
 831:Drivers/STM32F7xx_HAL_Driver/Src/stm32f7xx_hal_dcmi.c ****   {
 139              		.loc 1 831 10 view .LVU45
 140 0060 12F4002F 		tst	r2, #524288
 141 0064 02D0     		beq	.L5
 833:Drivers/STM32F7xx_HAL_Driver/Src/stm32f7xx_hal_dcmi.c ****   }
 142              		.loc 1 833 5 is_stmt 1 view .LVU46
 833:Drivers/STM32F7xx_HAL_Driver/Src/stm32f7xx_hal_dcmi.c ****   }
 143              		.loc 1 833 46 is_stmt 0 view .LVU47
 144 0066 626C     		ldr	r2, [r4, #68]
 833:Drivers/STM32F7xx_HAL_Driver/Src/stm32f7xx_hal_dcmi.c ****   }
 145              		.loc 1 833 39 view .LVU48
 146 0068 DA60     		str	r2, [r3, #12]
 147 006a DBE7     		b	.L4
 148              	.L5:
ARM GAS  C:\Users\Nina\AppData\Local\Temp\cc8ClKuc.s 			page 19


 836:Drivers/STM32F7xx_HAL_Driver/Src/stm32f7xx_hal_dcmi.c ****   {
 149              		.loc 1 836 8 is_stmt 1 view .LVU49
 836:Drivers/STM32F7xx_HAL_Driver/Src/stm32f7xx_hal_dcmi.c ****   {
 150              		.loc 1 836 39 is_stmt 0 view .LVU50
 151 006c 1A68     		ldr	r2, [r3]
 836:Drivers/STM32F7xx_HAL_Driver/Src/stm32f7xx_hal_dcmi.c ****   {
 152              		.loc 1 836 10 view .LVU51
 153 006e 12F4002F 		tst	r2, #524288
 154 0072 D7D1     		bne	.L4
 838:Drivers/STM32F7xx_HAL_Driver/Src/stm32f7xx_hal_dcmi.c ****     hdcmi->DMA_Handle->Instance->M1AR = (tmp + (4*hdcmi->XferSize));
 155              		.loc 1 838 5 is_stmt 1 view .LVU52
 838:Drivers/STM32F7xx_HAL_Driver/Src/stm32f7xx_hal_dcmi.c ****     hdcmi->DMA_Handle->Instance->M1AR = (tmp + (4*hdcmi->XferSize));
 156              		.loc 1 838 9 is_stmt 0 view .LVU53
 157 0074 626C     		ldr	r2, [r4, #68]
 158              	.LVL12:
 839:Drivers/STM32F7xx_HAL_Driver/Src/stm32f7xx_hal_dcmi.c ****     hdcmi->XferCount = hdcmi->XferTransferNumber;
 159              		.loc 1 839 5 is_stmt 1 view .LVU54
 839:Drivers/STM32F7xx_HAL_Driver/Src/stm32f7xx_hal_dcmi.c ****     hdcmi->XferCount = hdcmi->XferTransferNumber;
 160              		.loc 1 839 56 is_stmt 0 view .LVU55
 161 0076 E16B     		ldr	r1, [r4, #60]
 839:Drivers/STM32F7xx_HAL_Driver/Src/stm32f7xx_hal_dcmi.c ****     hdcmi->XferCount = hdcmi->XferTransferNumber;
 162              		.loc 1 839 46 view .LVU56
 163 0078 02EB8102 		add	r2, r2, r1, lsl #2
 164              	.LVL13:
 839:Drivers/STM32F7xx_HAL_Driver/Src/stm32f7xx_hal_dcmi.c ****     hdcmi->XferCount = hdcmi->XferTransferNumber;
 165              		.loc 1 839 39 view .LVU57
 166 007c 1A61     		str	r2, [r3, #16]
 167              	.LVL14:
 840:Drivers/STM32F7xx_HAL_Driver/Src/stm32f7xx_hal_dcmi.c ****   }
 168              		.loc 1 840 5 is_stmt 1 view .LVU58
 840:Drivers/STM32F7xx_HAL_Driver/Src/stm32f7xx_hal_dcmi.c ****   }
 169              		.loc 1 840 29 is_stmt 0 view .LVU59
 170 007e 236C     		ldr	r3, [r4, #64]
 840:Drivers/STM32F7xx_HAL_Driver/Src/stm32f7xx_hal_dcmi.c ****   }
 171              		.loc 1 840 22 view .LVU60
 172 0080 A363     		str	r3, [r4, #56]
 173 0082 CFE7     		b	.L4
 174              	.LVL15:
 175              	.L10:
 847:Drivers/STM32F7xx_HAL_Driver/Src/stm32f7xx_hal_dcmi.c ****     
 176              		.loc 1 847 5 is_stmt 1 view .LVU61
 177 0084 2268     		ldr	r2, [r4]
 178 0086 D368     		ldr	r3, [r2, #12]
 179 0088 43F00103 		orr	r3, r3, #1
 180 008c D360     		str	r3, [r2, #12]
 850:Drivers/STM32F7xx_HAL_Driver/Src/stm32f7xx_hal_dcmi.c ****     {  
 181              		.loc 1 850 5 view .LVU62
 850:Drivers/STM32F7xx_HAL_Driver/Src/stm32f7xx_hal_dcmi.c ****     {  
 182              		.loc 1 850 14 is_stmt 0 view .LVU63
 183 008e 2368     		ldr	r3, [r4]
 850:Drivers/STM32F7xx_HAL_Driver/Src/stm32f7xx_hal_dcmi.c ****     {  
 184              		.loc 1 850 24 view .LVU64
 185 0090 1B68     		ldr	r3, [r3]
 850:Drivers/STM32F7xx_HAL_Driver/Src/stm32f7xx_hal_dcmi.c ****     {  
 186              		.loc 1 850 7 view .LVU65
 187 0092 13F0020F 		tst	r3, #2
 188 0096 C9D0     		beq	.L1
ARM GAS  C:\Users\Nina\AppData\Local\Temp\cc8ClKuc.s 			page 20


 852:Drivers/STM32F7xx_HAL_Driver/Src/stm32f7xx_hal_dcmi.c ****     }
 189              		.loc 1 852 7 is_stmt 1 view .LVU66
 852:Drivers/STM32F7xx_HAL_Driver/Src/stm32f7xx_hal_dcmi.c ****     }
 190              		.loc 1 852 19 is_stmt 0 view .LVU67
 191 0098 0123     		movs	r3, #1
 192 009a 84F83530 		strb	r3, [r4, #53]
 193              		.loc 1 855 1 view .LVU68
 194 009e C5E7     		b	.L1
 195              		.cfi_endproc
 196              	.LFE156:
 198              		.section	.text.HAL_DCMI_MspInit,"ax",%progbits
 199              		.align	1
 200              		.weak	HAL_DCMI_MspInit
 201              		.syntax unified
 202              		.thumb
 203              		.thumb_func
 204              		.fpu fpv5-sp-d16
 206              	HAL_DCMI_MspInit:
 207              	.LVL16:
 208              	.LFB140:
 240:Drivers/STM32F7xx_HAL_Driver/Src/stm32f7xx_hal_dcmi.c ****   /* Prevent unused argument(s) compilation warning */
 209              		.loc 1 240 1 is_stmt 1 view -0
 210              		.cfi_startproc
 211              		@ args = 0, pretend = 0, frame = 0
 212              		@ frame_needed = 0, uses_anonymous_args = 0
 213              		@ link register save eliminated.
 242:Drivers/STM32F7xx_HAL_Driver/Src/stm32f7xx_hal_dcmi.c ****  
 214              		.loc 1 242 3 view .LVU70
 247:Drivers/STM32F7xx_HAL_Driver/Src/stm32f7xx_hal_dcmi.c **** 
 215              		.loc 1 247 1 is_stmt 0 view .LVU71
 216 0000 7047     		bx	lr
 217              		.cfi_endproc
 218              	.LFE140:
 220              		.section	.text.HAL_DCMI_Init,"ax",%progbits
 221              		.align	1
 222              		.global	HAL_DCMI_Init
 223              		.syntax unified
 224              		.thumb
 225              		.thumb_func
 226              		.fpu fpv5-sp-d16
 228              	HAL_DCMI_Init:
 229              	.LVL17:
 230              	.LFB138:
 144:Drivers/STM32F7xx_HAL_Driver/Src/stm32f7xx_hal_dcmi.c ****   /* Check the DCMI peripheral state */
 231              		.loc 1 144 1 is_stmt 1 view -0
 232              		.cfi_startproc
 233              		@ args = 0, pretend = 0, frame = 0
 234              		@ frame_needed = 0, uses_anonymous_args = 0
 146:Drivers/STM32F7xx_HAL_Driver/Src/stm32f7xx_hal_dcmi.c ****   {
 235              		.loc 1 146 3 view .LVU73
 146:Drivers/STM32F7xx_HAL_Driver/Src/stm32f7xx_hal_dcmi.c ****   {
 236              		.loc 1 146 5 is_stmt 0 view .LVU74
 237 0000 0028     		cmp	r0, #0
 238 0002 44D0     		beq	.L16
 144:Drivers/STM32F7xx_HAL_Driver/Src/stm32f7xx_hal_dcmi.c ****   /* Check the DCMI peripheral state */
 239              		.loc 1 144 1 view .LVU75
 240 0004 10B5     		push	{r4, lr}
ARM GAS  C:\Users\Nina\AppData\Local\Temp\cc8ClKuc.s 			page 21


 241              	.LCFI1:
 242              		.cfi_def_cfa_offset 8
 243              		.cfi_offset 4, -8
 244              		.cfi_offset 14, -4
 245 0006 0446     		mov	r4, r0
 152:Drivers/STM32F7xx_HAL_Driver/Src/stm32f7xx_hal_dcmi.c ****   assert_param(IS_DCMI_PCKPOLARITY(hdcmi->Init.PCKPolarity));
 246              		.loc 1 152 3 is_stmt 1 view .LVU76
 153:Drivers/STM32F7xx_HAL_Driver/Src/stm32f7xx_hal_dcmi.c ****   assert_param(IS_DCMI_VSPOLARITY(hdcmi->Init.VSPolarity));
 247              		.loc 1 153 3 view .LVU77
 154:Drivers/STM32F7xx_HAL_Driver/Src/stm32f7xx_hal_dcmi.c ****   assert_param(IS_DCMI_HSPOLARITY(hdcmi->Init.HSPolarity));
 248              		.loc 1 154 3 view .LVU78
 155:Drivers/STM32F7xx_HAL_Driver/Src/stm32f7xx_hal_dcmi.c ****   assert_param(IS_DCMI_SYNCHRO(hdcmi->Init.SynchroMode));
 249              		.loc 1 155 3 view .LVU79
 156:Drivers/STM32F7xx_HAL_Driver/Src/stm32f7xx_hal_dcmi.c ****   assert_param(IS_DCMI_CAPTURE_RATE(hdcmi->Init.CaptureRate));
 250              		.loc 1 156 3 view .LVU80
 157:Drivers/STM32F7xx_HAL_Driver/Src/stm32f7xx_hal_dcmi.c ****   assert_param(IS_DCMI_EXTENDED_DATA(hdcmi->Init.ExtendedDataMode));
 251              		.loc 1 157 3 view .LVU81
 158:Drivers/STM32F7xx_HAL_Driver/Src/stm32f7xx_hal_dcmi.c ****   assert_param(IS_DCMI_MODE_JPEG(hdcmi->Init.JPEGMode));
 252              		.loc 1 158 3 view .LVU82
 159:Drivers/STM32F7xx_HAL_Driver/Src/stm32f7xx_hal_dcmi.c **** 
 253              		.loc 1 159 3 view .LVU83
 161:Drivers/STM32F7xx_HAL_Driver/Src/stm32f7xx_hal_dcmi.c ****   assert_param(IS_DCMI_BYTE_SELECT_START(hdcmi->Init.ByteSelectStart));
 254              		.loc 1 161 3 view .LVU84
 162:Drivers/STM32F7xx_HAL_Driver/Src/stm32f7xx_hal_dcmi.c ****   assert_param(IS_DCMI_LINE_SELECT_MODE(hdcmi->Init.LineSelectMode));
 255              		.loc 1 162 3 view .LVU85
 163:Drivers/STM32F7xx_HAL_Driver/Src/stm32f7xx_hal_dcmi.c ****   assert_param(IS_DCMI_LINE_SELECT_START(hdcmi->Init.LineSelectStart));
 256              		.loc 1 163 3 view .LVU86
 164:Drivers/STM32F7xx_HAL_Driver/Src/stm32f7xx_hal_dcmi.c ****                 
 257              		.loc 1 164 3 view .LVU87
 166:Drivers/STM32F7xx_HAL_Driver/Src/stm32f7xx_hal_dcmi.c ****   {
 258              		.loc 1 166 3 view .LVU88
 166:Drivers/STM32F7xx_HAL_Driver/Src/stm32f7xx_hal_dcmi.c ****   {
 259              		.loc 1 166 11 is_stmt 0 view .LVU89
 260 0008 90F83530 		ldrb	r3, [r0, #53]	@ zero_extendqisi2
 166:Drivers/STM32F7xx_HAL_Driver/Src/stm32f7xx_hal_dcmi.c ****   {
 261              		.loc 1 166 5 view .LVU90
 262 000c 002B     		cmp	r3, #0
 263 000e 2ED0     		beq	.L21
 264              	.LVL18:
 265              	.L14:
 173:Drivers/STM32F7xx_HAL_Driver/Src/stm32f7xx_hal_dcmi.c ****                           /* Configures the HS, VS, DE and PC polarity */
 266              		.loc 1 173 3 is_stmt 1 view .LVU91
 173:Drivers/STM32F7xx_HAL_Driver/Src/stm32f7xx_hal_dcmi.c ****                           /* Configures the HS, VS, DE and PC polarity */
 267              		.loc 1 173 16 is_stmt 0 view .LVU92
 268 0010 0223     		movs	r3, #2
 269 0012 84F83530 		strb	r3, [r4, #53]
 175:Drivers/STM32F7xx_HAL_Driver/Src/stm32f7xx_hal_dcmi.c ****                            DCMI_CR_EDM_1  | DCMI_CR_FCRC_0 | DCMI_CR_FCRC_1 | DCMI_CR_JPEG  |\
 270              		.loc 1 175 3 is_stmt 1 view .LVU93
 175:Drivers/STM32F7xx_HAL_Driver/Src/stm32f7xx_hal_dcmi.c ****                            DCMI_CR_EDM_1  | DCMI_CR_FCRC_0 | DCMI_CR_FCRC_1 | DCMI_CR_JPEG  |\
 271              		.loc 1 175 8 is_stmt 0 view .LVU94
 272 0016 2268     		ldr	r2, [r4]
 175:Drivers/STM32F7xx_HAL_Driver/Src/stm32f7xx_hal_dcmi.c ****                            DCMI_CR_EDM_1  | DCMI_CR_FCRC_0 | DCMI_CR_FCRC_1 | DCMI_CR_JPEG  |\
 273              		.loc 1 175 23 view .LVU95
 274 0018 1168     		ldr	r1, [r2]
 275 001a 1E4B     		ldr	r3, .L23
 276 001c 0B40     		ands	r3, r3, r1
 277 001e 1360     		str	r3, [r2]
ARM GAS  C:\Users\Nina\AppData\Local\Temp\cc8ClKuc.s 			page 22


 180:Drivers/STM32F7xx_HAL_Driver/Src/stm32f7xx_hal_dcmi.c ****                                      hdcmi->Init.VSPolarity  | hdcmi->Init.HSPolarity  |\
 278              		.loc 1 180 3 is_stmt 1 view .LVU96
 180:Drivers/STM32F7xx_HAL_Driver/Src/stm32f7xx_hal_dcmi.c ****                                      hdcmi->Init.VSPolarity  | hdcmi->Init.HSPolarity  |\
 279              		.loc 1 180 8 is_stmt 0 view .LVU97
 280 0020 2268     		ldr	r2, [r4]
 180:Drivers/STM32F7xx_HAL_Driver/Src/stm32f7xx_hal_dcmi.c ****                                      hdcmi->Init.VSPolarity  | hdcmi->Init.HSPolarity  |\
 281              		.loc 1 180 23 view .LVU98
 282 0022 1168     		ldr	r1, [r2]
 180:Drivers/STM32F7xx_HAL_Driver/Src/stm32f7xx_hal_dcmi.c ****                                      hdcmi->Init.VSPolarity  | hdcmi->Init.HSPolarity  |\
 283              		.loc 1 180 49 view .LVU99
 284 0024 6368     		ldr	r3, [r4, #4]
 180:Drivers/STM32F7xx_HAL_Driver/Src/stm32f7xx_hal_dcmi.c ****                                      hdcmi->Init.VSPolarity  | hdcmi->Init.HSPolarity  |\
 285              		.loc 1 180 75 view .LVU100
 286 0026 6069     		ldr	r0, [r4, #20]
 180:Drivers/STM32F7xx_HAL_Driver/Src/stm32f7xx_hal_dcmi.c ****                                      hdcmi->Init.VSPolarity  | hdcmi->Init.HSPolarity  |\
 287              		.loc 1 180 62 view .LVU101
 288 0028 0343     		orrs	r3, r3, r0
 181:Drivers/STM32F7xx_HAL_Driver/Src/stm32f7xx_hal_dcmi.c ****                                      hdcmi->Init.PCKPolarity | hdcmi->Init.ExtendedDataMode |\
 289              		.loc 1 181 49 view .LVU102
 290 002a E068     		ldr	r0, [r4, #12]
 180:Drivers/STM32F7xx_HAL_Driver/Src/stm32f7xx_hal_dcmi.c ****                                      hdcmi->Init.VSPolarity  | hdcmi->Init.HSPolarity  |\
 291              		.loc 1 180 88 view .LVU103
 292 002c 0343     		orrs	r3, r3, r0
 181:Drivers/STM32F7xx_HAL_Driver/Src/stm32f7xx_hal_dcmi.c ****                                      hdcmi->Init.PCKPolarity | hdcmi->Init.ExtendedDataMode |\
 293              		.loc 1 181 75 view .LVU104
 294 002e 2069     		ldr	r0, [r4, #16]
 181:Drivers/STM32F7xx_HAL_Driver/Src/stm32f7xx_hal_dcmi.c ****                                      hdcmi->Init.PCKPolarity | hdcmi->Init.ExtendedDataMode |\
 295              		.loc 1 181 62 view .LVU105
 296 0030 0343     		orrs	r3, r3, r0
 182:Drivers/STM32F7xx_HAL_Driver/Src/stm32f7xx_hal_dcmi.c ****                                      hdcmi->Init.JPEGMode | hdcmi->Init.ByteSelectMode |\
 297              		.loc 1 182 49 view .LVU106
 298 0032 A068     		ldr	r0, [r4, #8]
 181:Drivers/STM32F7xx_HAL_Driver/Src/stm32f7xx_hal_dcmi.c ****                                      hdcmi->Init.PCKPolarity | hdcmi->Init.ExtendedDataMode |\
 299              		.loc 1 181 88 view .LVU107
 300 0034 0343     		orrs	r3, r3, r0
 182:Drivers/STM32F7xx_HAL_Driver/Src/stm32f7xx_hal_dcmi.c ****                                      hdcmi->Init.JPEGMode | hdcmi->Init.ByteSelectMode |\
 301              		.loc 1 182 75 view .LVU108
 302 0036 A069     		ldr	r0, [r4, #24]
 182:Drivers/STM32F7xx_HAL_Driver/Src/stm32f7xx_hal_dcmi.c ****                                      hdcmi->Init.JPEGMode | hdcmi->Init.ByteSelectMode |\
 303              		.loc 1 182 62 view .LVU109
 304 0038 0343     		orrs	r3, r3, r0
 183:Drivers/STM32F7xx_HAL_Driver/Src/stm32f7xx_hal_dcmi.c ****                                      hdcmi->Init.ByteSelectStart | hdcmi->Init.LineSelectMode |\
 305              		.loc 1 183 49 view .LVU110
 306 003a 206A     		ldr	r0, [r4, #32]
 182:Drivers/STM32F7xx_HAL_Driver/Src/stm32f7xx_hal_dcmi.c ****                                      hdcmi->Init.JPEGMode | hdcmi->Init.ByteSelectMode |\
 307              		.loc 1 182 93 view .LVU111
 308 003c 0343     		orrs	r3, r3, r0
 183:Drivers/STM32F7xx_HAL_Driver/Src/stm32f7xx_hal_dcmi.c ****                                      hdcmi->Init.ByteSelectStart | hdcmi->Init.LineSelectMode |\
 309              		.loc 1 183 72 view .LVU112
 310 003e 606A     		ldr	r0, [r4, #36]
 183:Drivers/STM32F7xx_HAL_Driver/Src/stm32f7xx_hal_dcmi.c ****                                      hdcmi->Init.ByteSelectStart | hdcmi->Init.LineSelectMode |\
 311              		.loc 1 183 59 view .LVU113
 312 0040 0343     		orrs	r3, r3, r0
 184:Drivers/STM32F7xx_HAL_Driver/Src/stm32f7xx_hal_dcmi.c ****                                      hdcmi->Init.LineSelectStart);
 313              		.loc 1 184 49 view .LVU114
 314 0042 A06A     		ldr	r0, [r4, #40]
 183:Drivers/STM32F7xx_HAL_Driver/Src/stm32f7xx_hal_dcmi.c ****                                      hdcmi->Init.ByteSelectStart | hdcmi->Init.LineSelectMode |\
ARM GAS  C:\Users\Nina\AppData\Local\Temp\cc8ClKuc.s 			page 23


 315              		.loc 1 183 88 view .LVU115
 316 0044 0343     		orrs	r3, r3, r0
 184:Drivers/STM32F7xx_HAL_Driver/Src/stm32f7xx_hal_dcmi.c ****                                      hdcmi->Init.LineSelectStart);
 317              		.loc 1 184 79 view .LVU116
 318 0046 E06A     		ldr	r0, [r4, #44]
 184:Drivers/STM32F7xx_HAL_Driver/Src/stm32f7xx_hal_dcmi.c ****                                      hdcmi->Init.LineSelectStart);
 319              		.loc 1 184 66 view .LVU117
 320 0048 0343     		orrs	r3, r3, r0
 185:Drivers/STM32F7xx_HAL_Driver/Src/stm32f7xx_hal_dcmi.c ****                                      
 321              		.loc 1 185 49 view .LVU118
 322 004a 206B     		ldr	r0, [r4, #48]
 184:Drivers/STM32F7xx_HAL_Driver/Src/stm32f7xx_hal_dcmi.c ****                                      hdcmi->Init.LineSelectStart);
 323              		.loc 1 184 95 view .LVU119
 324 004c 0343     		orrs	r3, r3, r0
 180:Drivers/STM32F7xx_HAL_Driver/Src/stm32f7xx_hal_dcmi.c ****                                      hdcmi->Init.VSPolarity  | hdcmi->Init.HSPolarity  |\
 325              		.loc 1 180 23 view .LVU120
 326 004e 0B43     		orrs	r3, r3, r1
 327 0050 1360     		str	r3, [r2]
 187:Drivers/STM32F7xx_HAL_Driver/Src/stm32f7xx_hal_dcmi.c ****   {
 328              		.loc 1 187 3 is_stmt 1 view .LVU121
 187:Drivers/STM32F7xx_HAL_Driver/Src/stm32f7xx_hal_dcmi.c ****   {
 329              		.loc 1 187 17 is_stmt 0 view .LVU122
 330 0052 6368     		ldr	r3, [r4, #4]
 187:Drivers/STM32F7xx_HAL_Driver/Src/stm32f7xx_hal_dcmi.c ****   {
 331              		.loc 1 187 5 view .LVU123
 332 0054 102B     		cmp	r3, #16
 333 0056 0DD0     		beq	.L22
 334              	.L15:
 197:Drivers/STM32F7xx_HAL_Driver/Src/stm32f7xx_hal_dcmi.c **** 
 335              		.loc 1 197 3 is_stmt 1 view .LVU124
 336 0058 2268     		ldr	r2, [r4]
 337 005a D368     		ldr	r3, [r2, #12]
 338 005c 43F01E03 		orr	r3, r3, #30
 339 0060 D360     		str	r3, [r2, #12]
 200:Drivers/STM32F7xx_HAL_Driver/Src/stm32f7xx_hal_dcmi.c ****   
 340              		.loc 1 200 3 view .LVU125
 200:Drivers/STM32F7xx_HAL_Driver/Src/stm32f7xx_hal_dcmi.c ****   
 341              		.loc 1 200 20 is_stmt 0 view .LVU126
 342 0062 0020     		movs	r0, #0
 343 0064 E064     		str	r0, [r4, #76]
 203:Drivers/STM32F7xx_HAL_Driver/Src/stm32f7xx_hal_dcmi.c **** 
 344              		.loc 1 203 3 is_stmt 1 view .LVU127
 203:Drivers/STM32F7xx_HAL_Driver/Src/stm32f7xx_hal_dcmi.c **** 
 345              		.loc 1 203 17 is_stmt 0 view .LVU128
 346 0066 0123     		movs	r3, #1
 347 0068 84F83530 		strb	r3, [r4, #53]
 205:Drivers/STM32F7xx_HAL_Driver/Src/stm32f7xx_hal_dcmi.c **** }
 348              		.loc 1 205 3 is_stmt 1 view .LVU129
 206:Drivers/STM32F7xx_HAL_Driver/Src/stm32f7xx_hal_dcmi.c **** 
 349              		.loc 1 206 1 is_stmt 0 view .LVU130
 350 006c 10BD     		pop	{r4, pc}
 351              	.LVL19:
 352              	.L21:
 169:Drivers/STM32F7xx_HAL_Driver/Src/stm32f7xx_hal_dcmi.c ****   } 
 353              		.loc 1 169 5 is_stmt 1 view .LVU131
 354 006e FFF7FEFF 		bl	HAL_DCMI_MspInit
 355              	.LVL20:
ARM GAS  C:\Users\Nina\AppData\Local\Temp\cc8ClKuc.s 			page 24


 169:Drivers/STM32F7xx_HAL_Driver/Src/stm32f7xx_hal_dcmi.c ****   } 
 356              		.loc 1 169 5 is_stmt 0 view .LVU132
 357 0072 CDE7     		b	.L14
 358              	.L22:
 189:Drivers/STM32F7xx_HAL_Driver/Src/stm32f7xx_hal_dcmi.c ****                              ((uint32_t)hdcmi->Init.SyncroCode.LineStartCode << DCMI_ESCR_LSC_Pos)|
 359              		.loc 1 189 5 is_stmt 1 view .LVU133
 189:Drivers/STM32F7xx_HAL_Driver/Src/stm32f7xx_hal_dcmi.c ****                              ((uint32_t)hdcmi->Init.SyncroCode.LineStartCode << DCMI_ESCR_LSC_Pos)|
 360              		.loc 1 189 63 is_stmt 0 view .LVU134
 361 0074 237F     		ldrb	r3, [r4, #28]	@ zero_extendqisi2
 190:Drivers/STM32F7xx_HAL_Driver/Src/stm32f7xx_hal_dcmi.c ****                              ((uint32_t)hdcmi->Init.SyncroCode.LineEndCode << DCMI_ESCR_LEC_Pos) |\
 362              		.loc 1 190 63 view .LVU135
 363 0076 627F     		ldrb	r2, [r4, #29]	@ zero_extendqisi2
 189:Drivers/STM32F7xx_HAL_Driver/Src/stm32f7xx_hal_dcmi.c ****                              ((uint32_t)hdcmi->Init.SyncroCode.LineStartCode << DCMI_ESCR_LSC_Pos)|
 364              		.loc 1 189 83 view .LVU136
 365 0078 43EA0223 		orr	r3, r3, r2, lsl #8
 191:Drivers/STM32F7xx_HAL_Driver/Src/stm32f7xx_hal_dcmi.c ****                              ((uint32_t)hdcmi->Init.SyncroCode.FrameEndCode << DCMI_ESCR_FEC_Pos));
 366              		.loc 1 191 63 view .LVU137
 367 007c A27F     		ldrb	r2, [r4, #30]	@ zero_extendqisi2
 190:Drivers/STM32F7xx_HAL_Driver/Src/stm32f7xx_hal_dcmi.c ****                              ((uint32_t)hdcmi->Init.SyncroCode.LineEndCode << DCMI_ESCR_LEC_Pos) |\
 368              		.loc 1 190 99 view .LVU138
 369 007e 43EA0243 		orr	r3, r3, r2, lsl #16
 192:Drivers/STM32F7xx_HAL_Driver/Src/stm32f7xx_hal_dcmi.c **** 
 370              		.loc 1 192 63 view .LVU139
 371 0082 E17F     		ldrb	r1, [r4, #31]	@ zero_extendqisi2
 189:Drivers/STM32F7xx_HAL_Driver/Src/stm32f7xx_hal_dcmi.c ****                              ((uint32_t)hdcmi->Init.SyncroCode.LineStartCode << DCMI_ESCR_LSC_Pos)|
 372              		.loc 1 189 10 view .LVU140
 373 0084 2268     		ldr	r2, [r4]
 191:Drivers/STM32F7xx_HAL_Driver/Src/stm32f7xx_hal_dcmi.c ****                              ((uint32_t)hdcmi->Init.SyncroCode.FrameEndCode << DCMI_ESCR_FEC_Pos));
 374              		.loc 1 191 98 view .LVU141
 375 0086 43EA0163 		orr	r3, r3, r1, lsl #24
 189:Drivers/STM32F7xx_HAL_Driver/Src/stm32f7xx_hal_dcmi.c ****                              ((uint32_t)hdcmi->Init.SyncroCode.LineStartCode << DCMI_ESCR_LSC_Pos)|
 376              		.loc 1 189 27 view .LVU142
 377 008a 9361     		str	r3, [r2, #24]
 378 008c E4E7     		b	.L15
 379              	.LVL21:
 380              	.L16:
 381              	.LCFI2:
 382              		.cfi_def_cfa_offset 0
 383              		.cfi_restore 4
 384              		.cfi_restore 14
 148:Drivers/STM32F7xx_HAL_Driver/Src/stm32f7xx_hal_dcmi.c ****   }
 385              		.loc 1 148 13 view .LVU143
 386 008e 0120     		movs	r0, #1
 387              	.LVL22:
 206:Drivers/STM32F7xx_HAL_Driver/Src/stm32f7xx_hal_dcmi.c **** 
 388              		.loc 1 206 1 view .LVU144
 389 0090 7047     		bx	lr
 390              	.L24:
 391 0092 00BF     		.align	2
 392              	.L23:
 393 0094 07F0E0FF 		.word	-2035705
 394              		.cfi_endproc
 395              	.LFE138:
 397              		.section	.text.HAL_DCMI_MspDeInit,"ax",%progbits
 398              		.align	1
 399              		.weak	HAL_DCMI_MspDeInit
 400              		.syntax unified
ARM GAS  C:\Users\Nina\AppData\Local\Temp\cc8ClKuc.s 			page 25


 401              		.thumb
 402              		.thumb_func
 403              		.fpu fpv5-sp-d16
 405              	HAL_DCMI_MspDeInit:
 406              	.LVL23:
 407              	.LFB141:
 256:Drivers/STM32F7xx_HAL_Driver/Src/stm32f7xx_hal_dcmi.c ****   /* Prevent unused argument(s) compilation warning */
 408              		.loc 1 256 1 is_stmt 1 view -0
 409              		.cfi_startproc
 410              		@ args = 0, pretend = 0, frame = 0
 411              		@ frame_needed = 0, uses_anonymous_args = 0
 412              		@ link register save eliminated.
 258:Drivers/STM32F7xx_HAL_Driver/Src/stm32f7xx_hal_dcmi.c ****  
 413              		.loc 1 258 3 view .LVU146
 263:Drivers/STM32F7xx_HAL_Driver/Src/stm32f7xx_hal_dcmi.c **** 
 414              		.loc 1 263 1 is_stmt 0 view .LVU147
 415 0000 7047     		bx	lr
 416              		.cfi_endproc
 417              	.LFE141:
 419              		.section	.text.HAL_DCMI_DeInit,"ax",%progbits
 420              		.align	1
 421              		.global	HAL_DCMI_DeInit
 422              		.syntax unified
 423              		.thumb
 424              		.thumb_func
 425              		.fpu fpv5-sp-d16
 427              	HAL_DCMI_DeInit:
 428              	.LVL24:
 429              	.LFB139:
 217:Drivers/STM32F7xx_HAL_Driver/Src/stm32f7xx_hal_dcmi.c ****   /* DeInit the low level hardware */
 430              		.loc 1 217 1 is_stmt 1 view -0
 431              		.cfi_startproc
 432              		@ args = 0, pretend = 0, frame = 0
 433              		@ frame_needed = 0, uses_anonymous_args = 0
 217:Drivers/STM32F7xx_HAL_Driver/Src/stm32f7xx_hal_dcmi.c ****   /* DeInit the low level hardware */
 434              		.loc 1 217 1 is_stmt 0 view .LVU149
 435 0000 10B5     		push	{r4, lr}
 436              	.LCFI3:
 437              		.cfi_def_cfa_offset 8
 438              		.cfi_offset 4, -8
 439              		.cfi_offset 14, -4
 440 0002 0446     		mov	r4, r0
 219:Drivers/STM32F7xx_HAL_Driver/Src/stm32f7xx_hal_dcmi.c **** 
 441              		.loc 1 219 3 is_stmt 1 view .LVU150
 442 0004 FFF7FEFF 		bl	HAL_DCMI_MspDeInit
 443              	.LVL25:
 222:Drivers/STM32F7xx_HAL_Driver/Src/stm32f7xx_hal_dcmi.c **** 
 444              		.loc 1 222 3 view .LVU151
 222:Drivers/STM32F7xx_HAL_Driver/Src/stm32f7xx_hal_dcmi.c **** 
 445              		.loc 1 222 20 is_stmt 0 view .LVU152
 446 0008 0020     		movs	r0, #0
 447 000a E064     		str	r0, [r4, #76]
 225:Drivers/STM32F7xx_HAL_Driver/Src/stm32f7xx_hal_dcmi.c **** 
 448              		.loc 1 225 3 is_stmt 1 view .LVU153
 225:Drivers/STM32F7xx_HAL_Driver/Src/stm32f7xx_hal_dcmi.c **** 
 449              		.loc 1 225 16 is_stmt 0 view .LVU154
 450 000c 84F83500 		strb	r0, [r4, #53]
ARM GAS  C:\Users\Nina\AppData\Local\Temp\cc8ClKuc.s 			page 26


 228:Drivers/STM32F7xx_HAL_Driver/Src/stm32f7xx_hal_dcmi.c **** 
 451              		.loc 1 228 3 is_stmt 1 view .LVU155
 228:Drivers/STM32F7xx_HAL_Driver/Src/stm32f7xx_hal_dcmi.c **** 
 452              		.loc 1 228 3 view .LVU156
 453 0010 84F83400 		strb	r0, [r4, #52]
 228:Drivers/STM32F7xx_HAL_Driver/Src/stm32f7xx_hal_dcmi.c **** 
 454              		.loc 1 228 3 view .LVU157
 230:Drivers/STM32F7xx_HAL_Driver/Src/stm32f7xx_hal_dcmi.c **** }
 455              		.loc 1 230 3 view .LVU158
 231:Drivers/STM32F7xx_HAL_Driver/Src/stm32f7xx_hal_dcmi.c **** 
 456              		.loc 1 231 1 is_stmt 0 view .LVU159
 457 0014 10BD     		pop	{r4, pc}
 231:Drivers/STM32F7xx_HAL_Driver/Src/stm32f7xx_hal_dcmi.c **** 
 458              		.loc 1 231 1 view .LVU160
 459              		.cfi_endproc
 460              	.LFE139:
 462              		.section	.text.HAL_DCMI_Start_DMA,"ax",%progbits
 463              		.align	1
 464              		.global	HAL_DCMI_Start_DMA
 465              		.syntax unified
 466              		.thumb
 467              		.thumb_func
 468              		.fpu fpv5-sp-d16
 470              	HAL_DCMI_Start_DMA:
 471              	.LVL26:
 472              	.LFB142:
 295:Drivers/STM32F7xx_HAL_Driver/Src/stm32f7xx_hal_dcmi.c ****   /* Initialize the second memory address */
 473              		.loc 1 295 1 is_stmt 1 view -0
 474              		.cfi_startproc
 475              		@ args = 0, pretend = 0, frame = 0
 476              		@ frame_needed = 0, uses_anonymous_args = 0
 295:Drivers/STM32F7xx_HAL_Driver/Src/stm32f7xx_hal_dcmi.c ****   /* Initialize the second memory address */
 477              		.loc 1 295 1 is_stmt 0 view .LVU162
 478 0000 30B5     		push	{r4, r5, lr}
 479              	.LCFI4:
 480              		.cfi_def_cfa_offset 12
 481              		.cfi_offset 4, -12
 482              		.cfi_offset 5, -8
 483              		.cfi_offset 14, -4
 484 0002 83B0     		sub	sp, sp, #12
 485              	.LCFI5:
 486              		.cfi_def_cfa_offset 24
 487 0004 0446     		mov	r4, r0
 297:Drivers/STM32F7xx_HAL_Driver/Src/stm32f7xx_hal_dcmi.c **** 
 488              		.loc 1 297 3 is_stmt 1 view .LVU163
 489              	.LVL27:
 300:Drivers/STM32F7xx_HAL_Driver/Src/stm32f7xx_hal_dcmi.c **** 
 490              		.loc 1 300 3 view .LVU164
 303:Drivers/STM32F7xx_HAL_Driver/Src/stm32f7xx_hal_dcmi.c ****   
 491              		.loc 1 303 3 view .LVU165
 303:Drivers/STM32F7xx_HAL_Driver/Src/stm32f7xx_hal_dcmi.c ****   
 492              		.loc 1 303 3 view .LVU166
 493 0006 90F83400 		ldrb	r0, [r0, #52]	@ zero_extendqisi2
 494              	.LVL28:
 303:Drivers/STM32F7xx_HAL_Driver/Src/stm32f7xx_hal_dcmi.c ****   
 495              		.loc 1 303 3 is_stmt 0 view .LVU167
 496 000a 0128     		cmp	r0, #1
ARM GAS  C:\Users\Nina\AppData\Local\Temp\cc8ClKuc.s 			page 27


 497 000c 52D0     		beq	.L34
 303:Drivers/STM32F7xx_HAL_Driver/Src/stm32f7xx_hal_dcmi.c ****   
 498              		.loc 1 303 3 is_stmt 1 discriminator 2 view .LVU168
 499 000e 0120     		movs	r0, #1
 500 0010 84F83400 		strb	r0, [r4, #52]
 303:Drivers/STM32F7xx_HAL_Driver/Src/stm32f7xx_hal_dcmi.c ****   
 501              		.loc 1 303 3 discriminator 2 view .LVU169
 306:Drivers/STM32F7xx_HAL_Driver/Src/stm32f7xx_hal_dcmi.c **** 
 502              		.loc 1 306 3 discriminator 2 view .LVU170
 306:Drivers/STM32F7xx_HAL_Driver/Src/stm32f7xx_hal_dcmi.c **** 
 503              		.loc 1 306 16 is_stmt 0 discriminator 2 view .LVU171
 504 0014 0220     		movs	r0, #2
 505 0016 84F83500 		strb	r0, [r4, #53]
 309:Drivers/STM32F7xx_HAL_Driver/Src/stm32f7xx_hal_dcmi.c ****   
 506              		.loc 1 309 3 is_stmt 1 discriminator 2 view .LVU172
 507 001a 2568     		ldr	r5, [r4]
 508 001c 2868     		ldr	r0, [r5]
 509 001e 40F48040 		orr	r0, r0, #16384
 510 0022 2860     		str	r0, [r5]
 312:Drivers/STM32F7xx_HAL_Driver/Src/stm32f7xx_hal_dcmi.c ****   hdcmi->Instance->CR |=  (uint32_t)(DCMI_Mode);
 511              		.loc 1 312 3 discriminator 2 view .LVU173
 312:Drivers/STM32F7xx_HAL_Driver/Src/stm32f7xx_hal_dcmi.c ****   hdcmi->Instance->CR |=  (uint32_t)(DCMI_Mode);
 512              		.loc 1 312 8 is_stmt 0 discriminator 2 view .LVU174
 513 0024 2568     		ldr	r5, [r4]
 312:Drivers/STM32F7xx_HAL_Driver/Src/stm32f7xx_hal_dcmi.c ****   hdcmi->Instance->CR |=  (uint32_t)(DCMI_Mode);
 514              		.loc 1 312 23 discriminator 2 view .LVU175
 515 0026 2868     		ldr	r0, [r5]
 516 0028 20F00200 		bic	r0, r0, #2
 517 002c 2860     		str	r0, [r5]
 313:Drivers/STM32F7xx_HAL_Driver/Src/stm32f7xx_hal_dcmi.c **** 
 518              		.loc 1 313 3 is_stmt 1 discriminator 2 view .LVU176
 313:Drivers/STM32F7xx_HAL_Driver/Src/stm32f7xx_hal_dcmi.c **** 
 519              		.loc 1 313 8 is_stmt 0 discriminator 2 view .LVU177
 520 002e 2568     		ldr	r5, [r4]
 313:Drivers/STM32F7xx_HAL_Driver/Src/stm32f7xx_hal_dcmi.c **** 
 521              		.loc 1 313 23 discriminator 2 view .LVU178
 522 0030 2868     		ldr	r0, [r5]
 523 0032 0143     		orrs	r1, r1, r0
 524              	.LVL29:
 313:Drivers/STM32F7xx_HAL_Driver/Src/stm32f7xx_hal_dcmi.c **** 
 525              		.loc 1 313 23 discriminator 2 view .LVU179
 526 0034 2960     		str	r1, [r5]
 316:Drivers/STM32F7xx_HAL_Driver/Src/stm32f7xx_hal_dcmi.c **** 
 527              		.loc 1 316 3 is_stmt 1 discriminator 2 view .LVU180
 316:Drivers/STM32F7xx_HAL_Driver/Src/stm32f7xx_hal_dcmi.c **** 
 528              		.loc 1 316 8 is_stmt 0 discriminator 2 view .LVU181
 529 0036 A16C     		ldr	r1, [r4, #72]
 316:Drivers/STM32F7xx_HAL_Driver/Src/stm32f7xx_hal_dcmi.c **** 
 530              		.loc 1 316 39 discriminator 2 view .LVU182
 531 0038 1F48     		ldr	r0, .L37
 532 003a C863     		str	r0, [r1, #60]
 319:Drivers/STM32F7xx_HAL_Driver/Src/stm32f7xx_hal_dcmi.c **** 
 533              		.loc 1 319 3 is_stmt 1 discriminator 2 view .LVU183
 319:Drivers/STM32F7xx_HAL_Driver/Src/stm32f7xx_hal_dcmi.c **** 
 534              		.loc 1 319 8 is_stmt 0 discriminator 2 view .LVU184
 535 003c A16C     		ldr	r1, [r4, #72]
 319:Drivers/STM32F7xx_HAL_Driver/Src/stm32f7xx_hal_dcmi.c **** 
ARM GAS  C:\Users\Nina\AppData\Local\Temp\cc8ClKuc.s 			page 28


 536              		.loc 1 319 40 discriminator 2 view .LVU185
 537 003e 1F48     		ldr	r0, .L37+4
 538 0040 C864     		str	r0, [r1, #76]
 322:Drivers/STM32F7xx_HAL_Driver/Src/stm32f7xx_hal_dcmi.c **** 
 539              		.loc 1 322 3 is_stmt 1 discriminator 2 view .LVU186
 322:Drivers/STM32F7xx_HAL_Driver/Src/stm32f7xx_hal_dcmi.c **** 
 540              		.loc 1 322 8 is_stmt 0 discriminator 2 view .LVU187
 541 0042 A06C     		ldr	r0, [r4, #72]
 322:Drivers/STM32F7xx_HAL_Driver/Src/stm32f7xx_hal_dcmi.c **** 
 542              		.loc 1 322 40 discriminator 2 view .LVU188
 543 0044 0021     		movs	r1, #0
 544 0046 0165     		str	r1, [r0, #80]
 325:Drivers/STM32F7xx_HAL_Driver/Src/stm32f7xx_hal_dcmi.c ****   hdcmi->XferTransferNumber = 0;
 545              		.loc 1 325 3 is_stmt 1 discriminator 2 view .LVU189
 325:Drivers/STM32F7xx_HAL_Driver/Src/stm32f7xx_hal_dcmi.c ****   hdcmi->XferTransferNumber = 0;
 546              		.loc 1 325 20 is_stmt 0 discriminator 2 view .LVU190
 547 0048 A163     		str	r1, [r4, #56]
 326:Drivers/STM32F7xx_HAL_Driver/Src/stm32f7xx_hal_dcmi.c ****   
 548              		.loc 1 326 3 is_stmt 1 discriminator 2 view .LVU191
 326:Drivers/STM32F7xx_HAL_Driver/Src/stm32f7xx_hal_dcmi.c ****   
 549              		.loc 1 326 29 is_stmt 0 discriminator 2 view .LVU192
 550 004a 2164     		str	r1, [r4, #64]
 328:Drivers/STM32F7xx_HAL_Driver/Src/stm32f7xx_hal_dcmi.c ****   {
 551              		.loc 1 328 3 is_stmt 1 discriminator 2 view .LVU193
 328:Drivers/STM32F7xx_HAL_Driver/Src/stm32f7xx_hal_dcmi.c ****   {
 552              		.loc 1 328 5 is_stmt 0 discriminator 2 view .LVU194
 553 004c B3F5803F 		cmp	r3, #65536
 554 0050 07D3     		bcc	.L36
 336:Drivers/STM32F7xx_HAL_Driver/Src/stm32f7xx_hal_dcmi.c **** 
 555              		.loc 1 336 5 is_stmt 1 view .LVU195
 336:Drivers/STM32F7xx_HAL_Driver/Src/stm32f7xx_hal_dcmi.c **** 
 556              		.loc 1 336 10 is_stmt 0 view .LVU196
 557 0052 A16C     		ldr	r1, [r4, #72]
 336:Drivers/STM32F7xx_HAL_Driver/Src/stm32f7xx_hal_dcmi.c **** 
 558              		.loc 1 336 43 view .LVU197
 559 0054 1848     		ldr	r0, .L37
 560 0056 4864     		str	r0, [r1, #68]
 339:Drivers/STM32F7xx_HAL_Driver/Src/stm32f7xx_hal_dcmi.c ****     hdcmi->XferSize = Length;
 561              		.loc 1 339 5 is_stmt 1 view .LVU198
 339:Drivers/STM32F7xx_HAL_Driver/Src/stm32f7xx_hal_dcmi.c ****     hdcmi->XferSize = Length;
 562              		.loc 1 339 22 is_stmt 0 view .LVU199
 563 0058 0121     		movs	r1, #1
 564 005a A163     		str	r1, [r4, #56]
 340:Drivers/STM32F7xx_HAL_Driver/Src/stm32f7xx_hal_dcmi.c ****     hdcmi->pBuffPtr = pData;
 565              		.loc 1 340 5 is_stmt 1 view .LVU200
 340:Drivers/STM32F7xx_HAL_Driver/Src/stm32f7xx_hal_dcmi.c ****     hdcmi->pBuffPtr = pData;
 566              		.loc 1 340 21 is_stmt 0 view .LVU201
 567 005c E363     		str	r3, [r4, #60]
 341:Drivers/STM32F7xx_HAL_Driver/Src/stm32f7xx_hal_dcmi.c ****       
 568              		.loc 1 341 5 is_stmt 1 view .LVU202
 341:Drivers/STM32F7xx_HAL_Driver/Src/stm32f7xx_hal_dcmi.c ****       
 569              		.loc 1 341 21 is_stmt 0 view .LVU203
 570 005e 6264     		str	r2, [r4, #68]
 344:Drivers/STM32F7xx_HAL_Driver/Src/stm32f7xx_hal_dcmi.c ****     {
 571              		.loc 1 344 5 is_stmt 1 view .LVU204
 344:Drivers/STM32F7xx_HAL_Driver/Src/stm32f7xx_hal_dcmi.c ****     {
 572              		.loc 1 344 10 is_stmt 0 view .LVU205
ARM GAS  C:\Users\Nina\AppData\Local\Temp\cc8ClKuc.s 			page 29


 573 0060 0BE0     		b	.L32
 574              	.L36:
 331:Drivers/STM32F7xx_HAL_Driver/Src/stm32f7xx_hal_dcmi.c ****   }
 575              		.loc 1 331 5 is_stmt 1 view .LVU206
 331:Drivers/STM32F7xx_HAL_Driver/Src/stm32f7xx_hal_dcmi.c ****   }
 576              		.loc 1 331 57 is_stmt 0 view .LVU207
 577 0062 2168     		ldr	r1, [r4]
 331:Drivers/STM32F7xx_HAL_Driver/Src/stm32f7xx_hal_dcmi.c ****   }
 578              		.loc 1 331 5 view .LVU208
 579 0064 2831     		adds	r1, r1, #40
 580 0066 A06C     		ldr	r0, [r4, #72]
 581 0068 FFF7FEFF 		bl	HAL_DMA_Start_IT
 582              	.LVL30:
 331:Drivers/STM32F7xx_HAL_Driver/Src/stm32f7xx_hal_dcmi.c ****   }
 583              		.loc 1 331 5 view .LVU209
 584 006c 18E0     		b	.L31
 585              	.LVL31:
 586              	.L33:
 346:Drivers/STM32F7xx_HAL_Driver/Src/stm32f7xx_hal_dcmi.c ****       hdcmi->XferCount = hdcmi->XferCount*2;
 587              		.loc 1 346 7 is_stmt 1 view .LVU210
 346:Drivers/STM32F7xx_HAL_Driver/Src/stm32f7xx_hal_dcmi.c ****       hdcmi->XferCount = hdcmi->XferCount*2;
 588              		.loc 1 346 31 is_stmt 0 view .LVU211
 589 006e E36B     		ldr	r3, [r4, #60]
 346:Drivers/STM32F7xx_HAL_Driver/Src/stm32f7xx_hal_dcmi.c ****       hdcmi->XferCount = hdcmi->XferCount*2;
 590              		.loc 1 346 41 view .LVU212
 591 0070 5B08     		lsrs	r3, r3, #1
 346:Drivers/STM32F7xx_HAL_Driver/Src/stm32f7xx_hal_dcmi.c ****       hdcmi->XferCount = hdcmi->XferCount*2;
 592              		.loc 1 346 23 view .LVU213
 593 0072 E363     		str	r3, [r4, #60]
 347:Drivers/STM32F7xx_HAL_Driver/Src/stm32f7xx_hal_dcmi.c ****     }
 594              		.loc 1 347 7 is_stmt 1 view .LVU214
 347:Drivers/STM32F7xx_HAL_Driver/Src/stm32f7xx_hal_dcmi.c ****     }
 595              		.loc 1 347 31 is_stmt 0 view .LVU215
 596 0074 A36B     		ldr	r3, [r4, #56]
 347:Drivers/STM32F7xx_HAL_Driver/Src/stm32f7xx_hal_dcmi.c ****     }
 597              		.loc 1 347 42 view .LVU216
 598 0076 5B00     		lsls	r3, r3, #1
 347:Drivers/STM32F7xx_HAL_Driver/Src/stm32f7xx_hal_dcmi.c ****     }
 599              		.loc 1 347 24 view .LVU217
 600 0078 A363     		str	r3, [r4, #56]
 601              	.L32:
 344:Drivers/STM32F7xx_HAL_Driver/Src/stm32f7xx_hal_dcmi.c ****     {
 602              		.loc 1 344 10 is_stmt 1 view .LVU218
 344:Drivers/STM32F7xx_HAL_Driver/Src/stm32f7xx_hal_dcmi.c ****     {
 603              		.loc 1 344 16 is_stmt 0 view .LVU219
 604 007a E36B     		ldr	r3, [r4, #60]
 344:Drivers/STM32F7xx_HAL_Driver/Src/stm32f7xx_hal_dcmi.c ****     {
 605              		.loc 1 344 10 view .LVU220
 606 007c B3F5803F 		cmp	r3, #65536
 607 0080 F5D2     		bcs	.L33
 351:Drivers/STM32F7xx_HAL_Driver/Src/stm32f7xx_hal_dcmi.c ****     hdcmi->XferTransferNumber = hdcmi->XferCount;
 608              		.loc 1 351 5 is_stmt 1 view .LVU221
 351:Drivers/STM32F7xx_HAL_Driver/Src/stm32f7xx_hal_dcmi.c ****     hdcmi->XferTransferNumber = hdcmi->XferCount;
 609              		.loc 1 351 30 is_stmt 0 view .LVU222
 610 0082 A36B     		ldr	r3, [r4, #56]
 351:Drivers/STM32F7xx_HAL_Driver/Src/stm32f7xx_hal_dcmi.c ****     hdcmi->XferTransferNumber = hdcmi->XferCount;
 611              		.loc 1 351 42 view .LVU223
ARM GAS  C:\Users\Nina\AppData\Local\Temp\cc8ClKuc.s 			page 30


 612 0084 023B     		subs	r3, r3, #2
 351:Drivers/STM32F7xx_HAL_Driver/Src/stm32f7xx_hal_dcmi.c ****     hdcmi->XferTransferNumber = hdcmi->XferCount;
 613              		.loc 1 351 22 view .LVU224
 614 0086 A363     		str	r3, [r4, #56]
 352:Drivers/STM32F7xx_HAL_Driver/Src/stm32f7xx_hal_dcmi.c **** 
 615              		.loc 1 352 5 is_stmt 1 view .LVU225
 352:Drivers/STM32F7xx_HAL_Driver/Src/stm32f7xx_hal_dcmi.c **** 
 616              		.loc 1 352 38 is_stmt 0 view .LVU226
 617 0088 A36B     		ldr	r3, [r4, #56]
 352:Drivers/STM32F7xx_HAL_Driver/Src/stm32f7xx_hal_dcmi.c **** 
 618              		.loc 1 352 31 view .LVU227
 619 008a 2364     		str	r3, [r4, #64]
 355:Drivers/STM32F7xx_HAL_Driver/Src/stm32f7xx_hal_dcmi.c **** 
 620              		.loc 1 355 5 is_stmt 1 view .LVU228
 355:Drivers/STM32F7xx_HAL_Driver/Src/stm32f7xx_hal_dcmi.c **** 
 621              		.loc 1 355 51 is_stmt 0 view .LVU229
 622 008c E36B     		ldr	r3, [r4, #60]
 623              	.LVL32:
 358:Drivers/STM32F7xx_HAL_Driver/Src/stm32f7xx_hal_dcmi.c ****   }
 624              		.loc 1 358 5 is_stmt 1 view .LVU230
 358:Drivers/STM32F7xx_HAL_Driver/Src/stm32f7xx_hal_dcmi.c ****   }
 625              		.loc 1 358 70 is_stmt 0 view .LVU231
 626 008e 2168     		ldr	r1, [r4]
 358:Drivers/STM32F7xx_HAL_Driver/Src/stm32f7xx_hal_dcmi.c ****   }
 627              		.loc 1 358 5 view .LVU232
 628 0090 E06B     		ldr	r0, [r4, #60]
 629 0092 0090     		str	r0, [sp]
 630 0094 02EB8303 		add	r3, r2, r3, lsl #2
 631              	.LVL33:
 358:Drivers/STM32F7xx_HAL_Driver/Src/stm32f7xx_hal_dcmi.c ****   }
 632              		.loc 1 358 5 view .LVU233
 633 0098 2831     		adds	r1, r1, #40
 634 009a A06C     		ldr	r0, [r4, #72]
 635 009c FFF7FEFF 		bl	HAL_DMAEx_MultiBufferStart_IT
 636              	.LVL34:
 637              	.L31:
 362:Drivers/STM32F7xx_HAL_Driver/Src/stm32f7xx_hal_dcmi.c **** 
 638              		.loc 1 362 3 is_stmt 1 view .LVU234
 362:Drivers/STM32F7xx_HAL_Driver/Src/stm32f7xx_hal_dcmi.c **** 
 639              		.loc 1 362 8 is_stmt 0 view .LVU235
 640 00a0 2268     		ldr	r2, [r4]
 362:Drivers/STM32F7xx_HAL_Driver/Src/stm32f7xx_hal_dcmi.c **** 
 641              		.loc 1 362 23 view .LVU236
 642 00a2 1368     		ldr	r3, [r2]
 643 00a4 43F00103 		orr	r3, r3, #1
 644 00a8 1360     		str	r3, [r2]
 365:Drivers/STM32F7xx_HAL_Driver/Src/stm32f7xx_hal_dcmi.c **** 
 645              		.loc 1 365 3 is_stmt 1 view .LVU237
 365:Drivers/STM32F7xx_HAL_Driver/Src/stm32f7xx_hal_dcmi.c **** 
 646              		.loc 1 365 3 view .LVU238
 647 00aa 0020     		movs	r0, #0
 648 00ac 84F83400 		strb	r0, [r4, #52]
 365:Drivers/STM32F7xx_HAL_Driver/Src/stm32f7xx_hal_dcmi.c **** 
 649              		.loc 1 365 3 view .LVU239
 368:Drivers/STM32F7xx_HAL_Driver/Src/stm32f7xx_hal_dcmi.c **** }
 650              		.loc 1 368 3 view .LVU240
 651              	.L29:
ARM GAS  C:\Users\Nina\AppData\Local\Temp\cc8ClKuc.s 			page 31


 369:Drivers/STM32F7xx_HAL_Driver/Src/stm32f7xx_hal_dcmi.c **** 
 652              		.loc 1 369 1 is_stmt 0 view .LVU241
 653 00b0 03B0     		add	sp, sp, #12
 654              	.LCFI6:
 655              		.cfi_remember_state
 656              		.cfi_def_cfa_offset 12
 657              		@ sp needed
 658 00b2 30BD     		pop	{r4, r5, pc}
 659              	.LVL35:
 660              	.L34:
 661              	.LCFI7:
 662              		.cfi_restore_state
 303:Drivers/STM32F7xx_HAL_Driver/Src/stm32f7xx_hal_dcmi.c ****   
 663              		.loc 1 303 3 view .LVU242
 664 00b4 0220     		movs	r0, #2
 665 00b6 FBE7     		b	.L29
 666              	.L38:
 667              		.align	2
 668              	.L37:
 669 00b8 00000000 		.word	DCMI_DMAXferCplt
 670 00bc 00000000 		.word	DCMI_DMAError
 671              		.cfi_endproc
 672              	.LFE142:
 674              		.section	.text.HAL_DCMI_Stop,"ax",%progbits
 675              		.align	1
 676              		.global	HAL_DCMI_Stop
 677              		.syntax unified
 678              		.thumb
 679              		.thumb_func
 680              		.fpu fpv5-sp-d16
 682              	HAL_DCMI_Stop:
 683              	.LVL36:
 684              	.LFB143:
 378:Drivers/STM32F7xx_HAL_Driver/Src/stm32f7xx_hal_dcmi.c ****   register uint32_t count = HAL_TIMEOUT_DCMI_STOP * (SystemCoreClock /8/1000);
 685              		.loc 1 378 1 is_stmt 1 view -0
 686              		.cfi_startproc
 687              		@ args = 0, pretend = 0, frame = 0
 688              		@ frame_needed = 0, uses_anonymous_args = 0
 378:Drivers/STM32F7xx_HAL_Driver/Src/stm32f7xx_hal_dcmi.c ****   register uint32_t count = HAL_TIMEOUT_DCMI_STOP * (SystemCoreClock /8/1000);
 689              		.loc 1 378 1 is_stmt 0 view .LVU244
 690 0000 38B5     		push	{r3, r4, r5, lr}
 691              	.LCFI8:
 692              		.cfi_def_cfa_offset 16
 693              		.cfi_offset 3, -16
 694              		.cfi_offset 4, -12
 695              		.cfi_offset 5, -8
 696              		.cfi_offset 14, -4
 379:Drivers/STM32F7xx_HAL_Driver/Src/stm32f7xx_hal_dcmi.c ****   HAL_StatusTypeDef status = HAL_OK;
 697              		.loc 1 379 3 is_stmt 1 view .LVU245
 379:Drivers/STM32F7xx_HAL_Driver/Src/stm32f7xx_hal_dcmi.c ****   HAL_StatusTypeDef status = HAL_OK;
 698              		.loc 1 379 72 is_stmt 0 view .LVU246
 699 0002 1E4B     		ldr	r3, .L47
 700 0004 1B68     		ldr	r3, [r3]
 701 0006 1E4A     		ldr	r2, .L47+4
 702 0008 A2FB0323 		umull	r2, r3, r2, r3
 703 000c 5A0A     		lsrs	r2, r3, #9
 379:Drivers/STM32F7xx_HAL_Driver/Src/stm32f7xx_hal_dcmi.c ****   HAL_StatusTypeDef status = HAL_OK;
ARM GAS  C:\Users\Nina\AppData\Local\Temp\cc8ClKuc.s 			page 32


 704              		.loc 1 379 21 view .LVU247
 705 000e 4FF47A73 		mov	r3, #1000
 706 0012 03FB02F3 		mul	r3, r3, r2
 707              	.LVL37:
 380:Drivers/STM32F7xx_HAL_Driver/Src/stm32f7xx_hal_dcmi.c **** 
 708              		.loc 1 380 3 is_stmt 1 view .LVU248
 383:Drivers/STM32F7xx_HAL_Driver/Src/stm32f7xx_hal_dcmi.c ****   
 709              		.loc 1 383 3 view .LVU249
 383:Drivers/STM32F7xx_HAL_Driver/Src/stm32f7xx_hal_dcmi.c ****   
 710              		.loc 1 383 3 view .LVU250
 711 0016 90F83420 		ldrb	r2, [r0, #52]	@ zero_extendqisi2
 712 001a 012A     		cmp	r2, #1
 713 001c 2CD0     		beq	.L44
 714 001e 0446     		mov	r4, r0
 383:Drivers/STM32F7xx_HAL_Driver/Src/stm32f7xx_hal_dcmi.c ****   
 715              		.loc 1 383 3 discriminator 2 view .LVU251
 716 0020 0122     		movs	r2, #1
 717 0022 80F83420 		strb	r2, [r0, #52]
 383:Drivers/STM32F7xx_HAL_Driver/Src/stm32f7xx_hal_dcmi.c ****   
 718              		.loc 1 383 3 discriminator 2 view .LVU252
 386:Drivers/STM32F7xx_HAL_Driver/Src/stm32f7xx_hal_dcmi.c **** 
 719              		.loc 1 386 3 discriminator 2 view .LVU253
 386:Drivers/STM32F7xx_HAL_Driver/Src/stm32f7xx_hal_dcmi.c **** 
 720              		.loc 1 386 16 is_stmt 0 discriminator 2 view .LVU254
 721 0026 0222     		movs	r2, #2
 722 0028 80F83520 		strb	r2, [r0, #53]
 389:Drivers/STM32F7xx_HAL_Driver/Src/stm32f7xx_hal_dcmi.c **** 
 723              		.loc 1 389 3 is_stmt 1 discriminator 2 view .LVU255
 389:Drivers/STM32F7xx_HAL_Driver/Src/stm32f7xx_hal_dcmi.c **** 
 724              		.loc 1 389 8 is_stmt 0 discriminator 2 view .LVU256
 725 002c 0168     		ldr	r1, [r0]
 389:Drivers/STM32F7xx_HAL_Driver/Src/stm32f7xx_hal_dcmi.c **** 
 726              		.loc 1 389 23 discriminator 2 view .LVU257
 727 002e 0A68     		ldr	r2, [r1]
 728 0030 22F00102 		bic	r2, r2, #1
 729 0034 0A60     		str	r2, [r1]
 730              	.L43:
 392:Drivers/STM32F7xx_HAL_Driver/Src/stm32f7xx_hal_dcmi.c ****   {
 731              		.loc 1 392 3 is_stmt 1 view .LVU258
 394:Drivers/STM32F7xx_HAL_Driver/Src/stm32f7xx_hal_dcmi.c ****     {
 732              		.loc 1 394 5 view .LVU259
 733 0036 1A46     		mov	r2, r3
 394:Drivers/STM32F7xx_HAL_Driver/Src/stm32f7xx_hal_dcmi.c ****     {
 734              		.loc 1 394 14 is_stmt 0 view .LVU260
 735 0038 013B     		subs	r3, r3, #1
 736              	.LVL38:
 394:Drivers/STM32F7xx_HAL_Driver/Src/stm32f7xx_hal_dcmi.c ****     {
 737              		.loc 1 394 8 view .LVU261
 738 003a 32B1     		cbz	r2, .L46
 403:Drivers/STM32F7xx_HAL_Driver/Src/stm32f7xx_hal_dcmi.c **** 
 739              		.loc 1 403 8 is_stmt 1 view .LVU262
 403:Drivers/STM32F7xx_HAL_Driver/Src/stm32f7xx_hal_dcmi.c **** 
 740              		.loc 1 403 15 is_stmt 0 view .LVU263
 741 003c 2268     		ldr	r2, [r4]
 403:Drivers/STM32F7xx_HAL_Driver/Src/stm32f7xx_hal_dcmi.c **** 
 742              		.loc 1 403 25 view .LVU264
 743 003e 1268     		ldr	r2, [r2]
ARM GAS  C:\Users\Nina\AppData\Local\Temp\cc8ClKuc.s 			page 33


 403:Drivers/STM32F7xx_HAL_Driver/Src/stm32f7xx_hal_dcmi.c **** 
 744              		.loc 1 403 3 view .LVU265
 745 0040 12F0010F 		tst	r2, #1
 746 0044 F7D1     		bne	.L43
 380:Drivers/STM32F7xx_HAL_Driver/Src/stm32f7xx_hal_dcmi.c **** 
 747              		.loc 1 380 21 view .LVU266
 748 0046 0025     		movs	r5, #0
 749 0048 04E0     		b	.L42
 750              	.L46:
 397:Drivers/STM32F7xx_HAL_Driver/Src/stm32f7xx_hal_dcmi.c ****       
 751              		.loc 1 397 7 is_stmt 1 view .LVU267
 397:Drivers/STM32F7xx_HAL_Driver/Src/stm32f7xx_hal_dcmi.c ****       
 752              		.loc 1 397 24 is_stmt 0 view .LVU268
 753 004a E36C     		ldr	r3, [r4, #76]
 754              	.LVL39:
 397:Drivers/STM32F7xx_HAL_Driver/Src/stm32f7xx_hal_dcmi.c ****       
 755              		.loc 1 397 24 view .LVU269
 756 004c 43F02003 		orr	r3, r3, #32
 757 0050 E364     		str	r3, [r4, #76]
 399:Drivers/STM32F7xx_HAL_Driver/Src/stm32f7xx_hal_dcmi.c ****       break;
 758              		.loc 1 399 7 is_stmt 1 view .LVU270
 759              	.LVL40:
 400:Drivers/STM32F7xx_HAL_Driver/Src/stm32f7xx_hal_dcmi.c ****     } 
 760              		.loc 1 400 7 view .LVU271
 399:Drivers/STM32F7xx_HAL_Driver/Src/stm32f7xx_hal_dcmi.c ****       break;
 761              		.loc 1 399 14 is_stmt 0 view .LVU272
 762 0052 0325     		movs	r5, #3
 763              	.LVL41:
 764              	.L42:
 406:Drivers/STM32F7xx_HAL_Driver/Src/stm32f7xx_hal_dcmi.c **** 
 765              		.loc 1 406 3 is_stmt 1 view .LVU273
 766 0054 2268     		ldr	r2, [r4]
 767 0056 1368     		ldr	r3, [r2]
 768 0058 23F48043 		bic	r3, r3, #16384
 769 005c 1360     		str	r3, [r2]
 409:Drivers/STM32F7xx_HAL_Driver/Src/stm32f7xx_hal_dcmi.c **** 
 770              		.loc 1 409 3 view .LVU274
 771 005e A06C     		ldr	r0, [r4, #72]
 772              	.LVL42:
 409:Drivers/STM32F7xx_HAL_Driver/Src/stm32f7xx_hal_dcmi.c **** 
 773              		.loc 1 409 3 is_stmt 0 view .LVU275
 774 0060 FFF7FEFF 		bl	HAL_DMA_Abort
 775              	.LVL43:
 412:Drivers/STM32F7xx_HAL_Driver/Src/stm32f7xx_hal_dcmi.c **** 
 776              		.loc 1 412 3 is_stmt 1 view .LVU276
 412:Drivers/STM32F7xx_HAL_Driver/Src/stm32f7xx_hal_dcmi.c **** 
 777              		.loc 1 412 20 is_stmt 0 view .LVU277
 778 0064 E36C     		ldr	r3, [r4, #76]
 779 0066 E364     		str	r3, [r4, #76]
 415:Drivers/STM32F7xx_HAL_Driver/Src/stm32f7xx_hal_dcmi.c **** 
 780              		.loc 1 415 3 is_stmt 1 view .LVU278
 415:Drivers/STM32F7xx_HAL_Driver/Src/stm32f7xx_hal_dcmi.c **** 
 781              		.loc 1 415 16 is_stmt 0 view .LVU279
 782 0068 0123     		movs	r3, #1
 783 006a 84F83530 		strb	r3, [r4, #53]
 418:Drivers/STM32F7xx_HAL_Driver/Src/stm32f7xx_hal_dcmi.c **** 
 784              		.loc 1 418 3 is_stmt 1 view .LVU280
ARM GAS  C:\Users\Nina\AppData\Local\Temp\cc8ClKuc.s 			page 34


 418:Drivers/STM32F7xx_HAL_Driver/Src/stm32f7xx_hal_dcmi.c **** 
 785              		.loc 1 418 3 view .LVU281
 786 006e 0023     		movs	r3, #0
 787 0070 84F83430 		strb	r3, [r4, #52]
 418:Drivers/STM32F7xx_HAL_Driver/Src/stm32f7xx_hal_dcmi.c **** 
 788              		.loc 1 418 3 view .LVU282
 421:Drivers/STM32F7xx_HAL_Driver/Src/stm32f7xx_hal_dcmi.c **** }
 789              		.loc 1 421 3 view .LVU283
 790              	.LVL44:
 791              	.L40:
 422:Drivers/STM32F7xx_HAL_Driver/Src/stm32f7xx_hal_dcmi.c **** 
 792              		.loc 1 422 1 is_stmt 0 view .LVU284
 793 0074 2846     		mov	r0, r5
 794 0076 38BD     		pop	{r3, r4, r5, pc}
 795              	.LVL45:
 796              	.L44:
 383:Drivers/STM32F7xx_HAL_Driver/Src/stm32f7xx_hal_dcmi.c ****   
 797              		.loc 1 383 3 view .LVU285
 798 0078 0225     		movs	r5, #2
 799 007a FBE7     		b	.L40
 800              	.L48:
 801              		.align	2
 802              	.L47:
 803 007c 00000000 		.word	SystemCoreClock
 804 0080 D34D6210 		.word	274877907
 805              		.cfi_endproc
 806              	.LFE143:
 808              		.section	.text.HAL_DCMI_Suspend,"ax",%progbits
 809              		.align	1
 810              		.global	HAL_DCMI_Suspend
 811              		.syntax unified
 812              		.thumb
 813              		.thumb_func
 814              		.fpu fpv5-sp-d16
 816              	HAL_DCMI_Suspend:
 817              	.LVL46:
 818              	.LFB144:
 431:Drivers/STM32F7xx_HAL_Driver/Src/stm32f7xx_hal_dcmi.c ****   register uint32_t count = HAL_TIMEOUT_DCMI_STOP * (SystemCoreClock /8/1000);
 819              		.loc 1 431 1 is_stmt 1 view -0
 820              		.cfi_startproc
 821              		@ args = 0, pretend = 0, frame = 0
 822              		@ frame_needed = 0, uses_anonymous_args = 0
 823              		@ link register save eliminated.
 431:Drivers/STM32F7xx_HAL_Driver/Src/stm32f7xx_hal_dcmi.c ****   register uint32_t count = HAL_TIMEOUT_DCMI_STOP * (SystemCoreClock /8/1000);
 824              		.loc 1 431 1 is_stmt 0 view .LVU287
 825 0000 0246     		mov	r2, r0
 432:Drivers/STM32F7xx_HAL_Driver/Src/stm32f7xx_hal_dcmi.c ****   HAL_StatusTypeDef status = HAL_OK;
 826              		.loc 1 432 3 is_stmt 1 view .LVU288
 432:Drivers/STM32F7xx_HAL_Driver/Src/stm32f7xx_hal_dcmi.c ****   HAL_StatusTypeDef status = HAL_OK;
 827              		.loc 1 432 72 is_stmt 0 view .LVU289
 828 0002 1C4B     		ldr	r3, .L58
 829 0004 1B68     		ldr	r3, [r3]
 830 0006 1C49     		ldr	r1, .L58+4
 831 0008 A1FB0313 		umull	r1, r3, r1, r3
 832 000c 590A     		lsrs	r1, r3, #9
 432:Drivers/STM32F7xx_HAL_Driver/Src/stm32f7xx_hal_dcmi.c ****   HAL_StatusTypeDef status = HAL_OK;
 833              		.loc 1 432 21 view .LVU290
ARM GAS  C:\Users\Nina\AppData\Local\Temp\cc8ClKuc.s 			page 35


 834 000e 4FF47A73 		mov	r3, #1000
 835 0012 03FB01F3 		mul	r3, r3, r1
 836              	.LVL47:
 433:Drivers/STM32F7xx_HAL_Driver/Src/stm32f7xx_hal_dcmi.c **** 
 837              		.loc 1 433 3 is_stmt 1 view .LVU291
 436:Drivers/STM32F7xx_HAL_Driver/Src/stm32f7xx_hal_dcmi.c **** 
 838              		.loc 1 436 3 view .LVU292
 436:Drivers/STM32F7xx_HAL_Driver/Src/stm32f7xx_hal_dcmi.c **** 
 839              		.loc 1 436 3 view .LVU293
 840 0016 90F83410 		ldrb	r1, [r0, #52]	@ zero_extendqisi2
 841 001a 0129     		cmp	r1, #1
 842 001c 27D0     		beq	.L54
 436:Drivers/STM32F7xx_HAL_Driver/Src/stm32f7xx_hal_dcmi.c **** 
 843              		.loc 1 436 3 discriminator 2 view .LVU294
 844 001e 0121     		movs	r1, #1
 845 0020 80F83410 		strb	r1, [r0, #52]
 436:Drivers/STM32F7xx_HAL_Driver/Src/stm32f7xx_hal_dcmi.c **** 
 846              		.loc 1 436 3 discriminator 2 view .LVU295
 438:Drivers/STM32F7xx_HAL_Driver/Src/stm32f7xx_hal_dcmi.c ****   {
 847              		.loc 1 438 3 discriminator 2 view .LVU296
 438:Drivers/STM32F7xx_HAL_Driver/Src/stm32f7xx_hal_dcmi.c ****   {
 848              		.loc 1 438 11 is_stmt 0 discriminator 2 view .LVU297
 849 0024 90F83510 		ldrb	r1, [r0, #53]	@ zero_extendqisi2
 850 0028 C9B2     		uxtb	r1, r1
 438:Drivers/STM32F7xx_HAL_Driver/Src/stm32f7xx_hal_dcmi.c ****   {
 851              		.loc 1 438 5 discriminator 2 view .LVU298
 852 002a 0229     		cmp	r1, #2
 853 002c 04D0     		beq	.L56
 433:Drivers/STM32F7xx_HAL_Driver/Src/stm32f7xx_hal_dcmi.c **** 
 854              		.loc 1 433 21 view .LVU299
 855 002e 0020     		movs	r0, #0
 856              	.LVL48:
 857              	.L51:
 464:Drivers/STM32F7xx_HAL_Driver/Src/stm32f7xx_hal_dcmi.c ****   
 858              		.loc 1 464 3 is_stmt 1 view .LVU300
 464:Drivers/STM32F7xx_HAL_Driver/Src/stm32f7xx_hal_dcmi.c ****   
 859              		.loc 1 464 3 view .LVU301
 860 0030 0023     		movs	r3, #0
 861 0032 82F83430 		strb	r3, [r2, #52]
 464:Drivers/STM32F7xx_HAL_Driver/Src/stm32f7xx_hal_dcmi.c ****   
 862              		.loc 1 464 3 view .LVU302
 467:Drivers/STM32F7xx_HAL_Driver/Src/stm32f7xx_hal_dcmi.c **** }
 863              		.loc 1 467 3 view .LVU303
 467:Drivers/STM32F7xx_HAL_Driver/Src/stm32f7xx_hal_dcmi.c **** }
 864              		.loc 1 467 10 is_stmt 0 view .LVU304
 865 0036 7047     		bx	lr
 866              	.LVL49:
 867              	.L56:
 441:Drivers/STM32F7xx_HAL_Driver/Src/stm32f7xx_hal_dcmi.c **** 
 868              		.loc 1 441 5 is_stmt 1 view .LVU305
 441:Drivers/STM32F7xx_HAL_Driver/Src/stm32f7xx_hal_dcmi.c **** 
 869              		.loc 1 441 18 is_stmt 0 view .LVU306
 870 0038 0521     		movs	r1, #5
 871 003a 80F83510 		strb	r1, [r0, #53]
 444:Drivers/STM32F7xx_HAL_Driver/Src/stm32f7xx_hal_dcmi.c **** 
 872              		.loc 1 444 5 is_stmt 1 view .LVU307
 444:Drivers/STM32F7xx_HAL_Driver/Src/stm32f7xx_hal_dcmi.c **** 
ARM GAS  C:\Users\Nina\AppData\Local\Temp\cc8ClKuc.s 			page 36


 873              		.loc 1 444 10 is_stmt 0 view .LVU308
 874 003e 0068     		ldr	r0, [r0]
 875              	.LVL50:
 444:Drivers/STM32F7xx_HAL_Driver/Src/stm32f7xx_hal_dcmi.c **** 
 876              		.loc 1 444 25 view .LVU309
 877 0040 0168     		ldr	r1, [r0]
 878 0042 21F00101 		bic	r1, r1, #1
 879 0046 0160     		str	r1, [r0]
 880              	.L53:
 447:Drivers/STM32F7xx_HAL_Driver/Src/stm32f7xx_hal_dcmi.c ****     {
 881              		.loc 1 447 5 is_stmt 1 view .LVU310
 449:Drivers/STM32F7xx_HAL_Driver/Src/stm32f7xx_hal_dcmi.c ****       {        
 882              		.loc 1 449 7 view .LVU311
 883 0048 1946     		mov	r1, r3
 449:Drivers/STM32F7xx_HAL_Driver/Src/stm32f7xx_hal_dcmi.c ****       {        
 884              		.loc 1 449 16 is_stmt 0 view .LVU312
 885 004a 013B     		subs	r3, r3, #1
 886              	.LVL51:
 449:Drivers/STM32F7xx_HAL_Driver/Src/stm32f7xx_hal_dcmi.c ****       {        
 887              		.loc 1 449 10 view .LVU313
 888 004c 31B1     		cbz	r1, .L57
 461:Drivers/STM32F7xx_HAL_Driver/Src/stm32f7xx_hal_dcmi.c ****   }    
 889              		.loc 1 461 10 is_stmt 1 view .LVU314
 461:Drivers/STM32F7xx_HAL_Driver/Src/stm32f7xx_hal_dcmi.c ****   }    
 890              		.loc 1 461 17 is_stmt 0 view .LVU315
 891 004e 1168     		ldr	r1, [r2]
 461:Drivers/STM32F7xx_HAL_Driver/Src/stm32f7xx_hal_dcmi.c ****   }    
 892              		.loc 1 461 27 view .LVU316
 893 0050 0968     		ldr	r1, [r1]
 461:Drivers/STM32F7xx_HAL_Driver/Src/stm32f7xx_hal_dcmi.c ****   }    
 894              		.loc 1 461 5 view .LVU317
 895 0052 11F0010F 		tst	r1, #1
 896 0056 F7D1     		bne	.L53
 433:Drivers/STM32F7xx_HAL_Driver/Src/stm32f7xx_hal_dcmi.c **** 
 897              		.loc 1 433 21 view .LVU318
 898 0058 0020     		movs	r0, #0
 899 005a E9E7     		b	.L51
 900              	.L57:
 452:Drivers/STM32F7xx_HAL_Driver/Src/stm32f7xx_hal_dcmi.c ****         
 901              		.loc 1 452 9 is_stmt 1 view .LVU319
 452:Drivers/STM32F7xx_HAL_Driver/Src/stm32f7xx_hal_dcmi.c ****         
 902              		.loc 1 452 26 is_stmt 0 view .LVU320
 903 005c D36C     		ldr	r3, [r2, #76]
 904              	.LVL52:
 452:Drivers/STM32F7xx_HAL_Driver/Src/stm32f7xx_hal_dcmi.c ****         
 905              		.loc 1 452 26 view .LVU321
 906 005e 43F02003 		orr	r3, r3, #32
 907 0062 D364     		str	r3, [r2, #76]
 455:Drivers/STM32F7xx_HAL_Driver/Src/stm32f7xx_hal_dcmi.c ****         
 908              		.loc 1 455 9 is_stmt 1 view .LVU322
 455:Drivers/STM32F7xx_HAL_Driver/Src/stm32f7xx_hal_dcmi.c ****         
 909              		.loc 1 455 22 is_stmt 0 view .LVU323
 910 0064 0123     		movs	r3, #1
 911 0066 82F83530 		strb	r3, [r2, #53]
 457:Drivers/STM32F7xx_HAL_Driver/Src/stm32f7xx_hal_dcmi.c ****         break;
 912              		.loc 1 457 9 is_stmt 1 view .LVU324
 913              	.LVL53:
ARM GAS  C:\Users\Nina\AppData\Local\Temp\cc8ClKuc.s 			page 37


 458:Drivers/STM32F7xx_HAL_Driver/Src/stm32f7xx_hal_dcmi.c ****       }
 914              		.loc 1 458 9 view .LVU325
 457:Drivers/STM32F7xx_HAL_Driver/Src/stm32f7xx_hal_dcmi.c ****         break;
 915              		.loc 1 457 16 is_stmt 0 view .LVU326
 916 006a 0320     		movs	r0, #3
 458:Drivers/STM32F7xx_HAL_Driver/Src/stm32f7xx_hal_dcmi.c ****       }
 917              		.loc 1 458 9 view .LVU327
 918 006c E0E7     		b	.L51
 919              	.LVL54:
 920              	.L54:
 436:Drivers/STM32F7xx_HAL_Driver/Src/stm32f7xx_hal_dcmi.c **** 
 921              		.loc 1 436 3 view .LVU328
 922 006e 0220     		movs	r0, #2
 923              	.LVL55:
 468:Drivers/STM32F7xx_HAL_Driver/Src/stm32f7xx_hal_dcmi.c **** 
 924              		.loc 1 468 1 view .LVU329
 925 0070 7047     		bx	lr
 926              	.L59:
 927 0072 00BF     		.align	2
 928              	.L58:
 929 0074 00000000 		.word	SystemCoreClock
 930 0078 D34D6210 		.word	274877907
 931              		.cfi_endproc
 932              	.LFE144:
 934              		.section	.text.HAL_DCMI_Resume,"ax",%progbits
 935              		.align	1
 936              		.global	HAL_DCMI_Resume
 937              		.syntax unified
 938              		.thumb
 939              		.thumb_func
 940              		.fpu fpv5-sp-d16
 942              	HAL_DCMI_Resume:
 943              	.LVL56:
 944              	.LFB145:
 477:Drivers/STM32F7xx_HAL_Driver/Src/stm32f7xx_hal_dcmi.c ****   /* Process locked */
 945              		.loc 1 477 1 is_stmt 1 view -0
 946              		.cfi_startproc
 947              		@ args = 0, pretend = 0, frame = 0
 948              		@ frame_needed = 0, uses_anonymous_args = 0
 949              		@ link register save eliminated.
 479:Drivers/STM32F7xx_HAL_Driver/Src/stm32f7xx_hal_dcmi.c ****   
 950              		.loc 1 479 3 view .LVU331
 479:Drivers/STM32F7xx_HAL_Driver/Src/stm32f7xx_hal_dcmi.c ****   
 951              		.loc 1 479 3 view .LVU332
 952 0000 90F83430 		ldrb	r3, [r0, #52]	@ zero_extendqisi2
 953 0004 012B     		cmp	r3, #1
 954 0006 15D0     		beq	.L63
 479:Drivers/STM32F7xx_HAL_Driver/Src/stm32f7xx_hal_dcmi.c ****   
 955              		.loc 1 479 3 discriminator 2 view .LVU333
 956 0008 0123     		movs	r3, #1
 957 000a 80F83430 		strb	r3, [r0, #52]
 479:Drivers/STM32F7xx_HAL_Driver/Src/stm32f7xx_hal_dcmi.c ****   
 958              		.loc 1 479 3 discriminator 2 view .LVU334
 481:Drivers/STM32F7xx_HAL_Driver/Src/stm32f7xx_hal_dcmi.c ****   {
 959              		.loc 1 481 3 discriminator 2 view .LVU335
 481:Drivers/STM32F7xx_HAL_Driver/Src/stm32f7xx_hal_dcmi.c ****   {
 960              		.loc 1 481 11 is_stmt 0 discriminator 2 view .LVU336
ARM GAS  C:\Users\Nina\AppData\Local\Temp\cc8ClKuc.s 			page 38


 961 000e 90F83530 		ldrb	r3, [r0, #53]	@ zero_extendqisi2
 962 0012 DBB2     		uxtb	r3, r3
 481:Drivers/STM32F7xx_HAL_Driver/Src/stm32f7xx_hal_dcmi.c ****   {
 963              		.loc 1 481 5 discriminator 2 view .LVU337
 964 0014 052B     		cmp	r3, #5
 965 0016 04D0     		beq	.L64
 966              	.L62:
 490:Drivers/STM32F7xx_HAL_Driver/Src/stm32f7xx_hal_dcmi.c ****   
 967              		.loc 1 490 3 is_stmt 1 view .LVU338
 490:Drivers/STM32F7xx_HAL_Driver/Src/stm32f7xx_hal_dcmi.c ****   
 968              		.loc 1 490 3 view .LVU339
 969 0018 0023     		movs	r3, #0
 970 001a 80F83430 		strb	r3, [r0, #52]
 490:Drivers/STM32F7xx_HAL_Driver/Src/stm32f7xx_hal_dcmi.c ****   
 971              		.loc 1 490 3 view .LVU340
 493:Drivers/STM32F7xx_HAL_Driver/Src/stm32f7xx_hal_dcmi.c **** }
 972              		.loc 1 493 3 view .LVU341
 493:Drivers/STM32F7xx_HAL_Driver/Src/stm32f7xx_hal_dcmi.c **** }
 973              		.loc 1 493 10 is_stmt 0 view .LVU342
 974 001e 1846     		mov	r0, r3
 975              	.LVL57:
 493:Drivers/STM32F7xx_HAL_Driver/Src/stm32f7xx_hal_dcmi.c **** }
 976              		.loc 1 493 10 view .LVU343
 977 0020 7047     		bx	lr
 978              	.LVL58:
 979              	.L64:
 484:Drivers/STM32F7xx_HAL_Driver/Src/stm32f7xx_hal_dcmi.c ****     
 980              		.loc 1 484 5 is_stmt 1 view .LVU344
 484:Drivers/STM32F7xx_HAL_Driver/Src/stm32f7xx_hal_dcmi.c ****     
 981              		.loc 1 484 18 is_stmt 0 view .LVU345
 982 0022 0223     		movs	r3, #2
 983 0024 80F83530 		strb	r3, [r0, #53]
 487:Drivers/STM32F7xx_HAL_Driver/Src/stm32f7xx_hal_dcmi.c ****   } 
 984              		.loc 1 487 5 is_stmt 1 view .LVU346
 487:Drivers/STM32F7xx_HAL_Driver/Src/stm32f7xx_hal_dcmi.c ****   } 
 985              		.loc 1 487 10 is_stmt 0 view .LVU347
 986 0028 0268     		ldr	r2, [r0]
 487:Drivers/STM32F7xx_HAL_Driver/Src/stm32f7xx_hal_dcmi.c ****   } 
 987              		.loc 1 487 25 view .LVU348
 988 002a 1368     		ldr	r3, [r2]
 989 002c 43F00103 		orr	r3, r3, #1
 990 0030 1360     		str	r3, [r2]
 991 0032 F1E7     		b	.L62
 992              	.L63:
 479:Drivers/STM32F7xx_HAL_Driver/Src/stm32f7xx_hal_dcmi.c ****   
 993              		.loc 1 479 3 view .LVU349
 994 0034 0220     		movs	r0, #2
 995              	.LVL59:
 494:Drivers/STM32F7xx_HAL_Driver/Src/stm32f7xx_hal_dcmi.c **** 
 996              		.loc 1 494 1 view .LVU350
 997 0036 7047     		bx	lr
 998              		.cfi_endproc
 999              	.LFE145:
 1001              		.section	.text.HAL_DCMI_ErrorCallback,"ax",%progbits
 1002              		.align	1
 1003              		.weak	HAL_DCMI_ErrorCallback
 1004              		.syntax unified
ARM GAS  C:\Users\Nina\AppData\Local\Temp\cc8ClKuc.s 			page 39


 1005              		.thumb
 1006              		.thumb_func
 1007              		.fpu fpv5-sp-d16
 1009              	HAL_DCMI_ErrorCallback:
 1010              	.LVL60:
 1011              	.LFB147:
 588:Drivers/STM32F7xx_HAL_Driver/Src/stm32f7xx_hal_dcmi.c ****   /* Prevent unused argument(s) compilation warning */
 1012              		.loc 1 588 1 is_stmt 1 view -0
 1013              		.cfi_startproc
 1014              		@ args = 0, pretend = 0, frame = 0
 1015              		@ frame_needed = 0, uses_anonymous_args = 0
 1016              		@ link register save eliminated.
 590:Drivers/STM32F7xx_HAL_Driver/Src/stm32f7xx_hal_dcmi.c ****  
 1017              		.loc 1 590 3 view .LVU352
 595:Drivers/STM32F7xx_HAL_Driver/Src/stm32f7xx_hal_dcmi.c **** 
 1018              		.loc 1 595 1 is_stmt 0 view .LVU353
 1019 0000 7047     		bx	lr
 1020              		.cfi_endproc
 1021              	.LFE147:
 1023              		.section	.text.DCMI_DMAError,"ax",%progbits
 1024              		.align	1
 1025              		.syntax unified
 1026              		.thumb
 1027              		.thumb_func
 1028              		.fpu fpv5-sp-d16
 1030              	DCMI_DMAError:
 1031              	.LVL61:
 1032              	.LFB157:
 856:Drivers/STM32F7xx_HAL_Driver/Src/stm32f7xx_hal_dcmi.c **** 
 857:Drivers/STM32F7xx_HAL_Driver/Src/stm32f7xx_hal_dcmi.c **** /**
 858:Drivers/STM32F7xx_HAL_Driver/Src/stm32f7xx_hal_dcmi.c ****   * @brief  DMA error callback 
 859:Drivers/STM32F7xx_HAL_Driver/Src/stm32f7xx_hal_dcmi.c ****   * @param  hdma pointer to a DMA_HandleTypeDef structure that contains
 860:Drivers/STM32F7xx_HAL_Driver/Src/stm32f7xx_hal_dcmi.c ****   *                the configuration information for the specified DMA module.
 861:Drivers/STM32F7xx_HAL_Driver/Src/stm32f7xx_hal_dcmi.c ****   * @retval None
 862:Drivers/STM32F7xx_HAL_Driver/Src/stm32f7xx_hal_dcmi.c ****   */
 863:Drivers/STM32F7xx_HAL_Driver/Src/stm32f7xx_hal_dcmi.c **** static void DCMI_DMAError(DMA_HandleTypeDef *hdma)
 864:Drivers/STM32F7xx_HAL_Driver/Src/stm32f7xx_hal_dcmi.c **** {
 1033              		.loc 1 864 1 is_stmt 1 view -0
 1034              		.cfi_startproc
 1035              		@ args = 0, pretend = 0, frame = 0
 1036              		@ frame_needed = 0, uses_anonymous_args = 0
 1037              		.loc 1 864 1 is_stmt 0 view .LVU355
 1038 0000 08B5     		push	{r3, lr}
 1039              	.LCFI9:
 1040              		.cfi_def_cfa_offset 8
 1041              		.cfi_offset 3, -8
 1042              		.cfi_offset 14, -4
 865:Drivers/STM32F7xx_HAL_Driver/Src/stm32f7xx_hal_dcmi.c ****   DCMI_HandleTypeDef* hdcmi = ( DCMI_HandleTypeDef* )((DMA_HandleTypeDef* )hdma)->Parent;
 1043              		.loc 1 865 3 is_stmt 1 view .LVU356
 1044              		.loc 1 865 23 is_stmt 0 view .LVU357
 1045 0002 806B     		ldr	r0, [r0, #56]
 1046              	.LVL62:
 866:Drivers/STM32F7xx_HAL_Driver/Src/stm32f7xx_hal_dcmi.c ****  
 867:Drivers/STM32F7xx_HAL_Driver/Src/stm32f7xx_hal_dcmi.c ****   if(hdcmi->DMA_Handle->ErrorCode != HAL_DMA_ERROR_FE)
 1047              		.loc 1 867 3 is_stmt 1 view .LVU358
 1048              		.loc 1 867 11 is_stmt 0 view .LVU359
 1049 0004 836C     		ldr	r3, [r0, #72]
ARM GAS  C:\Users\Nina\AppData\Local\Temp\cc8ClKuc.s 			page 40


 1050              		.loc 1 867 23 view .LVU360
 1051 0006 5B6D     		ldr	r3, [r3, #84]
 1052              		.loc 1 867 5 view .LVU361
 1053 0008 022B     		cmp	r3, #2
 1054 000a 06D0     		beq	.L67
 868:Drivers/STM32F7xx_HAL_Driver/Src/stm32f7xx_hal_dcmi.c ****   {
 869:Drivers/STM32F7xx_HAL_Driver/Src/stm32f7xx_hal_dcmi.c ****     /* Initialize the DCMI state*/
 870:Drivers/STM32F7xx_HAL_Driver/Src/stm32f7xx_hal_dcmi.c ****     hdcmi->State = HAL_DCMI_STATE_READY;
 1055              		.loc 1 870 5 is_stmt 1 view .LVU362
 1056              		.loc 1 870 18 is_stmt 0 view .LVU363
 1057 000c 0123     		movs	r3, #1
 1058 000e 80F83530 		strb	r3, [r0, #53]
 871:Drivers/STM32F7xx_HAL_Driver/Src/stm32f7xx_hal_dcmi.c ****     
 872:Drivers/STM32F7xx_HAL_Driver/Src/stm32f7xx_hal_dcmi.c ****     /* Set DCMI Error Code */
 873:Drivers/STM32F7xx_HAL_Driver/Src/stm32f7xx_hal_dcmi.c ****     hdcmi->ErrorCode |= HAL_DCMI_ERROR_DMA;
 1059              		.loc 1 873 5 is_stmt 1 view .LVU364
 1060              		.loc 1 873 22 is_stmt 0 view .LVU365
 1061 0012 C36C     		ldr	r3, [r0, #76]
 1062 0014 43F04003 		orr	r3, r3, #64
 1063 0018 C364     		str	r3, [r0, #76]
 1064              	.L67:
 874:Drivers/STM32F7xx_HAL_Driver/Src/stm32f7xx_hal_dcmi.c ****   }
 875:Drivers/STM32F7xx_HAL_Driver/Src/stm32f7xx_hal_dcmi.c **** 
 876:Drivers/STM32F7xx_HAL_Driver/Src/stm32f7xx_hal_dcmi.c ****   /* DCMI error Callback */  
 877:Drivers/STM32F7xx_HAL_Driver/Src/stm32f7xx_hal_dcmi.c ****   HAL_DCMI_ErrorCallback(hdcmi);
 1065              		.loc 1 877 3 is_stmt 1 view .LVU366
 1066 001a FFF7FEFF 		bl	HAL_DCMI_ErrorCallback
 1067              	.LVL63:
 878:Drivers/STM32F7xx_HAL_Driver/Src/stm32f7xx_hal_dcmi.c **** }
 1068              		.loc 1 878 1 is_stmt 0 view .LVU367
 1069 001e 08BD     		pop	{r3, pc}
 1070              		.cfi_endproc
 1071              	.LFE157:
 1073              		.section	.text.HAL_DCMI_LineEventCallback,"ax",%progbits
 1074              		.align	1
 1075              		.weak	HAL_DCMI_LineEventCallback
 1076              		.syntax unified
 1077              		.thumb
 1078              		.thumb_func
 1079              		.fpu fpv5-sp-d16
 1081              	HAL_DCMI_LineEventCallback:
 1082              	.LVL64:
 1083              	.LFB148:
 604:Drivers/STM32F7xx_HAL_Driver/Src/stm32f7xx_hal_dcmi.c ****   /* NOTE : This function Should not be modified, when the callback is needed,
 1084              		.loc 1 604 1 is_stmt 1 view -0
 1085              		.cfi_startproc
 1086              		@ args = 0, pretend = 0, frame = 0
 1087              		@ frame_needed = 0, uses_anonymous_args = 0
 1088              		@ link register save eliminated.
 608:Drivers/STM32F7xx_HAL_Driver/Src/stm32f7xx_hal_dcmi.c **** 
 1089              		.loc 1 608 1 view .LVU369
 1090 0000 7047     		bx	lr
 1091              		.cfi_endproc
 1092              	.LFE148:
 1094              		.section	.text.HAL_DCMI_VsyncEventCallback,"ax",%progbits
 1095              		.align	1
 1096              		.weak	HAL_DCMI_VsyncEventCallback
ARM GAS  C:\Users\Nina\AppData\Local\Temp\cc8ClKuc.s 			page 41


 1097              		.syntax unified
 1098              		.thumb
 1099              		.thumb_func
 1100              		.fpu fpv5-sp-d16
 1102              	HAL_DCMI_VsyncEventCallback:
 1103              	.LVL65:
 1104              	.LFB149:
 617:Drivers/STM32F7xx_HAL_Driver/Src/stm32f7xx_hal_dcmi.c ****   /* Prevent unused argument(s) compilation warning */
 1105              		.loc 1 617 1 view -0
 1106              		.cfi_startproc
 1107              		@ args = 0, pretend = 0, frame = 0
 1108              		@ frame_needed = 0, uses_anonymous_args = 0
 1109              		@ link register save eliminated.
 619:Drivers/STM32F7xx_HAL_Driver/Src/stm32f7xx_hal_dcmi.c ****  
 1110              		.loc 1 619 3 view .LVU371
 624:Drivers/STM32F7xx_HAL_Driver/Src/stm32f7xx_hal_dcmi.c **** 
 1111              		.loc 1 624 1 is_stmt 0 view .LVU372
 1112 0000 7047     		bx	lr
 1113              		.cfi_endproc
 1114              	.LFE149:
 1116              		.section	.text.HAL_DCMI_FrameEventCallback,"ax",%progbits
 1117              		.align	1
 1118              		.weak	HAL_DCMI_FrameEventCallback
 1119              		.syntax unified
 1120              		.thumb
 1121              		.thumb_func
 1122              		.fpu fpv5-sp-d16
 1124              	HAL_DCMI_FrameEventCallback:
 1125              	.LVL66:
 1126              	.LFB150:
 633:Drivers/STM32F7xx_HAL_Driver/Src/stm32f7xx_hal_dcmi.c ****   /* Prevent unused argument(s) compilation warning */
 1127              		.loc 1 633 1 is_stmt 1 view -0
 1128              		.cfi_startproc
 1129              		@ args = 0, pretend = 0, frame = 0
 1130              		@ frame_needed = 0, uses_anonymous_args = 0
 1131              		@ link register save eliminated.
 635:Drivers/STM32F7xx_HAL_Driver/Src/stm32f7xx_hal_dcmi.c ****  
 1132              		.loc 1 635 3 view .LVU374
 640:Drivers/STM32F7xx_HAL_Driver/Src/stm32f7xx_hal_dcmi.c **** 
 1133              		.loc 1 640 1 is_stmt 0 view .LVU375
 1134 0000 7047     		bx	lr
 1135              		.cfi_endproc
 1136              	.LFE150:
 1138              		.section	.text.HAL_DCMI_IRQHandler,"ax",%progbits
 1139              		.align	1
 1140              		.global	HAL_DCMI_IRQHandler
 1141              		.syntax unified
 1142              		.thumb
 1143              		.thumb_func
 1144              		.fpu fpv5-sp-d16
 1146              	HAL_DCMI_IRQHandler:
 1147              	.LVL67:
 1148              	.LFB146:
 503:Drivers/STM32F7xx_HAL_Driver/Src/stm32f7xx_hal_dcmi.c ****   uint32_t isr_value = READ_REG(hdcmi->Instance->MISR);
 1149              		.loc 1 503 1 is_stmt 1 view -0
 1150              		.cfi_startproc
 1151              		@ args = 0, pretend = 0, frame = 0
ARM GAS  C:\Users\Nina\AppData\Local\Temp\cc8ClKuc.s 			page 42


 1152              		@ frame_needed = 0, uses_anonymous_args = 0
 503:Drivers/STM32F7xx_HAL_Driver/Src/stm32f7xx_hal_dcmi.c ****   uint32_t isr_value = READ_REG(hdcmi->Instance->MISR);
 1153              		.loc 1 503 1 is_stmt 0 view .LVU377
 1154 0000 38B5     		push	{r3, r4, r5, lr}
 1155              	.LCFI10:
 1156              		.cfi_def_cfa_offset 16
 1157              		.cfi_offset 3, -16
 1158              		.cfi_offset 4, -12
 1159              		.cfi_offset 5, -8
 1160              		.cfi_offset 14, -4
 1161 0002 0446     		mov	r4, r0
 504:Drivers/STM32F7xx_HAL_Driver/Src/stm32f7xx_hal_dcmi.c ****   
 1162              		.loc 1 504 3 is_stmt 1 view .LVU378
 504:Drivers/STM32F7xx_HAL_Driver/Src/stm32f7xx_hal_dcmi.c ****   
 1163              		.loc 1 504 24 is_stmt 0 view .LVU379
 1164 0004 0368     		ldr	r3, [r0]
 504:Drivers/STM32F7xx_HAL_Driver/Src/stm32f7xx_hal_dcmi.c ****   
 1165              		.loc 1 504 12 view .LVU380
 1166 0006 1D69     		ldr	r5, [r3, #16]
 1167              	.LVL68:
 507:Drivers/STM32F7xx_HAL_Driver/Src/stm32f7xx_hal_dcmi.c ****   {
 1168              		.loc 1 507 3 is_stmt 1 view .LVU381
 507:Drivers/STM32F7xx_HAL_Driver/Src/stm32f7xx_hal_dcmi.c ****   {
 1169              		.loc 1 507 5 is_stmt 0 view .LVU382
 1170 0008 15F0040F 		tst	r5, #4
 1171 000c 20D1     		bne	.L80
 1172              	.LVL69:
 1173              	.L73:
 525:Drivers/STM32F7xx_HAL_Driver/Src/stm32f7xx_hal_dcmi.c ****   {
 1174              		.loc 1 525 3 is_stmt 1 view .LVU383
 525:Drivers/STM32F7xx_HAL_Driver/Src/stm32f7xx_hal_dcmi.c ****   {
 1175              		.loc 1 525 5 is_stmt 0 view .LVU384
 1176 000e 15F0020F 		tst	r5, #2
 1177 0012 2CD1     		bne	.L81
 1178              	.L74:
 543:Drivers/STM32F7xx_HAL_Driver/Src/stm32f7xx_hal_dcmi.c ****   {
 1179              		.loc 1 543 3 is_stmt 1 view .LVU385
 543:Drivers/STM32F7xx_HAL_Driver/Src/stm32f7xx_hal_dcmi.c ****   {
 1180              		.loc 1 543 5 is_stmt 0 view .LVU386
 1181 0014 15F0100F 		tst	r5, #16
 1182 0018 3AD1     		bne	.L82
 1183              	.L75:
 552:Drivers/STM32F7xx_HAL_Driver/Src/stm32f7xx_hal_dcmi.c ****   {
 1184              		.loc 1 552 3 is_stmt 1 view .LVU387
 552:Drivers/STM32F7xx_HAL_Driver/Src/stm32f7xx_hal_dcmi.c ****   {
 1185              		.loc 1 552 5 is_stmt 0 view .LVU388
 1186 001a 15F0080F 		tst	r5, #8
 1187 001e 3ED1     		bne	.L83
 1188              	.L76:
 561:Drivers/STM32F7xx_HAL_Driver/Src/stm32f7xx_hal_dcmi.c ****   {
 1189              		.loc 1 561 3 is_stmt 1 view .LVU389
 561:Drivers/STM32F7xx_HAL_Driver/Src/stm32f7xx_hal_dcmi.c ****   {
 1190              		.loc 1 561 5 is_stmt 0 view .LVU390
 1191 0020 15F0010F 		tst	r5, #1
 1192 0024 13D0     		beq	.L72
 564:Drivers/STM32F7xx_HAL_Driver/Src/stm32f7xx_hal_dcmi.c ****     { 
 1193              		.loc 1 564 5 is_stmt 1 view .LVU391
ARM GAS  C:\Users\Nina\AppData\Local\Temp\cc8ClKuc.s 			page 43


 564:Drivers/STM32F7xx_HAL_Driver/Src/stm32f7xx_hal_dcmi.c ****     { 
 1194              		.loc 1 564 14 is_stmt 0 view .LVU392
 1195 0026 2368     		ldr	r3, [r4]
 564:Drivers/STM32F7xx_HAL_Driver/Src/stm32f7xx_hal_dcmi.c ****     { 
 1196              		.loc 1 564 24 view .LVU393
 1197 0028 1A68     		ldr	r2, [r3]
 564:Drivers/STM32F7xx_HAL_Driver/Src/stm32f7xx_hal_dcmi.c ****     { 
 1198              		.loc 1 564 7 view .LVU394
 1199 002a 12F0020F 		tst	r2, #2
 1200 002e 03D0     		beq	.L78
 567:Drivers/STM32F7xx_HAL_Driver/Src/stm32f7xx_hal_dcmi.c ****     }
 1201              		.loc 1 567 7 is_stmt 1 view .LVU395
 1202 0030 DA68     		ldr	r2, [r3, #12]
 1203 0032 22F01E02 		bic	r2, r2, #30
 1204 0036 DA60     		str	r2, [r3, #12]
 1205              	.L78:
 571:Drivers/STM32F7xx_HAL_Driver/Src/stm32f7xx_hal_dcmi.c ****     
 1206              		.loc 1 571 5 view .LVU396
 1207 0038 2268     		ldr	r2, [r4]
 1208 003a D368     		ldr	r3, [r2, #12]
 1209 003c 23F00103 		bic	r3, r3, #1
 1210 0040 D360     		str	r3, [r2, #12]
 574:Drivers/STM32F7xx_HAL_Driver/Src/stm32f7xx_hal_dcmi.c ****     
 1211              		.loc 1 574 5 view .LVU397
 1212 0042 2368     		ldr	r3, [r4]
 1213 0044 0122     		movs	r2, #1
 1214 0046 5A61     		str	r2, [r3, #20]
 577:Drivers/STM32F7xx_HAL_Driver/Src/stm32f7xx_hal_dcmi.c ****   }
 1215              		.loc 1 577 5 view .LVU398
 1216 0048 2046     		mov	r0, r4
 1217 004a FFF7FEFF 		bl	HAL_DCMI_FrameEventCallback
 1218              	.LVL70:
 1219              	.L72:
 579:Drivers/STM32F7xx_HAL_Driver/Src/stm32f7xx_hal_dcmi.c **** 
 1220              		.loc 1 579 1 is_stmt 0 view .LVU399
 1221 004e 38BD     		pop	{r3, r4, r5, pc}
 1222              	.LVL71:
 1223              	.L80:
 510:Drivers/STM32F7xx_HAL_Driver/Src/stm32f7xx_hal_dcmi.c ****     
 1224              		.loc 1 510 5 is_stmt 1 view .LVU400
 1225 0050 0422     		movs	r2, #4
 1226 0052 5A61     		str	r2, [r3, #20]
 513:Drivers/STM32F7xx_HAL_Driver/Src/stm32f7xx_hal_dcmi.c ****     
 1227              		.loc 1 513 5 view .LVU401
 513:Drivers/STM32F7xx_HAL_Driver/Src/stm32f7xx_hal_dcmi.c ****     
 1228              		.loc 1 513 22 is_stmt 0 view .LVU402
 1229 0054 C36C     		ldr	r3, [r0, #76]
 1230 0056 43F00203 		orr	r3, r3, #2
 1231 005a C364     		str	r3, [r0, #76]
 516:Drivers/STM32F7xx_HAL_Driver/Src/stm32f7xx_hal_dcmi.c ****     
 1232              		.loc 1 516 5 is_stmt 1 view .LVU403
 516:Drivers/STM32F7xx_HAL_Driver/Src/stm32f7xx_hal_dcmi.c ****     
 1233              		.loc 1 516 18 is_stmt 0 view .LVU404
 1234 005c 80F83520 		strb	r2, [r0, #53]
 519:Drivers/STM32F7xx_HAL_Driver/Src/stm32f7xx_hal_dcmi.c ****     
 1235              		.loc 1 519 5 is_stmt 1 view .LVU405
 519:Drivers/STM32F7xx_HAL_Driver/Src/stm32f7xx_hal_dcmi.c ****     
ARM GAS  C:\Users\Nina\AppData\Local\Temp\cc8ClKuc.s 			page 44


 1236              		.loc 1 519 10 is_stmt 0 view .LVU406
 1237 0060 836C     		ldr	r3, [r0, #72]
 519:Drivers/STM32F7xx_HAL_Driver/Src/stm32f7xx_hal_dcmi.c ****     
 1238              		.loc 1 519 42 view .LVU407
 1239 0062 124A     		ldr	r2, .L84
 1240 0064 1A65     		str	r2, [r3, #80]
 522:Drivers/STM32F7xx_HAL_Driver/Src/stm32f7xx_hal_dcmi.c ****   }
 1241              		.loc 1 522 5 is_stmt 1 view .LVU408
 1242 0066 806C     		ldr	r0, [r0, #72]
 1243              	.LVL72:
 522:Drivers/STM32F7xx_HAL_Driver/Src/stm32f7xx_hal_dcmi.c ****   }
 1244              		.loc 1 522 5 is_stmt 0 view .LVU409
 1245 0068 FFF7FEFF 		bl	HAL_DMA_Abort_IT
 1246              	.LVL73:
 1247 006c CFE7     		b	.L73
 1248              	.L81:
 528:Drivers/STM32F7xx_HAL_Driver/Src/stm32f7xx_hal_dcmi.c ****     
 1249              		.loc 1 528 5 is_stmt 1 view .LVU410
 1250 006e 2368     		ldr	r3, [r4]
 1251 0070 0222     		movs	r2, #2
 1252 0072 5A61     		str	r2, [r3, #20]
 531:Drivers/STM32F7xx_HAL_Driver/Src/stm32f7xx_hal_dcmi.c ****     
 1253              		.loc 1 531 5 view .LVU411
 531:Drivers/STM32F7xx_HAL_Driver/Src/stm32f7xx_hal_dcmi.c ****     
 1254              		.loc 1 531 22 is_stmt 0 view .LVU412
 1255 0074 E36C     		ldr	r3, [r4, #76]
 1256 0076 43F00103 		orr	r3, r3, #1
 1257 007a E364     		str	r3, [r4, #76]
 534:Drivers/STM32F7xx_HAL_Driver/Src/stm32f7xx_hal_dcmi.c ****     
 1258              		.loc 1 534 5 is_stmt 1 view .LVU413
 534:Drivers/STM32F7xx_HAL_Driver/Src/stm32f7xx_hal_dcmi.c ****     
 1259              		.loc 1 534 18 is_stmt 0 view .LVU414
 1260 007c 0423     		movs	r3, #4
 1261 007e 84F83530 		strb	r3, [r4, #53]
 537:Drivers/STM32F7xx_HAL_Driver/Src/stm32f7xx_hal_dcmi.c ****     
 1262              		.loc 1 537 5 is_stmt 1 view .LVU415
 537:Drivers/STM32F7xx_HAL_Driver/Src/stm32f7xx_hal_dcmi.c ****     
 1263              		.loc 1 537 10 is_stmt 0 view .LVU416
 1264 0082 A36C     		ldr	r3, [r4, #72]
 537:Drivers/STM32F7xx_HAL_Driver/Src/stm32f7xx_hal_dcmi.c ****     
 1265              		.loc 1 537 42 view .LVU417
 1266 0084 094A     		ldr	r2, .L84
 1267 0086 1A65     		str	r2, [r3, #80]
 540:Drivers/STM32F7xx_HAL_Driver/Src/stm32f7xx_hal_dcmi.c ****   }
 1268              		.loc 1 540 5 is_stmt 1 view .LVU418
 1269 0088 A06C     		ldr	r0, [r4, #72]
 1270 008a FFF7FEFF 		bl	HAL_DMA_Abort_IT
 1271              	.LVL74:
 1272 008e C1E7     		b	.L74
 1273              	.L82:
 546:Drivers/STM32F7xx_HAL_Driver/Src/stm32f7xx_hal_dcmi.c ****     
 1274              		.loc 1 546 5 view .LVU419
 1275 0090 2368     		ldr	r3, [r4]
 1276 0092 1022     		movs	r2, #16
 1277 0094 5A61     		str	r2, [r3, #20]
 549:Drivers/STM32F7xx_HAL_Driver/Src/stm32f7xx_hal_dcmi.c ****   }
 1278              		.loc 1 549 5 view .LVU420
ARM GAS  C:\Users\Nina\AppData\Local\Temp\cc8ClKuc.s 			page 45


 1279 0096 2046     		mov	r0, r4
 1280 0098 FFF7FEFF 		bl	HAL_DCMI_LineEventCallback
 1281              	.LVL75:
 1282 009c BDE7     		b	.L75
 1283              	.L83:
 555:Drivers/STM32F7xx_HAL_Driver/Src/stm32f7xx_hal_dcmi.c ****     
 1284              		.loc 1 555 5 view .LVU421
 1285 009e 2368     		ldr	r3, [r4]
 1286 00a0 0822     		movs	r2, #8
 1287 00a2 5A61     		str	r2, [r3, #20]
 558:Drivers/STM32F7xx_HAL_Driver/Src/stm32f7xx_hal_dcmi.c ****   }
 1288              		.loc 1 558 5 view .LVU422
 1289 00a4 2046     		mov	r0, r4
 1290 00a6 FFF7FEFF 		bl	HAL_DCMI_VsyncEventCallback
 1291              	.LVL76:
 1292 00aa B9E7     		b	.L76
 1293              	.L85:
 1294              		.align	2
 1295              	.L84:
 1296 00ac 00000000 		.word	DCMI_DMAError
 1297              		.cfi_endproc
 1298              	.LFE146:
 1300              		.section	.text.HAL_DCMI_ConfigCrop,"ax",%progbits
 1301              		.align	1
 1302              		.global	HAL_DCMI_ConfigCrop
 1303              		.syntax unified
 1304              		.thumb
 1305              		.thumb_func
 1306              		.fpu fpv5-sp-d16
 1308              	HAL_DCMI_ConfigCrop:
 1309              	.LVL77:
 1310              	.LFB151:
 673:Drivers/STM32F7xx_HAL_Driver/Src/stm32f7xx_hal_dcmi.c ****   /* Process Locked */
 1311              		.loc 1 673 1 view -0
 1312              		.cfi_startproc
 1313              		@ args = 4, pretend = 0, frame = 0
 1314              		@ frame_needed = 0, uses_anonymous_args = 0
 1315              		@ link register save eliminated.
 673:Drivers/STM32F7xx_HAL_Driver/Src/stm32f7xx_hal_dcmi.c ****   /* Process Locked */
 1316              		.loc 1 673 1 is_stmt 0 view .LVU424
 1317 0000 30B4     		push	{r4, r5}
 1318              	.LCFI11:
 1319              		.cfi_def_cfa_offset 8
 1320              		.cfi_offset 4, -8
 1321              		.cfi_offset 5, -4
 675:Drivers/STM32F7xx_HAL_Driver/Src/stm32f7xx_hal_dcmi.c **** 
 1322              		.loc 1 675 3 is_stmt 1 view .LVU425
 675:Drivers/STM32F7xx_HAL_Driver/Src/stm32f7xx_hal_dcmi.c **** 
 1323              		.loc 1 675 3 view .LVU426
 1324 0002 90F83440 		ldrb	r4, [r0, #52]	@ zero_extendqisi2
 1325 0006 012C     		cmp	r4, #1
 1326 0008 14D0     		beq	.L88
 675:Drivers/STM32F7xx_HAL_Driver/Src/stm32f7xx_hal_dcmi.c **** 
 1327              		.loc 1 675 3 discriminator 2 view .LVU427
 675:Drivers/STM32F7xx_HAL_Driver/Src/stm32f7xx_hal_dcmi.c **** 
 1328              		.loc 1 675 3 discriminator 2 view .LVU428
 678:Drivers/STM32F7xx_HAL_Driver/Src/stm32f7xx_hal_dcmi.c **** 
ARM GAS  C:\Users\Nina\AppData\Local\Temp\cc8ClKuc.s 			page 46


 1329              		.loc 1 678 3 discriminator 2 view .LVU429
 678:Drivers/STM32F7xx_HAL_Driver/Src/stm32f7xx_hal_dcmi.c **** 
 1330              		.loc 1 678 16 is_stmt 0 discriminator 2 view .LVU430
 1331 000a 0224     		movs	r4, #2
 1332 000c 80F83540 		strb	r4, [r0, #53]
 681:Drivers/STM32F7xx_HAL_Driver/Src/stm32f7xx_hal_dcmi.c ****   assert_param(IS_DCMI_WINDOW_HEIGHT(Y0));
 1333              		.loc 1 681 3 is_stmt 1 discriminator 2 view .LVU431
 682:Drivers/STM32F7xx_HAL_Driver/Src/stm32f7xx_hal_dcmi.c ****   assert_param(IS_DCMI_WINDOW_COORDINATE(XSize));
 1334              		.loc 1 682 3 discriminator 2 view .LVU432
 683:Drivers/STM32F7xx_HAL_Driver/Src/stm32f7xx_hal_dcmi.c ****   assert_param(IS_DCMI_WINDOW_COORDINATE(YSize));
 1335              		.loc 1 683 3 discriminator 2 view .LVU433
 684:Drivers/STM32F7xx_HAL_Driver/Src/stm32f7xx_hal_dcmi.c **** 	
 1336              		.loc 1 684 3 discriminator 2 view .LVU434
 687:Drivers/STM32F7xx_HAL_Driver/Src/stm32f7xx_hal_dcmi.c ****   hdcmi->Instance->CWSTRTR = (X0 | (Y0 << DCMI_CWSTRT_VST_Pos));
 1337              		.loc 1 687 3 discriminator 2 view .LVU435
 687:Drivers/STM32F7xx_HAL_Driver/Src/stm32f7xx_hal_dcmi.c ****   hdcmi->Instance->CWSTRTR = (X0 | (Y0 << DCMI_CWSTRT_VST_Pos));
 1338              		.loc 1 687 8 is_stmt 0 discriminator 2 view .LVU436
 1339 0010 0468     		ldr	r4, [r0]
 687:Drivers/STM32F7xx_HAL_Driver/Src/stm32f7xx_hal_dcmi.c ****   hdcmi->Instance->CWSTRTR = (X0 | (Y0 << DCMI_CWSTRT_VST_Pos));
 1340              		.loc 1 687 37 discriminator 2 view .LVU437
 1341 0012 029D     		ldr	r5, [sp, #8]
 1342 0014 43EA0543 		orr	r3, r3, r5, lsl #16
 1343              	.LVL78:
 687:Drivers/STM32F7xx_HAL_Driver/Src/stm32f7xx_hal_dcmi.c ****   hdcmi->Instance->CWSTRTR = (X0 | (Y0 << DCMI_CWSTRT_VST_Pos));
 1344              		.loc 1 687 28 discriminator 2 view .LVU438
 1345 0018 6362     		str	r3, [r4, #36]
 688:Drivers/STM32F7xx_HAL_Driver/Src/stm32f7xx_hal_dcmi.c **** 
 1346              		.loc 1 688 3 is_stmt 1 discriminator 2 view .LVU439
 688:Drivers/STM32F7xx_HAL_Driver/Src/stm32f7xx_hal_dcmi.c **** 
 1347              		.loc 1 688 8 is_stmt 0 discriminator 2 view .LVU440
 1348 001a 0368     		ldr	r3, [r0]
 688:Drivers/STM32F7xx_HAL_Driver/Src/stm32f7xx_hal_dcmi.c **** 
 1349              		.loc 1 688 34 discriminator 2 view .LVU441
 1350 001c 41EA0241 		orr	r1, r1, r2, lsl #16
 1351              	.LVL79:
 688:Drivers/STM32F7xx_HAL_Driver/Src/stm32f7xx_hal_dcmi.c **** 
 1352              		.loc 1 688 28 discriminator 2 view .LVU442
 1353 0020 1962     		str	r1, [r3, #32]
 691:Drivers/STM32F7xx_HAL_Driver/Src/stm32f7xx_hal_dcmi.c **** 
 1354              		.loc 1 691 3 is_stmt 1 discriminator 2 view .LVU443
 691:Drivers/STM32F7xx_HAL_Driver/Src/stm32f7xx_hal_dcmi.c **** 
 1355              		.loc 1 691 17 is_stmt 0 discriminator 2 view .LVU444
 1356 0022 0123     		movs	r3, #1
 1357 0024 80F83530 		strb	r3, [r0, #53]
 694:Drivers/STM32F7xx_HAL_Driver/Src/stm32f7xx_hal_dcmi.c **** 
 1358              		.loc 1 694 3 is_stmt 1 discriminator 2 view .LVU445
 694:Drivers/STM32F7xx_HAL_Driver/Src/stm32f7xx_hal_dcmi.c **** 
 1359              		.loc 1 694 3 discriminator 2 view .LVU446
 1360 0028 0023     		movs	r3, #0
 1361 002a 80F83430 		strb	r3, [r0, #52]
 694:Drivers/STM32F7xx_HAL_Driver/Src/stm32f7xx_hal_dcmi.c **** 
 1362              		.loc 1 694 3 discriminator 2 view .LVU447
 696:Drivers/STM32F7xx_HAL_Driver/Src/stm32f7xx_hal_dcmi.c **** }
 1363              		.loc 1 696 3 discriminator 2 view .LVU448
 696:Drivers/STM32F7xx_HAL_Driver/Src/stm32f7xx_hal_dcmi.c **** }
 1364              		.loc 1 696 10 is_stmt 0 discriminator 2 view .LVU449
 1365 002e 1846     		mov	r0, r3
ARM GAS  C:\Users\Nina\AppData\Local\Temp\cc8ClKuc.s 			page 47


 1366              	.LVL80:
 1367              	.L87:
 697:Drivers/STM32F7xx_HAL_Driver/Src/stm32f7xx_hal_dcmi.c **** 
 1368              		.loc 1 697 1 view .LVU450
 1369 0030 30BC     		pop	{r4, r5}
 1370              	.LCFI12:
 1371              		.cfi_remember_state
 1372              		.cfi_restore 5
 1373              		.cfi_restore 4
 1374              		.cfi_def_cfa_offset 0
 1375              	.LVL81:
 697:Drivers/STM32F7xx_HAL_Driver/Src/stm32f7xx_hal_dcmi.c **** 
 1376              		.loc 1 697 1 view .LVU451
 1377 0032 7047     		bx	lr
 1378              	.LVL82:
 1379              	.L88:
 1380              	.LCFI13:
 1381              		.cfi_restore_state
 675:Drivers/STM32F7xx_HAL_Driver/Src/stm32f7xx_hal_dcmi.c **** 
 1382              		.loc 1 675 3 view .LVU452
 1383 0034 0220     		movs	r0, #2
 1384              	.LVL83:
 675:Drivers/STM32F7xx_HAL_Driver/Src/stm32f7xx_hal_dcmi.c **** 
 1385              		.loc 1 675 3 view .LVU453
 1386 0036 FBE7     		b	.L87
 1387              		.cfi_endproc
 1388              	.LFE151:
 1390              		.section	.text.HAL_DCMI_DisableCrop,"ax",%progbits
 1391              		.align	1
 1392              		.global	HAL_DCMI_DisableCrop
 1393              		.syntax unified
 1394              		.thumb
 1395              		.thumb_func
 1396              		.fpu fpv5-sp-d16
 1398              	HAL_DCMI_DisableCrop:
 1399              	.LVL84:
 1400              	.LFB152:
 706:Drivers/STM32F7xx_HAL_Driver/Src/stm32f7xx_hal_dcmi.c ****   /* Process Locked */
 1401              		.loc 1 706 1 is_stmt 1 view -0
 1402              		.cfi_startproc
 1403              		@ args = 0, pretend = 0, frame = 0
 1404              		@ frame_needed = 0, uses_anonymous_args = 0
 1405              		@ link register save eliminated.
 708:Drivers/STM32F7xx_HAL_Driver/Src/stm32f7xx_hal_dcmi.c **** 
 1406              		.loc 1 708 3 view .LVU455
 708:Drivers/STM32F7xx_HAL_Driver/Src/stm32f7xx_hal_dcmi.c **** 
 1407              		.loc 1 708 3 view .LVU456
 1408 0000 90F83430 		ldrb	r3, [r0, #52]	@ zero_extendqisi2
 1409 0004 012B     		cmp	r3, #1
 1410 0006 11D0     		beq	.L92
 708:Drivers/STM32F7xx_HAL_Driver/Src/stm32f7xx_hal_dcmi.c **** 
 1411              		.loc 1 708 3 discriminator 2 view .LVU457
 1412 0008 0122     		movs	r2, #1
 1413 000a 80F83420 		strb	r2, [r0, #52]
 708:Drivers/STM32F7xx_HAL_Driver/Src/stm32f7xx_hal_dcmi.c **** 
 1414              		.loc 1 708 3 discriminator 2 view .LVU458
 711:Drivers/STM32F7xx_HAL_Driver/Src/stm32f7xx_hal_dcmi.c **** 
ARM GAS  C:\Users\Nina\AppData\Local\Temp\cc8ClKuc.s 			page 48


 1415              		.loc 1 711 3 discriminator 2 view .LVU459
 711:Drivers/STM32F7xx_HAL_Driver/Src/stm32f7xx_hal_dcmi.c **** 
 1416              		.loc 1 711 16 is_stmt 0 discriminator 2 view .LVU460
 1417 000e 0223     		movs	r3, #2
 1418 0010 80F83530 		strb	r3, [r0, #53]
 714:Drivers/STM32F7xx_HAL_Driver/Src/stm32f7xx_hal_dcmi.c **** 
 1419              		.loc 1 714 3 is_stmt 1 discriminator 2 view .LVU461
 714:Drivers/STM32F7xx_HAL_Driver/Src/stm32f7xx_hal_dcmi.c **** 
 1420              		.loc 1 714 8 is_stmt 0 discriminator 2 view .LVU462
 1421 0014 0168     		ldr	r1, [r0]
 714:Drivers/STM32F7xx_HAL_Driver/Src/stm32f7xx_hal_dcmi.c **** 
 1422              		.loc 1 714 23 discriminator 2 view .LVU463
 1423 0016 0B68     		ldr	r3, [r1]
 1424 0018 23F00403 		bic	r3, r3, #4
 1425 001c 0B60     		str	r3, [r1]
 717:Drivers/STM32F7xx_HAL_Driver/Src/stm32f7xx_hal_dcmi.c **** 
 1426              		.loc 1 717 3 is_stmt 1 discriminator 2 view .LVU464
 717:Drivers/STM32F7xx_HAL_Driver/Src/stm32f7xx_hal_dcmi.c **** 
 1427              		.loc 1 717 16 is_stmt 0 discriminator 2 view .LVU465
 1428 001e 80F83520 		strb	r2, [r0, #53]
 720:Drivers/STM32F7xx_HAL_Driver/Src/stm32f7xx_hal_dcmi.c **** 
 1429              		.loc 1 720 3 is_stmt 1 discriminator 2 view .LVU466
 720:Drivers/STM32F7xx_HAL_Driver/Src/stm32f7xx_hal_dcmi.c **** 
 1430              		.loc 1 720 3 discriminator 2 view .LVU467
 1431 0022 0023     		movs	r3, #0
 1432 0024 80F83430 		strb	r3, [r0, #52]
 720:Drivers/STM32F7xx_HAL_Driver/Src/stm32f7xx_hal_dcmi.c **** 
 1433              		.loc 1 720 3 discriminator 2 view .LVU468
 722:Drivers/STM32F7xx_HAL_Driver/Src/stm32f7xx_hal_dcmi.c **** }
 1434              		.loc 1 722 3 discriminator 2 view .LVU469
 722:Drivers/STM32F7xx_HAL_Driver/Src/stm32f7xx_hal_dcmi.c **** }
 1435              		.loc 1 722 10 is_stmt 0 discriminator 2 view .LVU470
 1436 0028 1846     		mov	r0, r3
 1437              	.LVL85:
 722:Drivers/STM32F7xx_HAL_Driver/Src/stm32f7xx_hal_dcmi.c **** }
 1438              		.loc 1 722 10 discriminator 2 view .LVU471
 1439 002a 7047     		bx	lr
 1440              	.LVL86:
 1441              	.L92:
 708:Drivers/STM32F7xx_HAL_Driver/Src/stm32f7xx_hal_dcmi.c **** 
 1442              		.loc 1 708 3 view .LVU472
 1443 002c 0220     		movs	r0, #2
 1444              	.LVL87:
 723:Drivers/STM32F7xx_HAL_Driver/Src/stm32f7xx_hal_dcmi.c **** 
 1445              		.loc 1 723 1 view .LVU473
 1446 002e 7047     		bx	lr
 1447              		.cfi_endproc
 1448              	.LFE152:
 1450              		.section	.text.HAL_DCMI_EnableCrop,"ax",%progbits
 1451              		.align	1
 1452              		.global	HAL_DCMI_EnableCrop
 1453              		.syntax unified
 1454              		.thumb
 1455              		.thumb_func
 1456              		.fpu fpv5-sp-d16
 1458              	HAL_DCMI_EnableCrop:
 1459              	.LVL88:
ARM GAS  C:\Users\Nina\AppData\Local\Temp\cc8ClKuc.s 			page 49


 1460              	.LFB153:
 732:Drivers/STM32F7xx_HAL_Driver/Src/stm32f7xx_hal_dcmi.c ****   /* Process Locked */
 1461              		.loc 1 732 1 is_stmt 1 view -0
 1462              		.cfi_startproc
 1463              		@ args = 0, pretend = 0, frame = 0
 1464              		@ frame_needed = 0, uses_anonymous_args = 0
 1465              		@ link register save eliminated.
 734:Drivers/STM32F7xx_HAL_Driver/Src/stm32f7xx_hal_dcmi.c **** 
 1466              		.loc 1 734 3 view .LVU475
 734:Drivers/STM32F7xx_HAL_Driver/Src/stm32f7xx_hal_dcmi.c **** 
 1467              		.loc 1 734 3 view .LVU476
 1468 0000 90F83430 		ldrb	r3, [r0, #52]	@ zero_extendqisi2
 1469 0004 012B     		cmp	r3, #1
 1470 0006 11D0     		beq	.L95
 734:Drivers/STM32F7xx_HAL_Driver/Src/stm32f7xx_hal_dcmi.c **** 
 1471              		.loc 1 734 3 discriminator 2 view .LVU477
 1472 0008 0122     		movs	r2, #1
 1473 000a 80F83420 		strb	r2, [r0, #52]
 734:Drivers/STM32F7xx_HAL_Driver/Src/stm32f7xx_hal_dcmi.c **** 
 1474              		.loc 1 734 3 discriminator 2 view .LVU478
 737:Drivers/STM32F7xx_HAL_Driver/Src/stm32f7xx_hal_dcmi.c **** 
 1475              		.loc 1 737 3 discriminator 2 view .LVU479
 737:Drivers/STM32F7xx_HAL_Driver/Src/stm32f7xx_hal_dcmi.c **** 
 1476              		.loc 1 737 16 is_stmt 0 discriminator 2 view .LVU480
 1477 000e 0223     		movs	r3, #2
 1478 0010 80F83530 		strb	r3, [r0, #53]
 740:Drivers/STM32F7xx_HAL_Driver/Src/stm32f7xx_hal_dcmi.c **** 
 1479              		.loc 1 740 3 is_stmt 1 discriminator 2 view .LVU481
 740:Drivers/STM32F7xx_HAL_Driver/Src/stm32f7xx_hal_dcmi.c **** 
 1480              		.loc 1 740 8 is_stmt 0 discriminator 2 view .LVU482
 1481 0014 0168     		ldr	r1, [r0]
 740:Drivers/STM32F7xx_HAL_Driver/Src/stm32f7xx_hal_dcmi.c **** 
 1482              		.loc 1 740 23 discriminator 2 view .LVU483
 1483 0016 0B68     		ldr	r3, [r1]
 1484 0018 43F00403 		orr	r3, r3, #4
 1485 001c 0B60     		str	r3, [r1]
 743:Drivers/STM32F7xx_HAL_Driver/Src/stm32f7xx_hal_dcmi.c **** 
 1486              		.loc 1 743 3 is_stmt 1 discriminator 2 view .LVU484
 743:Drivers/STM32F7xx_HAL_Driver/Src/stm32f7xx_hal_dcmi.c **** 
 1487              		.loc 1 743 16 is_stmt 0 discriminator 2 view .LVU485
 1488 001e 80F83520 		strb	r2, [r0, #53]
 746:Drivers/STM32F7xx_HAL_Driver/Src/stm32f7xx_hal_dcmi.c **** 
 1489              		.loc 1 746 3 is_stmt 1 discriminator 2 view .LVU486
 746:Drivers/STM32F7xx_HAL_Driver/Src/stm32f7xx_hal_dcmi.c **** 
 1490              		.loc 1 746 3 discriminator 2 view .LVU487
 1491 0022 0023     		movs	r3, #0
 1492 0024 80F83430 		strb	r3, [r0, #52]
 746:Drivers/STM32F7xx_HAL_Driver/Src/stm32f7xx_hal_dcmi.c **** 
 1493              		.loc 1 746 3 discriminator 2 view .LVU488
 748:Drivers/STM32F7xx_HAL_Driver/Src/stm32f7xx_hal_dcmi.c **** }
 1494              		.loc 1 748 3 discriminator 2 view .LVU489
 748:Drivers/STM32F7xx_HAL_Driver/Src/stm32f7xx_hal_dcmi.c **** }
 1495              		.loc 1 748 10 is_stmt 0 discriminator 2 view .LVU490
 1496 0028 1846     		mov	r0, r3
 1497              	.LVL89:
 748:Drivers/STM32F7xx_HAL_Driver/Src/stm32f7xx_hal_dcmi.c **** }
 1498              		.loc 1 748 10 discriminator 2 view .LVU491
ARM GAS  C:\Users\Nina\AppData\Local\Temp\cc8ClKuc.s 			page 50


 1499 002a 7047     		bx	lr
 1500              	.LVL90:
 1501              	.L95:
 734:Drivers/STM32F7xx_HAL_Driver/Src/stm32f7xx_hal_dcmi.c **** 
 1502              		.loc 1 734 3 view .LVU492
 1503 002c 0220     		movs	r0, #2
 1504              	.LVL91:
 749:Drivers/STM32F7xx_HAL_Driver/Src/stm32f7xx_hal_dcmi.c **** 
 1505              		.loc 1 749 1 view .LVU493
 1506 002e 7047     		bx	lr
 1507              		.cfi_endproc
 1508              	.LFE153:
 1510              		.section	.text.HAL_DCMI_GetState,"ax",%progbits
 1511              		.align	1
 1512              		.global	HAL_DCMI_GetState
 1513              		.syntax unified
 1514              		.thumb
 1515              		.thumb_func
 1516              		.fpu fpv5-sp-d16
 1518              	HAL_DCMI_GetState:
 1519              	.LVL92:
 1520              	.LFB154:
 778:Drivers/STM32F7xx_HAL_Driver/Src/stm32f7xx_hal_dcmi.c ****   return hdcmi->State;
 1521              		.loc 1 778 1 is_stmt 1 view -0
 1522              		.cfi_startproc
 1523              		@ args = 0, pretend = 0, frame = 0
 1524              		@ frame_needed = 0, uses_anonymous_args = 0
 1525              		@ link register save eliminated.
 779:Drivers/STM32F7xx_HAL_Driver/Src/stm32f7xx_hal_dcmi.c **** }
 1526              		.loc 1 779 3 view .LVU495
 779:Drivers/STM32F7xx_HAL_Driver/Src/stm32f7xx_hal_dcmi.c **** }
 1527              		.loc 1 779 15 is_stmt 0 view .LVU496
 1528 0000 90F83500 		ldrb	r0, [r0, #53]	@ zero_extendqisi2
 1529              	.LVL93:
 780:Drivers/STM32F7xx_HAL_Driver/Src/stm32f7xx_hal_dcmi.c **** 
 1530              		.loc 1 780 1 view .LVU497
 1531 0004 7047     		bx	lr
 1532              		.cfi_endproc
 1533              	.LFE154:
 1535              		.section	.text.HAL_DCMI_GetError,"ax",%progbits
 1536              		.align	1
 1537              		.global	HAL_DCMI_GetError
 1538              		.syntax unified
 1539              		.thumb
 1540              		.thumb_func
 1541              		.fpu fpv5-sp-d16
 1543              	HAL_DCMI_GetError:
 1544              	.LVL94:
 1545              	.LFB155:
 789:Drivers/STM32F7xx_HAL_Driver/Src/stm32f7xx_hal_dcmi.c ****   return hdcmi->ErrorCode;
 1546              		.loc 1 789 1 is_stmt 1 view -0
 1547              		.cfi_startproc
 1548              		@ args = 0, pretend = 0, frame = 0
 1549              		@ frame_needed = 0, uses_anonymous_args = 0
 1550              		@ link register save eliminated.
 790:Drivers/STM32F7xx_HAL_Driver/Src/stm32f7xx_hal_dcmi.c **** }
 1551              		.loc 1 790 3 view .LVU499
ARM GAS  C:\Users\Nina\AppData\Local\Temp\cc8ClKuc.s 			page 51


 790:Drivers/STM32F7xx_HAL_Driver/Src/stm32f7xx_hal_dcmi.c **** }
 1552              		.loc 1 790 15 is_stmt 0 view .LVU500
 1553 0000 C06C     		ldr	r0, [r0, #76]
 1554              	.LVL95:
 791:Drivers/STM32F7xx_HAL_Driver/Src/stm32f7xx_hal_dcmi.c **** 
 1555              		.loc 1 791 1 view .LVU501
 1556 0002 7047     		bx	lr
 1557              		.cfi_endproc
 1558              	.LFE155:
 1560              		.text
 1561              	.Letext0:
 1562              		.file 2 "c:\\program files (x86)\\gnu tools arm embedded\\9 2019-q4-major\\arm-none-eabi\\include\
 1563              		.file 3 "c:\\program files (x86)\\gnu tools arm embedded\\9 2019-q4-major\\arm-none-eabi\\include\
 1564              		.file 4 "Drivers/CMSIS/Include/core_cm7.h"
 1565              		.file 5 "Drivers/CMSIS/Device/ST/STM32F7xx/Include/system_stm32f7xx.h"
 1566              		.file 6 "Drivers/CMSIS/Device/ST/STM32F7xx/Include/stm32f746xx.h"
 1567              		.file 7 "c:\\program files (x86)\\gnu tools arm embedded\\9 2019-q4-major\\arm-none-eabi\\include\
 1568              		.file 8 "c:\\program files (x86)\\gnu tools arm embedded\\9 2019-q4-major\\arm-none-eabi\\include\
 1569              		.file 9 "c:\\program files (x86)\\gnu tools arm embedded\\9 2019-q4-major\\lib\\gcc\\arm-none-eabi
 1570              		.file 10 "c:\\program files (x86)\\gnu tools arm embedded\\9 2019-q4-major\\arm-none-eabi\\include
 1571              		.file 11 "Drivers/STM32F7xx_HAL_Driver/Inc/stm32f7xx_hal_def.h"
 1572              		.file 12 "Drivers/STM32F7xx_HAL_Driver/Inc/stm32f7xx_hal_dma.h"
 1573              		.file 13 "Drivers/STM32F7xx_HAL_Driver/Inc/stm32f7xx_hal_dma_ex.h"
 1574              		.file 14 "Drivers/STM32F7xx_HAL_Driver/Inc/stm32f7xx_hal_dcmi.h"
ARM GAS  C:\Users\Nina\AppData\Local\Temp\cc8ClKuc.s 			page 52

