ARM GAS  C:\Users\Nina\AppData\Local\Temp\cc8iatMz.s 			page 1


   1              		.cpu cortex-m7
   2              		.eabi_attribute 27, 1
   3              		.eabi_attribute 28, 1
   4              		.eabi_attribute 20, 1
   5              		.eabi_attribute 21, 1
   6              		.eabi_attribute 23, 3
   7              		.eabi_attribute 24, 1
   8              		.eabi_attribute 25, 1
   9              		.eabi_attribute 26, 1
  10              		.eabi_attribute 30, 1
  11              		.eabi_attribute 34, 1
  12              		.eabi_attribute 18, 4
  13              		.file	"sys_arch.c"
  14              		.text
  15              	.Ltext0:
  16              		.cfi_sections	.debug_frame
  17              		.section	.text.sys_mbox_new,"ax",%progbits
  18              		.align	1
  19              		.global	sys_mbox_new
  20              		.arch armv7e-m
  21              		.syntax unified
  22              		.thumb
  23              		.thumb_func
  24              		.fpu fpv5-sp-d16
  26              	sys_mbox_new:
  27              	.LVL0:
  28              	.LFB165:
  29              		.file 1 "Middlewares/Third_Party/LwIP/system/OS/sys_arch.c"
   1:Middlewares/Third_Party/LwIP/system/OS/sys_arch.c **** /*
   2:Middlewares/Third_Party/LwIP/system/OS/sys_arch.c ****  * Copyright (c) 2001-2003 Swedish Institute of Computer Science.
   3:Middlewares/Third_Party/LwIP/system/OS/sys_arch.c ****  * All rights reserved.
   4:Middlewares/Third_Party/LwIP/system/OS/sys_arch.c ****  *
   5:Middlewares/Third_Party/LwIP/system/OS/sys_arch.c ****  * Redistribution and use in source and binary forms, with or without modification,
   6:Middlewares/Third_Party/LwIP/system/OS/sys_arch.c ****  * are permitted provided that the following conditions are met:
   7:Middlewares/Third_Party/LwIP/system/OS/sys_arch.c ****  *
   8:Middlewares/Third_Party/LwIP/system/OS/sys_arch.c ****  * 1. Redistributions of source code must retain the above copyright notice,
   9:Middlewares/Third_Party/LwIP/system/OS/sys_arch.c ****  *    this list of conditions and the following disclaimer.
  10:Middlewares/Third_Party/LwIP/system/OS/sys_arch.c ****  * 2. Redistributions in binary form must reproduce the above copyright notice,
  11:Middlewares/Third_Party/LwIP/system/OS/sys_arch.c ****  *    this list of conditions and the following disclaimer in the documentation
  12:Middlewares/Third_Party/LwIP/system/OS/sys_arch.c ****  *    and/or other materials provided with the distribution.
  13:Middlewares/Third_Party/LwIP/system/OS/sys_arch.c ****  * 3. The name of the author may not be used to endorse or promote products
  14:Middlewares/Third_Party/LwIP/system/OS/sys_arch.c ****  *    derived from this software without specific prior written permission.
  15:Middlewares/Third_Party/LwIP/system/OS/sys_arch.c ****  *
  16:Middlewares/Third_Party/LwIP/system/OS/sys_arch.c ****  * THIS SOFTWARE IS PROVIDED BY THE AUTHOR ``AS IS'' AND ANY EXPRESS OR IMPLIED
  17:Middlewares/Third_Party/LwIP/system/OS/sys_arch.c ****  * WARRANTIES, INCLUDING, BUT NOT LIMITED TO, THE IMPLIED WARRANTIES OF
  18:Middlewares/Third_Party/LwIP/system/OS/sys_arch.c ****  * MERCHANTABILITY AND FITNESS FOR A PARTICULAR PURPOSE ARE DISCLAIMED. IN NO EVENT
  19:Middlewares/Third_Party/LwIP/system/OS/sys_arch.c ****  * SHALL THE AUTHOR BE LIABLE FOR ANY DIRECT, INDIRECT, INCIDENTAL, SPECIAL,
  20:Middlewares/Third_Party/LwIP/system/OS/sys_arch.c ****  * EXEMPLARY, OR CONSEQUENTIAL DAMAGES (INCLUDING, BUT NOT LIMITED TO, PROCUREMENT
  21:Middlewares/Third_Party/LwIP/system/OS/sys_arch.c ****  * OF SUBSTITUTE GOODS OR SERVICES; LOSS OF USE, DATA, OR PROFITS; OR BUSINESS
  22:Middlewares/Third_Party/LwIP/system/OS/sys_arch.c ****  * INTERRUPTION) HOWEVER CAUSED AND ON ANY THEORY OF LIABILITY, WHETHER IN
  23:Middlewares/Third_Party/LwIP/system/OS/sys_arch.c ****  * CONTRACT, STRICT LIABILITY, OR TORT (INCLUDING NEGLIGENCE OR OTHERWISE) ARISING
  24:Middlewares/Third_Party/LwIP/system/OS/sys_arch.c ****  * IN ANY WAY OUT OF THE USE OF THIS SOFTWARE, EVEN IF ADVISED OF THE POSSIBILITY
  25:Middlewares/Third_Party/LwIP/system/OS/sys_arch.c ****  * OF SUCH DAMAGE.
  26:Middlewares/Third_Party/LwIP/system/OS/sys_arch.c ****  *
  27:Middlewares/Third_Party/LwIP/system/OS/sys_arch.c ****  * This file is part of the lwIP TCP/IP stack.
  28:Middlewares/Third_Party/LwIP/system/OS/sys_arch.c ****  *
  29:Middlewares/Third_Party/LwIP/system/OS/sys_arch.c ****  * Author: Adam Dunkels <adam@sics.se>
ARM GAS  C:\Users\Nina\AppData\Local\Temp\cc8iatMz.s 			page 2


  30:Middlewares/Third_Party/LwIP/system/OS/sys_arch.c ****  *
  31:Middlewares/Third_Party/LwIP/system/OS/sys_arch.c ****  */
  32:Middlewares/Third_Party/LwIP/system/OS/sys_arch.c **** 
  33:Middlewares/Third_Party/LwIP/system/OS/sys_arch.c **** /* lwIP includes. */
  34:Middlewares/Third_Party/LwIP/system/OS/sys_arch.c **** #include "lwip/debug.h"
  35:Middlewares/Third_Party/LwIP/system/OS/sys_arch.c **** #include "lwip/def.h"
  36:Middlewares/Third_Party/LwIP/system/OS/sys_arch.c **** #include "lwip/sys.h"
  37:Middlewares/Third_Party/LwIP/system/OS/sys_arch.c **** #include "lwip/mem.h"
  38:Middlewares/Third_Party/LwIP/system/OS/sys_arch.c **** #include "lwip/stats.h"
  39:Middlewares/Third_Party/LwIP/system/OS/sys_arch.c **** 
  40:Middlewares/Third_Party/LwIP/system/OS/sys_arch.c **** #if !NO_SYS
  41:Middlewares/Third_Party/LwIP/system/OS/sys_arch.c **** 
  42:Middlewares/Third_Party/LwIP/system/OS/sys_arch.c **** #include "cmsis_os.h"
  43:Middlewares/Third_Party/LwIP/system/OS/sys_arch.c **** 
  44:Middlewares/Third_Party/LwIP/system/OS/sys_arch.c **** #if defined(LWIP_SOCKET_SET_ERRNO) && defined(LWIP_PROVIDE_ERRNO)
  45:Middlewares/Third_Party/LwIP/system/OS/sys_arch.c **** int errno;
  46:Middlewares/Third_Party/LwIP/system/OS/sys_arch.c **** #endif
  47:Middlewares/Third_Party/LwIP/system/OS/sys_arch.c **** 
  48:Middlewares/Third_Party/LwIP/system/OS/sys_arch.c **** /*-----------------------------------------------------------------------------------*/
  49:Middlewares/Third_Party/LwIP/system/OS/sys_arch.c **** //  Creates an empty mailbox.
  50:Middlewares/Third_Party/LwIP/system/OS/sys_arch.c **** err_t sys_mbox_new(sys_mbox_t *mbox, int size)
  51:Middlewares/Third_Party/LwIP/system/OS/sys_arch.c **** {
  30              		.loc 1 51 1 view -0
  31              		.cfi_startproc
  32              		@ args = 0, pretend = 0, frame = 8
  33              		@ frame_needed = 0, uses_anonymous_args = 0
  34              		.loc 1 51 1 is_stmt 0 view .LVU1
  35 0000 10B5     		push	{r4, lr}
  36              	.LCFI0:
  37              		.cfi_def_cfa_offset 8
  38              		.cfi_offset 4, -8
  39              		.cfi_offset 14, -4
  40 0002 82B0     		sub	sp, sp, #8
  41              	.LCFI1:
  42              		.cfi_def_cfa_offset 16
  43 0004 0446     		mov	r4, r0
  52:Middlewares/Third_Party/LwIP/system/OS/sys_arch.c ****   osMessageQDef(QUEUE, size, void *);
  44              		.loc 1 52 3 is_stmt 1 view .LVU2
  45 0006 0091     		str	r1, [sp]
  46 0008 0423     		movs	r3, #4
  47 000a 0193     		str	r3, [sp, #4]
  53:Middlewares/Third_Party/LwIP/system/OS/sys_arch.c ****   
  54:Middlewares/Third_Party/LwIP/system/OS/sys_arch.c ****   *mbox = osMessageCreate(osMessageQ(QUEUE), NULL);
  48              		.loc 1 54 3 view .LVU3
  49              		.loc 1 54 11 is_stmt 0 view .LVU4
  50 000c 0021     		movs	r1, #0
  51              	.LVL1:
  52              		.loc 1 54 11 view .LVU5
  53 000e 6846     		mov	r0, sp
  54              	.LVL2:
  55              		.loc 1 54 11 view .LVU6
  56 0010 FFF7FEFF 		bl	osMessageCreate
  57              	.LVL3:
  58              		.loc 1 54 9 view .LVU7
  59 0014 2060     		str	r0, [r4]
  55:Middlewares/Third_Party/LwIP/system/OS/sys_arch.c **** 
  56:Middlewares/Third_Party/LwIP/system/OS/sys_arch.c **** #if SYS_STATS
ARM GAS  C:\Users\Nina\AppData\Local\Temp\cc8iatMz.s 			page 3


  57:Middlewares/Third_Party/LwIP/system/OS/sys_arch.c ****       ++lwip_stats.sys.mbox.used;
  58:Middlewares/Third_Party/LwIP/system/OS/sys_arch.c ****       if (lwip_stats.sys.mbox.max < lwip_stats.sys.mbox.used) {
  59:Middlewares/Third_Party/LwIP/system/OS/sys_arch.c ****          lwip_stats.sys.mbox.max = lwip_stats.sys.mbox.used;
  60:Middlewares/Third_Party/LwIP/system/OS/sys_arch.c **** 	  }
  61:Middlewares/Third_Party/LwIP/system/OS/sys_arch.c **** #endif /* SYS_STATS */
  62:Middlewares/Third_Party/LwIP/system/OS/sys_arch.c ****  if (*mbox == NULL)
  60              		.loc 1 62 2 is_stmt 1 view .LVU8
  61              		.loc 1 62 5 is_stmt 0 view .LVU9
  62 0016 10B1     		cbz	r0, .L3
  63:Middlewares/Third_Party/LwIP/system/OS/sys_arch.c ****   return ERR_MEM;
  64:Middlewares/Third_Party/LwIP/system/OS/sys_arch.c ****  
  65:Middlewares/Third_Party/LwIP/system/OS/sys_arch.c ****  return ERR_OK;
  63              		.loc 1 65 9 view .LVU10
  64 0018 0020     		movs	r0, #0
  65              	.L2:
  66:Middlewares/Third_Party/LwIP/system/OS/sys_arch.c **** }
  66              		.loc 1 66 1 view .LVU11
  67 001a 02B0     		add	sp, sp, #8
  68              	.LCFI2:
  69              		.cfi_remember_state
  70              		.cfi_def_cfa_offset 8
  71              		@ sp needed
  72 001c 10BD     		pop	{r4, pc}
  73              	.LVL4:
  74              	.L3:
  75              	.LCFI3:
  76              		.cfi_restore_state
  63:Middlewares/Third_Party/LwIP/system/OS/sys_arch.c ****   return ERR_MEM;
  77              		.loc 1 63 10 view .LVU12
  78 001e 4FF0FF30 		mov	r0, #-1
  79 0022 FAE7     		b	.L2
  80              		.cfi_endproc
  81              	.LFE165:
  83              		.section	.text.sys_mbox_free,"ax",%progbits
  84              		.align	1
  85              		.global	sys_mbox_free
  86              		.syntax unified
  87              		.thumb
  88              		.thumb_func
  89              		.fpu fpv5-sp-d16
  91              	sys_mbox_free:
  92              	.LVL5:
  93              	.LFB166:
  67:Middlewares/Third_Party/LwIP/system/OS/sys_arch.c **** 
  68:Middlewares/Third_Party/LwIP/system/OS/sys_arch.c **** /*-----------------------------------------------------------------------------------*/
  69:Middlewares/Third_Party/LwIP/system/OS/sys_arch.c **** /*
  70:Middlewares/Third_Party/LwIP/system/OS/sys_arch.c ****   Deallocates a mailbox. If there are messages still present in the
  71:Middlewares/Third_Party/LwIP/system/OS/sys_arch.c ****   mailbox when the mailbox is deallocated, it is an indication of a
  72:Middlewares/Third_Party/LwIP/system/OS/sys_arch.c ****   programming error in lwIP and the developer should be notified.
  73:Middlewares/Third_Party/LwIP/system/OS/sys_arch.c **** */
  74:Middlewares/Third_Party/LwIP/system/OS/sys_arch.c **** void sys_mbox_free(sys_mbox_t *mbox)
  75:Middlewares/Third_Party/LwIP/system/OS/sys_arch.c **** {
  94              		.loc 1 75 1 is_stmt 1 view -0
  95              		.cfi_startproc
  96              		@ args = 0, pretend = 0, frame = 0
  97              		@ frame_needed = 0, uses_anonymous_args = 0
  98              		.loc 1 75 1 is_stmt 0 view .LVU14
ARM GAS  C:\Users\Nina\AppData\Local\Temp\cc8iatMz.s 			page 4


  99 0000 10B5     		push	{r4, lr}
 100              	.LCFI4:
 101              		.cfi_def_cfa_offset 8
 102              		.cfi_offset 4, -8
 103              		.cfi_offset 14, -4
 104 0002 0446     		mov	r4, r0
  76:Middlewares/Third_Party/LwIP/system/OS/sys_arch.c **** 	if( osMessageWaiting(*mbox) )
 105              		.loc 1 76 2 is_stmt 1 view .LVU15
 106              		.loc 1 76 6 is_stmt 0 view .LVU16
 107 0004 0068     		ldr	r0, [r0]
 108              	.LVL6:
 109              		.loc 1 76 6 view .LVU17
 110 0006 FFF7FEFF 		bl	osMessageWaiting
 111              	.LVL7:
  77:Middlewares/Third_Party/LwIP/system/OS/sys_arch.c **** 	{
  78:Middlewares/Third_Party/LwIP/system/OS/sys_arch.c **** 		/* Line for breakpoint.  Should never break here! */
  79:Middlewares/Third_Party/LwIP/system/OS/sys_arch.c **** 		portNOP();
 112              		.loc 1 79 12 is_stmt 1 view .LVU18
  80:Middlewares/Third_Party/LwIP/system/OS/sys_arch.c **** #if SYS_STATS
  81:Middlewares/Third_Party/LwIP/system/OS/sys_arch.c **** 	    lwip_stats.sys.mbox.err++;
  82:Middlewares/Third_Party/LwIP/system/OS/sys_arch.c **** #endif /* SYS_STATS */
  83:Middlewares/Third_Party/LwIP/system/OS/sys_arch.c **** 			
  84:Middlewares/Third_Party/LwIP/system/OS/sys_arch.c **** 		// TODO notify the user of failure.
  85:Middlewares/Third_Party/LwIP/system/OS/sys_arch.c **** 	}
  86:Middlewares/Third_Party/LwIP/system/OS/sys_arch.c **** 
  87:Middlewares/Third_Party/LwIP/system/OS/sys_arch.c **** 	osMessageDelete(*mbox);
 113              		.loc 1 87 2 view .LVU19
 114 000a 2068     		ldr	r0, [r4]
 115 000c FFF7FEFF 		bl	osMessageDelete
 116              	.LVL8:
  88:Middlewares/Third_Party/LwIP/system/OS/sys_arch.c **** 
  89:Middlewares/Third_Party/LwIP/system/OS/sys_arch.c **** #if SYS_STATS
  90:Middlewares/Third_Party/LwIP/system/OS/sys_arch.c ****      --lwip_stats.sys.mbox.used;
  91:Middlewares/Third_Party/LwIP/system/OS/sys_arch.c **** #endif /* SYS_STATS */
  92:Middlewares/Third_Party/LwIP/system/OS/sys_arch.c **** }
 117              		.loc 1 92 1 is_stmt 0 view .LVU20
 118 0010 10BD     		pop	{r4, pc}
 119              		.loc 1 92 1 view .LVU21
 120              		.cfi_endproc
 121              	.LFE166:
 123              		.section	.text.sys_mbox_post,"ax",%progbits
 124              		.align	1
 125              		.global	sys_mbox_post
 126              		.syntax unified
 127              		.thumb
 128              		.thumb_func
 129              		.fpu fpv5-sp-d16
 131              	sys_mbox_post:
 132              	.LVL9:
 133              	.LFB167:
  93:Middlewares/Third_Party/LwIP/system/OS/sys_arch.c **** 
  94:Middlewares/Third_Party/LwIP/system/OS/sys_arch.c **** /*-----------------------------------------------------------------------------------*/
  95:Middlewares/Third_Party/LwIP/system/OS/sys_arch.c **** //   Posts the "msg" to the mailbox.
  96:Middlewares/Third_Party/LwIP/system/OS/sys_arch.c **** void sys_mbox_post(sys_mbox_t *mbox, void *data)
  97:Middlewares/Third_Party/LwIP/system/OS/sys_arch.c **** {
 134              		.loc 1 97 1 is_stmt 1 view -0
 135              		.cfi_startproc
ARM GAS  C:\Users\Nina\AppData\Local\Temp\cc8iatMz.s 			page 5


 136              		@ args = 0, pretend = 0, frame = 0
 137              		@ frame_needed = 0, uses_anonymous_args = 0
 138              		.loc 1 97 1 is_stmt 0 view .LVU23
 139 0000 38B5     		push	{r3, r4, r5, lr}
 140              	.LCFI5:
 141              		.cfi_def_cfa_offset 16
 142              		.cfi_offset 3, -16
 143              		.cfi_offset 4, -12
 144              		.cfi_offset 5, -8
 145              		.cfi_offset 14, -4
 146 0002 0546     		mov	r5, r0
 147 0004 0C46     		mov	r4, r1
  98:Middlewares/Third_Party/LwIP/system/OS/sys_arch.c ****   while(osMessagePut(*mbox, (uint32_t)data, osWaitForever) != osOK);
 148              		.loc 1 98 3 is_stmt 1 view .LVU24
 149              	.LVL10:
 150              	.L8:
 151              		.loc 1 98 68 discriminator 1 view .LVU25
 152              		.loc 1 98 8 discriminator 1 view .LVU26
 153              		.loc 1 98 9 is_stmt 0 discriminator 1 view .LVU27
 154 0006 4FF0FF32 		mov	r2, #-1
 155 000a 2146     		mov	r1, r4
 156 000c 2868     		ldr	r0, [r5]
 157 000e FFF7FEFF 		bl	osMessagePut
 158              	.LVL11:
 159              		.loc 1 98 8 discriminator 1 view .LVU28
 160 0012 0028     		cmp	r0, #0
 161 0014 F7D1     		bne	.L8
  99:Middlewares/Third_Party/LwIP/system/OS/sys_arch.c **** }
 162              		.loc 1 99 1 view .LVU29
 163 0016 38BD     		pop	{r3, r4, r5, pc}
 164              		.loc 1 99 1 view .LVU30
 165              		.cfi_endproc
 166              	.LFE167:
 168              		.section	.text.sys_mbox_trypost,"ax",%progbits
 169              		.align	1
 170              		.global	sys_mbox_trypost
 171              		.syntax unified
 172              		.thumb
 173              		.thumb_func
 174              		.fpu fpv5-sp-d16
 176              	sys_mbox_trypost:
 177              	.LVL12:
 178              	.LFB168:
 100:Middlewares/Third_Party/LwIP/system/OS/sys_arch.c **** 
 101:Middlewares/Third_Party/LwIP/system/OS/sys_arch.c **** 
 102:Middlewares/Third_Party/LwIP/system/OS/sys_arch.c **** /*-----------------------------------------------------------------------------------*/
 103:Middlewares/Third_Party/LwIP/system/OS/sys_arch.c **** //   Try to post the "msg" to the mailbox.
 104:Middlewares/Third_Party/LwIP/system/OS/sys_arch.c **** err_t sys_mbox_trypost(sys_mbox_t *mbox, void *msg)
 105:Middlewares/Third_Party/LwIP/system/OS/sys_arch.c **** {
 179              		.loc 1 105 1 is_stmt 1 view -0
 180              		.cfi_startproc
 181              		@ args = 0, pretend = 0, frame = 0
 182              		@ frame_needed = 0, uses_anonymous_args = 0
 183              		.loc 1 105 1 is_stmt 0 view .LVU32
 184 0000 08B5     		push	{r3, lr}
 185              	.LCFI6:
 186              		.cfi_def_cfa_offset 8
ARM GAS  C:\Users\Nina\AppData\Local\Temp\cc8iatMz.s 			page 6


 187              		.cfi_offset 3, -8
 188              		.cfi_offset 14, -4
 106:Middlewares/Third_Party/LwIP/system/OS/sys_arch.c **** err_t result;
 189              		.loc 1 106 1 is_stmt 1 view .LVU33
 107:Middlewares/Third_Party/LwIP/system/OS/sys_arch.c **** 
 108:Middlewares/Third_Party/LwIP/system/OS/sys_arch.c ****    if ( osMessagePut(*mbox, (uint32_t)msg, 0) == osOK)
 190              		.loc 1 108 4 view .LVU34
 191              		.loc 1 108 9 is_stmt 0 view .LVU35
 192 0002 0022     		movs	r2, #0
 193 0004 0068     		ldr	r0, [r0]
 194              	.LVL13:
 195              		.loc 1 108 9 view .LVU36
 196 0006 FFF7FEFF 		bl	osMessagePut
 197              	.LVL14:
 198              		.loc 1 108 7 view .LVU37
 199 000a 00B9     		cbnz	r0, .L14
 200              	.L11:
 201              	.LVL15:
 109:Middlewares/Third_Party/LwIP/system/OS/sys_arch.c ****    {
 110:Middlewares/Third_Party/LwIP/system/OS/sys_arch.c ****       result = ERR_OK;
 111:Middlewares/Third_Party/LwIP/system/OS/sys_arch.c ****    }
 112:Middlewares/Third_Party/LwIP/system/OS/sys_arch.c ****    else {
 113:Middlewares/Third_Party/LwIP/system/OS/sys_arch.c ****       // could not post, queue must be full
 114:Middlewares/Third_Party/LwIP/system/OS/sys_arch.c ****       result = ERR_MEM;
 115:Middlewares/Third_Party/LwIP/system/OS/sys_arch.c **** 			
 116:Middlewares/Third_Party/LwIP/system/OS/sys_arch.c **** #if SYS_STATS
 117:Middlewares/Third_Party/LwIP/system/OS/sys_arch.c ****       lwip_stats.sys.mbox.err++;
 118:Middlewares/Third_Party/LwIP/system/OS/sys_arch.c **** #endif /* SYS_STATS */
 119:Middlewares/Third_Party/LwIP/system/OS/sys_arch.c **** 			
 120:Middlewares/Third_Party/LwIP/system/OS/sys_arch.c ****    }
 121:Middlewares/Third_Party/LwIP/system/OS/sys_arch.c **** 
 122:Middlewares/Third_Party/LwIP/system/OS/sys_arch.c ****    return result;
 202              		.loc 1 122 4 is_stmt 1 view .LVU38
 123:Middlewares/Third_Party/LwIP/system/OS/sys_arch.c **** }
 203              		.loc 1 123 1 is_stmt 0 view .LVU39
 204 000c 08BD     		pop	{r3, pc}
 205              	.LVL16:
 206              	.L14:
 114:Middlewares/Third_Party/LwIP/system/OS/sys_arch.c **** 			
 207              		.loc 1 114 14 view .LVU40
 208 000e 4FF0FF30 		mov	r0, #-1
 209 0012 FBE7     		b	.L11
 210              		.cfi_endproc
 211              	.LFE168:
 213              		.section	.text.sys_arch_mbox_fetch,"ax",%progbits
 214              		.align	1
 215              		.global	sys_arch_mbox_fetch
 216              		.syntax unified
 217              		.thumb
 218              		.thumb_func
 219              		.fpu fpv5-sp-d16
 221              	sys_arch_mbox_fetch:
 222              	.LVL17:
 223              	.LFB169:
 124:Middlewares/Third_Party/LwIP/system/OS/sys_arch.c **** 
 125:Middlewares/Third_Party/LwIP/system/OS/sys_arch.c **** /*-----------------------------------------------------------------------------------*/
 126:Middlewares/Third_Party/LwIP/system/OS/sys_arch.c **** /*
ARM GAS  C:\Users\Nina\AppData\Local\Temp\cc8iatMz.s 			page 7


 127:Middlewares/Third_Party/LwIP/system/OS/sys_arch.c ****   Blocks the thread until a message arrives in the mailbox, but does
 128:Middlewares/Third_Party/LwIP/system/OS/sys_arch.c ****   not block the thread longer than "timeout" milliseconds (similar to
 129:Middlewares/Third_Party/LwIP/system/OS/sys_arch.c ****   the sys_arch_sem_wait() function). The "msg" argument is a result
 130:Middlewares/Third_Party/LwIP/system/OS/sys_arch.c ****   parameter that is set by the function (i.e., by doing "*msg =
 131:Middlewares/Third_Party/LwIP/system/OS/sys_arch.c ****   ptr"). The "msg" parameter maybe NULL to indicate that the message
 132:Middlewares/Third_Party/LwIP/system/OS/sys_arch.c ****   should be dropped.
 133:Middlewares/Third_Party/LwIP/system/OS/sys_arch.c **** 
 134:Middlewares/Third_Party/LwIP/system/OS/sys_arch.c ****   The return values are the same as for the sys_arch_sem_wait() function:
 135:Middlewares/Third_Party/LwIP/system/OS/sys_arch.c ****   Number of milliseconds spent waiting or SYS_ARCH_TIMEOUT if there was a
 136:Middlewares/Third_Party/LwIP/system/OS/sys_arch.c ****   timeout.
 137:Middlewares/Third_Party/LwIP/system/OS/sys_arch.c **** 
 138:Middlewares/Third_Party/LwIP/system/OS/sys_arch.c ****   Note that a function with a similar name, sys_mbox_fetch(), is
 139:Middlewares/Third_Party/LwIP/system/OS/sys_arch.c ****   implemented by lwIP.
 140:Middlewares/Third_Party/LwIP/system/OS/sys_arch.c **** */
 141:Middlewares/Third_Party/LwIP/system/OS/sys_arch.c **** u32_t sys_arch_mbox_fetch(sys_mbox_t *mbox, void **msg, u32_t timeout)
 142:Middlewares/Third_Party/LwIP/system/OS/sys_arch.c **** {
 224              		.loc 1 142 1 is_stmt 1 view -0
 225              		.cfi_startproc
 226              		@ args = 0, pretend = 0, frame = 32
 227              		@ frame_needed = 0, uses_anonymous_args = 0
 228              		.loc 1 142 1 is_stmt 0 view .LVU42
 229 0000 F0B5     		push	{r4, r5, r6, r7, lr}
 230              	.LCFI7:
 231              		.cfi_def_cfa_offset 20
 232              		.cfi_offset 4, -20
 233              		.cfi_offset 5, -16
 234              		.cfi_offset 6, -12
 235              		.cfi_offset 7, -8
 236              		.cfi_offset 14, -4
 237 0002 89B0     		sub	sp, sp, #36
 238              	.LCFI8:
 239              		.cfi_def_cfa_offset 56
 240 0004 0546     		mov	r5, r0
 241 0006 0F46     		mov	r7, r1
 242 0008 1446     		mov	r4, r2
 143:Middlewares/Third_Party/LwIP/system/OS/sys_arch.c ****   osEvent event;
 243              		.loc 1 143 3 is_stmt 1 view .LVU43
 144:Middlewares/Third_Party/LwIP/system/OS/sys_arch.c ****   uint32_t starttime = osKernelSysTick();;
 244              		.loc 1 144 3 view .LVU44
 245              		.loc 1 144 24 is_stmt 0 view .LVU45
 246 000a FFF7FEFF 		bl	osKernelSysTick
 247              	.LVL18:
 248              		.loc 1 144 24 view .LVU46
 249 000e 0646     		mov	r6, r0
 250              	.LVL19:
 251              		.loc 1 144 42 is_stmt 1 view .LVU47
 145:Middlewares/Third_Party/LwIP/system/OS/sys_arch.c ****   
 146:Middlewares/Third_Party/LwIP/system/OS/sys_arch.c ****   if(timeout != 0)
 252              		.loc 1 146 3 view .LVU48
 253              		.loc 1 146 5 is_stmt 0 view .LVU49
 254 0010 8CB1     		cbz	r4, .L16
 147:Middlewares/Third_Party/LwIP/system/OS/sys_arch.c ****   { 
 148:Middlewares/Third_Party/LwIP/system/OS/sys_arch.c ****     event = osMessageGet (*mbox, timeout);
 255              		.loc 1 148 5 is_stmt 1 view .LVU50
 256              		.loc 1 148 13 is_stmt 0 view .LVU51
 257 0012 2246     		mov	r2, r4
 258 0014 2968     		ldr	r1, [r5]
ARM GAS  C:\Users\Nina\AppData\Local\Temp\cc8iatMz.s 			page 8


 259 0016 05A8     		add	r0, sp, #20
 260              	.LVL20:
 261              		.loc 1 148 13 view .LVU52
 262 0018 FFF7FEFF 		bl	osMessageGet
 263              	.LVL21:
 149:Middlewares/Third_Party/LwIP/system/OS/sys_arch.c ****     
 150:Middlewares/Third_Party/LwIP/system/OS/sys_arch.c ****     if(event.status == osEventMessage)
 264              		.loc 1 150 5 is_stmt 1 view .LVU53
 265              		.loc 1 150 13 is_stmt 0 view .LVU54
 266 001c 059B     		ldr	r3, [sp, #20]
 267              		.loc 1 150 7 view .LVU55
 268 001e 102B     		cmp	r3, #16
 269 0020 03D0     		beq	.L20
 151:Middlewares/Third_Party/LwIP/system/OS/sys_arch.c ****     {
 152:Middlewares/Third_Party/LwIP/system/OS/sys_arch.c ****       *msg = (void *)event.value.v;
 153:Middlewares/Third_Party/LwIP/system/OS/sys_arch.c ****       return (osKernelSysTick() - starttime);
 154:Middlewares/Third_Party/LwIP/system/OS/sys_arch.c ****     }
 155:Middlewares/Third_Party/LwIP/system/OS/sys_arch.c ****     else
 156:Middlewares/Third_Party/LwIP/system/OS/sys_arch.c ****     {
 157:Middlewares/Third_Party/LwIP/system/OS/sys_arch.c ****       return SYS_ARCH_TIMEOUT;
 270              		.loc 1 157 14 view .LVU56
 271 0022 4FF0FF30 		mov	r0, #-1
 272              	.LVL22:
 273              	.L15:
 158:Middlewares/Third_Party/LwIP/system/OS/sys_arch.c ****     } 
 159:Middlewares/Third_Party/LwIP/system/OS/sys_arch.c ****   }
 160:Middlewares/Third_Party/LwIP/system/OS/sys_arch.c ****   else
 161:Middlewares/Third_Party/LwIP/system/OS/sys_arch.c ****   {
 162:Middlewares/Third_Party/LwIP/system/OS/sys_arch.c ****     event = osMessageGet (*mbox, osWaitForever);
 163:Middlewares/Third_Party/LwIP/system/OS/sys_arch.c ****     *msg = (void *)event.value.v;
 164:Middlewares/Third_Party/LwIP/system/OS/sys_arch.c ****     return (osKernelSysTick() - starttime);
 165:Middlewares/Third_Party/LwIP/system/OS/sys_arch.c ****   }
 166:Middlewares/Third_Party/LwIP/system/OS/sys_arch.c **** }
 274              		.loc 1 166 1 view .LVU57
 275 0026 09B0     		add	sp, sp, #36
 276              	.LCFI9:
 277              		.cfi_remember_state
 278              		.cfi_def_cfa_offset 20
 279              		@ sp needed
 280 0028 F0BD     		pop	{r4, r5, r6, r7, pc}
 281              	.LVL23:
 282              	.L20:
 283              	.LCFI10:
 284              		.cfi_restore_state
 152:Middlewares/Third_Party/LwIP/system/OS/sys_arch.c ****       return (osKernelSysTick() - starttime);
 285              		.loc 1 152 7 is_stmt 1 view .LVU58
 152:Middlewares/Third_Party/LwIP/system/OS/sys_arch.c ****       return (osKernelSysTick() - starttime);
 286              		.loc 1 152 33 is_stmt 0 view .LVU59
 287 002a 069B     		ldr	r3, [sp, #24]
 152:Middlewares/Third_Party/LwIP/system/OS/sys_arch.c ****       return (osKernelSysTick() - starttime);
 288              		.loc 1 152 12 view .LVU60
 289 002c 3B60     		str	r3, [r7]
 153:Middlewares/Third_Party/LwIP/system/OS/sys_arch.c ****     }
 290              		.loc 1 153 7 is_stmt 1 view .LVU61
 153:Middlewares/Third_Party/LwIP/system/OS/sys_arch.c ****     }
 291              		.loc 1 153 15 is_stmt 0 view .LVU62
 292 002e FFF7FEFF 		bl	osKernelSysTick
ARM GAS  C:\Users\Nina\AppData\Local\Temp\cc8iatMz.s 			page 9


 293              	.LVL24:
 153:Middlewares/Third_Party/LwIP/system/OS/sys_arch.c ****     }
 294              		.loc 1 153 33 view .LVU63
 295 0032 801B     		subs	r0, r0, r6
 296 0034 F7E7     		b	.L15
 297              	.LVL25:
 298              	.L16:
 162:Middlewares/Third_Party/LwIP/system/OS/sys_arch.c ****     *msg = (void *)event.value.v;
 299              		.loc 1 162 5 is_stmt 1 view .LVU64
 162:Middlewares/Third_Party/LwIP/system/OS/sys_arch.c ****     *msg = (void *)event.value.v;
 300              		.loc 1 162 13 is_stmt 0 view .LVU65
 301 0036 6C46     		mov	r4, sp
 302              	.LVL26:
 162:Middlewares/Third_Party/LwIP/system/OS/sys_arch.c ****     *msg = (void *)event.value.v;
 303              		.loc 1 162 13 view .LVU66
 304 0038 4FF0FF32 		mov	r2, #-1
 305 003c 2968     		ldr	r1, [r5]
 306 003e 2046     		mov	r0, r4
 307              	.LVL27:
 162:Middlewares/Third_Party/LwIP/system/OS/sys_arch.c ****     *msg = (void *)event.value.v;
 308              		.loc 1 162 13 view .LVU67
 309 0040 FFF7FEFF 		bl	osMessageGet
 310              	.LVL28:
 311 0044 94E80700 		ldm	r4, {r0, r1, r2}
 312 0048 08AB     		add	r3, sp, #32
 313 004a 03E90700 		stmdb	r3, {r0, r1, r2}
 163:Middlewares/Third_Party/LwIP/system/OS/sys_arch.c ****     return (osKernelSysTick() - starttime);
 314              		.loc 1 163 5 is_stmt 1 view .LVU68
 163:Middlewares/Third_Party/LwIP/system/OS/sys_arch.c ****     return (osKernelSysTick() - starttime);
 315              		.loc 1 163 31 is_stmt 0 view .LVU69
 316 004e 069B     		ldr	r3, [sp, #24]
 163:Middlewares/Third_Party/LwIP/system/OS/sys_arch.c ****     return (osKernelSysTick() - starttime);
 317              		.loc 1 163 10 view .LVU70
 318 0050 3B60     		str	r3, [r7]
 164:Middlewares/Third_Party/LwIP/system/OS/sys_arch.c ****   }
 319              		.loc 1 164 5 is_stmt 1 view .LVU71
 164:Middlewares/Third_Party/LwIP/system/OS/sys_arch.c ****   }
 320              		.loc 1 164 13 is_stmt 0 view .LVU72
 321 0052 FFF7FEFF 		bl	osKernelSysTick
 322              	.LVL29:
 164:Middlewares/Third_Party/LwIP/system/OS/sys_arch.c ****   }
 323              		.loc 1 164 31 view .LVU73
 324 0056 801B     		subs	r0, r0, r6
 325 0058 E5E7     		b	.L15
 326              		.cfi_endproc
 327              	.LFE169:
 329              		.section	.text.sys_arch_mbox_tryfetch,"ax",%progbits
 330              		.align	1
 331              		.global	sys_arch_mbox_tryfetch
 332              		.syntax unified
 333              		.thumb
 334              		.thumb_func
 335              		.fpu fpv5-sp-d16
 337              	sys_arch_mbox_tryfetch:
 338              	.LVL30:
 339              	.LFB170:
 167:Middlewares/Third_Party/LwIP/system/OS/sys_arch.c **** 
ARM GAS  C:\Users\Nina\AppData\Local\Temp\cc8iatMz.s 			page 10


 168:Middlewares/Third_Party/LwIP/system/OS/sys_arch.c **** /*-----------------------------------------------------------------------------------*/
 169:Middlewares/Third_Party/LwIP/system/OS/sys_arch.c **** /*
 170:Middlewares/Third_Party/LwIP/system/OS/sys_arch.c ****   Similar to sys_arch_mbox_fetch, but if message is not ready immediately, we'll
 171:Middlewares/Third_Party/LwIP/system/OS/sys_arch.c ****   return with SYS_MBOX_EMPTY.  On success, 0 is returned.
 172:Middlewares/Third_Party/LwIP/system/OS/sys_arch.c **** */
 173:Middlewares/Third_Party/LwIP/system/OS/sys_arch.c **** u32_t sys_arch_mbox_tryfetch(sys_mbox_t *mbox, void **msg)
 174:Middlewares/Third_Party/LwIP/system/OS/sys_arch.c **** {
 340              		.loc 1 174 1 is_stmt 1 view -0
 341              		.cfi_startproc
 342              		@ args = 0, pretend = 0, frame = 16
 343              		@ frame_needed = 0, uses_anonymous_args = 0
 344              		.loc 1 174 1 is_stmt 0 view .LVU75
 345 0000 10B5     		push	{r4, lr}
 346              	.LCFI11:
 347              		.cfi_def_cfa_offset 8
 348              		.cfi_offset 4, -8
 349              		.cfi_offset 14, -4
 350 0002 84B0     		sub	sp, sp, #16
 351              	.LCFI12:
 352              		.cfi_def_cfa_offset 24
 353 0004 0C46     		mov	r4, r1
 175:Middlewares/Third_Party/LwIP/system/OS/sys_arch.c ****   osEvent event;
 354              		.loc 1 175 3 is_stmt 1 view .LVU76
 176:Middlewares/Third_Party/LwIP/system/OS/sys_arch.c ****   
 177:Middlewares/Third_Party/LwIP/system/OS/sys_arch.c ****   event = osMessageGet (*mbox, 0);
 355              		.loc 1 177 3 view .LVU77
 356              		.loc 1 177 11 is_stmt 0 view .LVU78
 357 0006 0022     		movs	r2, #0
 358 0008 0168     		ldr	r1, [r0]
 359              	.LVL31:
 360              		.loc 1 177 11 view .LVU79
 361 000a 01A8     		add	r0, sp, #4
 362              	.LVL32:
 363              		.loc 1 177 11 view .LVU80
 364 000c FFF7FEFF 		bl	osMessageGet
 365              	.LVL33:
 178:Middlewares/Third_Party/LwIP/system/OS/sys_arch.c ****   
 179:Middlewares/Third_Party/LwIP/system/OS/sys_arch.c ****   if(event.status == osEventMessage)
 366              		.loc 1 179 3 is_stmt 1 view .LVU81
 367              		.loc 1 179 11 is_stmt 0 view .LVU82
 368 0010 019B     		ldr	r3, [sp, #4]
 369              		.loc 1 179 5 view .LVU83
 370 0012 102B     		cmp	r3, #16
 371 0014 03D0     		beq	.L25
 180:Middlewares/Third_Party/LwIP/system/OS/sys_arch.c ****   {
 181:Middlewares/Third_Party/LwIP/system/OS/sys_arch.c ****     *msg = (void *)event.value.v;
 182:Middlewares/Third_Party/LwIP/system/OS/sys_arch.c ****     return ERR_OK;
 183:Middlewares/Third_Party/LwIP/system/OS/sys_arch.c ****   }
 184:Middlewares/Third_Party/LwIP/system/OS/sys_arch.c ****   else
 185:Middlewares/Third_Party/LwIP/system/OS/sys_arch.c ****   {
 186:Middlewares/Third_Party/LwIP/system/OS/sys_arch.c ****     return SYS_MBOX_EMPTY;
 372              		.loc 1 186 12 view .LVU84
 373 0016 4FF0FF30 		mov	r0, #-1
 374              	.L21:
 187:Middlewares/Third_Party/LwIP/system/OS/sys_arch.c ****   }
 188:Middlewares/Third_Party/LwIP/system/OS/sys_arch.c **** }
 375              		.loc 1 188 1 view .LVU85
ARM GAS  C:\Users\Nina\AppData\Local\Temp\cc8iatMz.s 			page 11


 376 001a 04B0     		add	sp, sp, #16
 377              	.LCFI13:
 378              		.cfi_remember_state
 379              		.cfi_def_cfa_offset 8
 380              		@ sp needed
 381 001c 10BD     		pop	{r4, pc}
 382              	.LVL34:
 383              	.L25:
 384              	.LCFI14:
 385              		.cfi_restore_state
 181:Middlewares/Third_Party/LwIP/system/OS/sys_arch.c ****     return ERR_OK;
 386              		.loc 1 181 5 is_stmt 1 view .LVU86
 181:Middlewares/Third_Party/LwIP/system/OS/sys_arch.c ****     return ERR_OK;
 387              		.loc 1 181 31 is_stmt 0 view .LVU87
 388 001e 029B     		ldr	r3, [sp, #8]
 181:Middlewares/Third_Party/LwIP/system/OS/sys_arch.c ****     return ERR_OK;
 389              		.loc 1 181 10 view .LVU88
 390 0020 2360     		str	r3, [r4]
 182:Middlewares/Third_Party/LwIP/system/OS/sys_arch.c ****   }
 391              		.loc 1 182 5 is_stmt 1 view .LVU89
 182:Middlewares/Third_Party/LwIP/system/OS/sys_arch.c ****   }
 392              		.loc 1 182 12 is_stmt 0 view .LVU90
 393 0022 0020     		movs	r0, #0
 394 0024 F9E7     		b	.L21
 395              		.cfi_endproc
 396              	.LFE170:
 398              		.section	.text.sys_mbox_valid,"ax",%progbits
 399              		.align	1
 400              		.global	sys_mbox_valid
 401              		.syntax unified
 402              		.thumb
 403              		.thumb_func
 404              		.fpu fpv5-sp-d16
 406              	sys_mbox_valid:
 407              	.LVL35:
 408              	.LFB171:
 189:Middlewares/Third_Party/LwIP/system/OS/sys_arch.c **** /*----------------------------------------------------------------------------------*/
 190:Middlewares/Third_Party/LwIP/system/OS/sys_arch.c **** int sys_mbox_valid(sys_mbox_t *mbox)          
 191:Middlewares/Third_Party/LwIP/system/OS/sys_arch.c **** {      
 409              		.loc 1 191 1 is_stmt 1 view -0
 410              		.cfi_startproc
 411              		@ args = 0, pretend = 0, frame = 0
 412              		@ frame_needed = 0, uses_anonymous_args = 0
 413              		@ link register save eliminated.
 192:Middlewares/Third_Party/LwIP/system/OS/sys_arch.c ****   if (*mbox == SYS_MBOX_NULL) 
 414              		.loc 1 192 3 view .LVU92
 415              		.loc 1 192 7 is_stmt 0 view .LVU93
 416 0000 0368     		ldr	r3, [r0]
 417              		.loc 1 192 6 view .LVU94
 418 0002 0BB1     		cbz	r3, .L29
 193:Middlewares/Third_Party/LwIP/system/OS/sys_arch.c ****     return 0;
 194:Middlewares/Third_Party/LwIP/system/OS/sys_arch.c ****   else
 195:Middlewares/Third_Party/LwIP/system/OS/sys_arch.c ****     return 1;
 419              		.loc 1 195 12 view .LVU95
 420 0004 0120     		movs	r0, #1
 421              	.LVL36:
 196:Middlewares/Third_Party/LwIP/system/OS/sys_arch.c **** }                                             
ARM GAS  C:\Users\Nina\AppData\Local\Temp\cc8iatMz.s 			page 12


 422              		.loc 1 196 1 view .LVU96
 423 0006 7047     		bx	lr
 424              	.LVL37:
 425              	.L29:
 193:Middlewares/Third_Party/LwIP/system/OS/sys_arch.c ****     return 0;
 426              		.loc 1 193 12 view .LVU97
 427 0008 0020     		movs	r0, #0
 428              	.LVL38:
 193:Middlewares/Third_Party/LwIP/system/OS/sys_arch.c ****     return 0;
 429              		.loc 1 193 12 view .LVU98
 430 000a 7047     		bx	lr
 431              		.cfi_endproc
 432              	.LFE171:
 434              		.section	.text.sys_mbox_set_invalid,"ax",%progbits
 435              		.align	1
 436              		.global	sys_mbox_set_invalid
 437              		.syntax unified
 438              		.thumb
 439              		.thumb_func
 440              		.fpu fpv5-sp-d16
 442              	sys_mbox_set_invalid:
 443              	.LVL39:
 444              	.LFB172:
 197:Middlewares/Third_Party/LwIP/system/OS/sys_arch.c **** /*-----------------------------------------------------------------------------------*/            
 198:Middlewares/Third_Party/LwIP/system/OS/sys_arch.c **** void sys_mbox_set_invalid(sys_mbox_t *mbox)   
 199:Middlewares/Third_Party/LwIP/system/OS/sys_arch.c **** {                                             
 445              		.loc 1 199 1 is_stmt 1 view -0
 446              		.cfi_startproc
 447              		@ args = 0, pretend = 0, frame = 0
 448              		@ frame_needed = 0, uses_anonymous_args = 0
 449              		@ link register save eliminated.
 200:Middlewares/Third_Party/LwIP/system/OS/sys_arch.c ****   *mbox = SYS_MBOX_NULL;                      
 450              		.loc 1 200 3 view .LVU100
 451              		.loc 1 200 9 is_stmt 0 view .LVU101
 452 0000 0023     		movs	r3, #0
 453 0002 0360     		str	r3, [r0]
 201:Middlewares/Third_Party/LwIP/system/OS/sys_arch.c **** }                                             
 454              		.loc 1 201 1 view .LVU102
 455 0004 7047     		bx	lr
 456              		.cfi_endproc
 457              	.LFE172:
 459              		.section	.text.sys_sem_new,"ax",%progbits
 460              		.align	1
 461              		.global	sys_sem_new
 462              		.syntax unified
 463              		.thumb
 464              		.thumb_func
 465              		.fpu fpv5-sp-d16
 467              	sys_sem_new:
 468              	.LVL40:
 469              	.LFB173:
 202:Middlewares/Third_Party/LwIP/system/OS/sys_arch.c **** 
 203:Middlewares/Third_Party/LwIP/system/OS/sys_arch.c **** /*-----------------------------------------------------------------------------------*/
 204:Middlewares/Third_Party/LwIP/system/OS/sys_arch.c **** //  Creates a new semaphore. The "count" argument specifies
 205:Middlewares/Third_Party/LwIP/system/OS/sys_arch.c **** //  the initial state of the semaphore.
 206:Middlewares/Third_Party/LwIP/system/OS/sys_arch.c **** err_t sys_sem_new(sys_sem_t *sem, u8_t count)
 207:Middlewares/Third_Party/LwIP/system/OS/sys_arch.c **** {
ARM GAS  C:\Users\Nina\AppData\Local\Temp\cc8iatMz.s 			page 13


 470              		.loc 1 207 1 is_stmt 1 view -0
 471              		.cfi_startproc
 472              		@ args = 0, pretend = 0, frame = 8
 473              		@ frame_needed = 0, uses_anonymous_args = 0
 474              		.loc 1 207 1 is_stmt 0 view .LVU104
 475 0000 30B5     		push	{r4, r5, lr}
 476              	.LCFI15:
 477              		.cfi_def_cfa_offset 12
 478              		.cfi_offset 4, -12
 479              		.cfi_offset 5, -8
 480              		.cfi_offset 14, -4
 481 0002 83B0     		sub	sp, sp, #12
 482              	.LCFI16:
 483              		.cfi_def_cfa_offset 24
 484 0004 0446     		mov	r4, r0
 485 0006 0D46     		mov	r5, r1
 208:Middlewares/Third_Party/LwIP/system/OS/sys_arch.c ****   osSemaphoreDef(SEM);
 486              		.loc 1 208 3 is_stmt 1 view .LVU105
 487 0008 0023     		movs	r3, #0
 488 000a 0193     		str	r3, [sp, #4]
 209:Middlewares/Third_Party/LwIP/system/OS/sys_arch.c **** 
 210:Middlewares/Third_Party/LwIP/system/OS/sys_arch.c ****   *sem = osSemaphoreCreate (osSemaphore(SEM), 1);
 489              		.loc 1 210 3 view .LVU106
 490              		.loc 1 210 10 is_stmt 0 view .LVU107
 491 000c 0121     		movs	r1, #1
 492              	.LVL41:
 493              		.loc 1 210 10 view .LVU108
 494 000e 01A8     		add	r0, sp, #4
 495              	.LVL42:
 496              		.loc 1 210 10 view .LVU109
 497 0010 FFF7FEFF 		bl	osSemaphoreCreate
 498              	.LVL43:
 499              		.loc 1 210 8 view .LVU110
 500 0014 2060     		str	r0, [r4]
 211:Middlewares/Third_Party/LwIP/system/OS/sys_arch.c **** 	
 212:Middlewares/Third_Party/LwIP/system/OS/sys_arch.c ****   if(*sem == NULL)
 501              		.loc 1 212 3 is_stmt 1 view .LVU111
 502              		.loc 1 212 5 is_stmt 0 view .LVU112
 503 0016 40B1     		cbz	r0, .L33
 213:Middlewares/Third_Party/LwIP/system/OS/sys_arch.c ****   {
 214:Middlewares/Third_Party/LwIP/system/OS/sys_arch.c **** #if SYS_STATS
 215:Middlewares/Third_Party/LwIP/system/OS/sys_arch.c ****       ++lwip_stats.sys.sem.err;
 216:Middlewares/Third_Party/LwIP/system/OS/sys_arch.c **** #endif /* SYS_STATS */	
 217:Middlewares/Third_Party/LwIP/system/OS/sys_arch.c **** 		return ERR_MEM;
 218:Middlewares/Third_Party/LwIP/system/OS/sys_arch.c ****   }
 219:Middlewares/Third_Party/LwIP/system/OS/sys_arch.c **** 	
 220:Middlewares/Third_Party/LwIP/system/OS/sys_arch.c ****   if(count == 0)	// Means it can't be taken
 504              		.loc 1 220 3 is_stmt 1 view .LVU113
 505              		.loc 1 220 5 is_stmt 0 view .LVU114
 506 0018 15B1     		cbz	r5, .L36
 221:Middlewares/Third_Party/LwIP/system/OS/sys_arch.c ****   {
 222:Middlewares/Third_Party/LwIP/system/OS/sys_arch.c ****     osSemaphoreWait(*sem,0);
 223:Middlewares/Third_Party/LwIP/system/OS/sys_arch.c ****   }
 224:Middlewares/Third_Party/LwIP/system/OS/sys_arch.c **** 
 225:Middlewares/Third_Party/LwIP/system/OS/sys_arch.c **** #if SYS_STATS
 226:Middlewares/Third_Party/LwIP/system/OS/sys_arch.c **** 	++lwip_stats.sys.sem.used;
 227:Middlewares/Third_Party/LwIP/system/OS/sys_arch.c ****  	if (lwip_stats.sys.sem.max < lwip_stats.sys.sem.used) {
ARM GAS  C:\Users\Nina\AppData\Local\Temp\cc8iatMz.s 			page 14


 228:Middlewares/Third_Party/LwIP/system/OS/sys_arch.c **** 		lwip_stats.sys.sem.max = lwip_stats.sys.sem.used;
 229:Middlewares/Third_Party/LwIP/system/OS/sys_arch.c **** 	}
 230:Middlewares/Third_Party/LwIP/system/OS/sys_arch.c **** #endif /* SYS_STATS */
 231:Middlewares/Third_Party/LwIP/system/OS/sys_arch.c **** 		
 232:Middlewares/Third_Party/LwIP/system/OS/sys_arch.c **** 	return ERR_OK;
 507              		.loc 1 232 9 view .LVU115
 508 001a 0020     		movs	r0, #0
 509              	.L32:
 233:Middlewares/Third_Party/LwIP/system/OS/sys_arch.c **** }
 510              		.loc 1 233 1 view .LVU116
 511 001c 03B0     		add	sp, sp, #12
 512              	.LCFI17:
 513              		.cfi_remember_state
 514              		.cfi_def_cfa_offset 12
 515              		@ sp needed
 516 001e 30BD     		pop	{r4, r5, pc}
 517              	.LVL44:
 518              	.L36:
 519              	.LCFI18:
 520              		.cfi_restore_state
 222:Middlewares/Third_Party/LwIP/system/OS/sys_arch.c ****   }
 521              		.loc 1 222 5 is_stmt 1 view .LVU117
 522 0020 0021     		movs	r1, #0
 523 0022 FFF7FEFF 		bl	osSemaphoreWait
 524              	.LVL45:
 232:Middlewares/Third_Party/LwIP/system/OS/sys_arch.c **** }
 525              		.loc 1 232 9 is_stmt 0 view .LVU118
 526 0026 0020     		movs	r0, #0
 527 0028 F8E7     		b	.L32
 528              	.L33:
 217:Middlewares/Third_Party/LwIP/system/OS/sys_arch.c ****   }
 529              		.loc 1 217 10 view .LVU119
 530 002a 4FF0FF30 		mov	r0, #-1
 531 002e F5E7     		b	.L32
 532              		.cfi_endproc
 533              	.LFE173:
 535              		.section	.text.sys_arch_sem_wait,"ax",%progbits
 536              		.align	1
 537              		.global	sys_arch_sem_wait
 538              		.syntax unified
 539              		.thumb
 540              		.thumb_func
 541              		.fpu fpv5-sp-d16
 543              	sys_arch_sem_wait:
 544              	.LVL46:
 545              	.LFB174:
 234:Middlewares/Third_Party/LwIP/system/OS/sys_arch.c **** 
 235:Middlewares/Third_Party/LwIP/system/OS/sys_arch.c **** /*-----------------------------------------------------------------------------------*/
 236:Middlewares/Third_Party/LwIP/system/OS/sys_arch.c **** /*
 237:Middlewares/Third_Party/LwIP/system/OS/sys_arch.c ****   Blocks the thread while waiting for the semaphore to be
 238:Middlewares/Third_Party/LwIP/system/OS/sys_arch.c ****   signaled. If the "timeout" argument is non-zero, the thread should
 239:Middlewares/Third_Party/LwIP/system/OS/sys_arch.c ****   only be blocked for the specified time (measured in
 240:Middlewares/Third_Party/LwIP/system/OS/sys_arch.c ****   milliseconds).
 241:Middlewares/Third_Party/LwIP/system/OS/sys_arch.c **** 
 242:Middlewares/Third_Party/LwIP/system/OS/sys_arch.c ****   If the timeout argument is non-zero, the return value is the number of
 243:Middlewares/Third_Party/LwIP/system/OS/sys_arch.c ****   milliseconds spent waiting for the semaphore to be signaled. If the
 244:Middlewares/Third_Party/LwIP/system/OS/sys_arch.c ****   semaphore wasn't signaled within the specified time, the return value is
ARM GAS  C:\Users\Nina\AppData\Local\Temp\cc8iatMz.s 			page 15


 245:Middlewares/Third_Party/LwIP/system/OS/sys_arch.c ****   SYS_ARCH_TIMEOUT. If the thread didn't have to wait for the semaphore
 246:Middlewares/Third_Party/LwIP/system/OS/sys_arch.c ****   (i.e., it was already signaled), the function may return zero.
 247:Middlewares/Third_Party/LwIP/system/OS/sys_arch.c **** 
 248:Middlewares/Third_Party/LwIP/system/OS/sys_arch.c ****   Notice that lwIP implements a function with a similar name,
 249:Middlewares/Third_Party/LwIP/system/OS/sys_arch.c ****   sys_sem_wait(), that uses the sys_arch_sem_wait() function.
 250:Middlewares/Third_Party/LwIP/system/OS/sys_arch.c **** */
 251:Middlewares/Third_Party/LwIP/system/OS/sys_arch.c **** u32_t sys_arch_sem_wait(sys_sem_t *sem, u32_t timeout)
 252:Middlewares/Third_Party/LwIP/system/OS/sys_arch.c **** {
 546              		.loc 1 252 1 is_stmt 1 view -0
 547              		.cfi_startproc
 548              		@ args = 0, pretend = 0, frame = 0
 549              		@ frame_needed = 0, uses_anonymous_args = 0
 550              		.loc 1 252 1 is_stmt 0 view .LVU121
 551 0000 70B5     		push	{r4, r5, r6, lr}
 552              	.LCFI19:
 553              		.cfi_def_cfa_offset 16
 554              		.cfi_offset 4, -16
 555              		.cfi_offset 5, -12
 556              		.cfi_offset 6, -8
 557              		.cfi_offset 14, -4
 558 0002 0446     		mov	r4, r0
 559 0004 0E46     		mov	r6, r1
 253:Middlewares/Third_Party/LwIP/system/OS/sys_arch.c ****   uint32_t starttime = osKernelSysTick();
 560              		.loc 1 253 3 is_stmt 1 view .LVU122
 561              		.loc 1 253 24 is_stmt 0 view .LVU123
 562 0006 FFF7FEFF 		bl	osKernelSysTick
 563              	.LVL47:
 564              		.loc 1 253 24 view .LVU124
 565 000a 0546     		mov	r5, r0
 566              	.LVL48:
 254:Middlewares/Third_Party/LwIP/system/OS/sys_arch.c ****   
 255:Middlewares/Third_Party/LwIP/system/OS/sys_arch.c ****   if(timeout != 0)
 567              		.loc 1 255 3 is_stmt 1 view .LVU125
 568              		.loc 1 255 5 is_stmt 0 view .LVU126
 569 000c 56B9     		cbnz	r6, .L42
 570              	.LVL49:
 571              	.L38:
 256:Middlewares/Third_Party/LwIP/system/OS/sys_arch.c ****   {    
 257:Middlewares/Third_Party/LwIP/system/OS/sys_arch.c ****     if(osSemaphoreWait (*sem, timeout) == osOK)
 258:Middlewares/Third_Party/LwIP/system/OS/sys_arch.c ****     {
 259:Middlewares/Third_Party/LwIP/system/OS/sys_arch.c ****       return (osKernelSysTick() - starttime);
 260:Middlewares/Third_Party/LwIP/system/OS/sys_arch.c ****     }
 261:Middlewares/Third_Party/LwIP/system/OS/sys_arch.c ****     else
 262:Middlewares/Third_Party/LwIP/system/OS/sys_arch.c ****     {
 263:Middlewares/Third_Party/LwIP/system/OS/sys_arch.c ****       return SYS_ARCH_TIMEOUT;
 264:Middlewares/Third_Party/LwIP/system/OS/sys_arch.c ****     } 
 265:Middlewares/Third_Party/LwIP/system/OS/sys_arch.c ****   }
 266:Middlewares/Third_Party/LwIP/system/OS/sys_arch.c ****   else
 267:Middlewares/Third_Party/LwIP/system/OS/sys_arch.c ****   {
 268:Middlewares/Third_Party/LwIP/system/OS/sys_arch.c ****     while(osSemaphoreWait (*sem, osWaitForever) != osOK);
 572              		.loc 1 268 57 is_stmt 1 discriminator 1 view .LVU127
 573              		.loc 1 268 10 discriminator 1 view .LVU128
 574              		.loc 1 268 11 is_stmt 0 discriminator 1 view .LVU129
 575 000e 4FF0FF31 		mov	r1, #-1
 576 0012 2068     		ldr	r0, [r4]
 577 0014 FFF7FEFF 		bl	osSemaphoreWait
 578              	.LVL50:
ARM GAS  C:\Users\Nina\AppData\Local\Temp\cc8iatMz.s 			page 16


 579              		.loc 1 268 10 discriminator 1 view .LVU130
 580 0018 0028     		cmp	r0, #0
 581 001a F8D1     		bne	.L38
 269:Middlewares/Third_Party/LwIP/system/OS/sys_arch.c ****     return (osKernelSysTick() - starttime);
 582              		.loc 1 269 5 is_stmt 1 view .LVU131
 583              		.loc 1 269 13 is_stmt 0 view .LVU132
 584 001c FFF7FEFF 		bl	osKernelSysTick
 585              	.LVL51:
 586              		.loc 1 269 31 view .LVU133
 587 0020 401B     		subs	r0, r0, r5
 588              	.L37:
 270:Middlewares/Third_Party/LwIP/system/OS/sys_arch.c ****   }
 271:Middlewares/Third_Party/LwIP/system/OS/sys_arch.c **** }
 589              		.loc 1 271 1 view .LVU134
 590 0022 70BD     		pop	{r4, r5, r6, pc}
 591              	.LVL52:
 592              	.L42:
 257:Middlewares/Third_Party/LwIP/system/OS/sys_arch.c ****     {
 593              		.loc 1 257 5 is_stmt 1 view .LVU135
 257:Middlewares/Third_Party/LwIP/system/OS/sys_arch.c ****     {
 594              		.loc 1 257 8 is_stmt 0 view .LVU136
 595 0024 3146     		mov	r1, r6
 596 0026 2068     		ldr	r0, [r4]
 597              	.LVL53:
 257:Middlewares/Third_Party/LwIP/system/OS/sys_arch.c ****     {
 598              		.loc 1 257 8 view .LVU137
 599 0028 FFF7FEFF 		bl	osSemaphoreWait
 600              	.LVL54:
 257:Middlewares/Third_Party/LwIP/system/OS/sys_arch.c ****     {
 601              		.loc 1 257 7 view .LVU138
 602 002c 10B1     		cbz	r0, .L43
 263:Middlewares/Third_Party/LwIP/system/OS/sys_arch.c ****     } 
 603              		.loc 1 263 14 view .LVU139
 604 002e 4FF0FF30 		mov	r0, #-1
 605 0032 F6E7     		b	.L37
 606              	.L43:
 259:Middlewares/Third_Party/LwIP/system/OS/sys_arch.c ****     }
 607              		.loc 1 259 7 is_stmt 1 view .LVU140
 259:Middlewares/Third_Party/LwIP/system/OS/sys_arch.c ****     }
 608              		.loc 1 259 15 is_stmt 0 view .LVU141
 609 0034 FFF7FEFF 		bl	osKernelSysTick
 610              	.LVL55:
 259:Middlewares/Third_Party/LwIP/system/OS/sys_arch.c ****     }
 611              		.loc 1 259 33 view .LVU142
 612 0038 401B     		subs	r0, r0, r5
 613 003a F2E7     		b	.L37
 614              		.cfi_endproc
 615              	.LFE174:
 617              		.section	.text.sys_sem_signal,"ax",%progbits
 618              		.align	1
 619              		.global	sys_sem_signal
 620              		.syntax unified
 621              		.thumb
 622              		.thumb_func
 623              		.fpu fpv5-sp-d16
 625              	sys_sem_signal:
 626              	.LVL56:
ARM GAS  C:\Users\Nina\AppData\Local\Temp\cc8iatMz.s 			page 17


 627              	.LFB175:
 272:Middlewares/Third_Party/LwIP/system/OS/sys_arch.c **** 
 273:Middlewares/Third_Party/LwIP/system/OS/sys_arch.c **** /*-----------------------------------------------------------------------------------*/
 274:Middlewares/Third_Party/LwIP/system/OS/sys_arch.c **** // Signals a semaphore
 275:Middlewares/Third_Party/LwIP/system/OS/sys_arch.c **** void sys_sem_signal(sys_sem_t *sem)
 276:Middlewares/Third_Party/LwIP/system/OS/sys_arch.c **** {
 628              		.loc 1 276 1 is_stmt 1 view -0
 629              		.cfi_startproc
 630              		@ args = 0, pretend = 0, frame = 0
 631              		@ frame_needed = 0, uses_anonymous_args = 0
 632              		.loc 1 276 1 is_stmt 0 view .LVU144
 633 0000 08B5     		push	{r3, lr}
 634              	.LCFI20:
 635              		.cfi_def_cfa_offset 8
 636              		.cfi_offset 3, -8
 637              		.cfi_offset 14, -4
 277:Middlewares/Third_Party/LwIP/system/OS/sys_arch.c ****   osSemaphoreRelease(*sem);
 638              		.loc 1 277 3 is_stmt 1 view .LVU145
 639 0002 0068     		ldr	r0, [r0]
 640              	.LVL57:
 641              		.loc 1 277 3 is_stmt 0 view .LVU146
 642 0004 FFF7FEFF 		bl	osSemaphoreRelease
 643              	.LVL58:
 278:Middlewares/Third_Party/LwIP/system/OS/sys_arch.c **** }
 644              		.loc 1 278 1 view .LVU147
 645 0008 08BD     		pop	{r3, pc}
 646              		.cfi_endproc
 647              	.LFE175:
 649              		.section	.text.sys_sem_free,"ax",%progbits
 650              		.align	1
 651              		.global	sys_sem_free
 652              		.syntax unified
 653              		.thumb
 654              		.thumb_func
 655              		.fpu fpv5-sp-d16
 657              	sys_sem_free:
 658              	.LVL59:
 659              	.LFB176:
 279:Middlewares/Third_Party/LwIP/system/OS/sys_arch.c **** 
 280:Middlewares/Third_Party/LwIP/system/OS/sys_arch.c **** /*-----------------------------------------------------------------------------------*/
 281:Middlewares/Third_Party/LwIP/system/OS/sys_arch.c **** // Deallocates a semaphore
 282:Middlewares/Third_Party/LwIP/system/OS/sys_arch.c **** void sys_sem_free(sys_sem_t *sem)
 283:Middlewares/Third_Party/LwIP/system/OS/sys_arch.c **** {
 660              		.loc 1 283 1 is_stmt 1 view -0
 661              		.cfi_startproc
 662              		@ args = 0, pretend = 0, frame = 0
 663              		@ frame_needed = 0, uses_anonymous_args = 0
 664              		.loc 1 283 1 is_stmt 0 view .LVU149
 665 0000 08B5     		push	{r3, lr}
 666              	.LCFI21:
 667              		.cfi_def_cfa_offset 8
 668              		.cfi_offset 3, -8
 669              		.cfi_offset 14, -4
 284:Middlewares/Third_Party/LwIP/system/OS/sys_arch.c **** #if SYS_STATS
 285:Middlewares/Third_Party/LwIP/system/OS/sys_arch.c ****   --lwip_stats.sys.sem.used;
 286:Middlewares/Third_Party/LwIP/system/OS/sys_arch.c **** #endif /* SYS_STATS */
 287:Middlewares/Third_Party/LwIP/system/OS/sys_arch.c ****   
ARM GAS  C:\Users\Nina\AppData\Local\Temp\cc8iatMz.s 			page 18


 288:Middlewares/Third_Party/LwIP/system/OS/sys_arch.c ****   osSemaphoreDelete(*sem);
 670              		.loc 1 288 3 is_stmt 1 view .LVU150
 671 0002 0068     		ldr	r0, [r0]
 672              	.LVL60:
 673              		.loc 1 288 3 is_stmt 0 view .LVU151
 674 0004 FFF7FEFF 		bl	osSemaphoreDelete
 675              	.LVL61:
 289:Middlewares/Third_Party/LwIP/system/OS/sys_arch.c **** }
 676              		.loc 1 289 1 view .LVU152
 677 0008 08BD     		pop	{r3, pc}
 678              		.cfi_endproc
 679              	.LFE176:
 681              		.section	.text.sys_sem_valid,"ax",%progbits
 682              		.align	1
 683              		.global	sys_sem_valid
 684              		.syntax unified
 685              		.thumb
 686              		.thumb_func
 687              		.fpu fpv5-sp-d16
 689              	sys_sem_valid:
 690              	.LVL62:
 691              	.LFB177:
 290:Middlewares/Third_Party/LwIP/system/OS/sys_arch.c **** /*-----------------------------------------------------------------------------------*/
 291:Middlewares/Third_Party/LwIP/system/OS/sys_arch.c **** int sys_sem_valid(sys_sem_t *sem)                                               
 292:Middlewares/Third_Party/LwIP/system/OS/sys_arch.c **** {
 692              		.loc 1 292 1 is_stmt 1 view -0
 693              		.cfi_startproc
 694              		@ args = 0, pretend = 0, frame = 0
 695              		@ frame_needed = 0, uses_anonymous_args = 0
 696              		@ link register save eliminated.
 293:Middlewares/Third_Party/LwIP/system/OS/sys_arch.c ****   if (*sem == SYS_SEM_NULL)
 697              		.loc 1 293 3 view .LVU154
 698              		.loc 1 293 7 is_stmt 0 view .LVU155
 699 0000 0368     		ldr	r3, [r0]
 700              		.loc 1 293 6 view .LVU156
 701 0002 0BB1     		cbz	r3, .L51
 294:Middlewares/Third_Party/LwIP/system/OS/sys_arch.c ****     return 0;
 295:Middlewares/Third_Party/LwIP/system/OS/sys_arch.c ****   else
 296:Middlewares/Third_Party/LwIP/system/OS/sys_arch.c ****     return 1;                                       
 702              		.loc 1 296 12 view .LVU157
 703 0004 0120     		movs	r0, #1
 704              	.LVL63:
 297:Middlewares/Third_Party/LwIP/system/OS/sys_arch.c **** }
 705              		.loc 1 297 1 view .LVU158
 706 0006 7047     		bx	lr
 707              	.LVL64:
 708              	.L51:
 294:Middlewares/Third_Party/LwIP/system/OS/sys_arch.c ****     return 0;
 709              		.loc 1 294 12 view .LVU159
 710 0008 0020     		movs	r0, #0
 711              	.LVL65:
 294:Middlewares/Third_Party/LwIP/system/OS/sys_arch.c ****     return 0;
 712              		.loc 1 294 12 view .LVU160
 713 000a 7047     		bx	lr
 714              		.cfi_endproc
 715              	.LFE177:
 717              		.section	.text.sys_sem_set_invalid,"ax",%progbits
ARM GAS  C:\Users\Nina\AppData\Local\Temp\cc8iatMz.s 			page 19


 718              		.align	1
 719              		.global	sys_sem_set_invalid
 720              		.syntax unified
 721              		.thumb
 722              		.thumb_func
 723              		.fpu fpv5-sp-d16
 725              	sys_sem_set_invalid:
 726              	.LVL66:
 727              	.LFB178:
 298:Middlewares/Third_Party/LwIP/system/OS/sys_arch.c **** 
 299:Middlewares/Third_Party/LwIP/system/OS/sys_arch.c **** /*-----------------------------------------------------------------------------------*/            
 300:Middlewares/Third_Party/LwIP/system/OS/sys_arch.c **** void sys_sem_set_invalid(sys_sem_t *sem)                                        
 301:Middlewares/Third_Party/LwIP/system/OS/sys_arch.c **** {                                                                               
 728              		.loc 1 301 1 is_stmt 1 view -0
 729              		.cfi_startproc
 730              		@ args = 0, pretend = 0, frame = 0
 731              		@ frame_needed = 0, uses_anonymous_args = 0
 732              		@ link register save eliminated.
 302:Middlewares/Third_Party/LwIP/system/OS/sys_arch.c ****   *sem = SYS_SEM_NULL;                                                          
 733              		.loc 1 302 3 view .LVU162
 734              		.loc 1 302 8 is_stmt 0 view .LVU163
 735 0000 0023     		movs	r3, #0
 736 0002 0360     		str	r3, [r0]
 303:Middlewares/Third_Party/LwIP/system/OS/sys_arch.c **** } 
 737              		.loc 1 303 1 view .LVU164
 738 0004 7047     		bx	lr
 739              		.cfi_endproc
 740              	.LFE178:
 742              		.section	.text.sys_init,"ax",%progbits
 743              		.align	1
 744              		.global	sys_init
 745              		.syntax unified
 746              		.thumb
 747              		.thumb_func
 748              		.fpu fpv5-sp-d16
 750              	sys_init:
 751              	.LFB179:
 304:Middlewares/Third_Party/LwIP/system/OS/sys_arch.c **** 
 305:Middlewares/Third_Party/LwIP/system/OS/sys_arch.c **** /*-----------------------------------------------------------------------------------*/ 
 306:Middlewares/Third_Party/LwIP/system/OS/sys_arch.c **** osMutexId lwip_sys_mutex;
 307:Middlewares/Third_Party/LwIP/system/OS/sys_arch.c **** osMutexDef(lwip_sys_mutex);
 308:Middlewares/Third_Party/LwIP/system/OS/sys_arch.c **** // Initialize sys arch
 309:Middlewares/Third_Party/LwIP/system/OS/sys_arch.c **** void sys_init(void)
 310:Middlewares/Third_Party/LwIP/system/OS/sys_arch.c **** {
 752              		.loc 1 310 1 is_stmt 1 view -0
 753              		.cfi_startproc
 754              		@ args = 0, pretend = 0, frame = 0
 755              		@ frame_needed = 0, uses_anonymous_args = 0
 756 0000 08B5     		push	{r3, lr}
 757              	.LCFI22:
 758              		.cfi_def_cfa_offset 8
 759              		.cfi_offset 3, -8
 760              		.cfi_offset 14, -4
 311:Middlewares/Third_Party/LwIP/system/OS/sys_arch.c ****   lwip_sys_mutex = osMutexCreate(osMutex(lwip_sys_mutex));
 761              		.loc 1 311 3 view .LVU166
 762              		.loc 1 311 20 is_stmt 0 view .LVU167
 763 0002 0348     		ldr	r0, .L55
ARM GAS  C:\Users\Nina\AppData\Local\Temp\cc8iatMz.s 			page 20


 764 0004 FFF7FEFF 		bl	osMutexCreate
 765              	.LVL67:
 766              		.loc 1 311 18 view .LVU168
 767 0008 024B     		ldr	r3, .L55+4
 768 000a 1860     		str	r0, [r3]
 312:Middlewares/Third_Party/LwIP/system/OS/sys_arch.c **** }
 769              		.loc 1 312 1 view .LVU169
 770 000c 08BD     		pop	{r3, pc}
 771              	.L56:
 772 000e 00BF     		.align	2
 773              	.L55:
 774 0010 00000000 		.word	.LANCHOR0
 775 0014 00000000 		.word	lwip_sys_mutex
 776              		.cfi_endproc
 777              	.LFE179:
 779              		.section	.text.sys_mutex_new,"ax",%progbits
 780              		.align	1
 781              		.global	sys_mutex_new
 782              		.syntax unified
 783              		.thumb
 784              		.thumb_func
 785              		.fpu fpv5-sp-d16
 787              	sys_mutex_new:
 788              	.LVL68:
 789              	.LFB180:
 313:Middlewares/Third_Party/LwIP/system/OS/sys_arch.c **** /*-----------------------------------------------------------------------------------*/
 314:Middlewares/Third_Party/LwIP/system/OS/sys_arch.c ****                                       /* Mutexes*/
 315:Middlewares/Third_Party/LwIP/system/OS/sys_arch.c **** /*-----------------------------------------------------------------------------------*/
 316:Middlewares/Third_Party/LwIP/system/OS/sys_arch.c **** /*-----------------------------------------------------------------------------------*/
 317:Middlewares/Third_Party/LwIP/system/OS/sys_arch.c **** #if LWIP_COMPAT_MUTEX == 0
 318:Middlewares/Third_Party/LwIP/system/OS/sys_arch.c **** /* Create a new mutex*/
 319:Middlewares/Third_Party/LwIP/system/OS/sys_arch.c **** err_t sys_mutex_new(sys_mutex_t *mutex) {
 790              		.loc 1 319 41 is_stmt 1 view -0
 791              		.cfi_startproc
 792              		@ args = 0, pretend = 0, frame = 8
 793              		@ frame_needed = 0, uses_anonymous_args = 0
 794              		.loc 1 319 41 is_stmt 0 view .LVU171
 795 0000 10B5     		push	{r4, lr}
 796              	.LCFI23:
 797              		.cfi_def_cfa_offset 8
 798              		.cfi_offset 4, -8
 799              		.cfi_offset 14, -4
 800 0002 82B0     		sub	sp, sp, #8
 801              	.LCFI24:
 802              		.cfi_def_cfa_offset 16
 803 0004 0446     		mov	r4, r0
 320:Middlewares/Third_Party/LwIP/system/OS/sys_arch.c ****   
 321:Middlewares/Third_Party/LwIP/system/OS/sys_arch.c ****   osMutexDef(MUTEX);
 804              		.loc 1 321 3 is_stmt 1 view .LVU172
 805 0006 0023     		movs	r3, #0
 806 0008 0193     		str	r3, [sp, #4]
 322:Middlewares/Third_Party/LwIP/system/OS/sys_arch.c ****   
 323:Middlewares/Third_Party/LwIP/system/OS/sys_arch.c ****   *mutex = osMutexCreate(osMutex(MUTEX));
 807              		.loc 1 323 3 view .LVU173
 808              		.loc 1 323 12 is_stmt 0 view .LVU174
 809 000a 01A8     		add	r0, sp, #4
 810              	.LVL69:
ARM GAS  C:\Users\Nina\AppData\Local\Temp\cc8iatMz.s 			page 21


 811              		.loc 1 323 12 view .LVU175
 812 000c FFF7FEFF 		bl	osMutexCreate
 813              	.LVL70:
 814              		.loc 1 323 10 view .LVU176
 815 0010 2060     		str	r0, [r4]
 324:Middlewares/Third_Party/LwIP/system/OS/sys_arch.c ****   
 325:Middlewares/Third_Party/LwIP/system/OS/sys_arch.c ****   
 326:Middlewares/Third_Party/LwIP/system/OS/sys_arch.c ****   //*mutex = xSemaphoreCreateMutex();
 327:Middlewares/Third_Party/LwIP/system/OS/sys_arch.c ****   if(*mutex == NULL)
 816              		.loc 1 327 3 is_stmt 1 view .LVU177
 817              		.loc 1 327 5 is_stmt 0 view .LVU178
 818 0012 10B1     		cbz	r0, .L59
 328:Middlewares/Third_Party/LwIP/system/OS/sys_arch.c ****   {
 329:Middlewares/Third_Party/LwIP/system/OS/sys_arch.c **** #if SYS_STATS
 330:Middlewares/Third_Party/LwIP/system/OS/sys_arch.c ****     ++lwip_stats.sys.mutex.err;
 331:Middlewares/Third_Party/LwIP/system/OS/sys_arch.c **** #endif /* SYS_STATS */	
 332:Middlewares/Third_Party/LwIP/system/OS/sys_arch.c ****     return ERR_MEM;
 333:Middlewares/Third_Party/LwIP/system/OS/sys_arch.c ****   }
 334:Middlewares/Third_Party/LwIP/system/OS/sys_arch.c ****   
 335:Middlewares/Third_Party/LwIP/system/OS/sys_arch.c **** #if SYS_STATS
 336:Middlewares/Third_Party/LwIP/system/OS/sys_arch.c ****   ++lwip_stats.sys.mutex.used;
 337:Middlewares/Third_Party/LwIP/system/OS/sys_arch.c ****   if (lwip_stats.sys.mutex.max < lwip_stats.sys.mutex.used) {
 338:Middlewares/Third_Party/LwIP/system/OS/sys_arch.c ****     lwip_stats.sys.mutex.max = lwip_stats.sys.mutex.used;
 339:Middlewares/Third_Party/LwIP/system/OS/sys_arch.c ****   }
 340:Middlewares/Third_Party/LwIP/system/OS/sys_arch.c **** #endif /* SYS_STATS */
 341:Middlewares/Third_Party/LwIP/system/OS/sys_arch.c ****   return ERR_OK;
 819              		.loc 1 341 10 view .LVU179
 820 0014 0020     		movs	r0, #0
 821              	.L58:
 342:Middlewares/Third_Party/LwIP/system/OS/sys_arch.c **** }
 822              		.loc 1 342 1 view .LVU180
 823 0016 02B0     		add	sp, sp, #8
 824              	.LCFI25:
 825              		.cfi_remember_state
 826              		.cfi_def_cfa_offset 8
 827              		@ sp needed
 828 0018 10BD     		pop	{r4, pc}
 829              	.LVL71:
 830              	.L59:
 831              	.LCFI26:
 832              		.cfi_restore_state
 332:Middlewares/Third_Party/LwIP/system/OS/sys_arch.c ****   }
 833              		.loc 1 332 12 view .LVU181
 834 001a 4FF0FF30 		mov	r0, #-1
 835 001e FAE7     		b	.L58
 836              		.cfi_endproc
 837              	.LFE180:
 839              		.section	.text.sys_mutex_free,"ax",%progbits
 840              		.align	1
 841              		.global	sys_mutex_free
 842              		.syntax unified
 843              		.thumb
 844              		.thumb_func
 845              		.fpu fpv5-sp-d16
 847              	sys_mutex_free:
 848              	.LVL72:
 849              	.LFB181:
ARM GAS  C:\Users\Nina\AppData\Local\Temp\cc8iatMz.s 			page 22


 343:Middlewares/Third_Party/LwIP/system/OS/sys_arch.c **** /*-----------------------------------------------------------------------------------*/
 344:Middlewares/Third_Party/LwIP/system/OS/sys_arch.c **** /* Deallocate a mutex*/
 345:Middlewares/Third_Party/LwIP/system/OS/sys_arch.c **** void sys_mutex_free(sys_mutex_t *mutex)
 346:Middlewares/Third_Party/LwIP/system/OS/sys_arch.c **** {
 850              		.loc 1 346 1 is_stmt 1 view -0
 851              		.cfi_startproc
 852              		@ args = 0, pretend = 0, frame = 0
 853              		@ frame_needed = 0, uses_anonymous_args = 0
 854              		.loc 1 346 1 is_stmt 0 view .LVU183
 855 0000 08B5     		push	{r3, lr}
 856              	.LCFI27:
 857              		.cfi_def_cfa_offset 8
 858              		.cfi_offset 3, -8
 859              		.cfi_offset 14, -4
 347:Middlewares/Third_Party/LwIP/system/OS/sys_arch.c **** #if SYS_STATS
 348:Middlewares/Third_Party/LwIP/system/OS/sys_arch.c ****       --lwip_stats.sys.mutex.used;
 349:Middlewares/Third_Party/LwIP/system/OS/sys_arch.c **** #endif /* SYS_STATS */
 350:Middlewares/Third_Party/LwIP/system/OS/sys_arch.c **** 			
 351:Middlewares/Third_Party/LwIP/system/OS/sys_arch.c ****   osMutexDelete(*mutex);
 860              		.loc 1 351 3 is_stmt 1 view .LVU184
 861 0002 0068     		ldr	r0, [r0]
 862              	.LVL73:
 863              		.loc 1 351 3 is_stmt 0 view .LVU185
 864 0004 FFF7FEFF 		bl	osMutexDelete
 865              	.LVL74:
 352:Middlewares/Third_Party/LwIP/system/OS/sys_arch.c **** }
 866              		.loc 1 352 1 view .LVU186
 867 0008 08BD     		pop	{r3, pc}
 868              		.cfi_endproc
 869              	.LFE181:
 871              		.section	.text.sys_mutex_lock,"ax",%progbits
 872              		.align	1
 873              		.global	sys_mutex_lock
 874              		.syntax unified
 875              		.thumb
 876              		.thumb_func
 877              		.fpu fpv5-sp-d16
 879              	sys_mutex_lock:
 880              	.LVL75:
 881              	.LFB182:
 353:Middlewares/Third_Party/LwIP/system/OS/sys_arch.c **** /*-----------------------------------------------------------------------------------*/
 354:Middlewares/Third_Party/LwIP/system/OS/sys_arch.c **** /* Lock a mutex*/
 355:Middlewares/Third_Party/LwIP/system/OS/sys_arch.c **** void sys_mutex_lock(sys_mutex_t *mutex)
 356:Middlewares/Third_Party/LwIP/system/OS/sys_arch.c **** {
 882              		.loc 1 356 1 is_stmt 1 view -0
 883              		.cfi_startproc
 884              		@ args = 0, pretend = 0, frame = 0
 885              		@ frame_needed = 0, uses_anonymous_args = 0
 886              		.loc 1 356 1 is_stmt 0 view .LVU188
 887 0000 08B5     		push	{r3, lr}
 888              	.LCFI28:
 889              		.cfi_def_cfa_offset 8
 890              		.cfi_offset 3, -8
 891              		.cfi_offset 14, -4
 357:Middlewares/Third_Party/LwIP/system/OS/sys_arch.c ****   osMutexWait (*mutex, osWaitForever);
 892              		.loc 1 357 3 is_stmt 1 view .LVU189
 893 0002 4FF0FF31 		mov	r1, #-1
ARM GAS  C:\Users\Nina\AppData\Local\Temp\cc8iatMz.s 			page 23


 894 0006 0068     		ldr	r0, [r0]
 895              	.LVL76:
 896              		.loc 1 357 3 is_stmt 0 view .LVU190
 897 0008 FFF7FEFF 		bl	osMutexWait
 898              	.LVL77:
 358:Middlewares/Third_Party/LwIP/system/OS/sys_arch.c **** }
 899              		.loc 1 358 1 view .LVU191
 900 000c 08BD     		pop	{r3, pc}
 901              		.cfi_endproc
 902              	.LFE182:
 904              		.section	.text.sys_mutex_unlock,"ax",%progbits
 905              		.align	1
 906              		.global	sys_mutex_unlock
 907              		.syntax unified
 908              		.thumb
 909              		.thumb_func
 910              		.fpu fpv5-sp-d16
 912              	sys_mutex_unlock:
 913              	.LVL78:
 914              	.LFB183:
 359:Middlewares/Third_Party/LwIP/system/OS/sys_arch.c **** 
 360:Middlewares/Third_Party/LwIP/system/OS/sys_arch.c **** /*-----------------------------------------------------------------------------------*/
 361:Middlewares/Third_Party/LwIP/system/OS/sys_arch.c **** /* Unlock a mutex*/
 362:Middlewares/Third_Party/LwIP/system/OS/sys_arch.c **** void sys_mutex_unlock(sys_mutex_t *mutex)
 363:Middlewares/Third_Party/LwIP/system/OS/sys_arch.c **** {
 915              		.loc 1 363 1 is_stmt 1 view -0
 916              		.cfi_startproc
 917              		@ args = 0, pretend = 0, frame = 0
 918              		@ frame_needed = 0, uses_anonymous_args = 0
 919              		.loc 1 363 1 is_stmt 0 view .LVU193
 920 0000 08B5     		push	{r3, lr}
 921              	.LCFI29:
 922              		.cfi_def_cfa_offset 8
 923              		.cfi_offset 3, -8
 924              		.cfi_offset 14, -4
 364:Middlewares/Third_Party/LwIP/system/OS/sys_arch.c ****   osMutexRelease(*mutex);
 925              		.loc 1 364 3 is_stmt 1 view .LVU194
 926 0002 0068     		ldr	r0, [r0]
 927              	.LVL79:
 928              		.loc 1 364 3 is_stmt 0 view .LVU195
 929 0004 FFF7FEFF 		bl	osMutexRelease
 930              	.LVL80:
 365:Middlewares/Third_Party/LwIP/system/OS/sys_arch.c **** }
 931              		.loc 1 365 1 view .LVU196
 932 0008 08BD     		pop	{r3, pc}
 933              		.cfi_endproc
 934              	.LFE183:
 936              		.section	.text.sys_thread_new,"ax",%progbits
 937              		.align	1
 938              		.global	sys_thread_new
 939              		.syntax unified
 940              		.thumb
 941              		.thumb_func
 942              		.fpu fpv5-sp-d16
 944              	sys_thread_new:
 945              	.LVL81:
 946              	.LFB184:
ARM GAS  C:\Users\Nina\AppData\Local\Temp\cc8iatMz.s 			page 24


 366:Middlewares/Third_Party/LwIP/system/OS/sys_arch.c **** #endif /*LWIP_COMPAT_MUTEX*/
 367:Middlewares/Third_Party/LwIP/system/OS/sys_arch.c **** /*-----------------------------------------------------------------------------------*/
 368:Middlewares/Third_Party/LwIP/system/OS/sys_arch.c **** // TODO
 369:Middlewares/Third_Party/LwIP/system/OS/sys_arch.c **** /*-----------------------------------------------------------------------------------*/
 370:Middlewares/Third_Party/LwIP/system/OS/sys_arch.c **** /*
 371:Middlewares/Third_Party/LwIP/system/OS/sys_arch.c ****   Starts a new thread with priority "prio" that will begin its execution in the
 372:Middlewares/Third_Party/LwIP/system/OS/sys_arch.c ****   function "thread()". The "arg" argument will be passed as an argument to the
 373:Middlewares/Third_Party/LwIP/system/OS/sys_arch.c ****   thread() function. The id of the new thread is returned. Both the id and
 374:Middlewares/Third_Party/LwIP/system/OS/sys_arch.c ****   the priority are system dependent.
 375:Middlewares/Third_Party/LwIP/system/OS/sys_arch.c **** */
 376:Middlewares/Third_Party/LwIP/system/OS/sys_arch.c **** sys_thread_t sys_thread_new(const char *name, lwip_thread_fn thread , void *arg, int stacksize, int
 377:Middlewares/Third_Party/LwIP/system/OS/sys_arch.c **** {
 947              		.loc 1 377 1 is_stmt 1 view -0
 948              		.cfi_startproc
 949              		@ args = 4, pretend = 0, frame = 24
 950              		@ frame_needed = 0, uses_anonymous_args = 0
 951              		.loc 1 377 1 is_stmt 0 view .LVU198
 952 0000 00B5     		push	{lr}
 953              	.LCFI30:
 954              		.cfi_def_cfa_offset 4
 955              		.cfi_offset 14, -4
 956 0002 87B0     		sub	sp, sp, #28
 957              	.LCFI31:
 958              		.cfi_def_cfa_offset 32
 378:Middlewares/Third_Party/LwIP/system/OS/sys_arch.c ****   const osThreadDef_t os_thread_def = { (char *)name, (os_pthread)thread, (osPriority)prio, 0, stac
 959              		.loc 1 378 3 is_stmt 1 view .LVU199
 960              		.loc 1 378 23 is_stmt 0 view .LVU200
 961 0004 0190     		str	r0, [sp, #4]
 962 0006 0291     		str	r1, [sp, #8]
 963              		.loc 1 378 75 view .LVU201
 964 0008 BDF92010 		ldrsh	r1, [sp, #32]
 965              	.LVL82:
 966              		.loc 1 378 23 view .LVU202
 967 000c ADF80C10 		strh	r1, [sp, #12]	@ movhi
 968 0010 0021     		movs	r1, #0
 969 0012 0491     		str	r1, [sp, #16]
 970 0014 0593     		str	r3, [sp, #20]
 379:Middlewares/Third_Party/LwIP/system/OS/sys_arch.c ****   return osThreadCreate(&os_thread_def, arg);
 971              		.loc 1 379 3 is_stmt 1 view .LVU203
 972              		.loc 1 379 10 is_stmt 0 view .LVU204
 973 0016 1146     		mov	r1, r2
 974 0018 01A8     		add	r0, sp, #4
 975              	.LVL83:
 976              		.loc 1 379 10 view .LVU205
 977 001a FFF7FEFF 		bl	osThreadCreate
 978              	.LVL84:
 380:Middlewares/Third_Party/LwIP/system/OS/sys_arch.c **** }
 979              		.loc 1 380 1 view .LVU206
 980 001e 07B0     		add	sp, sp, #28
 981              	.LCFI32:
 982              		.cfi_def_cfa_offset 4
 983              		@ sp needed
 984 0020 5DF804FB 		ldr	pc, [sp], #4
 985              		.loc 1 380 1 view .LVU207
 986              		.cfi_endproc
 987              	.LFE184:
 989              		.section	.text.sys_arch_protect,"ax",%progbits
ARM GAS  C:\Users\Nina\AppData\Local\Temp\cc8iatMz.s 			page 25


 990              		.align	1
 991              		.global	sys_arch_protect
 992              		.syntax unified
 993              		.thumb
 994              		.thumb_func
 995              		.fpu fpv5-sp-d16
 997              	sys_arch_protect:
 998              	.LFB185:
 381:Middlewares/Third_Party/LwIP/system/OS/sys_arch.c **** 
 382:Middlewares/Third_Party/LwIP/system/OS/sys_arch.c **** /*
 383:Middlewares/Third_Party/LwIP/system/OS/sys_arch.c ****   This optional function does a "fast" critical region protection and returns
 384:Middlewares/Third_Party/LwIP/system/OS/sys_arch.c ****   the previous protection level. This function is only called during very short
 385:Middlewares/Third_Party/LwIP/system/OS/sys_arch.c ****   critical regions. An embedded system which supports ISR-based drivers might
 386:Middlewares/Third_Party/LwIP/system/OS/sys_arch.c ****   want to implement this function by disabling interrupts. Task-based systems
 387:Middlewares/Third_Party/LwIP/system/OS/sys_arch.c ****   might want to implement this by using a mutex or disabling tasking. This
 388:Middlewares/Third_Party/LwIP/system/OS/sys_arch.c ****   function should support recursive calls from the same task or interrupt. In
 389:Middlewares/Third_Party/LwIP/system/OS/sys_arch.c ****   other words, sys_arch_protect() could be called while already protected. In
 390:Middlewares/Third_Party/LwIP/system/OS/sys_arch.c ****   that case the return value indicates that it is already protected.
 391:Middlewares/Third_Party/LwIP/system/OS/sys_arch.c **** 
 392:Middlewares/Third_Party/LwIP/system/OS/sys_arch.c ****   sys_arch_protect() is only required if your port is supporting an operating
 393:Middlewares/Third_Party/LwIP/system/OS/sys_arch.c ****   system.
 394:Middlewares/Third_Party/LwIP/system/OS/sys_arch.c **** 
 395:Middlewares/Third_Party/LwIP/system/OS/sys_arch.c ****   Note: This function is based on FreeRTOS API, because no equivalent CMSIS-RTOS
 396:Middlewares/Third_Party/LwIP/system/OS/sys_arch.c ****         API is available
 397:Middlewares/Third_Party/LwIP/system/OS/sys_arch.c **** */
 398:Middlewares/Third_Party/LwIP/system/OS/sys_arch.c **** sys_prot_t sys_arch_protect(void)
 399:Middlewares/Third_Party/LwIP/system/OS/sys_arch.c **** {
 999              		.loc 1 399 1 is_stmt 1 view -0
 1000              		.cfi_startproc
 1001              		@ args = 0, pretend = 0, frame = 0
 1002              		@ frame_needed = 0, uses_anonymous_args = 0
 1003 0000 08B5     		push	{r3, lr}
 1004              	.LCFI33:
 1005              		.cfi_def_cfa_offset 8
 1006              		.cfi_offset 3, -8
 1007              		.cfi_offset 14, -4
 400:Middlewares/Third_Party/LwIP/system/OS/sys_arch.c ****   osMutexWait(lwip_sys_mutex, osWaitForever);
 1008              		.loc 1 400 3 view .LVU209
 1009 0002 4FF0FF31 		mov	r1, #-1
 1010 0006 034B     		ldr	r3, .L71
 1011 0008 1868     		ldr	r0, [r3]
 1012 000a FFF7FEFF 		bl	osMutexWait
 1013              	.LVL85:
 401:Middlewares/Third_Party/LwIP/system/OS/sys_arch.c ****   return (sys_prot_t)1;
 1014              		.loc 1 401 3 view .LVU210
 402:Middlewares/Third_Party/LwIP/system/OS/sys_arch.c **** }
 1015              		.loc 1 402 1 is_stmt 0 view .LVU211
 1016 000e 0120     		movs	r0, #1
 1017 0010 08BD     		pop	{r3, pc}
 1018              	.L72:
 1019 0012 00BF     		.align	2
 1020              	.L71:
 1021 0014 00000000 		.word	lwip_sys_mutex
 1022              		.cfi_endproc
 1023              	.LFE185:
 1025              		.section	.text.sys_arch_unprotect,"ax",%progbits
 1026              		.align	1
ARM GAS  C:\Users\Nina\AppData\Local\Temp\cc8iatMz.s 			page 26


 1027              		.global	sys_arch_unprotect
 1028              		.syntax unified
 1029              		.thumb
 1030              		.thumb_func
 1031              		.fpu fpv5-sp-d16
 1033              	sys_arch_unprotect:
 1034              	.LVL86:
 1035              	.LFB186:
 403:Middlewares/Third_Party/LwIP/system/OS/sys_arch.c **** 
 404:Middlewares/Third_Party/LwIP/system/OS/sys_arch.c **** 
 405:Middlewares/Third_Party/LwIP/system/OS/sys_arch.c **** /*
 406:Middlewares/Third_Party/LwIP/system/OS/sys_arch.c ****   This optional function does a "fast" set of critical region protection to the
 407:Middlewares/Third_Party/LwIP/system/OS/sys_arch.c ****   value specified by pval. See the documentation for sys_arch_protect() for
 408:Middlewares/Third_Party/LwIP/system/OS/sys_arch.c ****   more information. This function is only required if your port is supporting
 409:Middlewares/Third_Party/LwIP/system/OS/sys_arch.c ****   an operating system.
 410:Middlewares/Third_Party/LwIP/system/OS/sys_arch.c **** 
 411:Middlewares/Third_Party/LwIP/system/OS/sys_arch.c ****   Note: This function is based on FreeRTOS API, because no equivalent CMSIS-RTOS
 412:Middlewares/Third_Party/LwIP/system/OS/sys_arch.c ****         API is available
 413:Middlewares/Third_Party/LwIP/system/OS/sys_arch.c **** */
 414:Middlewares/Third_Party/LwIP/system/OS/sys_arch.c **** void sys_arch_unprotect(sys_prot_t pval)
 415:Middlewares/Third_Party/LwIP/system/OS/sys_arch.c **** {
 1036              		.loc 1 415 1 is_stmt 1 view -0
 1037              		.cfi_startproc
 1038              		@ args = 0, pretend = 0, frame = 0
 1039              		@ frame_needed = 0, uses_anonymous_args = 0
 1040              		.loc 1 415 1 is_stmt 0 view .LVU213
 1041 0000 08B5     		push	{r3, lr}
 1042              	.LCFI34:
 1043              		.cfi_def_cfa_offset 8
 1044              		.cfi_offset 3, -8
 1045              		.cfi_offset 14, -4
 416:Middlewares/Third_Party/LwIP/system/OS/sys_arch.c ****   ( void ) pval;
 1046              		.loc 1 416 3 is_stmt 1 view .LVU214
 417:Middlewares/Third_Party/LwIP/system/OS/sys_arch.c ****   osMutexRelease(lwip_sys_mutex);
 1047              		.loc 1 417 3 view .LVU215
 1048 0002 024B     		ldr	r3, .L75
 1049 0004 1868     		ldr	r0, [r3]
 1050              	.LVL87:
 1051              		.loc 1 417 3 is_stmt 0 view .LVU216
 1052 0006 FFF7FEFF 		bl	osMutexRelease
 1053              	.LVL88:
 418:Middlewares/Third_Party/LwIP/system/OS/sys_arch.c **** }
 1054              		.loc 1 418 1 view .LVU217
 1055 000a 08BD     		pop	{r3, pc}
 1056              	.L76:
 1057              		.align	2
 1058              	.L75:
 1059 000c 00000000 		.word	lwip_sys_mutex
 1060              		.cfi_endproc
 1061              	.LFE186:
 1063              		.global	os_mutex_def_lwip_sys_mutex
 1064              		.comm	lwip_sys_mutex,4,4
 1065              		.comm	errno,4,4
 1066              		.section	.rodata.os_mutex_def_lwip_sys_mutex,"a"
 1067              		.align	2
 1068              		.set	.LANCHOR0,. + 0
 1071              	os_mutex_def_lwip_sys_mutex:
ARM GAS  C:\Users\Nina\AppData\Local\Temp\cc8iatMz.s 			page 27


 1072 0000 00000000 		.space	4
 1073              		.text
 1074              	.Letext0:
 1075              		.file 2 "c:\\program files (x86)\\gnu tools arm embedded\\9 2019-q4-major\\arm-none-eabi\\include\
 1076              		.file 3 "c:\\program files (x86)\\gnu tools arm embedded\\9 2019-q4-major\\arm-none-eabi\\include\
 1077              		.file 4 "c:\\program files (x86)\\gnu tools arm embedded\\9 2019-q4-major\\arm-none-eabi\\include\
 1078              		.file 5 "c:\\program files (x86)\\gnu tools arm embedded\\9 2019-q4-major\\lib\\gcc\\arm-none-eabi
 1079              		.file 6 "c:\\program files (x86)\\gnu tools arm embedded\\9 2019-q4-major\\arm-none-eabi\\include\
 1080              		.file 7 "c:\\program files (x86)\\gnu tools arm embedded\\9 2019-q4-major\\arm-none-eabi\\include\
 1081              		.file 8 "c:\\program files (x86)\\gnu tools arm embedded\\9 2019-q4-major\\arm-none-eabi\\include\
 1082              		.file 9 "Middlewares/Third_Party/LwIP/system/arch/cc.h"
 1083              		.file 10 "c:\\program files (x86)\\gnu tools arm embedded\\9 2019-q4-major\\arm-none-eabi\\include
 1084              		.file 11 "Middlewares/Third_Party/LwIP/src/include/lwip/arch.h"
 1085              		.file 12 "Drivers/CMSIS/Include/core_cm7.h"
 1086              		.file 13 "Drivers/CMSIS/Device/ST/STM32F7xx/Include/system_stm32f7xx.h"
 1087              		.file 14 "Middlewares/Third_Party/LwIP/src/include/lwip/err.h"
 1088              		.file 15 "Middlewares/Third_Party/FreeRTOS/Source/include/task.h"
 1089              		.file 16 "Middlewares/Third_Party/FreeRTOS/Source/include/queue.h"
 1090              		.file 17 "Middlewares/Third_Party/FreeRTOS/Source/include/semphr.h"
 1091              		.file 18 "Middlewares/Third_Party/FreeRTOS/Source/CMSIS_RTOS/cmsis_os.h"
 1092              		.file 19 "Middlewares/Third_Party/LwIP/system/arch/sys_arch.h"
 1093              		.file 20 "Middlewares/Third_Party/LwIP/src/include/lwip/sys.h"
 1094              		.file 21 "Middlewares/Third_Party/LwIP/src/include/lwip/memp.h"
 1095              		.file 22 "Middlewares/Third_Party/LwIP/src/include/lwip/priv/memp_priv.h"
ARM GAS  C:\Users\Nina\AppData\Local\Temp\cc8iatMz.s 			page 28

