ARM GAS  C:\Users\Nina\AppData\Local\Temp\cc9LyW5f.s 			page 1


   1              		.cpu cortex-m7
   2              		.eabi_attribute 27, 1
   3              		.eabi_attribute 28, 1
   4              		.eabi_attribute 20, 1
   5              		.eabi_attribute 21, 1
   6              		.eabi_attribute 23, 3
   7              		.eabi_attribute 24, 1
   8              		.eabi_attribute 25, 1
   9              		.eabi_attribute 26, 1
  10              		.eabi_attribute 30, 1
  11              		.eabi_attribute 34, 1
  12              		.eabi_attribute 18, 4
  13              		.file	"tcp_out.c"
  14              		.text
  15              	.Ltext0:
  16              		.cfi_sections	.debug_frame
  17              		.section	.rodata.tcp_write_checks.str1.4,"aMS",%progbits,1
  18              		.align	2
  19              	.LC0:
  20 0000 4D696464 		.ascii	"Middlewares/Third_Party/LwIP/src/core/tcp_out.c\000"
  20      6C657761 
  20      7265732F 
  20      54686972 
  20      645F5061 
  21              		.align	2
  22              	.LC1:
  23 0030 7463705F 		.ascii	"tcp_write: pbufs on queue => at least one queue non"
  23      77726974 
  23      653A2070 
  23      62756673 
  23      206F6E20 
  24 0063 2D656D70 		.ascii	"-empty\000"
  24      747900
  25 006a 0000     		.align	2
  26              	.LC2:
  27 006c 41737365 		.ascii	"Assertion \"%s\" failed at line %d in %s\012\000"
  27      7274696F 
  27      6E202225 
  27      73222066 
  27      61696C65 
  28              		.align	2
  29              	.LC3:
  30 0094 7463705F 		.ascii	"tcp_write: no pbufs on queue => both queues empty\000"
  30      77726974 
  30      653A206E 
  30      6F207062 
  30      75667320 
  31              		.section	.text.tcp_write_checks,"ax",%progbits
  32              		.align	1
  33              		.arch armv7e-m
  34              		.syntax unified
  35              		.thumb
  36              		.thumb_func
  37              		.fpu fpv5-sp-d16
  39              	tcp_write_checks:
  40              	.LVL0:
  41              	.LFB164:
ARM GAS  C:\Users\Nina\AppData\Local\Temp\cc9LyW5f.s 			page 2


  42              		.file 1 "Middlewares/Third_Party/LwIP/src/core/tcp_out.c"
   1:Middlewares/Third_Party/LwIP/src/core/tcp_out.c **** /**
   2:Middlewares/Third_Party/LwIP/src/core/tcp_out.c ****  * @file
   3:Middlewares/Third_Party/LwIP/src/core/tcp_out.c ****  * Transmission Control Protocol, outgoing traffic
   4:Middlewares/Third_Party/LwIP/src/core/tcp_out.c ****  *
   5:Middlewares/Third_Party/LwIP/src/core/tcp_out.c ****  * The output functions of TCP.
   6:Middlewares/Third_Party/LwIP/src/core/tcp_out.c ****  *
   7:Middlewares/Third_Party/LwIP/src/core/tcp_out.c ****  */
   8:Middlewares/Third_Party/LwIP/src/core/tcp_out.c **** 
   9:Middlewares/Third_Party/LwIP/src/core/tcp_out.c **** /*
  10:Middlewares/Third_Party/LwIP/src/core/tcp_out.c ****  * Copyright (c) 2001-2004 Swedish Institute of Computer Science.
  11:Middlewares/Third_Party/LwIP/src/core/tcp_out.c ****  * All rights reserved.
  12:Middlewares/Third_Party/LwIP/src/core/tcp_out.c ****  *
  13:Middlewares/Third_Party/LwIP/src/core/tcp_out.c ****  * Redistribution and use in source and binary forms, with or without modification,
  14:Middlewares/Third_Party/LwIP/src/core/tcp_out.c ****  * are permitted provided that the following conditions are met:
  15:Middlewares/Third_Party/LwIP/src/core/tcp_out.c ****  *
  16:Middlewares/Third_Party/LwIP/src/core/tcp_out.c ****  * 1. Redistributions of source code must retain the above copyright notice,
  17:Middlewares/Third_Party/LwIP/src/core/tcp_out.c ****  *    this list of conditions and the following disclaimer.
  18:Middlewares/Third_Party/LwIP/src/core/tcp_out.c ****  * 2. Redistributions in binary form must reproduce the above copyright notice,
  19:Middlewares/Third_Party/LwIP/src/core/tcp_out.c ****  *    this list of conditions and the following disclaimer in the documentation
  20:Middlewares/Third_Party/LwIP/src/core/tcp_out.c ****  *    and/or other materials provided with the distribution.
  21:Middlewares/Third_Party/LwIP/src/core/tcp_out.c ****  * 3. The name of the author may not be used to endorse or promote products
  22:Middlewares/Third_Party/LwIP/src/core/tcp_out.c ****  *    derived from this software without specific prior written permission.
  23:Middlewares/Third_Party/LwIP/src/core/tcp_out.c ****  *
  24:Middlewares/Third_Party/LwIP/src/core/tcp_out.c ****  * THIS SOFTWARE IS PROVIDED BY THE AUTHOR ``AS IS'' AND ANY EXPRESS OR IMPLIED
  25:Middlewares/Third_Party/LwIP/src/core/tcp_out.c ****  * WARRANTIES, INCLUDING, BUT NOT LIMITED TO, THE IMPLIED WARRANTIES OF
  26:Middlewares/Third_Party/LwIP/src/core/tcp_out.c ****  * MERCHANTABILITY AND FITNESS FOR A PARTICULAR PURPOSE ARE DISCLAIMED. IN NO EVENT
  27:Middlewares/Third_Party/LwIP/src/core/tcp_out.c ****  * SHALL THE AUTHOR BE LIABLE FOR ANY DIRECT, INDIRECT, INCIDENTAL, SPECIAL,
  28:Middlewares/Third_Party/LwIP/src/core/tcp_out.c ****  * EXEMPLARY, OR CONSEQUENTIAL DAMAGES (INCLUDING, BUT NOT LIMITED TO, PROCUREMENT
  29:Middlewares/Third_Party/LwIP/src/core/tcp_out.c ****  * OF SUBSTITUTE GOODS OR SERVICES; LOSS OF USE, DATA, OR PROFITS; OR BUSINESS
  30:Middlewares/Third_Party/LwIP/src/core/tcp_out.c ****  * INTERRUPTION) HOWEVER CAUSED AND ON ANY THEORY OF LIABILITY, WHETHER IN
  31:Middlewares/Third_Party/LwIP/src/core/tcp_out.c ****  * CONTRACT, STRICT LIABILITY, OR TORT (INCLUDING NEGLIGENCE OR OTHERWISE) ARISING
  32:Middlewares/Third_Party/LwIP/src/core/tcp_out.c ****  * IN ANY WAY OUT OF THE USE OF THIS SOFTWARE, EVEN IF ADVISED OF THE POSSIBILITY
  33:Middlewares/Third_Party/LwIP/src/core/tcp_out.c ****  * OF SUCH DAMAGE.
  34:Middlewares/Third_Party/LwIP/src/core/tcp_out.c ****  *
  35:Middlewares/Third_Party/LwIP/src/core/tcp_out.c ****  * This file is part of the lwIP TCP/IP stack.
  36:Middlewares/Third_Party/LwIP/src/core/tcp_out.c ****  *
  37:Middlewares/Third_Party/LwIP/src/core/tcp_out.c ****  * Author: Adam Dunkels <adam@sics.se>
  38:Middlewares/Third_Party/LwIP/src/core/tcp_out.c ****  *
  39:Middlewares/Third_Party/LwIP/src/core/tcp_out.c ****  */
  40:Middlewares/Third_Party/LwIP/src/core/tcp_out.c **** 
  41:Middlewares/Third_Party/LwIP/src/core/tcp_out.c **** #include "lwip/opt.h"
  42:Middlewares/Third_Party/LwIP/src/core/tcp_out.c **** 
  43:Middlewares/Third_Party/LwIP/src/core/tcp_out.c **** #if LWIP_TCP /* don't build if not configured for use in lwipopts.h */
  44:Middlewares/Third_Party/LwIP/src/core/tcp_out.c **** 
  45:Middlewares/Third_Party/LwIP/src/core/tcp_out.c **** #include "lwip/priv/tcp_priv.h"
  46:Middlewares/Third_Party/LwIP/src/core/tcp_out.c **** #include "lwip/def.h"
  47:Middlewares/Third_Party/LwIP/src/core/tcp_out.c **** #include "lwip/mem.h"
  48:Middlewares/Third_Party/LwIP/src/core/tcp_out.c **** #include "lwip/memp.h"
  49:Middlewares/Third_Party/LwIP/src/core/tcp_out.c **** #include "lwip/ip_addr.h"
  50:Middlewares/Third_Party/LwIP/src/core/tcp_out.c **** #include "lwip/netif.h"
  51:Middlewares/Third_Party/LwIP/src/core/tcp_out.c **** #include "lwip/inet_chksum.h"
  52:Middlewares/Third_Party/LwIP/src/core/tcp_out.c **** #include "lwip/stats.h"
  53:Middlewares/Third_Party/LwIP/src/core/tcp_out.c **** #include "lwip/ip6.h"
  54:Middlewares/Third_Party/LwIP/src/core/tcp_out.c **** #include "lwip/ip6_addr.h"
  55:Middlewares/Third_Party/LwIP/src/core/tcp_out.c **** #if LWIP_TCP_TIMESTAMPS
  56:Middlewares/Third_Party/LwIP/src/core/tcp_out.c **** #include "lwip/sys.h"
ARM GAS  C:\Users\Nina\AppData\Local\Temp\cc9LyW5f.s 			page 3


  57:Middlewares/Third_Party/LwIP/src/core/tcp_out.c **** #endif
  58:Middlewares/Third_Party/LwIP/src/core/tcp_out.c **** 
  59:Middlewares/Third_Party/LwIP/src/core/tcp_out.c **** #include <string.h>
  60:Middlewares/Third_Party/LwIP/src/core/tcp_out.c **** 
  61:Middlewares/Third_Party/LwIP/src/core/tcp_out.c **** /* Define some copy-macros for checksum-on-copy so that the code looks
  62:Middlewares/Third_Party/LwIP/src/core/tcp_out.c ****    nicer by preventing too many ifdef's. */
  63:Middlewares/Third_Party/LwIP/src/core/tcp_out.c **** #if TCP_CHECKSUM_ON_COPY
  64:Middlewares/Third_Party/LwIP/src/core/tcp_out.c **** #define TCP_DATA_COPY(dst, src, len, seg) do { \
  65:Middlewares/Third_Party/LwIP/src/core/tcp_out.c ****   tcp_seg_add_chksum(LWIP_CHKSUM_COPY(dst, src, len), \
  66:Middlewares/Third_Party/LwIP/src/core/tcp_out.c ****                      len, &seg->chksum, &seg->chksum_swapped); \
  67:Middlewares/Third_Party/LwIP/src/core/tcp_out.c ****   seg->flags |= TF_SEG_DATA_CHECKSUMMED; } while(0)
  68:Middlewares/Third_Party/LwIP/src/core/tcp_out.c **** #define TCP_DATA_COPY2(dst, src, len, chksum, chksum_swapped)  \
  69:Middlewares/Third_Party/LwIP/src/core/tcp_out.c ****   tcp_seg_add_chksum(LWIP_CHKSUM_COPY(dst, src, len), len, chksum, chksum_swapped);
  70:Middlewares/Third_Party/LwIP/src/core/tcp_out.c **** #else /* TCP_CHECKSUM_ON_COPY*/
  71:Middlewares/Third_Party/LwIP/src/core/tcp_out.c **** #define TCP_DATA_COPY(dst, src, len, seg)                     MEMCPY(dst, src, len)
  72:Middlewares/Third_Party/LwIP/src/core/tcp_out.c **** #define TCP_DATA_COPY2(dst, src, len, chksum, chksum_swapped) MEMCPY(dst, src, len)
  73:Middlewares/Third_Party/LwIP/src/core/tcp_out.c **** #endif /* TCP_CHECKSUM_ON_COPY*/
  74:Middlewares/Third_Party/LwIP/src/core/tcp_out.c **** 
  75:Middlewares/Third_Party/LwIP/src/core/tcp_out.c **** /** Define this to 1 for an extra check that the output checksum is valid
  76:Middlewares/Third_Party/LwIP/src/core/tcp_out.c ****  * (usefule when the checksum is generated by the application, not the stack) */
  77:Middlewares/Third_Party/LwIP/src/core/tcp_out.c **** #ifndef TCP_CHECKSUM_ON_COPY_SANITY_CHECK
  78:Middlewares/Third_Party/LwIP/src/core/tcp_out.c **** #define TCP_CHECKSUM_ON_COPY_SANITY_CHECK   0
  79:Middlewares/Third_Party/LwIP/src/core/tcp_out.c **** #endif
  80:Middlewares/Third_Party/LwIP/src/core/tcp_out.c **** /* Allow to override the failure of sanity check from warning to e.g. hard failure */
  81:Middlewares/Third_Party/LwIP/src/core/tcp_out.c **** #if TCP_CHECKSUM_ON_COPY_SANITY_CHECK
  82:Middlewares/Third_Party/LwIP/src/core/tcp_out.c **** #ifndef TCP_CHECKSUM_ON_COPY_SANITY_CHECK_FAIL
  83:Middlewares/Third_Party/LwIP/src/core/tcp_out.c **** #define TCP_CHECKSUM_ON_COPY_SANITY_CHECK_FAIL(msg) LWIP_DEBUGF(TCP_DEBUG | LWIP_DBG_LEVEL_WARNING,
  84:Middlewares/Third_Party/LwIP/src/core/tcp_out.c **** #endif
  85:Middlewares/Third_Party/LwIP/src/core/tcp_out.c **** #endif
  86:Middlewares/Third_Party/LwIP/src/core/tcp_out.c **** 
  87:Middlewares/Third_Party/LwIP/src/core/tcp_out.c **** #if TCP_OVERSIZE
  88:Middlewares/Third_Party/LwIP/src/core/tcp_out.c **** /** The size of segment pbufs created when TCP_OVERSIZE is enabled */
  89:Middlewares/Third_Party/LwIP/src/core/tcp_out.c **** #ifndef TCP_OVERSIZE_CALC_LENGTH
  90:Middlewares/Third_Party/LwIP/src/core/tcp_out.c **** #define TCP_OVERSIZE_CALC_LENGTH(length) ((length) + TCP_OVERSIZE)
  91:Middlewares/Third_Party/LwIP/src/core/tcp_out.c **** #endif
  92:Middlewares/Third_Party/LwIP/src/core/tcp_out.c **** #endif
  93:Middlewares/Third_Party/LwIP/src/core/tcp_out.c **** 
  94:Middlewares/Third_Party/LwIP/src/core/tcp_out.c **** /* Forward declarations.*/
  95:Middlewares/Third_Party/LwIP/src/core/tcp_out.c **** static err_t tcp_output_segment(struct tcp_seg *seg, struct tcp_pcb *pcb, struct netif *netif);
  96:Middlewares/Third_Party/LwIP/src/core/tcp_out.c **** 
  97:Middlewares/Third_Party/LwIP/src/core/tcp_out.c **** /** Allocate a pbuf and create a tcphdr at p->payload, used for output
  98:Middlewares/Third_Party/LwIP/src/core/tcp_out.c ****  * functions other than the default tcp_output -> tcp_output_segment
  99:Middlewares/Third_Party/LwIP/src/core/tcp_out.c ****  * (e.g. tcp_send_empty_ack, etc.)
 100:Middlewares/Third_Party/LwIP/src/core/tcp_out.c ****  *
 101:Middlewares/Third_Party/LwIP/src/core/tcp_out.c ****  * @param pcb tcp pcb for which to send a packet (used to initialize tcp_hdr)
 102:Middlewares/Third_Party/LwIP/src/core/tcp_out.c ****  * @param optlen length of header-options
 103:Middlewares/Third_Party/LwIP/src/core/tcp_out.c ****  * @param datalen length of tcp data to reserve in pbuf
 104:Middlewares/Third_Party/LwIP/src/core/tcp_out.c ****  * @param seqno_be seqno in network byte order (big-endian)
 105:Middlewares/Third_Party/LwIP/src/core/tcp_out.c ****  * @return pbuf with p->payload being the tcp_hdr
 106:Middlewares/Third_Party/LwIP/src/core/tcp_out.c ****  */
 107:Middlewares/Third_Party/LwIP/src/core/tcp_out.c **** static struct pbuf *
 108:Middlewares/Third_Party/LwIP/src/core/tcp_out.c **** tcp_output_alloc_header(struct tcp_pcb *pcb, u16_t optlen, u16_t datalen,
 109:Middlewares/Third_Party/LwIP/src/core/tcp_out.c ****                       u32_t seqno_be /* already in network byte order */)
 110:Middlewares/Third_Party/LwIP/src/core/tcp_out.c **** {
 111:Middlewares/Third_Party/LwIP/src/core/tcp_out.c ****   struct tcp_hdr *tcphdr;
 112:Middlewares/Third_Party/LwIP/src/core/tcp_out.c ****   struct pbuf *p = pbuf_alloc(PBUF_IP, TCP_HLEN + optlen + datalen, PBUF_RAM);
 113:Middlewares/Third_Party/LwIP/src/core/tcp_out.c ****   if (p != NULL) {
ARM GAS  C:\Users\Nina\AppData\Local\Temp\cc9LyW5f.s 			page 4


 114:Middlewares/Third_Party/LwIP/src/core/tcp_out.c ****     LWIP_ASSERT("check that first pbuf can hold struct tcp_hdr",
 115:Middlewares/Third_Party/LwIP/src/core/tcp_out.c ****                  (p->len >= TCP_HLEN + optlen));
 116:Middlewares/Third_Party/LwIP/src/core/tcp_out.c ****     tcphdr = (struct tcp_hdr *)p->payload;
 117:Middlewares/Third_Party/LwIP/src/core/tcp_out.c ****     tcphdr->src = lwip_htons(pcb->local_port);
 118:Middlewares/Third_Party/LwIP/src/core/tcp_out.c ****     tcphdr->dest = lwip_htons(pcb->remote_port);
 119:Middlewares/Third_Party/LwIP/src/core/tcp_out.c ****     tcphdr->seqno = seqno_be;
 120:Middlewares/Third_Party/LwIP/src/core/tcp_out.c ****     tcphdr->ackno = lwip_htonl(pcb->rcv_nxt);
 121:Middlewares/Third_Party/LwIP/src/core/tcp_out.c ****     TCPH_HDRLEN_FLAGS_SET(tcphdr, (5 + optlen / 4), TCP_ACK);
 122:Middlewares/Third_Party/LwIP/src/core/tcp_out.c ****     tcphdr->wnd = lwip_htons(TCPWND_MIN16(RCV_WND_SCALE(pcb, pcb->rcv_ann_wnd)));
 123:Middlewares/Third_Party/LwIP/src/core/tcp_out.c ****     tcphdr->chksum = 0;
 124:Middlewares/Third_Party/LwIP/src/core/tcp_out.c ****     tcphdr->urgp = 0;
 125:Middlewares/Third_Party/LwIP/src/core/tcp_out.c **** 
 126:Middlewares/Third_Party/LwIP/src/core/tcp_out.c ****     /* If we're sending a packet, update the announced right window edge */
 127:Middlewares/Third_Party/LwIP/src/core/tcp_out.c ****     pcb->rcv_ann_right_edge = pcb->rcv_nxt + pcb->rcv_ann_wnd;
 128:Middlewares/Third_Party/LwIP/src/core/tcp_out.c ****   }
 129:Middlewares/Third_Party/LwIP/src/core/tcp_out.c ****   return p;
 130:Middlewares/Third_Party/LwIP/src/core/tcp_out.c **** }
 131:Middlewares/Third_Party/LwIP/src/core/tcp_out.c **** 
 132:Middlewares/Third_Party/LwIP/src/core/tcp_out.c **** /**
 133:Middlewares/Third_Party/LwIP/src/core/tcp_out.c ****  * Called by tcp_close() to send a segment including FIN flag but not data.
 134:Middlewares/Third_Party/LwIP/src/core/tcp_out.c ****  *
 135:Middlewares/Third_Party/LwIP/src/core/tcp_out.c ****  * @param pcb the tcp_pcb over which to send a segment
 136:Middlewares/Third_Party/LwIP/src/core/tcp_out.c ****  * @return ERR_OK if sent, another err_t otherwise
 137:Middlewares/Third_Party/LwIP/src/core/tcp_out.c ****  */
 138:Middlewares/Third_Party/LwIP/src/core/tcp_out.c **** err_t
 139:Middlewares/Third_Party/LwIP/src/core/tcp_out.c **** tcp_send_fin(struct tcp_pcb *pcb)
 140:Middlewares/Third_Party/LwIP/src/core/tcp_out.c **** {
 141:Middlewares/Third_Party/LwIP/src/core/tcp_out.c ****   /* first, try to add the fin to the last unsent segment */
 142:Middlewares/Third_Party/LwIP/src/core/tcp_out.c ****   if (pcb->unsent != NULL) {
 143:Middlewares/Third_Party/LwIP/src/core/tcp_out.c ****     struct tcp_seg *last_unsent;
 144:Middlewares/Third_Party/LwIP/src/core/tcp_out.c ****     for (last_unsent = pcb->unsent; last_unsent->next != NULL;
 145:Middlewares/Third_Party/LwIP/src/core/tcp_out.c ****          last_unsent = last_unsent->next);
 146:Middlewares/Third_Party/LwIP/src/core/tcp_out.c **** 
 147:Middlewares/Third_Party/LwIP/src/core/tcp_out.c ****     if ((TCPH_FLAGS(last_unsent->tcphdr) & (TCP_SYN | TCP_FIN | TCP_RST)) == 0) {
 148:Middlewares/Third_Party/LwIP/src/core/tcp_out.c ****       /* no SYN/FIN/RST flag in the header, we can add the FIN flag */
 149:Middlewares/Third_Party/LwIP/src/core/tcp_out.c ****       TCPH_SET_FLAG(last_unsent->tcphdr, TCP_FIN);
 150:Middlewares/Third_Party/LwIP/src/core/tcp_out.c ****       pcb->flags |= TF_FIN;
 151:Middlewares/Third_Party/LwIP/src/core/tcp_out.c ****       return ERR_OK;
 152:Middlewares/Third_Party/LwIP/src/core/tcp_out.c ****     }
 153:Middlewares/Third_Party/LwIP/src/core/tcp_out.c ****   }
 154:Middlewares/Third_Party/LwIP/src/core/tcp_out.c ****   /* no data, no length, flags, copy=1, no optdata */
 155:Middlewares/Third_Party/LwIP/src/core/tcp_out.c ****   return tcp_enqueue_flags(pcb, TCP_FIN);
 156:Middlewares/Third_Party/LwIP/src/core/tcp_out.c **** }
 157:Middlewares/Third_Party/LwIP/src/core/tcp_out.c **** 
 158:Middlewares/Third_Party/LwIP/src/core/tcp_out.c **** /**
 159:Middlewares/Third_Party/LwIP/src/core/tcp_out.c ****  * Create a TCP segment with prefilled header.
 160:Middlewares/Third_Party/LwIP/src/core/tcp_out.c ****  *
 161:Middlewares/Third_Party/LwIP/src/core/tcp_out.c ****  * Called by tcp_write and tcp_enqueue_flags.
 162:Middlewares/Third_Party/LwIP/src/core/tcp_out.c ****  *
 163:Middlewares/Third_Party/LwIP/src/core/tcp_out.c ****  * @param pcb Protocol control block for the TCP connection.
 164:Middlewares/Third_Party/LwIP/src/core/tcp_out.c ****  * @param p pbuf that is used to hold the TCP header.
 165:Middlewares/Third_Party/LwIP/src/core/tcp_out.c ****  * @param flags TCP flags for header.
 166:Middlewares/Third_Party/LwIP/src/core/tcp_out.c ****  * @param seqno TCP sequence number of this packet
 167:Middlewares/Third_Party/LwIP/src/core/tcp_out.c ****  * @param optflags options to include in TCP header
 168:Middlewares/Third_Party/LwIP/src/core/tcp_out.c ****  * @return a new tcp_seg pointing to p, or NULL.
 169:Middlewares/Third_Party/LwIP/src/core/tcp_out.c ****  * The TCP header is filled in except ackno and wnd.
 170:Middlewares/Third_Party/LwIP/src/core/tcp_out.c ****  * p is freed on failure.
ARM GAS  C:\Users\Nina\AppData\Local\Temp\cc9LyW5f.s 			page 5


 171:Middlewares/Third_Party/LwIP/src/core/tcp_out.c ****  */
 172:Middlewares/Third_Party/LwIP/src/core/tcp_out.c **** static struct tcp_seg *
 173:Middlewares/Third_Party/LwIP/src/core/tcp_out.c **** tcp_create_segment(struct tcp_pcb *pcb, struct pbuf *p, u8_t flags, u32_t seqno, u8_t optflags)
 174:Middlewares/Third_Party/LwIP/src/core/tcp_out.c **** {
 175:Middlewares/Third_Party/LwIP/src/core/tcp_out.c ****   struct tcp_seg *seg;
 176:Middlewares/Third_Party/LwIP/src/core/tcp_out.c ****   u8_t optlen = LWIP_TCP_OPT_LENGTH(optflags);
 177:Middlewares/Third_Party/LwIP/src/core/tcp_out.c **** 
 178:Middlewares/Third_Party/LwIP/src/core/tcp_out.c ****   if ((seg = (struct tcp_seg *)memp_malloc(MEMP_TCP_SEG)) == NULL) {
 179:Middlewares/Third_Party/LwIP/src/core/tcp_out.c ****     LWIP_DEBUGF(TCP_OUTPUT_DEBUG | LWIP_DBG_LEVEL_SERIOUS, ("tcp_create_segment: no memory.\n"));
 180:Middlewares/Third_Party/LwIP/src/core/tcp_out.c ****     pbuf_free(p);
 181:Middlewares/Third_Party/LwIP/src/core/tcp_out.c ****     return NULL;
 182:Middlewares/Third_Party/LwIP/src/core/tcp_out.c ****   }
 183:Middlewares/Third_Party/LwIP/src/core/tcp_out.c ****   seg->flags = optflags;
 184:Middlewares/Third_Party/LwIP/src/core/tcp_out.c ****   seg->next = NULL;
 185:Middlewares/Third_Party/LwIP/src/core/tcp_out.c ****   seg->p = p;
 186:Middlewares/Third_Party/LwIP/src/core/tcp_out.c ****   LWIP_ASSERT("p->tot_len >= optlen", p->tot_len >= optlen);
 187:Middlewares/Third_Party/LwIP/src/core/tcp_out.c ****   seg->len = p->tot_len - optlen;
 188:Middlewares/Third_Party/LwIP/src/core/tcp_out.c **** #if TCP_OVERSIZE_DBGCHECK
 189:Middlewares/Third_Party/LwIP/src/core/tcp_out.c ****   seg->oversize_left = 0;
 190:Middlewares/Third_Party/LwIP/src/core/tcp_out.c **** #endif /* TCP_OVERSIZE_DBGCHECK */
 191:Middlewares/Third_Party/LwIP/src/core/tcp_out.c **** #if TCP_CHECKSUM_ON_COPY
 192:Middlewares/Third_Party/LwIP/src/core/tcp_out.c ****   seg->chksum = 0;
 193:Middlewares/Third_Party/LwIP/src/core/tcp_out.c ****   seg->chksum_swapped = 0;
 194:Middlewares/Third_Party/LwIP/src/core/tcp_out.c ****   /* check optflags */
 195:Middlewares/Third_Party/LwIP/src/core/tcp_out.c ****   LWIP_ASSERT("invalid optflags passed: TF_SEG_DATA_CHECKSUMMED",
 196:Middlewares/Third_Party/LwIP/src/core/tcp_out.c ****               (optflags & TF_SEG_DATA_CHECKSUMMED) == 0);
 197:Middlewares/Third_Party/LwIP/src/core/tcp_out.c **** #endif /* TCP_CHECKSUM_ON_COPY */
 198:Middlewares/Third_Party/LwIP/src/core/tcp_out.c **** 
 199:Middlewares/Third_Party/LwIP/src/core/tcp_out.c ****   /* build TCP header */
 200:Middlewares/Third_Party/LwIP/src/core/tcp_out.c ****   if (pbuf_header(p, TCP_HLEN)) {
 201:Middlewares/Third_Party/LwIP/src/core/tcp_out.c ****     LWIP_DEBUGF(TCP_OUTPUT_DEBUG | LWIP_DBG_LEVEL_SERIOUS, ("tcp_create_segment: no room for TCP he
 202:Middlewares/Third_Party/LwIP/src/core/tcp_out.c ****     TCP_STATS_INC(tcp.err);
 203:Middlewares/Third_Party/LwIP/src/core/tcp_out.c ****     tcp_seg_free(seg);
 204:Middlewares/Third_Party/LwIP/src/core/tcp_out.c ****     return NULL;
 205:Middlewares/Third_Party/LwIP/src/core/tcp_out.c ****   }
 206:Middlewares/Third_Party/LwIP/src/core/tcp_out.c ****   seg->tcphdr = (struct tcp_hdr *)seg->p->payload;
 207:Middlewares/Third_Party/LwIP/src/core/tcp_out.c ****   seg->tcphdr->src = lwip_htons(pcb->local_port);
 208:Middlewares/Third_Party/LwIP/src/core/tcp_out.c ****   seg->tcphdr->dest = lwip_htons(pcb->remote_port);
 209:Middlewares/Third_Party/LwIP/src/core/tcp_out.c ****   seg->tcphdr->seqno = lwip_htonl(seqno);
 210:Middlewares/Third_Party/LwIP/src/core/tcp_out.c ****   /* ackno is set in tcp_output */
 211:Middlewares/Third_Party/LwIP/src/core/tcp_out.c ****   TCPH_HDRLEN_FLAGS_SET(seg->tcphdr, (5 + optlen / 4), flags);
 212:Middlewares/Third_Party/LwIP/src/core/tcp_out.c ****   /* wnd and chksum are set in tcp_output */
 213:Middlewares/Third_Party/LwIP/src/core/tcp_out.c ****   seg->tcphdr->urgp = 0;
 214:Middlewares/Third_Party/LwIP/src/core/tcp_out.c ****   return seg;
 215:Middlewares/Third_Party/LwIP/src/core/tcp_out.c **** }
 216:Middlewares/Third_Party/LwIP/src/core/tcp_out.c **** 
 217:Middlewares/Third_Party/LwIP/src/core/tcp_out.c **** /**
 218:Middlewares/Third_Party/LwIP/src/core/tcp_out.c ****  * Allocate a PBUF_RAM pbuf, perhaps with extra space at the end.
 219:Middlewares/Third_Party/LwIP/src/core/tcp_out.c ****  *
 220:Middlewares/Third_Party/LwIP/src/core/tcp_out.c ****  * This function is like pbuf_alloc(layer, length, PBUF_RAM) except
 221:Middlewares/Third_Party/LwIP/src/core/tcp_out.c ****  * there may be extra bytes available at the end.
 222:Middlewares/Third_Party/LwIP/src/core/tcp_out.c ****  *
 223:Middlewares/Third_Party/LwIP/src/core/tcp_out.c ****  * @param layer flag to define header size.
 224:Middlewares/Third_Party/LwIP/src/core/tcp_out.c ****  * @param length size of the pbuf's payload.
 225:Middlewares/Third_Party/LwIP/src/core/tcp_out.c ****  * @param max_length maximum usable size of payload+oversize.
 226:Middlewares/Third_Party/LwIP/src/core/tcp_out.c ****  * @param oversize pointer to a u16_t that will receive the number of usable tail bytes.
 227:Middlewares/Third_Party/LwIP/src/core/tcp_out.c ****  * @param pcb The TCP connection that will enqueue the pbuf.
ARM GAS  C:\Users\Nina\AppData\Local\Temp\cc9LyW5f.s 			page 6


 228:Middlewares/Third_Party/LwIP/src/core/tcp_out.c ****  * @param apiflags API flags given to tcp_write.
 229:Middlewares/Third_Party/LwIP/src/core/tcp_out.c ****  * @param first_seg true when this pbuf will be used in the first enqueued segment.
 230:Middlewares/Third_Party/LwIP/src/core/tcp_out.c ****  */
 231:Middlewares/Third_Party/LwIP/src/core/tcp_out.c **** #if TCP_OVERSIZE
 232:Middlewares/Third_Party/LwIP/src/core/tcp_out.c **** static struct pbuf *
 233:Middlewares/Third_Party/LwIP/src/core/tcp_out.c **** tcp_pbuf_prealloc(pbuf_layer layer, u16_t length, u16_t max_length,
 234:Middlewares/Third_Party/LwIP/src/core/tcp_out.c ****                   u16_t *oversize, struct tcp_pcb *pcb, u8_t apiflags,
 235:Middlewares/Third_Party/LwIP/src/core/tcp_out.c ****                   u8_t first_seg)
 236:Middlewares/Third_Party/LwIP/src/core/tcp_out.c **** {
 237:Middlewares/Third_Party/LwIP/src/core/tcp_out.c ****   struct pbuf *p;
 238:Middlewares/Third_Party/LwIP/src/core/tcp_out.c ****   u16_t alloc = length;
 239:Middlewares/Third_Party/LwIP/src/core/tcp_out.c **** 
 240:Middlewares/Third_Party/LwIP/src/core/tcp_out.c **** #if LWIP_NETIF_TX_SINGLE_PBUF
 241:Middlewares/Third_Party/LwIP/src/core/tcp_out.c ****   LWIP_UNUSED_ARG(max_length);
 242:Middlewares/Third_Party/LwIP/src/core/tcp_out.c ****   LWIP_UNUSED_ARG(pcb);
 243:Middlewares/Third_Party/LwIP/src/core/tcp_out.c ****   LWIP_UNUSED_ARG(apiflags);
 244:Middlewares/Third_Party/LwIP/src/core/tcp_out.c ****   LWIP_UNUSED_ARG(first_seg);
 245:Middlewares/Third_Party/LwIP/src/core/tcp_out.c ****   alloc = max_length;
 246:Middlewares/Third_Party/LwIP/src/core/tcp_out.c **** #else /* LWIP_NETIF_TX_SINGLE_PBUF */
 247:Middlewares/Third_Party/LwIP/src/core/tcp_out.c ****   if (length < max_length) {
 248:Middlewares/Third_Party/LwIP/src/core/tcp_out.c ****     /* Should we allocate an oversized pbuf, or just the minimum
 249:Middlewares/Third_Party/LwIP/src/core/tcp_out.c ****      * length required? If tcp_write is going to be called again
 250:Middlewares/Third_Party/LwIP/src/core/tcp_out.c ****      * before this segment is transmitted, we want the oversized
 251:Middlewares/Third_Party/LwIP/src/core/tcp_out.c ****      * buffer. If the segment will be transmitted immediately, we can
 252:Middlewares/Third_Party/LwIP/src/core/tcp_out.c ****      * save memory by allocating only length. We use a simple
 253:Middlewares/Third_Party/LwIP/src/core/tcp_out.c ****      * heuristic based on the following information:
 254:Middlewares/Third_Party/LwIP/src/core/tcp_out.c ****      *
 255:Middlewares/Third_Party/LwIP/src/core/tcp_out.c ****      * Did the user set TCP_WRITE_FLAG_MORE?
 256:Middlewares/Third_Party/LwIP/src/core/tcp_out.c ****      *
 257:Middlewares/Third_Party/LwIP/src/core/tcp_out.c ****      * Will the Nagle algorithm defer transmission of this segment?
 258:Middlewares/Third_Party/LwIP/src/core/tcp_out.c ****      */
 259:Middlewares/Third_Party/LwIP/src/core/tcp_out.c ****     if ((apiflags & TCP_WRITE_FLAG_MORE) ||
 260:Middlewares/Third_Party/LwIP/src/core/tcp_out.c ****         (!(pcb->flags & TF_NODELAY) &&
 261:Middlewares/Third_Party/LwIP/src/core/tcp_out.c ****          (!first_seg ||
 262:Middlewares/Third_Party/LwIP/src/core/tcp_out.c ****           pcb->unsent != NULL ||
 263:Middlewares/Third_Party/LwIP/src/core/tcp_out.c ****           pcb->unacked != NULL))) {
 264:Middlewares/Third_Party/LwIP/src/core/tcp_out.c ****       alloc = LWIP_MIN(max_length, LWIP_MEM_ALIGN_SIZE(TCP_OVERSIZE_CALC_LENGTH(length)));
 265:Middlewares/Third_Party/LwIP/src/core/tcp_out.c ****     }
 266:Middlewares/Third_Party/LwIP/src/core/tcp_out.c ****   }
 267:Middlewares/Third_Party/LwIP/src/core/tcp_out.c **** #endif /* LWIP_NETIF_TX_SINGLE_PBUF */
 268:Middlewares/Third_Party/LwIP/src/core/tcp_out.c ****   p = pbuf_alloc(layer, alloc, PBUF_RAM);
 269:Middlewares/Third_Party/LwIP/src/core/tcp_out.c ****   if (p == NULL) {
 270:Middlewares/Third_Party/LwIP/src/core/tcp_out.c ****     return NULL;
 271:Middlewares/Third_Party/LwIP/src/core/tcp_out.c ****   }
 272:Middlewares/Third_Party/LwIP/src/core/tcp_out.c ****   LWIP_ASSERT("need unchained pbuf", p->next == NULL);
 273:Middlewares/Third_Party/LwIP/src/core/tcp_out.c ****   *oversize = p->len - length;
 274:Middlewares/Third_Party/LwIP/src/core/tcp_out.c ****   /* trim p->len to the currently used size */
 275:Middlewares/Third_Party/LwIP/src/core/tcp_out.c ****   p->len = p->tot_len = length;
 276:Middlewares/Third_Party/LwIP/src/core/tcp_out.c ****   return p;
 277:Middlewares/Third_Party/LwIP/src/core/tcp_out.c **** }
 278:Middlewares/Third_Party/LwIP/src/core/tcp_out.c **** #else /* TCP_OVERSIZE */
 279:Middlewares/Third_Party/LwIP/src/core/tcp_out.c **** #define tcp_pbuf_prealloc(layer, length, mx, os, pcb, api, fst) pbuf_alloc((layer), (length), PBUF_
 280:Middlewares/Third_Party/LwIP/src/core/tcp_out.c **** #endif /* TCP_OVERSIZE */
 281:Middlewares/Third_Party/LwIP/src/core/tcp_out.c **** 
 282:Middlewares/Third_Party/LwIP/src/core/tcp_out.c **** #if TCP_CHECKSUM_ON_COPY
 283:Middlewares/Third_Party/LwIP/src/core/tcp_out.c **** /** Add a checksum of newly added data to the segment */
 284:Middlewares/Third_Party/LwIP/src/core/tcp_out.c **** static void
ARM GAS  C:\Users\Nina\AppData\Local\Temp\cc9LyW5f.s 			page 7


 285:Middlewares/Third_Party/LwIP/src/core/tcp_out.c **** tcp_seg_add_chksum(u16_t chksum, u16_t len, u16_t *seg_chksum,
 286:Middlewares/Third_Party/LwIP/src/core/tcp_out.c ****                    u8_t *seg_chksum_swapped)
 287:Middlewares/Third_Party/LwIP/src/core/tcp_out.c **** {
 288:Middlewares/Third_Party/LwIP/src/core/tcp_out.c ****   u32_t helper;
 289:Middlewares/Third_Party/LwIP/src/core/tcp_out.c ****   /* add chksum to old chksum and fold to u16_t */
 290:Middlewares/Third_Party/LwIP/src/core/tcp_out.c ****   helper = chksum + *seg_chksum;
 291:Middlewares/Third_Party/LwIP/src/core/tcp_out.c ****   chksum = FOLD_U32T(helper);
 292:Middlewares/Third_Party/LwIP/src/core/tcp_out.c ****   if ((len & 1) != 0) {
 293:Middlewares/Third_Party/LwIP/src/core/tcp_out.c ****     *seg_chksum_swapped = 1 - *seg_chksum_swapped;
 294:Middlewares/Third_Party/LwIP/src/core/tcp_out.c ****     chksum = SWAP_BYTES_IN_WORD(chksum);
 295:Middlewares/Third_Party/LwIP/src/core/tcp_out.c ****   }
 296:Middlewares/Third_Party/LwIP/src/core/tcp_out.c ****   *seg_chksum = chksum;
 297:Middlewares/Third_Party/LwIP/src/core/tcp_out.c **** }
 298:Middlewares/Third_Party/LwIP/src/core/tcp_out.c **** #endif /* TCP_CHECKSUM_ON_COPY */
 299:Middlewares/Third_Party/LwIP/src/core/tcp_out.c **** 
 300:Middlewares/Third_Party/LwIP/src/core/tcp_out.c **** /** Checks if tcp_write is allowed or not (checks state, snd_buf and snd_queuelen).
 301:Middlewares/Third_Party/LwIP/src/core/tcp_out.c ****  *
 302:Middlewares/Third_Party/LwIP/src/core/tcp_out.c ****  * @param pcb the tcp pcb to check for
 303:Middlewares/Third_Party/LwIP/src/core/tcp_out.c ****  * @param len length of data to send (checked agains snd_buf)
 304:Middlewares/Third_Party/LwIP/src/core/tcp_out.c ****  * @return ERR_OK if tcp_write is allowed to proceed, another err_t otherwise
 305:Middlewares/Third_Party/LwIP/src/core/tcp_out.c ****  */
 306:Middlewares/Third_Party/LwIP/src/core/tcp_out.c **** static err_t
 307:Middlewares/Third_Party/LwIP/src/core/tcp_out.c **** tcp_write_checks(struct tcp_pcb *pcb, u16_t len)
 308:Middlewares/Third_Party/LwIP/src/core/tcp_out.c **** {
  43              		.loc 1 308 1 view -0
  44              		.cfi_startproc
  45              		@ args = 0, pretend = 0, frame = 0
  46              		@ frame_needed = 0, uses_anonymous_args = 0
  47              		.loc 1 308 1 is_stmt 0 view .LVU1
  48 0000 08B5     		push	{r3, lr}
  49              	.LCFI0:
  50              		.cfi_def_cfa_offset 8
  51              		.cfi_offset 3, -8
  52              		.cfi_offset 14, -4
 309:Middlewares/Third_Party/LwIP/src/core/tcp_out.c ****   /* connection is in invalid state for data transmission? */
 310:Middlewares/Third_Party/LwIP/src/core/tcp_out.c ****   if ((pcb->state != ESTABLISHED) &&
  53              		.loc 1 310 3 is_stmt 1 view .LVU2
  54              		.loc 1 310 11 is_stmt 0 view .LVU3
  55 0002 037D     		ldrb	r3, [r0, #20]	@ zero_extendqisi2
  56              		.loc 1 310 6 view .LVU4
  57 0004 042B     		cmp	r3, #4
  58 0006 18BF     		it	ne
  59 0008 072B     		cmpne	r3, #7
  60 000a 03D0     		beq	.L2
 311:Middlewares/Third_Party/LwIP/src/core/tcp_out.c ****       (pcb->state != CLOSE_WAIT) &&
  61              		.loc 1 311 34 view .LVU5
  62 000c 022B     		cmp	r3, #2
  63 000e 01D0     		beq	.L2
 312:Middlewares/Third_Party/LwIP/src/core/tcp_out.c ****       (pcb->state != SYN_SENT) &&
  64              		.loc 1 312 32 view .LVU6
  65 0010 032B     		cmp	r3, #3
  66 0012 39D1     		bne	.L8
  67              	.L2:
 313:Middlewares/Third_Party/LwIP/src/core/tcp_out.c ****       (pcb->state != SYN_RCVD)) {
 314:Middlewares/Third_Party/LwIP/src/core/tcp_out.c ****     LWIP_DEBUGF(TCP_OUTPUT_DEBUG | LWIP_DBG_STATE | LWIP_DBG_LEVEL_SEVERE, ("tcp_write() called in 
 315:Middlewares/Third_Party/LwIP/src/core/tcp_out.c ****     return ERR_CONN;
 316:Middlewares/Third_Party/LwIP/src/core/tcp_out.c ****   } else if (len == 0) {
ARM GAS  C:\Users\Nina\AppData\Local\Temp\cc9LyW5f.s 			page 8


  68              		.loc 1 316 10 is_stmt 1 view .LVU7
  69              		.loc 1 316 13 is_stmt 0 view .LVU8
  70 0014 0029     		cmp	r1, #0
  71 0016 3AD0     		beq	.L9
 317:Middlewares/Third_Party/LwIP/src/core/tcp_out.c ****     return ERR_OK;
 318:Middlewares/Third_Party/LwIP/src/core/tcp_out.c ****   }
 319:Middlewares/Third_Party/LwIP/src/core/tcp_out.c **** 
 320:Middlewares/Third_Party/LwIP/src/core/tcp_out.c ****   /* fail on too much data */
 321:Middlewares/Third_Party/LwIP/src/core/tcp_out.c ****   if (len > pcb->snd_buf) {
  72              		.loc 1 321 3 is_stmt 1 view .LVU9
  73              		.loc 1 321 16 is_stmt 0 view .LVU10
  74 0018 B0F86030 		ldrh	r3, [r0, #96]
  75              		.loc 1 321 6 view .LVU11
  76 001c 8B42     		cmp	r3, r1
  77 001e 08D3     		bcc	.L14
 322:Middlewares/Third_Party/LwIP/src/core/tcp_out.c ****     LWIP_DEBUGF(TCP_OUTPUT_DEBUG | LWIP_DBG_LEVEL_SEVERE, ("tcp_write: too much data (len=%"U16_F" 
 323:Middlewares/Third_Party/LwIP/src/core/tcp_out.c ****       len, pcb->snd_buf));
 324:Middlewares/Third_Party/LwIP/src/core/tcp_out.c ****     pcb->flags |= TF_NAGLEMEMERR;
 325:Middlewares/Third_Party/LwIP/src/core/tcp_out.c ****     return ERR_MEM;
 326:Middlewares/Third_Party/LwIP/src/core/tcp_out.c ****   }
 327:Middlewares/Third_Party/LwIP/src/core/tcp_out.c **** 
 328:Middlewares/Third_Party/LwIP/src/core/tcp_out.c ****   LWIP_DEBUGF(TCP_QLEN_DEBUG, ("tcp_write: queuelen: %"TCPWNDSIZE_F"\n", (tcpwnd_size_t)pcb->snd_qu
  78              		.loc 1 328 108 is_stmt 1 view .LVU12
 329:Middlewares/Third_Party/LwIP/src/core/tcp_out.c **** 
 330:Middlewares/Third_Party/LwIP/src/core/tcp_out.c ****   /* If total number of pbufs on the unsent/unacked queues exceeds the
 331:Middlewares/Third_Party/LwIP/src/core/tcp_out.c ****    * configured maximum, return an error */
 332:Middlewares/Third_Party/LwIP/src/core/tcp_out.c ****   /* check for configured max queuelen and possible overflow */
 333:Middlewares/Third_Party/LwIP/src/core/tcp_out.c ****   if ((pcb->snd_queuelen >= TCP_SND_QUEUELEN) || (pcb->snd_queuelen > TCP_SNDQUEUELEN_OVERFLOW)) {
  79              		.loc 1 333 3 view .LVU13
  80              		.loc 1 333 11 is_stmt 0 view .LVU14
  81 0020 B0F86230 		ldrh	r3, [r0, #98]
  82              		.loc 1 333 6 view .LVU15
  83 0024 082B     		cmp	r3, #8
  84 0026 0BD8     		bhi	.L15
 334:Middlewares/Third_Party/LwIP/src/core/tcp_out.c ****     LWIP_DEBUGF(TCP_OUTPUT_DEBUG | LWIP_DBG_LEVEL_SEVERE, ("tcp_write: too long queue %"U16_F" (max
 335:Middlewares/Third_Party/LwIP/src/core/tcp_out.c ****       pcb->snd_queuelen, (u16_t)TCP_SND_QUEUELEN));
 336:Middlewares/Third_Party/LwIP/src/core/tcp_out.c ****     TCP_STATS_INC(tcp.memerr);
 337:Middlewares/Third_Party/LwIP/src/core/tcp_out.c ****     pcb->flags |= TF_NAGLEMEMERR;
 338:Middlewares/Third_Party/LwIP/src/core/tcp_out.c ****     return ERR_MEM;
 339:Middlewares/Third_Party/LwIP/src/core/tcp_out.c ****   }
 340:Middlewares/Third_Party/LwIP/src/core/tcp_out.c ****   if (pcb->snd_queuelen != 0) {
  85              		.loc 1 340 3 is_stmt 1 view .LVU16
  86              		.loc 1 340 6 is_stmt 0 view .LVU17
  87 0028 F3B1     		cbz	r3, .L6
 341:Middlewares/Third_Party/LwIP/src/core/tcp_out.c ****     LWIP_ASSERT("tcp_write: pbufs on queue => at least one queue non-empty",
  88              		.loc 1 341 5 is_stmt 1 view .LVU18
  89              		.loc 1 341 5 view .LVU19
  90 002a C36E     		ldr	r3, [r0, #108]
  91 002c 7BB1     		cbz	r3, .L16
 342:Middlewares/Third_Party/LwIP/src/core/tcp_out.c ****       pcb->unacked != NULL || pcb->unsent != NULL);
 343:Middlewares/Third_Party/LwIP/src/core/tcp_out.c ****   } else {
 344:Middlewares/Third_Party/LwIP/src/core/tcp_out.c ****     LWIP_ASSERT("tcp_write: no pbufs on queue => both queues empty",
 345:Middlewares/Third_Party/LwIP/src/core/tcp_out.c ****       pcb->unacked == NULL && pcb->unsent == NULL);
 346:Middlewares/Third_Party/LwIP/src/core/tcp_out.c ****   }
 347:Middlewares/Third_Party/LwIP/src/core/tcp_out.c ****   return ERR_OK;
  92              		.loc 1 347 10 is_stmt 0 view .LVU20
  93 002e 0020     		movs	r0, #0
ARM GAS  C:\Users\Nina\AppData\Local\Temp\cc9LyW5f.s 			page 9


  94              	.LVL1:
  95              		.loc 1 347 10 view .LVU21
  96 0030 2EE0     		b	.L3
  97              	.LVL2:
  98              	.L14:
 323:Middlewares/Third_Party/LwIP/src/core/tcp_out.c ****     pcb->flags |= TF_NAGLEMEMERR;
  99              		.loc 1 323 26 is_stmt 1 view .LVU22
 324:Middlewares/Third_Party/LwIP/src/core/tcp_out.c ****     return ERR_MEM;
 100              		.loc 1 324 5 view .LVU23
 324:Middlewares/Third_Party/LwIP/src/core/tcp_out.c ****     return ERR_MEM;
 101              		.loc 1 324 16 is_stmt 0 view .LVU24
 102 0032 837E     		ldrb	r3, [r0, #26]	@ zero_extendqisi2
 103 0034 63F07F03 		orn	r3, r3, #127
 104 0038 8376     		strb	r3, [r0, #26]
 325:Middlewares/Third_Party/LwIP/src/core/tcp_out.c ****   }
 105              		.loc 1 325 5 is_stmt 1 view .LVU25
 325:Middlewares/Third_Party/LwIP/src/core/tcp_out.c ****   }
 106              		.loc 1 325 12 is_stmt 0 view .LVU26
 107 003a 4FF0FF30 		mov	r0, #-1
 108              	.LVL3:
 325:Middlewares/Third_Party/LwIP/src/core/tcp_out.c ****   }
 109              		.loc 1 325 12 view .LVU27
 110 003e 27E0     		b	.L3
 111              	.LVL4:
 112              	.L15:
 335:Middlewares/Third_Party/LwIP/src/core/tcp_out.c ****     TCP_STATS_INC(tcp.memerr);
 113              		.loc 1 335 51 is_stmt 1 view .LVU28
 336:Middlewares/Third_Party/LwIP/src/core/tcp_out.c ****     pcb->flags |= TF_NAGLEMEMERR;
 114              		.loc 1 336 30 view .LVU29
 337:Middlewares/Third_Party/LwIP/src/core/tcp_out.c ****     return ERR_MEM;
 115              		.loc 1 337 5 view .LVU30
 337:Middlewares/Third_Party/LwIP/src/core/tcp_out.c ****     return ERR_MEM;
 116              		.loc 1 337 16 is_stmt 0 view .LVU31
 117 0040 837E     		ldrb	r3, [r0, #26]	@ zero_extendqisi2
 118 0042 63F07F03 		orn	r3, r3, #127
 119 0046 8376     		strb	r3, [r0, #26]
 338:Middlewares/Third_Party/LwIP/src/core/tcp_out.c ****   }
 120              		.loc 1 338 5 is_stmt 1 view .LVU32
 338:Middlewares/Third_Party/LwIP/src/core/tcp_out.c ****   }
 121              		.loc 1 338 12 is_stmt 0 view .LVU33
 122 0048 4FF0FF30 		mov	r0, #-1
 123              	.LVL5:
 338:Middlewares/Third_Party/LwIP/src/core/tcp_out.c ****   }
 124              		.loc 1 338 12 view .LVU34
 125 004c 20E0     		b	.L3
 126              	.LVL6:
 127              	.L16:
 341:Middlewares/Third_Party/LwIP/src/core/tcp_out.c ****       pcb->unacked != NULL || pcb->unsent != NULL);
 128              		.loc 1 341 5 discriminator 1 view .LVU35
 129 004e 836E     		ldr	r3, [r0, #104]
 130 0050 0BB1     		cbz	r3, .L17
 131              		.loc 1 347 10 view .LVU36
 132 0052 0020     		movs	r0, #0
 133              	.LVL7:
 134              		.loc 1 347 10 view .LVU37
 135 0054 1CE0     		b	.L3
 136              	.LVL8:
ARM GAS  C:\Users\Nina\AppData\Local\Temp\cc9LyW5f.s 			page 10


 137              	.L17:
 341:Middlewares/Third_Party/LwIP/src/core/tcp_out.c ****       pcb->unacked != NULL || pcb->unsent != NULL);
 138              		.loc 1 341 5 is_stmt 1 discriminator 3 view .LVU38
 341:Middlewares/Third_Party/LwIP/src/core/tcp_out.c ****       pcb->unacked != NULL || pcb->unsent != NULL);
 139              		.loc 1 341 5 discriminator 3 view .LVU39
 140 0056 0F4B     		ldr	r3, .L19
 141 0058 40F25512 		movw	r2, #341
 142 005c 0E49     		ldr	r1, .L19+4
 143              	.LVL9:
 341:Middlewares/Third_Party/LwIP/src/core/tcp_out.c ****       pcb->unacked != NULL || pcb->unsent != NULL);
 144              		.loc 1 341 5 is_stmt 0 discriminator 3 view .LVU40
 145 005e 0F48     		ldr	r0, .L19+8
 146              	.LVL10:
 341:Middlewares/Third_Party/LwIP/src/core/tcp_out.c ****       pcb->unacked != NULL || pcb->unsent != NULL);
 147              		.loc 1 341 5 discriminator 3 view .LVU41
 148 0060 FFF7FEFF 		bl	printf
 149              	.LVL11:
 150              		.loc 1 347 10 discriminator 3 view .LVU42
 151 0064 0020     		movs	r0, #0
 152 0066 13E0     		b	.L3
 153              	.LVL12:
 154              	.L6:
 344:Middlewares/Third_Party/LwIP/src/core/tcp_out.c ****       pcb->unacked == NULL && pcb->unsent == NULL);
 155              		.loc 1 344 5 is_stmt 1 view .LVU43
 344:Middlewares/Third_Party/LwIP/src/core/tcp_out.c ****       pcb->unacked == NULL && pcb->unsent == NULL);
 156              		.loc 1 344 5 view .LVU44
 157 0068 C36E     		ldr	r3, [r0, #108]
 158 006a 43B1     		cbz	r3, .L18
 159              	.L7:
 344:Middlewares/Third_Party/LwIP/src/core/tcp_out.c ****       pcb->unacked == NULL && pcb->unsent == NULL);
 160              		.loc 1 344 5 discriminator 3 view .LVU45
 344:Middlewares/Third_Party/LwIP/src/core/tcp_out.c ****       pcb->unacked == NULL && pcb->unsent == NULL);
 161              		.loc 1 344 5 discriminator 3 view .LVU46
 162 006c 094B     		ldr	r3, .L19
 163 006e 4FF4AC72 		mov	r2, #344
 164 0072 0B49     		ldr	r1, .L19+12
 165              	.LVL13:
 344:Middlewares/Third_Party/LwIP/src/core/tcp_out.c ****       pcb->unacked == NULL && pcb->unsent == NULL);
 166              		.loc 1 344 5 is_stmt 0 discriminator 3 view .LVU47
 167 0074 0948     		ldr	r0, .L19+8
 168              	.LVL14:
 344:Middlewares/Third_Party/LwIP/src/core/tcp_out.c ****       pcb->unacked == NULL && pcb->unsent == NULL);
 169              		.loc 1 344 5 discriminator 3 view .LVU48
 170 0076 FFF7FEFF 		bl	printf
 171              	.LVL15:
 172              		.loc 1 347 10 discriminator 3 view .LVU49
 173 007a 0020     		movs	r0, #0
 174 007c 08E0     		b	.L3
 175              	.LVL16:
 176              	.L18:
 344:Middlewares/Third_Party/LwIP/src/core/tcp_out.c ****       pcb->unacked == NULL && pcb->unsent == NULL);
 177              		.loc 1 344 5 discriminator 2 view .LVU50
 178 007e 836E     		ldr	r3, [r0, #104]
 179 0080 002B     		cmp	r3, #0
 180 0082 F3D1     		bne	.L7
 181              		.loc 1 347 10 view .LVU51
 182 0084 0020     		movs	r0, #0
ARM GAS  C:\Users\Nina\AppData\Local\Temp\cc9LyW5f.s 			page 11


 183              	.LVL17:
 184              		.loc 1 347 10 view .LVU52
 185 0086 03E0     		b	.L3
 186              	.LVL18:
 187              	.L8:
 315:Middlewares/Third_Party/LwIP/src/core/tcp_out.c ****   } else if (len == 0) {
 188              		.loc 1 315 12 view .LVU53
 189 0088 6FF00A00 		mvn	r0, #10
 190              	.LVL19:
 315:Middlewares/Third_Party/LwIP/src/core/tcp_out.c ****   } else if (len == 0) {
 191              		.loc 1 315 12 view .LVU54
 192 008c 00E0     		b	.L3
 193              	.LVL20:
 194              	.L9:
 317:Middlewares/Third_Party/LwIP/src/core/tcp_out.c ****   }
 195              		.loc 1 317 12 view .LVU55
 196 008e 0020     		movs	r0, #0
 197              	.LVL21:
 198              	.L3:
 348:Middlewares/Third_Party/LwIP/src/core/tcp_out.c **** }
 199              		.loc 1 348 1 view .LVU56
 200 0090 08BD     		pop	{r3, pc}
 201              	.L20:
 202 0092 00BF     		.align	2
 203              	.L19:
 204 0094 00000000 		.word	.LC0
 205 0098 30000000 		.word	.LC1
 206 009c 6C000000 		.word	.LC2
 207 00a0 94000000 		.word	.LC3
 208              		.cfi_endproc
 209              	.LFE164:
 211              		.section	.rodata.tcp_pbuf_prealloc.str1.4,"aMS",%progbits,1
 212              		.align	2
 213              	.LC4:
 214 0000 6E656564 		.ascii	"need unchained pbuf\000"
 214      20756E63 
 214      6861696E 
 214      65642070 
 214      62756600 
 215              		.section	.text.tcp_pbuf_prealloc,"ax",%progbits
 216              		.align	1
 217              		.syntax unified
 218              		.thumb
 219              		.thumb_func
 220              		.fpu fpv5-sp-d16
 222              	tcp_pbuf_prealloc:
 223              	.LVL22:
 224              	.LFB163:
 236:Middlewares/Third_Party/LwIP/src/core/tcp_out.c ****   struct pbuf *p;
 225              		.loc 1 236 1 is_stmt 1 view -0
 226              		.cfi_startproc
 227              		@ args = 12, pretend = 0, frame = 0
 228              		@ frame_needed = 0, uses_anonymous_args = 0
 236:Middlewares/Third_Party/LwIP/src/core/tcp_out.c ****   struct pbuf *p;
 229              		.loc 1 236 1 is_stmt 0 view .LVU58
 230 0000 70B5     		push	{r4, r5, r6, lr}
 231              	.LCFI1:
ARM GAS  C:\Users\Nina\AppData\Local\Temp\cc9LyW5f.s 			page 12


 232              		.cfi_def_cfa_offset 16
 233              		.cfi_offset 4, -16
 234              		.cfi_offset 5, -12
 235              		.cfi_offset 6, -8
 236              		.cfi_offset 14, -4
 237 0002 0C46     		mov	r4, r1
 238 0004 1E46     		mov	r6, r3
 239 0006 9DF81830 		ldrb	r3, [sp, #24]	@ zero_extendqisi2
 240              	.LVL23:
 237:Middlewares/Third_Party/LwIP/src/core/tcp_out.c ****   u16_t alloc = length;
 241              		.loc 1 237 3 is_stmt 1 view .LVU59
 238:Middlewares/Third_Party/LwIP/src/core/tcp_out.c **** 
 242              		.loc 1 238 3 view .LVU60
 247:Middlewares/Third_Party/LwIP/src/core/tcp_out.c ****     /* Should we allocate an oversized pbuf, or just the minimum
 243              		.loc 1 247 3 view .LVU61
 247:Middlewares/Third_Party/LwIP/src/core/tcp_out.c ****     /* Should we allocate an oversized pbuf, or just the minimum
 244              		.loc 1 247 6 is_stmt 0 view .LVU62
 245 000a 9142     		cmp	r1, r2
 246 000c 15D2     		bcs	.L22
 259:Middlewares/Third_Party/LwIP/src/core/tcp_out.c ****         (!(pcb->flags & TF_NODELAY) &&
 247              		.loc 1 259 5 is_stmt 1 view .LVU63
 259:Middlewares/Third_Party/LwIP/src/core/tcp_out.c ****         (!(pcb->flags & TF_NODELAY) &&
 248              		.loc 1 259 8 is_stmt 0 view .LVU64
 249 000e 9DF81410 		ldrb	r1, [sp, #20]	@ zero_extendqisi2
 250              	.LVL24:
 259:Middlewares/Third_Party/LwIP/src/core/tcp_out.c ****         (!(pcb->flags & TF_NODELAY) &&
 251              		.loc 1 259 8 view .LVU65
 252 0012 11F0020F 		tst	r1, #2
 253 0016 08D1     		bne	.L23
 260:Middlewares/Third_Party/LwIP/src/core/tcp_out.c ****          (!first_seg ||
 254              		.loc 1 260 15 discriminator 1 view .LVU66
 255 0018 0499     		ldr	r1, [sp, #16]
 256 001a 897E     		ldrb	r1, [r1, #26]	@ zero_extendqisi2
 259:Middlewares/Third_Party/LwIP/src/core/tcp_out.c ****         (!(pcb->flags & TF_NODELAY) &&
 257              		.loc 1 259 42 discriminator 1 view .LVU67
 258 001c 11F0400F 		tst	r1, #64
 259 0020 26D1     		bne	.L27
 260:Middlewares/Third_Party/LwIP/src/core/tcp_out.c ****          (!first_seg ||
 260              		.loc 1 260 37 view .LVU68
 261 0022 13B1     		cbz	r3, .L23
 262:Middlewares/Third_Party/LwIP/src/core/tcp_out.c ****           pcb->unacked != NULL))) {
 262              		.loc 1 262 14 view .LVU69
 263 0024 049B     		ldr	r3, [sp, #16]
 264 0026 9B6E     		ldr	r3, [r3, #104]
 261:Middlewares/Third_Party/LwIP/src/core/tcp_out.c ****           pcb->unsent != NULL ||
 265              		.loc 1 261 22 view .LVU70
 266 0028 E3B1     		cbz	r3, .L30
 267              	.L23:
 264:Middlewares/Third_Party/LwIP/src/core/tcp_out.c ****     }
 268              		.loc 1 264 7 is_stmt 1 view .LVU71
 264:Middlewares/Third_Party/LwIP/src/core/tcp_out.c ****     }
 269              		.loc 1 264 15 is_stmt 0 view .LVU72
 270 002a 04F21B21 		addw	r1, r4, #539
 271 002e 21F00301 		bic	r1, r1, #3
 272 0032 8A42     		cmp	r2, r1
 273 0034 28BF     		it	cs
 274 0036 0A46     		movcs	r2, r1
ARM GAS  C:\Users\Nina\AppData\Local\Temp\cc9LyW5f.s 			page 13


 275              	.LVL25:
 264:Middlewares/Third_Party/LwIP/src/core/tcp_out.c ****     }
 276              		.loc 1 264 13 view .LVU73
 277 0038 91B2     		uxth	r1, r2
 278              	.LVL26:
 279              	.L22:
 268:Middlewares/Third_Party/LwIP/src/core/tcp_out.c ****   if (p == NULL) {
 280              		.loc 1 268 3 is_stmt 1 view .LVU74
 268:Middlewares/Third_Party/LwIP/src/core/tcp_out.c ****   if (p == NULL) {
 281              		.loc 1 268 7 is_stmt 0 view .LVU75
 282 003a 0022     		movs	r2, #0
 283 003c FFF7FEFF 		bl	pbuf_alloc
 284              	.LVL27:
 269:Middlewares/Third_Party/LwIP/src/core/tcp_out.c ****     return NULL;
 285              		.loc 1 269 3 is_stmt 1 view .LVU76
 269:Middlewares/Third_Party/LwIP/src/core/tcp_out.c ****     return NULL;
 286              		.loc 1 269 6 is_stmt 0 view .LVU77
 287 0040 0546     		mov	r5, r0
 288 0042 68B1     		cbz	r0, .L21
 272:Middlewares/Third_Party/LwIP/src/core/tcp_out.c ****   *oversize = p->len - length;
 289              		.loc 1 272 3 is_stmt 1 view .LVU78
 272:Middlewares/Third_Party/LwIP/src/core/tcp_out.c ****   *oversize = p->len - length;
 290              		.loc 1 272 3 view .LVU79
 291 0044 0368     		ldr	r3, [r0]
 292 0046 33B1     		cbz	r3, .L25
 272:Middlewares/Third_Party/LwIP/src/core/tcp_out.c ****   *oversize = p->len - length;
 293              		.loc 1 272 3 discriminator 1 view .LVU80
 272:Middlewares/Third_Party/LwIP/src/core/tcp_out.c ****   *oversize = p->len - length;
 294              		.loc 1 272 3 discriminator 1 view .LVU81
 295 0048 0A4B     		ldr	r3, .L31
 296 004a 4FF48872 		mov	r2, #272
 297 004e 0A49     		ldr	r1, .L31+4
 298 0050 0A48     		ldr	r0, .L31+8
 299              	.LVL28:
 272:Middlewares/Third_Party/LwIP/src/core/tcp_out.c ****   *oversize = p->len - length;
 300              		.loc 1 272 3 is_stmt 0 discriminator 1 view .LVU82
 301 0052 FFF7FEFF 		bl	printf
 302              	.LVL29:
 303              	.L25:
 272:Middlewares/Third_Party/LwIP/src/core/tcp_out.c ****   *oversize = p->len - length;
 304              		.loc 1 272 3 is_stmt 1 discriminator 3 view .LVU83
 272:Middlewares/Third_Party/LwIP/src/core/tcp_out.c ****   *oversize = p->len - length;
 305              		.loc 1 272 3 discriminator 3 view .LVU84
 273:Middlewares/Third_Party/LwIP/src/core/tcp_out.c ****   /* trim p->len to the currently used size */
 306              		.loc 1 273 3 discriminator 3 view .LVU85
 273:Middlewares/Third_Party/LwIP/src/core/tcp_out.c ****   /* trim p->len to the currently used size */
 307              		.loc 1 273 16 is_stmt 0 discriminator 3 view .LVU86
 308 0056 6B89     		ldrh	r3, [r5, #10]
 273:Middlewares/Third_Party/LwIP/src/core/tcp_out.c ****   /* trim p->len to the currently used size */
 309              		.loc 1 273 22 discriminator 3 view .LVU87
 310 0058 1B1B     		subs	r3, r3, r4
 273:Middlewares/Third_Party/LwIP/src/core/tcp_out.c ****   /* trim p->len to the currently used size */
 311              		.loc 1 273 13 discriminator 3 view .LVU88
 312 005a 3380     		strh	r3, [r6]	@ movhi
 275:Middlewares/Third_Party/LwIP/src/core/tcp_out.c ****   return p;
 313              		.loc 1 275 3 is_stmt 1 discriminator 3 view .LVU89
 275:Middlewares/Third_Party/LwIP/src/core/tcp_out.c ****   return p;
ARM GAS  C:\Users\Nina\AppData\Local\Temp\cc9LyW5f.s 			page 14


 314              		.loc 1 275 23 is_stmt 0 discriminator 3 view .LVU90
 315 005c 2C81     		strh	r4, [r5, #8]	@ movhi
 275:Middlewares/Third_Party/LwIP/src/core/tcp_out.c ****   return p;
 316              		.loc 1 275 10 discriminator 3 view .LVU91
 317 005e 6C81     		strh	r4, [r5, #10]	@ movhi
 276:Middlewares/Third_Party/LwIP/src/core/tcp_out.c **** }
 318              		.loc 1 276 3 is_stmt 1 discriminator 3 view .LVU92
 319              	.L21:
 277:Middlewares/Third_Party/LwIP/src/core/tcp_out.c **** #else /* TCP_OVERSIZE */
 320              		.loc 1 277 1 is_stmt 0 view .LVU93
 321 0060 2846     		mov	r0, r5
 322 0062 70BD     		pop	{r4, r5, r6, pc}
 323              	.LVL30:
 324              	.L30:
 263:Middlewares/Third_Party/LwIP/src/core/tcp_out.c ****       alloc = LWIP_MIN(max_length, LWIP_MEM_ALIGN_SIZE(TCP_OVERSIZE_CALC_LENGTH(length)));
 325              		.loc 1 263 14 view .LVU94
 326 0064 049B     		ldr	r3, [sp, #16]
 327 0066 DB6E     		ldr	r3, [r3, #108]
 262:Middlewares/Third_Party/LwIP/src/core/tcp_out.c ****           pcb->unacked != NULL))) {
 328              		.loc 1 262 31 view .LVU95
 329 0068 002B     		cmp	r3, #0
 330 006a DED1     		bne	.L23
 238:Middlewares/Third_Party/LwIP/src/core/tcp_out.c **** 
 331              		.loc 1 238 9 view .LVU96
 332 006c 2146     		mov	r1, r4
 333 006e E4E7     		b	.L22
 334              	.L27:
 335 0070 2146     		mov	r1, r4
 336 0072 E2E7     		b	.L22
 337              	.L32:
 338              		.align	2
 339              	.L31:
 340 0074 00000000 		.word	.LC0
 341 0078 00000000 		.word	.LC4
 342 007c 6C000000 		.word	.LC2
 343              		.cfi_endproc
 344              	.LFE163:
 346              		.section	.rodata.tcp_create_segment.str1.4,"aMS",%progbits,1
 347              		.align	2
 348              	.LC5:
 349 0000 702D3E74 		.ascii	"p->tot_len >= optlen\000"
 349      6F745F6C 
 349      656E203E 
 349      3D206F70 
 349      746C656E 
 350              		.section	.text.tcp_create_segment,"ax",%progbits
 351              		.align	1
 352              		.syntax unified
 353              		.thumb
 354              		.thumb_func
 355              		.fpu fpv5-sp-d16
 357              	tcp_create_segment:
 358              	.LVL31:
 359              	.LFB162:
 174:Middlewares/Third_Party/LwIP/src/core/tcp_out.c ****   struct tcp_seg *seg;
 360              		.loc 1 174 1 is_stmt 1 view -0
 361              		.cfi_startproc
ARM GAS  C:\Users\Nina\AppData\Local\Temp\cc9LyW5f.s 			page 15


 362              		@ args = 4, pretend = 0, frame = 0
 363              		@ frame_needed = 0, uses_anonymous_args = 0
 174:Middlewares/Third_Party/LwIP/src/core/tcp_out.c ****   struct tcp_seg *seg;
 364              		.loc 1 174 1 is_stmt 0 view .LVU98
 365 0000 2DE9F047 		push	{r4, r5, r6, r7, r8, r9, r10, lr}
 366              	.LCFI2:
 367              		.cfi_def_cfa_offset 32
 368              		.cfi_offset 4, -32
 369              		.cfi_offset 5, -28
 370              		.cfi_offset 6, -24
 371              		.cfi_offset 7, -20
 372              		.cfi_offset 8, -16
 373              		.cfi_offset 9, -12
 374              		.cfi_offset 10, -8
 375              		.cfi_offset 14, -4
 376 0004 0746     		mov	r7, r0
 377 0006 0E46     		mov	r6, r1
 378 0008 9046     		mov	r8, r2
 379 000a 9946     		mov	r9, r3
 380 000c 9DF820A0 		ldrb	r10, [sp, #32]	@ zero_extendqisi2
 175:Middlewares/Third_Party/LwIP/src/core/tcp_out.c ****   u8_t optlen = LWIP_TCP_OPT_LENGTH(optflags);
 381              		.loc 1 175 3 is_stmt 1 view .LVU99
 176:Middlewares/Third_Party/LwIP/src/core/tcp_out.c **** 
 382              		.loc 1 176 3 view .LVU100
 383              	.LVL32:
 178:Middlewares/Third_Party/LwIP/src/core/tcp_out.c ****     LWIP_DEBUGF(TCP_OUTPUT_DEBUG | LWIP_DBG_LEVEL_SERIOUS, ("tcp_create_segment: no memory.\n"));
 384              		.loc 1 178 3 view .LVU101
 178:Middlewares/Third_Party/LwIP/src/core/tcp_out.c ****     LWIP_DEBUGF(TCP_OUTPUT_DEBUG | LWIP_DBG_LEVEL_SERIOUS, ("tcp_create_segment: no memory.\n"));
 385              		.loc 1 178 32 is_stmt 0 view .LVU102
 386 0010 0320     		movs	r0, #3
 387              	.LVL33:
 178:Middlewares/Third_Party/LwIP/src/core/tcp_out.c ****     LWIP_DEBUGF(TCP_OUTPUT_DEBUG | LWIP_DBG_LEVEL_SERIOUS, ("tcp_create_segment: no memory.\n"));
 388              		.loc 1 178 32 view .LVU103
 389 0012 FFF7FEFF 		bl	memp_malloc
 390              	.LVL34:
 178:Middlewares/Third_Party/LwIP/src/core/tcp_out.c ****     LWIP_DEBUGF(TCP_OUTPUT_DEBUG | LWIP_DBG_LEVEL_SERIOUS, ("tcp_create_segment: no memory.\n"));
 391              		.loc 1 178 6 view .LVU104
 392 0016 0446     		mov	r4, r0
 393 0018 0028     		cmp	r0, #0
 394 001a 36D0     		beq	.L39
 395 001c 4FEA8A05 		lsl	r5, r10, #2
 396              	.LVL35:
 178:Middlewares/Third_Party/LwIP/src/core/tcp_out.c ****     LWIP_DEBUGF(TCP_OUTPUT_DEBUG | LWIP_DBG_LEVEL_SERIOUS, ("tcp_create_segment: no memory.\n"));
 397              		.loc 1 178 6 view .LVU105
 398 0020 05F00405 		and	r5, r5, #4
 399              	.LVL36:
 183:Middlewares/Third_Party/LwIP/src/core/tcp_out.c ****   seg->next = NULL;
 400              		.loc 1 183 3 is_stmt 1 view .LVU106
 183:Middlewares/Third_Party/LwIP/src/core/tcp_out.c ****   seg->next = NULL;
 401              		.loc 1 183 14 is_stmt 0 view .LVU107
 402 0024 80F80AA0 		strb	r10, [r0, #10]
 184:Middlewares/Third_Party/LwIP/src/core/tcp_out.c ****   seg->p = p;
 403              		.loc 1 184 3 is_stmt 1 view .LVU108
 184:Middlewares/Third_Party/LwIP/src/core/tcp_out.c ****   seg->p = p;
 404              		.loc 1 184 13 is_stmt 0 view .LVU109
 405 0028 0023     		movs	r3, #0
 406 002a 0360     		str	r3, [r0]
ARM GAS  C:\Users\Nina\AppData\Local\Temp\cc9LyW5f.s 			page 16


 185:Middlewares/Third_Party/LwIP/src/core/tcp_out.c ****   LWIP_ASSERT("p->tot_len >= optlen", p->tot_len >= optlen);
 407              		.loc 1 185 3 is_stmt 1 view .LVU110
 185:Middlewares/Third_Party/LwIP/src/core/tcp_out.c ****   LWIP_ASSERT("p->tot_len >= optlen", p->tot_len >= optlen);
 408              		.loc 1 185 10 is_stmt 0 view .LVU111
 409 002c 4660     		str	r6, [r0, #4]
 186:Middlewares/Third_Party/LwIP/src/core/tcp_out.c ****   seg->len = p->tot_len - optlen;
 410              		.loc 1 186 3 is_stmt 1 view .LVU112
 186:Middlewares/Third_Party/LwIP/src/core/tcp_out.c ****   seg->len = p->tot_len - optlen;
 411              		.loc 1 186 3 view .LVU113
 412 002e 3389     		ldrh	r3, [r6, #8]
 413 0030 1FFA85FA 		uxth	r10, r5
 414              	.LVL37:
 186:Middlewares/Third_Party/LwIP/src/core/tcp_out.c ****   seg->len = p->tot_len - optlen;
 415              		.loc 1 186 3 is_stmt 0 view .LVU114
 416 0034 5345     		cmp	r3, r10
 417 0036 2CD3     		bcc	.L40
 418              	.LVL38:
 419              	.L36:
 186:Middlewares/Third_Party/LwIP/src/core/tcp_out.c ****   seg->len = p->tot_len - optlen;
 420              		.loc 1 186 3 is_stmt 1 discriminator 3 view .LVU115
 186:Middlewares/Third_Party/LwIP/src/core/tcp_out.c ****   seg->len = p->tot_len - optlen;
 421              		.loc 1 186 3 discriminator 3 view .LVU116
 187:Middlewares/Third_Party/LwIP/src/core/tcp_out.c **** #if TCP_OVERSIZE_DBGCHECK
 422              		.loc 1 187 3 discriminator 3 view .LVU117
 187:Middlewares/Third_Party/LwIP/src/core/tcp_out.c **** #if TCP_OVERSIZE_DBGCHECK
 423              		.loc 1 187 15 is_stmt 0 discriminator 3 view .LVU118
 424 0038 3189     		ldrh	r1, [r6, #8]
 187:Middlewares/Third_Party/LwIP/src/core/tcp_out.c **** #if TCP_OVERSIZE_DBGCHECK
 425              		.loc 1 187 25 discriminator 3 view .LVU119
 426 003a A1EB0A01 		sub	r1, r1, r10
 187:Middlewares/Third_Party/LwIP/src/core/tcp_out.c **** #if TCP_OVERSIZE_DBGCHECK
 427              		.loc 1 187 12 discriminator 3 view .LVU120
 428 003e 2181     		strh	r1, [r4, #8]	@ movhi
 200:Middlewares/Third_Party/LwIP/src/core/tcp_out.c ****     LWIP_DEBUGF(TCP_OUTPUT_DEBUG | LWIP_DBG_LEVEL_SERIOUS, ("tcp_create_segment: no room for TCP he
 429              		.loc 1 200 3 is_stmt 1 discriminator 3 view .LVU121
 200:Middlewares/Third_Party/LwIP/src/core/tcp_out.c ****     LWIP_DEBUGF(TCP_OUTPUT_DEBUG | LWIP_DBG_LEVEL_SERIOUS, ("tcp_create_segment: no room for TCP he
 430              		.loc 1 200 7 is_stmt 0 discriminator 3 view .LVU122
 431 0040 1421     		movs	r1, #20
 432 0042 3046     		mov	r0, r6
 433 0044 FFF7FEFF 		bl	pbuf_header
 434              	.LVL39:
 200:Middlewares/Third_Party/LwIP/src/core/tcp_out.c ****     LWIP_DEBUGF(TCP_OUTPUT_DEBUG | LWIP_DBG_LEVEL_SERIOUS, ("tcp_create_segment: no room for TCP he
 435              		.loc 1 200 6 discriminator 3 view .LVU123
 436 0048 50BB     		cbnz	r0, .L41
 206:Middlewares/Third_Party/LwIP/src/core/tcp_out.c ****   seg->tcphdr->src = lwip_htons(pcb->local_port);
 437              		.loc 1 206 3 is_stmt 1 view .LVU124
 206:Middlewares/Third_Party/LwIP/src/core/tcp_out.c ****   seg->tcphdr->src = lwip_htons(pcb->local_port);
 438              		.loc 1 206 38 is_stmt 0 view .LVU125
 439 004a 6368     		ldr	r3, [r4, #4]
 206:Middlewares/Third_Party/LwIP/src/core/tcp_out.c ****   seg->tcphdr->src = lwip_htons(pcb->local_port);
 440              		.loc 1 206 41 view .LVU126
 441 004c 5E68     		ldr	r6, [r3, #4]
 442              	.LVL40:
 206:Middlewares/Third_Party/LwIP/src/core/tcp_out.c ****   seg->tcphdr->src = lwip_htons(pcb->local_port);
 443              		.loc 1 206 15 view .LVU127
 444 004e E660     		str	r6, [r4, #12]
 207:Middlewares/Third_Party/LwIP/src/core/tcp_out.c ****   seg->tcphdr->dest = lwip_htons(pcb->remote_port);
ARM GAS  C:\Users\Nina\AppData\Local\Temp\cc9LyW5f.s 			page 17


 445              		.loc 1 207 3 is_stmt 1 view .LVU128
 207:Middlewares/Third_Party/LwIP/src/core/tcp_out.c ****   seg->tcphdr->dest = lwip_htons(pcb->remote_port);
 446              		.loc 1 207 22 is_stmt 0 view .LVU129
 447 0050 F88A     		ldrh	r0, [r7, #22]
 448 0052 FFF7FEFF 		bl	lwip_htons
 449              	.LVL41:
 207:Middlewares/Third_Party/LwIP/src/core/tcp_out.c ****   seg->tcphdr->dest = lwip_htons(pcb->remote_port);
 450              		.loc 1 207 20 view .LVU130
 451 0056 3080     		strh	r0, [r6]	@ unaligned
 208:Middlewares/Third_Party/LwIP/src/core/tcp_out.c ****   seg->tcphdr->seqno = lwip_htonl(seqno);
 452              		.loc 1 208 3 is_stmt 1 view .LVU131
 208:Middlewares/Third_Party/LwIP/src/core/tcp_out.c ****   seg->tcphdr->seqno = lwip_htonl(seqno);
 453              		.loc 1 208 6 is_stmt 0 view .LVU132
 454 0058 E668     		ldr	r6, [r4, #12]
 208:Middlewares/Third_Party/LwIP/src/core/tcp_out.c ****   seg->tcphdr->seqno = lwip_htonl(seqno);
 455              		.loc 1 208 23 view .LVU133
 456 005a 388B     		ldrh	r0, [r7, #24]
 457 005c FFF7FEFF 		bl	lwip_htons
 458              	.LVL42:
 208:Middlewares/Third_Party/LwIP/src/core/tcp_out.c ****   seg->tcphdr->seqno = lwip_htonl(seqno);
 459              		.loc 1 208 21 view .LVU134
 460 0060 7080     		strh	r0, [r6, #2]	@ unaligned
 209:Middlewares/Third_Party/LwIP/src/core/tcp_out.c ****   /* ackno is set in tcp_output */
 461              		.loc 1 209 3 is_stmt 1 view .LVU135
 209:Middlewares/Third_Party/LwIP/src/core/tcp_out.c ****   /* ackno is set in tcp_output */
 462              		.loc 1 209 6 is_stmt 0 view .LVU136
 463 0062 E668     		ldr	r6, [r4, #12]
 209:Middlewares/Third_Party/LwIP/src/core/tcp_out.c ****   /* ackno is set in tcp_output */
 464              		.loc 1 209 24 view .LVU137
 465 0064 4846     		mov	r0, r9
 466 0066 FFF7FEFF 		bl	lwip_htonl
 467              	.LVL43:
 209:Middlewares/Third_Party/LwIP/src/core/tcp_out.c ****   /* ackno is set in tcp_output */
 468              		.loc 1 209 22 view .LVU138
 469 006a 7060     		str	r0, [r6, #4]	@ unaligned
 211:Middlewares/Third_Party/LwIP/src/core/tcp_out.c ****   /* wnd and chksum are set in tcp_output */
 470              		.loc 1 211 3 is_stmt 1 view .LVU139
 471 006c A808     		lsrs	r0, r5, #2
 472 006e 0530     		adds	r0, r0, #5
 473 0070 E568     		ldr	r5, [r4, #12]
 474 0072 48EA0030 		orr	r0, r8, r0, lsl #12
 475 0076 FFF7FEFF 		bl	lwip_htons
 476              	.LVL44:
 477 007a A881     		strh	r0, [r5, #12]	@ unaligned
 213:Middlewares/Third_Party/LwIP/src/core/tcp_out.c ****   return seg;
 478              		.loc 1 213 3 view .LVU140
 213:Middlewares/Third_Party/LwIP/src/core/tcp_out.c ****   return seg;
 479              		.loc 1 213 6 is_stmt 0 view .LVU141
 480 007c E368     		ldr	r3, [r4, #12]
 213:Middlewares/Third_Party/LwIP/src/core/tcp_out.c ****   return seg;
 481              		.loc 1 213 21 view .LVU142
 482 007e 0022     		movs	r2, #0
 483 0080 9A74     		strb	r2, [r3, #18]
 484 0082 DA74     		strb	r2, [r3, #19]
 214:Middlewares/Third_Party/LwIP/src/core/tcp_out.c **** }
 485              		.loc 1 214 3 is_stmt 1 view .LVU143
 486              	.LVL45:
ARM GAS  C:\Users\Nina\AppData\Local\Temp\cc9LyW5f.s 			page 18


 487              	.L33:
 215:Middlewares/Third_Party/LwIP/src/core/tcp_out.c **** 
 488              		.loc 1 215 1 is_stmt 0 view .LVU144
 489 0084 2046     		mov	r0, r4
 490 0086 BDE8F087 		pop	{r4, r5, r6, r7, r8, r9, r10, pc}
 491              	.LVL46:
 492              	.L39:
 179:Middlewares/Third_Party/LwIP/src/core/tcp_out.c ****     pbuf_free(p);
 493              		.loc 1 179 97 is_stmt 1 view .LVU145
 180:Middlewares/Third_Party/LwIP/src/core/tcp_out.c ****     return NULL;
 494              		.loc 1 180 5 view .LVU146
 495 008a 3046     		mov	r0, r6
 496              	.LVL47:
 180:Middlewares/Third_Party/LwIP/src/core/tcp_out.c ****     return NULL;
 497              		.loc 1 180 5 is_stmt 0 view .LVU147
 498 008c FFF7FEFF 		bl	pbuf_free
 499              	.LVL48:
 181:Middlewares/Third_Party/LwIP/src/core/tcp_out.c ****   }
 500              		.loc 1 181 5 is_stmt 1 view .LVU148
 181:Middlewares/Third_Party/LwIP/src/core/tcp_out.c ****   }
 501              		.loc 1 181 12 is_stmt 0 view .LVU149
 502 0090 F8E7     		b	.L33
 503              	.LVL49:
 504              	.L40:
 186:Middlewares/Third_Party/LwIP/src/core/tcp_out.c ****   seg->len = p->tot_len - optlen;
 505              		.loc 1 186 3 is_stmt 1 discriminator 1 view .LVU150
 186:Middlewares/Third_Party/LwIP/src/core/tcp_out.c ****   seg->len = p->tot_len - optlen;
 506              		.loc 1 186 3 discriminator 1 view .LVU151
 507 0092 064B     		ldr	r3, .L42
 508 0094 BA22     		movs	r2, #186
 509 0096 0649     		ldr	r1, .L42+4
 510 0098 0648     		ldr	r0, .L42+8
 511              	.LVL50:
 186:Middlewares/Third_Party/LwIP/src/core/tcp_out.c ****   seg->len = p->tot_len - optlen;
 512              		.loc 1 186 3 is_stmt 0 discriminator 1 view .LVU152
 513 009a FFF7FEFF 		bl	printf
 514              	.LVL51:
 515 009e CBE7     		b	.L36
 516              	.L41:
 201:Middlewares/Third_Party/LwIP/src/core/tcp_out.c ****     TCP_STATS_INC(tcp.err);
 517              		.loc 1 201 118 is_stmt 1 view .LVU153
 202:Middlewares/Third_Party/LwIP/src/core/tcp_out.c ****     tcp_seg_free(seg);
 518              		.loc 1 202 27 view .LVU154
 203:Middlewares/Third_Party/LwIP/src/core/tcp_out.c ****     return NULL;
 519              		.loc 1 203 5 view .LVU155
 520 00a0 2046     		mov	r0, r4
 521 00a2 FFF7FEFF 		bl	tcp_seg_free
 522              	.LVL52:
 204:Middlewares/Third_Party/LwIP/src/core/tcp_out.c ****   }
 523              		.loc 1 204 5 view .LVU156
 204:Middlewares/Third_Party/LwIP/src/core/tcp_out.c ****   }
 524              		.loc 1 204 12 is_stmt 0 view .LVU157
 525 00a6 0024     		movs	r4, #0
 526              	.LVL53:
 204:Middlewares/Third_Party/LwIP/src/core/tcp_out.c ****   }
 527              		.loc 1 204 12 view .LVU158
 528 00a8 ECE7     		b	.L33
ARM GAS  C:\Users\Nina\AppData\Local\Temp\cc9LyW5f.s 			page 19


 529              	.L43:
 530 00aa 00BF     		.align	2
 531              	.L42:
 532 00ac 00000000 		.word	.LC0
 533 00b0 00000000 		.word	.LC5
 534 00b4 6C000000 		.word	.LC2
 535              		.cfi_endproc
 536              	.LFE162:
 538              		.section	.rodata.tcp_output_alloc_header.str1.4,"aMS",%progbits,1
 539              		.align	2
 540              	.LC6:
 541 0000 63686563 		.ascii	"check that first pbuf can hold struct tcp_hdr\000"
 541      6B207468 
 541      61742066 
 541      69727374 
 541      20706275 
 542              		.section	.text.tcp_output_alloc_header,"ax",%progbits
 543              		.align	1
 544              		.syntax unified
 545              		.thumb
 546              		.thumb_func
 547              		.fpu fpv5-sp-d16
 549              	tcp_output_alloc_header:
 550              	.LVL54:
 551              	.LFB160:
 110:Middlewares/Third_Party/LwIP/src/core/tcp_out.c ****   struct tcp_hdr *tcphdr;
 552              		.loc 1 110 1 is_stmt 1 view -0
 553              		.cfi_startproc
 554              		@ args = 0, pretend = 0, frame = 0
 555              		@ frame_needed = 0, uses_anonymous_args = 0
 110:Middlewares/Third_Party/LwIP/src/core/tcp_out.c ****   struct tcp_hdr *tcphdr;
 556              		.loc 1 110 1 is_stmt 0 view .LVU160
 557 0000 2DE9F041 		push	{r4, r5, r6, r7, r8, lr}
 558              	.LCFI3:
 559              		.cfi_def_cfa_offset 24
 560              		.cfi_offset 4, -24
 561              		.cfi_offset 5, -20
 562              		.cfi_offset 6, -16
 563              		.cfi_offset 7, -12
 564              		.cfi_offset 8, -8
 565              		.cfi_offset 14, -4
 566 0004 0546     		mov	r5, r0
 567 0006 0C46     		mov	r4, r1
 568 0008 9846     		mov	r8, r3
 111:Middlewares/Third_Party/LwIP/src/core/tcp_out.c ****   struct pbuf *p = pbuf_alloc(PBUF_IP, TCP_HLEN + optlen + datalen, PBUF_RAM);
 569              		.loc 1 111 3 is_stmt 1 view .LVU161
 112:Middlewares/Third_Party/LwIP/src/core/tcp_out.c ****   if (p != NULL) {
 570              		.loc 1 112 3 view .LVU162
 112:Middlewares/Third_Party/LwIP/src/core/tcp_out.c ****   if (p != NULL) {
 571              		.loc 1 112 58 is_stmt 0 view .LVU163
 572 000a 1144     		add	r1, r1, r2
 573              	.LVL55:
 112:Middlewares/Third_Party/LwIP/src/core/tcp_out.c ****   if (p != NULL) {
 574              		.loc 1 112 58 view .LVU164
 575 000c 89B2     		uxth	r1, r1
 112:Middlewares/Third_Party/LwIP/src/core/tcp_out.c ****   if (p != NULL) {
 576              		.loc 1 112 20 view .LVU165
ARM GAS  C:\Users\Nina\AppData\Local\Temp\cc9LyW5f.s 			page 20


 577 000e 1431     		adds	r1, r1, #20
 578 0010 0022     		movs	r2, #0
 579              	.LVL56:
 112:Middlewares/Third_Party/LwIP/src/core/tcp_out.c ****   if (p != NULL) {
 580              		.loc 1 112 20 view .LVU166
 581 0012 89B2     		uxth	r1, r1
 582 0014 0120     		movs	r0, #1
 583              	.LVL57:
 112:Middlewares/Third_Party/LwIP/src/core/tcp_out.c ****   if (p != NULL) {
 584              		.loc 1 112 20 view .LVU167
 585 0016 FFF7FEFF 		bl	pbuf_alloc
 586              	.LVL58:
 113:Middlewares/Third_Party/LwIP/src/core/tcp_out.c ****     LWIP_ASSERT("check that first pbuf can hold struct tcp_hdr",
 587              		.loc 1 113 3 is_stmt 1 view .LVU168
 113:Middlewares/Third_Party/LwIP/src/core/tcp_out.c ****     LWIP_ASSERT("check that first pbuf can hold struct tcp_hdr",
 588              		.loc 1 113 6 is_stmt 0 view .LVU169
 589 001a 0746     		mov	r7, r0
 590 001c 48B3     		cbz	r0, .L44
 114:Middlewares/Third_Party/LwIP/src/core/tcp_out.c ****                  (p->len >= TCP_HLEN + optlen));
 591              		.loc 1 114 5 is_stmt 1 view .LVU170
 114:Middlewares/Third_Party/LwIP/src/core/tcp_out.c ****                  (p->len >= TCP_HLEN + optlen));
 592              		.loc 1 114 5 view .LVU171
 593 001e 04F11303 		add	r3, r4, #19
 594 0022 4289     		ldrh	r2, [r0, #10]
 595 0024 9342     		cmp	r3, r2
 596 0026 27DA     		bge	.L48
 597              	.LVL59:
 598              	.L46:
 114:Middlewares/Third_Party/LwIP/src/core/tcp_out.c ****                  (p->len >= TCP_HLEN + optlen));
 599              		.loc 1 114 5 discriminator 3 view .LVU172
 114:Middlewares/Third_Party/LwIP/src/core/tcp_out.c ****                  (p->len >= TCP_HLEN + optlen));
 600              		.loc 1 114 5 discriminator 3 view .LVU173
 116:Middlewares/Third_Party/LwIP/src/core/tcp_out.c ****     tcphdr->src = lwip_htons(pcb->local_port);
 601              		.loc 1 116 5 discriminator 3 view .LVU174
 116:Middlewares/Third_Party/LwIP/src/core/tcp_out.c ****     tcphdr->src = lwip_htons(pcb->local_port);
 602              		.loc 1 116 12 is_stmt 0 discriminator 3 view .LVU175
 603 0028 7E68     		ldr	r6, [r7, #4]
 604              	.LVL60:
 117:Middlewares/Third_Party/LwIP/src/core/tcp_out.c ****     tcphdr->dest = lwip_htons(pcb->remote_port);
 605              		.loc 1 117 5 is_stmt 1 discriminator 3 view .LVU176
 117:Middlewares/Third_Party/LwIP/src/core/tcp_out.c ****     tcphdr->dest = lwip_htons(pcb->remote_port);
 606              		.loc 1 117 19 is_stmt 0 discriminator 3 view .LVU177
 607 002a E88A     		ldrh	r0, [r5, #22]
 608 002c FFF7FEFF 		bl	lwip_htons
 609              	.LVL61:
 117:Middlewares/Third_Party/LwIP/src/core/tcp_out.c ****     tcphdr->dest = lwip_htons(pcb->remote_port);
 610              		.loc 1 117 17 discriminator 3 view .LVU178
 611 0030 3080     		strh	r0, [r6]	@ unaligned
 118:Middlewares/Third_Party/LwIP/src/core/tcp_out.c ****     tcphdr->seqno = seqno_be;
 612              		.loc 1 118 5 is_stmt 1 discriminator 3 view .LVU179
 118:Middlewares/Third_Party/LwIP/src/core/tcp_out.c ****     tcphdr->seqno = seqno_be;
 613              		.loc 1 118 20 is_stmt 0 discriminator 3 view .LVU180
 614 0032 288B     		ldrh	r0, [r5, #24]
 615 0034 FFF7FEFF 		bl	lwip_htons
 616              	.LVL62:
 118:Middlewares/Third_Party/LwIP/src/core/tcp_out.c ****     tcphdr->seqno = seqno_be;
 617              		.loc 1 118 18 discriminator 3 view .LVU181
ARM GAS  C:\Users\Nina\AppData\Local\Temp\cc9LyW5f.s 			page 21


 618 0038 7080     		strh	r0, [r6, #2]	@ unaligned
 119:Middlewares/Third_Party/LwIP/src/core/tcp_out.c ****     tcphdr->ackno = lwip_htonl(pcb->rcv_nxt);
 619              		.loc 1 119 5 is_stmt 1 discriminator 3 view .LVU182
 119:Middlewares/Third_Party/LwIP/src/core/tcp_out.c ****     tcphdr->ackno = lwip_htonl(pcb->rcv_nxt);
 620              		.loc 1 119 19 is_stmt 0 discriminator 3 view .LVU183
 621 003a C6F80480 		str	r8, [r6, #4]	@ unaligned
 120:Middlewares/Third_Party/LwIP/src/core/tcp_out.c ****     TCPH_HDRLEN_FLAGS_SET(tcphdr, (5 + optlen / 4), TCP_ACK);
 622              		.loc 1 120 5 is_stmt 1 discriminator 3 view .LVU184
 120:Middlewares/Third_Party/LwIP/src/core/tcp_out.c ****     TCPH_HDRLEN_FLAGS_SET(tcphdr, (5 + optlen / 4), TCP_ACK);
 623              		.loc 1 120 21 is_stmt 0 discriminator 3 view .LVU185
 624 003e 686A     		ldr	r0, [r5, #36]
 625 0040 FFF7FEFF 		bl	lwip_htonl
 626              	.LVL63:
 120:Middlewares/Third_Party/LwIP/src/core/tcp_out.c ****     TCPH_HDRLEN_FLAGS_SET(tcphdr, (5 + optlen / 4), TCP_ACK);
 627              		.loc 1 120 19 discriminator 3 view .LVU186
 628 0044 B060     		str	r0, [r6, #8]	@ unaligned
 121:Middlewares/Third_Party/LwIP/src/core/tcp_out.c ****     tcphdr->wnd = lwip_htons(TCPWND_MIN16(RCV_WND_SCALE(pcb, pcb->rcv_ann_wnd)));
 629              		.loc 1 121 5 is_stmt 1 discriminator 3 view .LVU187
 630 0046 A408     		lsrs	r4, r4, #2
 631 0048 0534     		adds	r4, r4, #5
 632 004a 2403     		lsls	r4, r4, #12
 633 004c A4B2     		uxth	r4, r4
 634 004e 44F01000 		orr	r0, r4, #16
 635 0052 FFF7FEFF 		bl	lwip_htons
 636              	.LVL64:
 637 0056 B081     		strh	r0, [r6, #12]	@ unaligned
 122:Middlewares/Third_Party/LwIP/src/core/tcp_out.c ****     tcphdr->chksum = 0;
 638              		.loc 1 122 5 discriminator 3 view .LVU188
 122:Middlewares/Third_Party/LwIP/src/core/tcp_out.c ****     tcphdr->chksum = 0;
 639              		.loc 1 122 19 is_stmt 0 discriminator 3 view .LVU189
 640 0058 688D     		ldrh	r0, [r5, #42]
 641 005a FFF7FEFF 		bl	lwip_htons
 642              	.LVL65:
 122:Middlewares/Third_Party/LwIP/src/core/tcp_out.c ****     tcphdr->chksum = 0;
 643              		.loc 1 122 17 discriminator 3 view .LVU190
 644 005e F081     		strh	r0, [r6, #14]	@ unaligned
 123:Middlewares/Third_Party/LwIP/src/core/tcp_out.c ****     tcphdr->urgp = 0;
 645              		.loc 1 123 5 is_stmt 1 discriminator 3 view .LVU191
 123:Middlewares/Third_Party/LwIP/src/core/tcp_out.c ****     tcphdr->urgp = 0;
 646              		.loc 1 123 20 is_stmt 0 discriminator 3 view .LVU192
 647 0060 0023     		movs	r3, #0
 648 0062 3374     		strb	r3, [r6, #16]
 649 0064 7374     		strb	r3, [r6, #17]
 124:Middlewares/Third_Party/LwIP/src/core/tcp_out.c **** 
 650              		.loc 1 124 5 is_stmt 1 discriminator 3 view .LVU193
 124:Middlewares/Third_Party/LwIP/src/core/tcp_out.c **** 
 651              		.loc 1 124 18 is_stmt 0 discriminator 3 view .LVU194
 652 0066 B374     		strb	r3, [r6, #18]
 653 0068 F374     		strb	r3, [r6, #19]
 127:Middlewares/Third_Party/LwIP/src/core/tcp_out.c ****   }
 654              		.loc 1 127 5 is_stmt 1 discriminator 3 view .LVU195
 127:Middlewares/Third_Party/LwIP/src/core/tcp_out.c ****   }
 655              		.loc 1 127 34 is_stmt 0 discriminator 3 view .LVU196
 656 006a 6B6A     		ldr	r3, [r5, #36]
 127:Middlewares/Third_Party/LwIP/src/core/tcp_out.c ****   }
 657              		.loc 1 127 49 discriminator 3 view .LVU197
 658 006c 6A8D     		ldrh	r2, [r5, #42]
ARM GAS  C:\Users\Nina\AppData\Local\Temp\cc9LyW5f.s 			page 22


 127:Middlewares/Third_Party/LwIP/src/core/tcp_out.c ****   }
 659              		.loc 1 127 44 discriminator 3 view .LVU198
 660 006e 1344     		add	r3, r3, r2
 127:Middlewares/Third_Party/LwIP/src/core/tcp_out.c ****   }
 661              		.loc 1 127 29 discriminator 3 view .LVU199
 662 0070 EB62     		str	r3, [r5, #44]
 129:Middlewares/Third_Party/LwIP/src/core/tcp_out.c **** }
 663              		.loc 1 129 3 is_stmt 1 discriminator 3 view .LVU200
 664              	.LVL66:
 665              	.L44:
 130:Middlewares/Third_Party/LwIP/src/core/tcp_out.c **** 
 666              		.loc 1 130 1 is_stmt 0 view .LVU201
 667 0072 3846     		mov	r0, r7
 668 0074 BDE8F081 		pop	{r4, r5, r6, r7, r8, pc}
 669              	.LVL67:
 670              	.L48:
 114:Middlewares/Third_Party/LwIP/src/core/tcp_out.c ****                  (p->len >= TCP_HLEN + optlen));
 671              		.loc 1 114 5 is_stmt 1 discriminator 1 view .LVU202
 114:Middlewares/Third_Party/LwIP/src/core/tcp_out.c ****                  (p->len >= TCP_HLEN + optlen));
 672              		.loc 1 114 5 discriminator 1 view .LVU203
 673 0078 034B     		ldr	r3, .L49
 674 007a 7222     		movs	r2, #114
 675 007c 0349     		ldr	r1, .L49+4
 676 007e 0448     		ldr	r0, .L49+8
 677              	.LVL68:
 114:Middlewares/Third_Party/LwIP/src/core/tcp_out.c ****                  (p->len >= TCP_HLEN + optlen));
 678              		.loc 1 114 5 is_stmt 0 discriminator 1 view .LVU204
 679 0080 FFF7FEFF 		bl	printf
 680              	.LVL69:
 681 0084 D0E7     		b	.L46
 682              	.L50:
 683 0086 00BF     		.align	2
 684              	.L49:
 685 0088 00000000 		.word	.LC0
 686 008c 00000000 		.word	.LC6
 687 0090 6C000000 		.word	.LC2
 688              		.cfi_endproc
 689              	.LFE160:
 691              		.section	.text.tcp_output_segment,"ax",%progbits
 692              		.align	1
 693              		.syntax unified
 694              		.thumb
 695              		.thumb_func
 696              		.fpu fpv5-sp-d16
 698              	tcp_output_segment:
 699              	.LVL70:
 700              	.LFB169:
 349:Middlewares/Third_Party/LwIP/src/core/tcp_out.c **** 
 350:Middlewares/Third_Party/LwIP/src/core/tcp_out.c **** /**
 351:Middlewares/Third_Party/LwIP/src/core/tcp_out.c ****  * @ingroup tcp_raw
 352:Middlewares/Third_Party/LwIP/src/core/tcp_out.c ****  * Write data for sending (but does not send it immediately).
 353:Middlewares/Third_Party/LwIP/src/core/tcp_out.c ****  *
 354:Middlewares/Third_Party/LwIP/src/core/tcp_out.c ****  * It waits in the expectation of more data being sent soon (as
 355:Middlewares/Third_Party/LwIP/src/core/tcp_out.c ****  * it can send them more efficiently by combining them together).
 356:Middlewares/Third_Party/LwIP/src/core/tcp_out.c ****  * To prompt the system to send data now, call tcp_output() after
 357:Middlewares/Third_Party/LwIP/src/core/tcp_out.c ****  * calling tcp_write().
 358:Middlewares/Third_Party/LwIP/src/core/tcp_out.c ****  *
ARM GAS  C:\Users\Nina\AppData\Local\Temp\cc9LyW5f.s 			page 23


 359:Middlewares/Third_Party/LwIP/src/core/tcp_out.c ****  * @param pcb Protocol control block for the TCP connection to enqueue data for.
 360:Middlewares/Third_Party/LwIP/src/core/tcp_out.c ****  * @param arg Pointer to the data to be enqueued for sending.
 361:Middlewares/Third_Party/LwIP/src/core/tcp_out.c ****  * @param len Data length in bytes
 362:Middlewares/Third_Party/LwIP/src/core/tcp_out.c ****  * @param apiflags combination of following flags :
 363:Middlewares/Third_Party/LwIP/src/core/tcp_out.c ****  * - TCP_WRITE_FLAG_COPY (0x01) data will be copied into memory belonging to the stack
 364:Middlewares/Third_Party/LwIP/src/core/tcp_out.c ****  * - TCP_WRITE_FLAG_MORE (0x02) for TCP connection, PSH flag will not be set on last segment sent,
 365:Middlewares/Third_Party/LwIP/src/core/tcp_out.c ****  * @return ERR_OK if enqueued, another err_t on error
 366:Middlewares/Third_Party/LwIP/src/core/tcp_out.c ****  */
 367:Middlewares/Third_Party/LwIP/src/core/tcp_out.c **** err_t
 368:Middlewares/Third_Party/LwIP/src/core/tcp_out.c **** tcp_write(struct tcp_pcb *pcb, const void *arg, u16_t len, u8_t apiflags)
 369:Middlewares/Third_Party/LwIP/src/core/tcp_out.c **** {
 370:Middlewares/Third_Party/LwIP/src/core/tcp_out.c ****   struct pbuf *concat_p = NULL;
 371:Middlewares/Third_Party/LwIP/src/core/tcp_out.c ****   struct tcp_seg *last_unsent = NULL, *seg = NULL, *prev_seg = NULL, *queue = NULL;
 372:Middlewares/Third_Party/LwIP/src/core/tcp_out.c ****   u16_t pos = 0; /* position in 'arg' data */
 373:Middlewares/Third_Party/LwIP/src/core/tcp_out.c ****   u16_t queuelen;
 374:Middlewares/Third_Party/LwIP/src/core/tcp_out.c ****   u8_t optlen = 0;
 375:Middlewares/Third_Party/LwIP/src/core/tcp_out.c ****   u8_t optflags = 0;
 376:Middlewares/Third_Party/LwIP/src/core/tcp_out.c **** #if TCP_OVERSIZE
 377:Middlewares/Third_Party/LwIP/src/core/tcp_out.c ****   u16_t oversize = 0;
 378:Middlewares/Third_Party/LwIP/src/core/tcp_out.c ****   u16_t oversize_used = 0;
 379:Middlewares/Third_Party/LwIP/src/core/tcp_out.c **** #if TCP_OVERSIZE_DBGCHECK
 380:Middlewares/Third_Party/LwIP/src/core/tcp_out.c ****   u16_t oversize_add = 0;
 381:Middlewares/Third_Party/LwIP/src/core/tcp_out.c **** #endif /* TCP_OVERSIZE_DBGCHECK*/
 382:Middlewares/Third_Party/LwIP/src/core/tcp_out.c **** #endif /* TCP_OVERSIZE */
 383:Middlewares/Third_Party/LwIP/src/core/tcp_out.c ****   u16_t extendlen = 0;
 384:Middlewares/Third_Party/LwIP/src/core/tcp_out.c **** #if TCP_CHECKSUM_ON_COPY
 385:Middlewares/Third_Party/LwIP/src/core/tcp_out.c ****   u16_t concat_chksum = 0;
 386:Middlewares/Third_Party/LwIP/src/core/tcp_out.c ****   u8_t concat_chksum_swapped = 0;
 387:Middlewares/Third_Party/LwIP/src/core/tcp_out.c ****   u16_t concat_chksummed = 0;
 388:Middlewares/Third_Party/LwIP/src/core/tcp_out.c **** #endif /* TCP_CHECKSUM_ON_COPY */
 389:Middlewares/Third_Party/LwIP/src/core/tcp_out.c ****   err_t err;
 390:Middlewares/Third_Party/LwIP/src/core/tcp_out.c ****   /* don't allocate segments bigger than half the maximum window we ever received */
 391:Middlewares/Third_Party/LwIP/src/core/tcp_out.c ****   u16_t mss_local = LWIP_MIN(pcb->mss, TCPWND_MIN16(pcb->snd_wnd_max/2));
 392:Middlewares/Third_Party/LwIP/src/core/tcp_out.c ****   mss_local = mss_local ? mss_local : pcb->mss;
 393:Middlewares/Third_Party/LwIP/src/core/tcp_out.c **** 
 394:Middlewares/Third_Party/LwIP/src/core/tcp_out.c **** #if LWIP_NETIF_TX_SINGLE_PBUF
 395:Middlewares/Third_Party/LwIP/src/core/tcp_out.c ****   /* Always copy to try to create single pbufs for TX */
 396:Middlewares/Third_Party/LwIP/src/core/tcp_out.c ****   apiflags |= TCP_WRITE_FLAG_COPY;
 397:Middlewares/Third_Party/LwIP/src/core/tcp_out.c **** #endif /* LWIP_NETIF_TX_SINGLE_PBUF */
 398:Middlewares/Third_Party/LwIP/src/core/tcp_out.c **** 
 399:Middlewares/Third_Party/LwIP/src/core/tcp_out.c ****   LWIP_DEBUGF(TCP_OUTPUT_DEBUG, ("tcp_write(pcb=%p, data=%p, len=%"U16_F", apiflags=%"U16_F")\n",
 400:Middlewares/Third_Party/LwIP/src/core/tcp_out.c ****     (void *)pcb, arg, len, (u16_t)apiflags));
 401:Middlewares/Third_Party/LwIP/src/core/tcp_out.c ****   LWIP_ERROR("tcp_write: arg == NULL (programmer violates API)",
 402:Middlewares/Third_Party/LwIP/src/core/tcp_out.c ****              arg != NULL, return ERR_ARG;);
 403:Middlewares/Third_Party/LwIP/src/core/tcp_out.c **** 
 404:Middlewares/Third_Party/LwIP/src/core/tcp_out.c ****   err = tcp_write_checks(pcb, len);
 405:Middlewares/Third_Party/LwIP/src/core/tcp_out.c ****   if (err != ERR_OK) {
 406:Middlewares/Third_Party/LwIP/src/core/tcp_out.c ****     return err;
 407:Middlewares/Third_Party/LwIP/src/core/tcp_out.c ****   }
 408:Middlewares/Third_Party/LwIP/src/core/tcp_out.c ****   queuelen = pcb->snd_queuelen;
 409:Middlewares/Third_Party/LwIP/src/core/tcp_out.c **** 
 410:Middlewares/Third_Party/LwIP/src/core/tcp_out.c **** #if LWIP_TCP_TIMESTAMPS
 411:Middlewares/Third_Party/LwIP/src/core/tcp_out.c ****   if ((pcb->flags & TF_TIMESTAMP)) {
 412:Middlewares/Third_Party/LwIP/src/core/tcp_out.c ****     /* Make sure the timestamp option is only included in data segments if we
 413:Middlewares/Third_Party/LwIP/src/core/tcp_out.c ****        agreed about it with the remote host. */
 414:Middlewares/Third_Party/LwIP/src/core/tcp_out.c ****     optflags = TF_SEG_OPTS_TS;
 415:Middlewares/Third_Party/LwIP/src/core/tcp_out.c ****     optlen = LWIP_TCP_OPT_LENGTH(TF_SEG_OPTS_TS);
ARM GAS  C:\Users\Nina\AppData\Local\Temp\cc9LyW5f.s 			page 24


 416:Middlewares/Third_Party/LwIP/src/core/tcp_out.c ****     /* ensure that segments can hold at least one data byte... */
 417:Middlewares/Third_Party/LwIP/src/core/tcp_out.c ****     mss_local = LWIP_MAX(mss_local, LWIP_TCP_OPT_LEN_TS + 1);
 418:Middlewares/Third_Party/LwIP/src/core/tcp_out.c ****   }
 419:Middlewares/Third_Party/LwIP/src/core/tcp_out.c **** #endif /* LWIP_TCP_TIMESTAMPS */
 420:Middlewares/Third_Party/LwIP/src/core/tcp_out.c **** 
 421:Middlewares/Third_Party/LwIP/src/core/tcp_out.c **** 
 422:Middlewares/Third_Party/LwIP/src/core/tcp_out.c ****   /*
 423:Middlewares/Third_Party/LwIP/src/core/tcp_out.c ****    * TCP segmentation is done in three phases with increasing complexity:
 424:Middlewares/Third_Party/LwIP/src/core/tcp_out.c ****    *
 425:Middlewares/Third_Party/LwIP/src/core/tcp_out.c ****    * 1. Copy data directly into an oversized pbuf.
 426:Middlewares/Third_Party/LwIP/src/core/tcp_out.c ****    * 2. Chain a new pbuf to the end of pcb->unsent.
 427:Middlewares/Third_Party/LwIP/src/core/tcp_out.c ****    * 3. Create new segments.
 428:Middlewares/Third_Party/LwIP/src/core/tcp_out.c ****    *
 429:Middlewares/Third_Party/LwIP/src/core/tcp_out.c ****    * We may run out of memory at any point. In that case we must
 430:Middlewares/Third_Party/LwIP/src/core/tcp_out.c ****    * return ERR_MEM and not change anything in pcb. Therefore, all
 431:Middlewares/Third_Party/LwIP/src/core/tcp_out.c ****    * changes are recorded in local variables and committed at the end
 432:Middlewares/Third_Party/LwIP/src/core/tcp_out.c ****    * of the function. Some pcb fields are maintained in local copies:
 433:Middlewares/Third_Party/LwIP/src/core/tcp_out.c ****    *
 434:Middlewares/Third_Party/LwIP/src/core/tcp_out.c ****    * queuelen = pcb->snd_queuelen
 435:Middlewares/Third_Party/LwIP/src/core/tcp_out.c ****    * oversize = pcb->unsent_oversize
 436:Middlewares/Third_Party/LwIP/src/core/tcp_out.c ****    *
 437:Middlewares/Third_Party/LwIP/src/core/tcp_out.c ****    * These variables are set consistently by the phases:
 438:Middlewares/Third_Party/LwIP/src/core/tcp_out.c ****    *
 439:Middlewares/Third_Party/LwIP/src/core/tcp_out.c ****    * seg points to the last segment tampered with.
 440:Middlewares/Third_Party/LwIP/src/core/tcp_out.c ****    *
 441:Middlewares/Third_Party/LwIP/src/core/tcp_out.c ****    * pos records progress as data is segmented.
 442:Middlewares/Third_Party/LwIP/src/core/tcp_out.c ****    */
 443:Middlewares/Third_Party/LwIP/src/core/tcp_out.c **** 
 444:Middlewares/Third_Party/LwIP/src/core/tcp_out.c ****   /* Find the tail of the unsent queue. */
 445:Middlewares/Third_Party/LwIP/src/core/tcp_out.c ****   if (pcb->unsent != NULL) {
 446:Middlewares/Third_Party/LwIP/src/core/tcp_out.c ****     u16_t space;
 447:Middlewares/Third_Party/LwIP/src/core/tcp_out.c ****     u16_t unsent_optlen;
 448:Middlewares/Third_Party/LwIP/src/core/tcp_out.c **** 
 449:Middlewares/Third_Party/LwIP/src/core/tcp_out.c ****     /* @todo: this could be sped up by keeping last_unsent in the pcb */
 450:Middlewares/Third_Party/LwIP/src/core/tcp_out.c ****     for (last_unsent = pcb->unsent; last_unsent->next != NULL;
 451:Middlewares/Third_Party/LwIP/src/core/tcp_out.c ****          last_unsent = last_unsent->next);
 452:Middlewares/Third_Party/LwIP/src/core/tcp_out.c **** 
 453:Middlewares/Third_Party/LwIP/src/core/tcp_out.c ****     /* Usable space at the end of the last unsent segment */
 454:Middlewares/Third_Party/LwIP/src/core/tcp_out.c ****     unsent_optlen = LWIP_TCP_OPT_LENGTH(last_unsent->flags);
 455:Middlewares/Third_Party/LwIP/src/core/tcp_out.c ****     LWIP_ASSERT("mss_local is too small", mss_local >= last_unsent->len + unsent_optlen);
 456:Middlewares/Third_Party/LwIP/src/core/tcp_out.c ****     space = mss_local - (last_unsent->len + unsent_optlen);
 457:Middlewares/Third_Party/LwIP/src/core/tcp_out.c **** 
 458:Middlewares/Third_Party/LwIP/src/core/tcp_out.c ****     /*
 459:Middlewares/Third_Party/LwIP/src/core/tcp_out.c ****      * Phase 1: Copy data directly into an oversized pbuf.
 460:Middlewares/Third_Party/LwIP/src/core/tcp_out.c ****      *
 461:Middlewares/Third_Party/LwIP/src/core/tcp_out.c ****      * The number of bytes copied is recorded in the oversize_used
 462:Middlewares/Third_Party/LwIP/src/core/tcp_out.c ****      * variable. The actual copying is done at the bottom of the
 463:Middlewares/Third_Party/LwIP/src/core/tcp_out.c ****      * function.
 464:Middlewares/Third_Party/LwIP/src/core/tcp_out.c ****      */
 465:Middlewares/Third_Party/LwIP/src/core/tcp_out.c **** #if TCP_OVERSIZE
 466:Middlewares/Third_Party/LwIP/src/core/tcp_out.c **** #if TCP_OVERSIZE_DBGCHECK
 467:Middlewares/Third_Party/LwIP/src/core/tcp_out.c ****     /* check that pcb->unsent_oversize matches last_unsent->oversize_left */
 468:Middlewares/Third_Party/LwIP/src/core/tcp_out.c ****     LWIP_ASSERT("unsent_oversize mismatch (pcb vs. last_unsent)",
 469:Middlewares/Third_Party/LwIP/src/core/tcp_out.c ****                 pcb->unsent_oversize == last_unsent->oversize_left);
 470:Middlewares/Third_Party/LwIP/src/core/tcp_out.c **** #endif /* TCP_OVERSIZE_DBGCHECK */
 471:Middlewares/Third_Party/LwIP/src/core/tcp_out.c ****     oversize = pcb->unsent_oversize;
 472:Middlewares/Third_Party/LwIP/src/core/tcp_out.c ****     if (oversize > 0) {
ARM GAS  C:\Users\Nina\AppData\Local\Temp\cc9LyW5f.s 			page 25


 473:Middlewares/Third_Party/LwIP/src/core/tcp_out.c ****       LWIP_ASSERT("inconsistent oversize vs. space", oversize <= space);
 474:Middlewares/Third_Party/LwIP/src/core/tcp_out.c ****       seg = last_unsent;
 475:Middlewares/Third_Party/LwIP/src/core/tcp_out.c ****       oversize_used = LWIP_MIN(space, LWIP_MIN(oversize, len));
 476:Middlewares/Third_Party/LwIP/src/core/tcp_out.c ****       pos += oversize_used;
 477:Middlewares/Third_Party/LwIP/src/core/tcp_out.c ****       oversize -= oversize_used;
 478:Middlewares/Third_Party/LwIP/src/core/tcp_out.c ****       space -= oversize_used;
 479:Middlewares/Third_Party/LwIP/src/core/tcp_out.c ****     }
 480:Middlewares/Third_Party/LwIP/src/core/tcp_out.c ****     /* now we are either finished or oversize is zero */
 481:Middlewares/Third_Party/LwIP/src/core/tcp_out.c ****     LWIP_ASSERT("inconsistent oversize vs. len", (oversize == 0) || (pos == len));
 482:Middlewares/Third_Party/LwIP/src/core/tcp_out.c **** #endif /* TCP_OVERSIZE */
 483:Middlewares/Third_Party/LwIP/src/core/tcp_out.c **** 
 484:Middlewares/Third_Party/LwIP/src/core/tcp_out.c ****     /*
 485:Middlewares/Third_Party/LwIP/src/core/tcp_out.c ****      * Phase 2: Chain a new pbuf to the end of pcb->unsent.
 486:Middlewares/Third_Party/LwIP/src/core/tcp_out.c ****      *
 487:Middlewares/Third_Party/LwIP/src/core/tcp_out.c ****      * As an exception when NOT copying the data, if the given data buffer
 488:Middlewares/Third_Party/LwIP/src/core/tcp_out.c ****      * directly follows the last unsent data buffer in memory, extend the last
 489:Middlewares/Third_Party/LwIP/src/core/tcp_out.c ****      * ROM pbuf reference to the buffer, thus saving a ROM pbuf allocation.
 490:Middlewares/Third_Party/LwIP/src/core/tcp_out.c ****      *
 491:Middlewares/Third_Party/LwIP/src/core/tcp_out.c ****      * We don't extend segments containing SYN/FIN flags or options
 492:Middlewares/Third_Party/LwIP/src/core/tcp_out.c ****      * (len==0). The new pbuf is kept in concat_p and pbuf_cat'ed at
 493:Middlewares/Third_Party/LwIP/src/core/tcp_out.c ****      * the end.
 494:Middlewares/Third_Party/LwIP/src/core/tcp_out.c ****      */
 495:Middlewares/Third_Party/LwIP/src/core/tcp_out.c ****     if ((pos < len) && (space > 0) && (last_unsent->len > 0)) {
 496:Middlewares/Third_Party/LwIP/src/core/tcp_out.c ****       u16_t seglen = LWIP_MIN(space, len - pos);
 497:Middlewares/Third_Party/LwIP/src/core/tcp_out.c ****       seg = last_unsent;
 498:Middlewares/Third_Party/LwIP/src/core/tcp_out.c **** 
 499:Middlewares/Third_Party/LwIP/src/core/tcp_out.c ****       /* Create a pbuf with a copy or reference to seglen bytes. We
 500:Middlewares/Third_Party/LwIP/src/core/tcp_out.c ****        * can use PBUF_RAW here since the data appears in the middle of
 501:Middlewares/Third_Party/LwIP/src/core/tcp_out.c ****        * a segment. A header will never be prepended. */
 502:Middlewares/Third_Party/LwIP/src/core/tcp_out.c ****       if (apiflags & TCP_WRITE_FLAG_COPY) {
 503:Middlewares/Third_Party/LwIP/src/core/tcp_out.c ****         /* Data is copied */
 504:Middlewares/Third_Party/LwIP/src/core/tcp_out.c ****         if ((concat_p = tcp_pbuf_prealloc(PBUF_RAW, seglen, space, &oversize, pcb, apiflags, 1)) ==
 505:Middlewares/Third_Party/LwIP/src/core/tcp_out.c ****           LWIP_DEBUGF(TCP_OUTPUT_DEBUG | LWIP_DBG_LEVEL_SERIOUS,
 506:Middlewares/Third_Party/LwIP/src/core/tcp_out.c ****                       ("tcp_write : could not allocate memory for pbuf copy size %"U16_F"\n",
 507:Middlewares/Third_Party/LwIP/src/core/tcp_out.c ****                        seglen));
 508:Middlewares/Third_Party/LwIP/src/core/tcp_out.c ****           goto memerr;
 509:Middlewares/Third_Party/LwIP/src/core/tcp_out.c ****         }
 510:Middlewares/Third_Party/LwIP/src/core/tcp_out.c **** #if TCP_OVERSIZE_DBGCHECK
 511:Middlewares/Third_Party/LwIP/src/core/tcp_out.c ****         oversize_add = oversize;
 512:Middlewares/Third_Party/LwIP/src/core/tcp_out.c **** #endif /* TCP_OVERSIZE_DBGCHECK */
 513:Middlewares/Third_Party/LwIP/src/core/tcp_out.c ****         TCP_DATA_COPY2(concat_p->payload, (const u8_t*)arg + pos, seglen, &concat_chksum, &concat_c
 514:Middlewares/Third_Party/LwIP/src/core/tcp_out.c **** #if TCP_CHECKSUM_ON_COPY
 515:Middlewares/Third_Party/LwIP/src/core/tcp_out.c ****         concat_chksummed += seglen;
 516:Middlewares/Third_Party/LwIP/src/core/tcp_out.c **** #endif /* TCP_CHECKSUM_ON_COPY */
 517:Middlewares/Third_Party/LwIP/src/core/tcp_out.c ****         queuelen += pbuf_clen(concat_p);
 518:Middlewares/Third_Party/LwIP/src/core/tcp_out.c ****       } else {
 519:Middlewares/Third_Party/LwIP/src/core/tcp_out.c ****         /* Data is not copied */
 520:Middlewares/Third_Party/LwIP/src/core/tcp_out.c ****         /* If the last unsent pbuf is of type PBUF_ROM, try to extend it. */
 521:Middlewares/Third_Party/LwIP/src/core/tcp_out.c ****         struct pbuf *p;
 522:Middlewares/Third_Party/LwIP/src/core/tcp_out.c ****         for (p = last_unsent->p; p->next != NULL; p = p->next);
 523:Middlewares/Third_Party/LwIP/src/core/tcp_out.c ****         if (p->type == PBUF_ROM && (const u8_t *)p->payload + p->len == (const u8_t *)arg) {
 524:Middlewares/Third_Party/LwIP/src/core/tcp_out.c ****           LWIP_ASSERT("tcp_write: ROM pbufs cannot be oversized", pos == 0);
 525:Middlewares/Third_Party/LwIP/src/core/tcp_out.c ****           extendlen = seglen;
 526:Middlewares/Third_Party/LwIP/src/core/tcp_out.c ****         } else {
 527:Middlewares/Third_Party/LwIP/src/core/tcp_out.c ****           if ((concat_p = pbuf_alloc(PBUF_RAW, seglen, PBUF_ROM)) == NULL) {
 528:Middlewares/Third_Party/LwIP/src/core/tcp_out.c ****             LWIP_DEBUGF(TCP_OUTPUT_DEBUG | LWIP_DBG_LEVEL_SERIOUS,
 529:Middlewares/Third_Party/LwIP/src/core/tcp_out.c ****                         ("tcp_write: could not allocate memory for zero-copy pbuf\n"));
ARM GAS  C:\Users\Nina\AppData\Local\Temp\cc9LyW5f.s 			page 26


 530:Middlewares/Third_Party/LwIP/src/core/tcp_out.c ****             goto memerr;
 531:Middlewares/Third_Party/LwIP/src/core/tcp_out.c ****           }
 532:Middlewares/Third_Party/LwIP/src/core/tcp_out.c ****           /* reference the non-volatile payload data */
 533:Middlewares/Third_Party/LwIP/src/core/tcp_out.c ****           ((struct pbuf_rom*)concat_p)->payload = (const u8_t*)arg + pos;
 534:Middlewares/Third_Party/LwIP/src/core/tcp_out.c ****           queuelen += pbuf_clen(concat_p);
 535:Middlewares/Third_Party/LwIP/src/core/tcp_out.c ****         }
 536:Middlewares/Third_Party/LwIP/src/core/tcp_out.c **** #if TCP_CHECKSUM_ON_COPY
 537:Middlewares/Third_Party/LwIP/src/core/tcp_out.c ****         /* calculate the checksum of nocopy-data */
 538:Middlewares/Third_Party/LwIP/src/core/tcp_out.c ****         tcp_seg_add_chksum(~inet_chksum((const u8_t*)arg + pos, seglen), seglen,
 539:Middlewares/Third_Party/LwIP/src/core/tcp_out.c ****           &concat_chksum, &concat_chksum_swapped);
 540:Middlewares/Third_Party/LwIP/src/core/tcp_out.c ****         concat_chksummed += seglen;
 541:Middlewares/Third_Party/LwIP/src/core/tcp_out.c **** #endif /* TCP_CHECKSUM_ON_COPY */
 542:Middlewares/Third_Party/LwIP/src/core/tcp_out.c ****       }
 543:Middlewares/Third_Party/LwIP/src/core/tcp_out.c **** 
 544:Middlewares/Third_Party/LwIP/src/core/tcp_out.c ****       pos += seglen;
 545:Middlewares/Third_Party/LwIP/src/core/tcp_out.c ****     }
 546:Middlewares/Third_Party/LwIP/src/core/tcp_out.c ****   } else {
 547:Middlewares/Third_Party/LwIP/src/core/tcp_out.c **** #if TCP_OVERSIZE
 548:Middlewares/Third_Party/LwIP/src/core/tcp_out.c ****     LWIP_ASSERT("unsent_oversize mismatch (pcb->unsent is NULL)",
 549:Middlewares/Third_Party/LwIP/src/core/tcp_out.c ****                 pcb->unsent_oversize == 0);
 550:Middlewares/Third_Party/LwIP/src/core/tcp_out.c **** #endif /* TCP_OVERSIZE */
 551:Middlewares/Third_Party/LwIP/src/core/tcp_out.c ****   }
 552:Middlewares/Third_Party/LwIP/src/core/tcp_out.c **** 
 553:Middlewares/Third_Party/LwIP/src/core/tcp_out.c ****   /*
 554:Middlewares/Third_Party/LwIP/src/core/tcp_out.c ****    * Phase 3: Create new segments.
 555:Middlewares/Third_Party/LwIP/src/core/tcp_out.c ****    *
 556:Middlewares/Third_Party/LwIP/src/core/tcp_out.c ****    * The new segments are chained together in the local 'queue'
 557:Middlewares/Third_Party/LwIP/src/core/tcp_out.c ****    * variable, ready to be appended to pcb->unsent.
 558:Middlewares/Third_Party/LwIP/src/core/tcp_out.c ****    */
 559:Middlewares/Third_Party/LwIP/src/core/tcp_out.c ****   while (pos < len) {
 560:Middlewares/Third_Party/LwIP/src/core/tcp_out.c ****     struct pbuf *p;
 561:Middlewares/Third_Party/LwIP/src/core/tcp_out.c ****     u16_t left = len - pos;
 562:Middlewares/Third_Party/LwIP/src/core/tcp_out.c ****     u16_t max_len = mss_local - optlen;
 563:Middlewares/Third_Party/LwIP/src/core/tcp_out.c ****     u16_t seglen = LWIP_MIN(left, max_len);
 564:Middlewares/Third_Party/LwIP/src/core/tcp_out.c **** #if TCP_CHECKSUM_ON_COPY
 565:Middlewares/Third_Party/LwIP/src/core/tcp_out.c ****     u16_t chksum = 0;
 566:Middlewares/Third_Party/LwIP/src/core/tcp_out.c ****     u8_t chksum_swapped = 0;
 567:Middlewares/Third_Party/LwIP/src/core/tcp_out.c **** #endif /* TCP_CHECKSUM_ON_COPY */
 568:Middlewares/Third_Party/LwIP/src/core/tcp_out.c **** 
 569:Middlewares/Third_Party/LwIP/src/core/tcp_out.c ****     if (apiflags & TCP_WRITE_FLAG_COPY) {
 570:Middlewares/Third_Party/LwIP/src/core/tcp_out.c ****       /* If copy is set, memory should be allocated and data copied
 571:Middlewares/Third_Party/LwIP/src/core/tcp_out.c ****        * into pbuf */
 572:Middlewares/Third_Party/LwIP/src/core/tcp_out.c ****       if ((p = tcp_pbuf_prealloc(PBUF_TRANSPORT, seglen + optlen, mss_local, &oversize, pcb, apifla
 573:Middlewares/Third_Party/LwIP/src/core/tcp_out.c ****         LWIP_DEBUGF(TCP_OUTPUT_DEBUG | LWIP_DBG_LEVEL_SERIOUS, ("tcp_write : could not allocate mem
 574:Middlewares/Third_Party/LwIP/src/core/tcp_out.c ****         goto memerr;
 575:Middlewares/Third_Party/LwIP/src/core/tcp_out.c ****       }
 576:Middlewares/Third_Party/LwIP/src/core/tcp_out.c ****       LWIP_ASSERT("tcp_write: check that first pbuf can hold the complete seglen",
 577:Middlewares/Third_Party/LwIP/src/core/tcp_out.c ****                   (p->len >= seglen));
 578:Middlewares/Third_Party/LwIP/src/core/tcp_out.c ****       TCP_DATA_COPY2((char *)p->payload + optlen, (const u8_t*)arg + pos, seglen, &chksum, &chksum_
 579:Middlewares/Third_Party/LwIP/src/core/tcp_out.c ****     } else {
 580:Middlewares/Third_Party/LwIP/src/core/tcp_out.c ****       /* Copy is not set: First allocate a pbuf for holding the data.
 581:Middlewares/Third_Party/LwIP/src/core/tcp_out.c ****        * Since the referenced data is available at least until it is
 582:Middlewares/Third_Party/LwIP/src/core/tcp_out.c ****        * sent out on the link (as it has to be ACKed by the remote
 583:Middlewares/Third_Party/LwIP/src/core/tcp_out.c ****        * party) we can safely use PBUF_ROM instead of PBUF_REF here.
 584:Middlewares/Third_Party/LwIP/src/core/tcp_out.c ****        */
 585:Middlewares/Third_Party/LwIP/src/core/tcp_out.c ****       struct pbuf *p2;
 586:Middlewares/Third_Party/LwIP/src/core/tcp_out.c **** #if TCP_OVERSIZE
ARM GAS  C:\Users\Nina\AppData\Local\Temp\cc9LyW5f.s 			page 27


 587:Middlewares/Third_Party/LwIP/src/core/tcp_out.c ****       LWIP_ASSERT("oversize == 0", oversize == 0);
 588:Middlewares/Third_Party/LwIP/src/core/tcp_out.c **** #endif /* TCP_OVERSIZE */
 589:Middlewares/Third_Party/LwIP/src/core/tcp_out.c ****       if ((p2 = pbuf_alloc(PBUF_TRANSPORT, seglen, PBUF_ROM)) == NULL) {
 590:Middlewares/Third_Party/LwIP/src/core/tcp_out.c ****         LWIP_DEBUGF(TCP_OUTPUT_DEBUG | LWIP_DBG_LEVEL_SERIOUS, ("tcp_write: could not allocate memo
 591:Middlewares/Third_Party/LwIP/src/core/tcp_out.c ****         goto memerr;
 592:Middlewares/Third_Party/LwIP/src/core/tcp_out.c ****       }
 593:Middlewares/Third_Party/LwIP/src/core/tcp_out.c **** #if TCP_CHECKSUM_ON_COPY
 594:Middlewares/Third_Party/LwIP/src/core/tcp_out.c ****       /* calculate the checksum of nocopy-data */
 595:Middlewares/Third_Party/LwIP/src/core/tcp_out.c ****       chksum = ~inet_chksum((const u8_t*)arg + pos, seglen);
 596:Middlewares/Third_Party/LwIP/src/core/tcp_out.c ****       if (seglen & 1) {
 597:Middlewares/Third_Party/LwIP/src/core/tcp_out.c ****         chksum_swapped = 1;
 598:Middlewares/Third_Party/LwIP/src/core/tcp_out.c ****         chksum = SWAP_BYTES_IN_WORD(chksum);
 599:Middlewares/Third_Party/LwIP/src/core/tcp_out.c ****       }
 600:Middlewares/Third_Party/LwIP/src/core/tcp_out.c **** #endif /* TCP_CHECKSUM_ON_COPY */
 601:Middlewares/Third_Party/LwIP/src/core/tcp_out.c ****       /* reference the non-volatile payload data */
 602:Middlewares/Third_Party/LwIP/src/core/tcp_out.c ****       ((struct pbuf_rom*)p2)->payload = (const u8_t*)arg + pos;
 603:Middlewares/Third_Party/LwIP/src/core/tcp_out.c **** 
 604:Middlewares/Third_Party/LwIP/src/core/tcp_out.c ****       /* Second, allocate a pbuf for the headers. */
 605:Middlewares/Third_Party/LwIP/src/core/tcp_out.c ****       if ((p = pbuf_alloc(PBUF_TRANSPORT, optlen, PBUF_RAM)) == NULL) {
 606:Middlewares/Third_Party/LwIP/src/core/tcp_out.c ****         /* If allocation fails, we have to deallocate the data pbuf as
 607:Middlewares/Third_Party/LwIP/src/core/tcp_out.c ****          * well. */
 608:Middlewares/Third_Party/LwIP/src/core/tcp_out.c ****         pbuf_free(p2);
 609:Middlewares/Third_Party/LwIP/src/core/tcp_out.c ****         LWIP_DEBUGF(TCP_OUTPUT_DEBUG | LWIP_DBG_LEVEL_SERIOUS, ("tcp_write: could not allocate memo
 610:Middlewares/Third_Party/LwIP/src/core/tcp_out.c ****         goto memerr;
 611:Middlewares/Third_Party/LwIP/src/core/tcp_out.c ****       }
 612:Middlewares/Third_Party/LwIP/src/core/tcp_out.c ****       /* Concatenate the headers and data pbufs together. */
 613:Middlewares/Third_Party/LwIP/src/core/tcp_out.c ****       pbuf_cat(p/*header*/, p2/*data*/);
 614:Middlewares/Third_Party/LwIP/src/core/tcp_out.c ****     }
 615:Middlewares/Third_Party/LwIP/src/core/tcp_out.c **** 
 616:Middlewares/Third_Party/LwIP/src/core/tcp_out.c ****     queuelen += pbuf_clen(p);
 617:Middlewares/Third_Party/LwIP/src/core/tcp_out.c **** 
 618:Middlewares/Third_Party/LwIP/src/core/tcp_out.c ****     /* Now that there are more segments queued, we check again if the
 619:Middlewares/Third_Party/LwIP/src/core/tcp_out.c ****      * length of the queue exceeds the configured maximum or
 620:Middlewares/Third_Party/LwIP/src/core/tcp_out.c ****      * overflows. */
 621:Middlewares/Third_Party/LwIP/src/core/tcp_out.c ****     if ((queuelen > TCP_SND_QUEUELEN) || (queuelen > TCP_SNDQUEUELEN_OVERFLOW)) {
 622:Middlewares/Third_Party/LwIP/src/core/tcp_out.c ****       LWIP_DEBUGF(TCP_OUTPUT_DEBUG | LWIP_DBG_LEVEL_SERIOUS, ("tcp_write: queue too long %"U16_F" (
 623:Middlewares/Third_Party/LwIP/src/core/tcp_out.c ****         queuelen, (int)TCP_SND_QUEUELEN));
 624:Middlewares/Third_Party/LwIP/src/core/tcp_out.c ****       pbuf_free(p);
 625:Middlewares/Third_Party/LwIP/src/core/tcp_out.c ****       goto memerr;
 626:Middlewares/Third_Party/LwIP/src/core/tcp_out.c ****     }
 627:Middlewares/Third_Party/LwIP/src/core/tcp_out.c **** 
 628:Middlewares/Third_Party/LwIP/src/core/tcp_out.c ****     if ((seg = tcp_create_segment(pcb, p, 0, pcb->snd_lbb + pos, optflags)) == NULL) {
 629:Middlewares/Third_Party/LwIP/src/core/tcp_out.c ****       goto memerr;
 630:Middlewares/Third_Party/LwIP/src/core/tcp_out.c ****     }
 631:Middlewares/Third_Party/LwIP/src/core/tcp_out.c **** #if TCP_OVERSIZE_DBGCHECK
 632:Middlewares/Third_Party/LwIP/src/core/tcp_out.c ****     seg->oversize_left = oversize;
 633:Middlewares/Third_Party/LwIP/src/core/tcp_out.c **** #endif /* TCP_OVERSIZE_DBGCHECK */
 634:Middlewares/Third_Party/LwIP/src/core/tcp_out.c **** #if TCP_CHECKSUM_ON_COPY
 635:Middlewares/Third_Party/LwIP/src/core/tcp_out.c ****     seg->chksum = chksum;
 636:Middlewares/Third_Party/LwIP/src/core/tcp_out.c ****     seg->chksum_swapped = chksum_swapped;
 637:Middlewares/Third_Party/LwIP/src/core/tcp_out.c ****     seg->flags |= TF_SEG_DATA_CHECKSUMMED;
 638:Middlewares/Third_Party/LwIP/src/core/tcp_out.c **** #endif /* TCP_CHECKSUM_ON_COPY */
 639:Middlewares/Third_Party/LwIP/src/core/tcp_out.c **** 
 640:Middlewares/Third_Party/LwIP/src/core/tcp_out.c ****     /* first segment of to-be-queued data? */
 641:Middlewares/Third_Party/LwIP/src/core/tcp_out.c ****     if (queue == NULL) {
 642:Middlewares/Third_Party/LwIP/src/core/tcp_out.c ****       queue = seg;
 643:Middlewares/Third_Party/LwIP/src/core/tcp_out.c ****     } else {
ARM GAS  C:\Users\Nina\AppData\Local\Temp\cc9LyW5f.s 			page 28


 644:Middlewares/Third_Party/LwIP/src/core/tcp_out.c ****       /* Attach the segment to the end of the queued segments */
 645:Middlewares/Third_Party/LwIP/src/core/tcp_out.c ****       LWIP_ASSERT("prev_seg != NULL", prev_seg != NULL);
 646:Middlewares/Third_Party/LwIP/src/core/tcp_out.c ****       prev_seg->next = seg;
 647:Middlewares/Third_Party/LwIP/src/core/tcp_out.c ****     }
 648:Middlewares/Third_Party/LwIP/src/core/tcp_out.c ****     /* remember last segment of to-be-queued data for next iteration */
 649:Middlewares/Third_Party/LwIP/src/core/tcp_out.c ****     prev_seg = seg;
 650:Middlewares/Third_Party/LwIP/src/core/tcp_out.c **** 
 651:Middlewares/Third_Party/LwIP/src/core/tcp_out.c ****     LWIP_DEBUGF(TCP_OUTPUT_DEBUG | LWIP_DBG_TRACE, ("tcp_write: queueing %"U32_F":%"U32_F"\n",
 652:Middlewares/Third_Party/LwIP/src/core/tcp_out.c ****       lwip_ntohl(seg->tcphdr->seqno),
 653:Middlewares/Third_Party/LwIP/src/core/tcp_out.c ****       lwip_ntohl(seg->tcphdr->seqno) + TCP_TCPLEN(seg)));
 654:Middlewares/Third_Party/LwIP/src/core/tcp_out.c **** 
 655:Middlewares/Third_Party/LwIP/src/core/tcp_out.c ****     pos += seglen;
 656:Middlewares/Third_Party/LwIP/src/core/tcp_out.c ****   }
 657:Middlewares/Third_Party/LwIP/src/core/tcp_out.c **** 
 658:Middlewares/Third_Party/LwIP/src/core/tcp_out.c ****   /*
 659:Middlewares/Third_Party/LwIP/src/core/tcp_out.c ****    * All three segmentation phases were successful. We can commit the
 660:Middlewares/Third_Party/LwIP/src/core/tcp_out.c ****    * transaction.
 661:Middlewares/Third_Party/LwIP/src/core/tcp_out.c ****    */
 662:Middlewares/Third_Party/LwIP/src/core/tcp_out.c **** #if TCP_OVERSIZE_DBGCHECK
 663:Middlewares/Third_Party/LwIP/src/core/tcp_out.c ****   if ((last_unsent != NULL) && (oversize_add != 0)) {
 664:Middlewares/Third_Party/LwIP/src/core/tcp_out.c ****     last_unsent->oversize_left += oversize_add;
 665:Middlewares/Third_Party/LwIP/src/core/tcp_out.c ****   }
 666:Middlewares/Third_Party/LwIP/src/core/tcp_out.c **** #endif /* TCP_OVERSIZE_DBGCHECK */
 667:Middlewares/Third_Party/LwIP/src/core/tcp_out.c **** 
 668:Middlewares/Third_Party/LwIP/src/core/tcp_out.c ****   /*
 669:Middlewares/Third_Party/LwIP/src/core/tcp_out.c ****    * Phase 1: If data has been added to the preallocated tail of
 670:Middlewares/Third_Party/LwIP/src/core/tcp_out.c ****    * last_unsent, we update the length fields of the pbuf chain.
 671:Middlewares/Third_Party/LwIP/src/core/tcp_out.c ****    */
 672:Middlewares/Third_Party/LwIP/src/core/tcp_out.c **** #if TCP_OVERSIZE
 673:Middlewares/Third_Party/LwIP/src/core/tcp_out.c ****   if (oversize_used > 0) {
 674:Middlewares/Third_Party/LwIP/src/core/tcp_out.c ****     struct pbuf *p;
 675:Middlewares/Third_Party/LwIP/src/core/tcp_out.c ****     /* Bump tot_len of whole chain, len of tail */
 676:Middlewares/Third_Party/LwIP/src/core/tcp_out.c ****     for (p = last_unsent->p; p; p = p->next) {
 677:Middlewares/Third_Party/LwIP/src/core/tcp_out.c ****       p->tot_len += oversize_used;
 678:Middlewares/Third_Party/LwIP/src/core/tcp_out.c ****       if (p->next == NULL) {
 679:Middlewares/Third_Party/LwIP/src/core/tcp_out.c ****         TCP_DATA_COPY((char *)p->payload + p->len, arg, oversize_used, last_unsent);
 680:Middlewares/Third_Party/LwIP/src/core/tcp_out.c ****         p->len += oversize_used;
 681:Middlewares/Third_Party/LwIP/src/core/tcp_out.c ****       }
 682:Middlewares/Third_Party/LwIP/src/core/tcp_out.c ****     }
 683:Middlewares/Third_Party/LwIP/src/core/tcp_out.c ****     last_unsent->len += oversize_used;
 684:Middlewares/Third_Party/LwIP/src/core/tcp_out.c **** #if TCP_OVERSIZE_DBGCHECK
 685:Middlewares/Third_Party/LwIP/src/core/tcp_out.c ****     LWIP_ASSERT("last_unsent->oversize_left >= oversize_used",
 686:Middlewares/Third_Party/LwIP/src/core/tcp_out.c ****                 last_unsent->oversize_left >= oversize_used);
 687:Middlewares/Third_Party/LwIP/src/core/tcp_out.c ****     last_unsent->oversize_left -= oversize_used;
 688:Middlewares/Third_Party/LwIP/src/core/tcp_out.c **** #endif /* TCP_OVERSIZE_DBGCHECK */
 689:Middlewares/Third_Party/LwIP/src/core/tcp_out.c ****   }
 690:Middlewares/Third_Party/LwIP/src/core/tcp_out.c ****   pcb->unsent_oversize = oversize;
 691:Middlewares/Third_Party/LwIP/src/core/tcp_out.c **** #endif /* TCP_OVERSIZE */
 692:Middlewares/Third_Party/LwIP/src/core/tcp_out.c **** 
 693:Middlewares/Third_Party/LwIP/src/core/tcp_out.c ****   /*
 694:Middlewares/Third_Party/LwIP/src/core/tcp_out.c ****    * Phase 2: concat_p can be concatenated onto last_unsent->p, unless we
 695:Middlewares/Third_Party/LwIP/src/core/tcp_out.c ****    * determined that the last ROM pbuf can be extended to include the new data.
 696:Middlewares/Third_Party/LwIP/src/core/tcp_out.c ****    */
 697:Middlewares/Third_Party/LwIP/src/core/tcp_out.c ****   if (concat_p != NULL) {
 698:Middlewares/Third_Party/LwIP/src/core/tcp_out.c ****     LWIP_ASSERT("tcp_write: cannot concatenate when pcb->unsent is empty",
 699:Middlewares/Third_Party/LwIP/src/core/tcp_out.c ****       (last_unsent != NULL));
 700:Middlewares/Third_Party/LwIP/src/core/tcp_out.c ****     pbuf_cat(last_unsent->p, concat_p);
ARM GAS  C:\Users\Nina\AppData\Local\Temp\cc9LyW5f.s 			page 29


 701:Middlewares/Third_Party/LwIP/src/core/tcp_out.c ****     last_unsent->len += concat_p->tot_len;
 702:Middlewares/Third_Party/LwIP/src/core/tcp_out.c ****   } else if (extendlen > 0) {
 703:Middlewares/Third_Party/LwIP/src/core/tcp_out.c ****     struct pbuf *p;
 704:Middlewares/Third_Party/LwIP/src/core/tcp_out.c ****     LWIP_ASSERT("tcp_write: extension of reference requires reference",
 705:Middlewares/Third_Party/LwIP/src/core/tcp_out.c ****       last_unsent != NULL && last_unsent->p != NULL);
 706:Middlewares/Third_Party/LwIP/src/core/tcp_out.c ****     for (p = last_unsent->p; p->next != NULL; p = p->next) {
 707:Middlewares/Third_Party/LwIP/src/core/tcp_out.c ****       p->tot_len += extendlen;
 708:Middlewares/Third_Party/LwIP/src/core/tcp_out.c ****     }
 709:Middlewares/Third_Party/LwIP/src/core/tcp_out.c ****     p->tot_len += extendlen;
 710:Middlewares/Third_Party/LwIP/src/core/tcp_out.c ****     p->len += extendlen;
 711:Middlewares/Third_Party/LwIP/src/core/tcp_out.c ****     last_unsent->len += extendlen;
 712:Middlewares/Third_Party/LwIP/src/core/tcp_out.c ****   }
 713:Middlewares/Third_Party/LwIP/src/core/tcp_out.c **** 
 714:Middlewares/Third_Party/LwIP/src/core/tcp_out.c **** #if TCP_CHECKSUM_ON_COPY
 715:Middlewares/Third_Party/LwIP/src/core/tcp_out.c ****   if (concat_chksummed) {
 716:Middlewares/Third_Party/LwIP/src/core/tcp_out.c ****     LWIP_ASSERT("tcp_write: concat checksum needs concatenated data",
 717:Middlewares/Third_Party/LwIP/src/core/tcp_out.c ****         concat_p != NULL || extendlen > 0);
 718:Middlewares/Third_Party/LwIP/src/core/tcp_out.c ****     /*if concat checksumm swapped - swap it back */
 719:Middlewares/Third_Party/LwIP/src/core/tcp_out.c ****     if (concat_chksum_swapped) {
 720:Middlewares/Third_Party/LwIP/src/core/tcp_out.c ****       concat_chksum = SWAP_BYTES_IN_WORD(concat_chksum);
 721:Middlewares/Third_Party/LwIP/src/core/tcp_out.c ****     }
 722:Middlewares/Third_Party/LwIP/src/core/tcp_out.c ****     tcp_seg_add_chksum(concat_chksum, concat_chksummed, &last_unsent->chksum,
 723:Middlewares/Third_Party/LwIP/src/core/tcp_out.c ****       &last_unsent->chksum_swapped);
 724:Middlewares/Third_Party/LwIP/src/core/tcp_out.c ****     last_unsent->flags |= TF_SEG_DATA_CHECKSUMMED;
 725:Middlewares/Third_Party/LwIP/src/core/tcp_out.c ****   }
 726:Middlewares/Third_Party/LwIP/src/core/tcp_out.c **** #endif /* TCP_CHECKSUM_ON_COPY */
 727:Middlewares/Third_Party/LwIP/src/core/tcp_out.c **** 
 728:Middlewares/Third_Party/LwIP/src/core/tcp_out.c ****   /*
 729:Middlewares/Third_Party/LwIP/src/core/tcp_out.c ****    * Phase 3: Append queue to pcb->unsent. Queue may be NULL, but that
 730:Middlewares/Third_Party/LwIP/src/core/tcp_out.c ****    * is harmless
 731:Middlewares/Third_Party/LwIP/src/core/tcp_out.c ****    */
 732:Middlewares/Third_Party/LwIP/src/core/tcp_out.c ****   if (last_unsent == NULL) {
 733:Middlewares/Third_Party/LwIP/src/core/tcp_out.c ****     pcb->unsent = queue;
 734:Middlewares/Third_Party/LwIP/src/core/tcp_out.c ****   } else {
 735:Middlewares/Third_Party/LwIP/src/core/tcp_out.c ****     last_unsent->next = queue;
 736:Middlewares/Third_Party/LwIP/src/core/tcp_out.c ****   }
 737:Middlewares/Third_Party/LwIP/src/core/tcp_out.c **** 
 738:Middlewares/Third_Party/LwIP/src/core/tcp_out.c ****   /*
 739:Middlewares/Third_Party/LwIP/src/core/tcp_out.c ****    * Finally update the pcb state.
 740:Middlewares/Third_Party/LwIP/src/core/tcp_out.c ****    */
 741:Middlewares/Third_Party/LwIP/src/core/tcp_out.c ****   pcb->snd_lbb += len;
 742:Middlewares/Third_Party/LwIP/src/core/tcp_out.c ****   pcb->snd_buf -= len;
 743:Middlewares/Third_Party/LwIP/src/core/tcp_out.c ****   pcb->snd_queuelen = queuelen;
 744:Middlewares/Third_Party/LwIP/src/core/tcp_out.c **** 
 745:Middlewares/Third_Party/LwIP/src/core/tcp_out.c ****   LWIP_DEBUGF(TCP_QLEN_DEBUG, ("tcp_write: %"S16_F" (after enqueued)\n",
 746:Middlewares/Third_Party/LwIP/src/core/tcp_out.c ****     pcb->snd_queuelen));
 747:Middlewares/Third_Party/LwIP/src/core/tcp_out.c ****   if (pcb->snd_queuelen != 0) {
 748:Middlewares/Third_Party/LwIP/src/core/tcp_out.c ****     LWIP_ASSERT("tcp_write: valid queue length",
 749:Middlewares/Third_Party/LwIP/src/core/tcp_out.c ****                 pcb->unacked != NULL || pcb->unsent != NULL);
 750:Middlewares/Third_Party/LwIP/src/core/tcp_out.c ****   }
 751:Middlewares/Third_Party/LwIP/src/core/tcp_out.c **** 
 752:Middlewares/Third_Party/LwIP/src/core/tcp_out.c ****   /* Set the PSH flag in the last segment that we enqueued. */
 753:Middlewares/Third_Party/LwIP/src/core/tcp_out.c ****   if (seg != NULL && seg->tcphdr != NULL && ((apiflags & TCP_WRITE_FLAG_MORE)==0)) {
 754:Middlewares/Third_Party/LwIP/src/core/tcp_out.c ****     TCPH_SET_FLAG(seg->tcphdr, TCP_PSH);
 755:Middlewares/Third_Party/LwIP/src/core/tcp_out.c ****   }
 756:Middlewares/Third_Party/LwIP/src/core/tcp_out.c **** 
 757:Middlewares/Third_Party/LwIP/src/core/tcp_out.c ****   return ERR_OK;
ARM GAS  C:\Users\Nina\AppData\Local\Temp\cc9LyW5f.s 			page 30


 758:Middlewares/Third_Party/LwIP/src/core/tcp_out.c **** memerr:
 759:Middlewares/Third_Party/LwIP/src/core/tcp_out.c ****   pcb->flags |= TF_NAGLEMEMERR;
 760:Middlewares/Third_Party/LwIP/src/core/tcp_out.c ****   TCP_STATS_INC(tcp.memerr);
 761:Middlewares/Third_Party/LwIP/src/core/tcp_out.c **** 
 762:Middlewares/Third_Party/LwIP/src/core/tcp_out.c ****   if (concat_p != NULL) {
 763:Middlewares/Third_Party/LwIP/src/core/tcp_out.c ****     pbuf_free(concat_p);
 764:Middlewares/Third_Party/LwIP/src/core/tcp_out.c ****   }
 765:Middlewares/Third_Party/LwIP/src/core/tcp_out.c ****   if (queue != NULL) {
 766:Middlewares/Third_Party/LwIP/src/core/tcp_out.c ****     tcp_segs_free(queue);
 767:Middlewares/Third_Party/LwIP/src/core/tcp_out.c ****   }
 768:Middlewares/Third_Party/LwIP/src/core/tcp_out.c ****   if (pcb->snd_queuelen != 0) {
 769:Middlewares/Third_Party/LwIP/src/core/tcp_out.c ****     LWIP_ASSERT("tcp_write: valid queue length", pcb->unacked != NULL ||
 770:Middlewares/Third_Party/LwIP/src/core/tcp_out.c ****       pcb->unsent != NULL);
 771:Middlewares/Third_Party/LwIP/src/core/tcp_out.c ****   }
 772:Middlewares/Third_Party/LwIP/src/core/tcp_out.c ****   LWIP_DEBUGF(TCP_QLEN_DEBUG | LWIP_DBG_STATE, ("tcp_write: %"S16_F" (with mem err)\n", pcb->snd_qu
 773:Middlewares/Third_Party/LwIP/src/core/tcp_out.c ****   return ERR_MEM;
 774:Middlewares/Third_Party/LwIP/src/core/tcp_out.c **** }
 775:Middlewares/Third_Party/LwIP/src/core/tcp_out.c **** 
 776:Middlewares/Third_Party/LwIP/src/core/tcp_out.c **** /**
 777:Middlewares/Third_Party/LwIP/src/core/tcp_out.c ****  * Enqueue TCP options for transmission.
 778:Middlewares/Third_Party/LwIP/src/core/tcp_out.c ****  *
 779:Middlewares/Third_Party/LwIP/src/core/tcp_out.c ****  * Called by tcp_connect(), tcp_listen_input(), and tcp_send_ctrl().
 780:Middlewares/Third_Party/LwIP/src/core/tcp_out.c ****  *
 781:Middlewares/Third_Party/LwIP/src/core/tcp_out.c ****  * @param pcb Protocol control block for the TCP connection.
 782:Middlewares/Third_Party/LwIP/src/core/tcp_out.c ****  * @param flags TCP header flags to set in the outgoing segment.
 783:Middlewares/Third_Party/LwIP/src/core/tcp_out.c ****  */
 784:Middlewares/Third_Party/LwIP/src/core/tcp_out.c **** err_t
 785:Middlewares/Third_Party/LwIP/src/core/tcp_out.c **** tcp_enqueue_flags(struct tcp_pcb *pcb, u8_t flags)
 786:Middlewares/Third_Party/LwIP/src/core/tcp_out.c **** {
 787:Middlewares/Third_Party/LwIP/src/core/tcp_out.c ****   struct pbuf *p;
 788:Middlewares/Third_Party/LwIP/src/core/tcp_out.c ****   struct tcp_seg *seg;
 789:Middlewares/Third_Party/LwIP/src/core/tcp_out.c ****   u8_t optflags = 0;
 790:Middlewares/Third_Party/LwIP/src/core/tcp_out.c ****   u8_t optlen = 0;
 791:Middlewares/Third_Party/LwIP/src/core/tcp_out.c **** 
 792:Middlewares/Third_Party/LwIP/src/core/tcp_out.c ****   LWIP_DEBUGF(TCP_QLEN_DEBUG, ("tcp_enqueue_flags: queuelen: %"U16_F"\n", (u16_t)pcb->snd_queuelen)
 793:Middlewares/Third_Party/LwIP/src/core/tcp_out.c **** 
 794:Middlewares/Third_Party/LwIP/src/core/tcp_out.c ****   LWIP_ASSERT("tcp_enqueue_flags: need either TCP_SYN or TCP_FIN in flags (programmer violates API)
 795:Middlewares/Third_Party/LwIP/src/core/tcp_out.c ****               (flags & (TCP_SYN | TCP_FIN)) != 0);
 796:Middlewares/Third_Party/LwIP/src/core/tcp_out.c **** 
 797:Middlewares/Third_Party/LwIP/src/core/tcp_out.c ****   /* check for configured max queuelen and possible overflow (FIN flag should always come through!)
 798:Middlewares/Third_Party/LwIP/src/core/tcp_out.c ****   if (((pcb->snd_queuelen >= TCP_SND_QUEUELEN) || (pcb->snd_queuelen > TCP_SNDQUEUELEN_OVERFLOW)) &
 799:Middlewares/Third_Party/LwIP/src/core/tcp_out.c ****       ((flags & TCP_FIN) == 0)) {
 800:Middlewares/Third_Party/LwIP/src/core/tcp_out.c ****     LWIP_DEBUGF(TCP_OUTPUT_DEBUG | LWIP_DBG_LEVEL_SEVERE, ("tcp_enqueue_flags: too long queue %"U16
 801:Middlewares/Third_Party/LwIP/src/core/tcp_out.c ****                                        pcb->snd_queuelen, (u16_t)TCP_SND_QUEUELEN));
 802:Middlewares/Third_Party/LwIP/src/core/tcp_out.c ****     TCP_STATS_INC(tcp.memerr);
 803:Middlewares/Third_Party/LwIP/src/core/tcp_out.c ****     pcb->flags |= TF_NAGLEMEMERR;
 804:Middlewares/Third_Party/LwIP/src/core/tcp_out.c ****     return ERR_MEM;
 805:Middlewares/Third_Party/LwIP/src/core/tcp_out.c ****   }
 806:Middlewares/Third_Party/LwIP/src/core/tcp_out.c **** 
 807:Middlewares/Third_Party/LwIP/src/core/tcp_out.c ****   if (flags & TCP_SYN) {
 808:Middlewares/Third_Party/LwIP/src/core/tcp_out.c ****     optflags = TF_SEG_OPTS_MSS;
 809:Middlewares/Third_Party/LwIP/src/core/tcp_out.c **** #if LWIP_WND_SCALE
 810:Middlewares/Third_Party/LwIP/src/core/tcp_out.c ****     if ((pcb->state != SYN_RCVD) || (pcb->flags & TF_WND_SCALE)) {
 811:Middlewares/Third_Party/LwIP/src/core/tcp_out.c ****       /* In a <SYN,ACK> (sent in state SYN_RCVD), the window scale option may only
 812:Middlewares/Third_Party/LwIP/src/core/tcp_out.c ****          be sent if we received a window scale option from the remote host. */
 813:Middlewares/Third_Party/LwIP/src/core/tcp_out.c ****       optflags |= TF_SEG_OPTS_WND_SCALE;
 814:Middlewares/Third_Party/LwIP/src/core/tcp_out.c ****     }
ARM GAS  C:\Users\Nina\AppData\Local\Temp\cc9LyW5f.s 			page 31


 815:Middlewares/Third_Party/LwIP/src/core/tcp_out.c **** #endif /* LWIP_WND_SCALE */
 816:Middlewares/Third_Party/LwIP/src/core/tcp_out.c ****   }
 817:Middlewares/Third_Party/LwIP/src/core/tcp_out.c **** #if LWIP_TCP_TIMESTAMPS
 818:Middlewares/Third_Party/LwIP/src/core/tcp_out.c ****   if ((pcb->flags & TF_TIMESTAMP)) {
 819:Middlewares/Third_Party/LwIP/src/core/tcp_out.c ****     /* Make sure the timestamp option is only included in data segments if we
 820:Middlewares/Third_Party/LwIP/src/core/tcp_out.c ****        agreed about it with the remote host. */
 821:Middlewares/Third_Party/LwIP/src/core/tcp_out.c ****     optflags |= TF_SEG_OPTS_TS;
 822:Middlewares/Third_Party/LwIP/src/core/tcp_out.c ****   }
 823:Middlewares/Third_Party/LwIP/src/core/tcp_out.c **** #endif /* LWIP_TCP_TIMESTAMPS */
 824:Middlewares/Third_Party/LwIP/src/core/tcp_out.c ****   optlen = LWIP_TCP_OPT_LENGTH(optflags);
 825:Middlewares/Third_Party/LwIP/src/core/tcp_out.c **** 
 826:Middlewares/Third_Party/LwIP/src/core/tcp_out.c ****   /* Allocate pbuf with room for TCP header + options */
 827:Middlewares/Third_Party/LwIP/src/core/tcp_out.c ****   if ((p = pbuf_alloc(PBUF_TRANSPORT, optlen, PBUF_RAM)) == NULL) {
 828:Middlewares/Third_Party/LwIP/src/core/tcp_out.c ****     pcb->flags |= TF_NAGLEMEMERR;
 829:Middlewares/Third_Party/LwIP/src/core/tcp_out.c ****     TCP_STATS_INC(tcp.memerr);
 830:Middlewares/Third_Party/LwIP/src/core/tcp_out.c ****     return ERR_MEM;
 831:Middlewares/Third_Party/LwIP/src/core/tcp_out.c ****   }
 832:Middlewares/Third_Party/LwIP/src/core/tcp_out.c ****   LWIP_ASSERT("tcp_enqueue_flags: check that first pbuf can hold optlen",
 833:Middlewares/Third_Party/LwIP/src/core/tcp_out.c ****               (p->len >= optlen));
 834:Middlewares/Third_Party/LwIP/src/core/tcp_out.c **** 
 835:Middlewares/Third_Party/LwIP/src/core/tcp_out.c ****   /* Allocate memory for tcp_seg, and fill in fields. */
 836:Middlewares/Third_Party/LwIP/src/core/tcp_out.c ****   if ((seg = tcp_create_segment(pcb, p, flags, pcb->snd_lbb, optflags)) == NULL) {
 837:Middlewares/Third_Party/LwIP/src/core/tcp_out.c ****     pcb->flags |= TF_NAGLEMEMERR;
 838:Middlewares/Third_Party/LwIP/src/core/tcp_out.c ****     TCP_STATS_INC(tcp.memerr);
 839:Middlewares/Third_Party/LwIP/src/core/tcp_out.c ****     return ERR_MEM;
 840:Middlewares/Third_Party/LwIP/src/core/tcp_out.c ****   }
 841:Middlewares/Third_Party/LwIP/src/core/tcp_out.c ****   LWIP_ASSERT("seg->tcphdr not aligned", ((mem_ptr_t)seg->tcphdr % LWIP_MIN(MEM_ALIGNMENT, 4)) == 0
 842:Middlewares/Third_Party/LwIP/src/core/tcp_out.c ****   LWIP_ASSERT("tcp_enqueue_flags: invalid segment length", seg->len == 0);
 843:Middlewares/Third_Party/LwIP/src/core/tcp_out.c **** 
 844:Middlewares/Third_Party/LwIP/src/core/tcp_out.c ****   LWIP_DEBUGF(TCP_OUTPUT_DEBUG | LWIP_DBG_TRACE,
 845:Middlewares/Third_Party/LwIP/src/core/tcp_out.c ****               ("tcp_enqueue_flags: queueing %"U32_F":%"U32_F" (0x%"X16_F")\n",
 846:Middlewares/Third_Party/LwIP/src/core/tcp_out.c ****                lwip_ntohl(seg->tcphdr->seqno),
 847:Middlewares/Third_Party/LwIP/src/core/tcp_out.c ****                lwip_ntohl(seg->tcphdr->seqno) + TCP_TCPLEN(seg),
 848:Middlewares/Third_Party/LwIP/src/core/tcp_out.c ****                (u16_t)flags));
 849:Middlewares/Third_Party/LwIP/src/core/tcp_out.c **** 
 850:Middlewares/Third_Party/LwIP/src/core/tcp_out.c ****   /* Now append seg to pcb->unsent queue */
 851:Middlewares/Third_Party/LwIP/src/core/tcp_out.c ****   if (pcb->unsent == NULL) {
 852:Middlewares/Third_Party/LwIP/src/core/tcp_out.c ****     pcb->unsent = seg;
 853:Middlewares/Third_Party/LwIP/src/core/tcp_out.c ****   } else {
 854:Middlewares/Third_Party/LwIP/src/core/tcp_out.c ****     struct tcp_seg *useg;
 855:Middlewares/Third_Party/LwIP/src/core/tcp_out.c ****     for (useg = pcb->unsent; useg->next != NULL; useg = useg->next);
 856:Middlewares/Third_Party/LwIP/src/core/tcp_out.c ****     useg->next = seg;
 857:Middlewares/Third_Party/LwIP/src/core/tcp_out.c ****   }
 858:Middlewares/Third_Party/LwIP/src/core/tcp_out.c **** #if TCP_OVERSIZE
 859:Middlewares/Third_Party/LwIP/src/core/tcp_out.c ****   /* The new unsent tail has no space */
 860:Middlewares/Third_Party/LwIP/src/core/tcp_out.c ****   pcb->unsent_oversize = 0;
 861:Middlewares/Third_Party/LwIP/src/core/tcp_out.c **** #endif /* TCP_OVERSIZE */
 862:Middlewares/Third_Party/LwIP/src/core/tcp_out.c **** 
 863:Middlewares/Third_Party/LwIP/src/core/tcp_out.c ****   /* SYN and FIN bump the sequence number */
 864:Middlewares/Third_Party/LwIP/src/core/tcp_out.c ****   if ((flags & TCP_SYN) || (flags & TCP_FIN)) {
 865:Middlewares/Third_Party/LwIP/src/core/tcp_out.c ****     pcb->snd_lbb++;
 866:Middlewares/Third_Party/LwIP/src/core/tcp_out.c ****     /* optlen does not influence snd_buf */
 867:Middlewares/Third_Party/LwIP/src/core/tcp_out.c ****   }
 868:Middlewares/Third_Party/LwIP/src/core/tcp_out.c ****   if (flags & TCP_FIN) {
 869:Middlewares/Third_Party/LwIP/src/core/tcp_out.c ****     pcb->flags |= TF_FIN;
 870:Middlewares/Third_Party/LwIP/src/core/tcp_out.c ****   }
 871:Middlewares/Third_Party/LwIP/src/core/tcp_out.c **** 
ARM GAS  C:\Users\Nina\AppData\Local\Temp\cc9LyW5f.s 			page 32


 872:Middlewares/Third_Party/LwIP/src/core/tcp_out.c ****   /* update number of segments on the queues */
 873:Middlewares/Third_Party/LwIP/src/core/tcp_out.c ****   pcb->snd_queuelen += pbuf_clen(seg->p);
 874:Middlewares/Third_Party/LwIP/src/core/tcp_out.c ****   LWIP_DEBUGF(TCP_QLEN_DEBUG, ("tcp_enqueue_flags: %"S16_F" (after enqueued)\n", pcb->snd_queuelen)
 875:Middlewares/Third_Party/LwIP/src/core/tcp_out.c ****   if (pcb->snd_queuelen != 0) {
 876:Middlewares/Third_Party/LwIP/src/core/tcp_out.c ****     LWIP_ASSERT("tcp_enqueue_flags: invalid queue length",
 877:Middlewares/Third_Party/LwIP/src/core/tcp_out.c ****       pcb->unacked != NULL || pcb->unsent != NULL);
 878:Middlewares/Third_Party/LwIP/src/core/tcp_out.c ****   }
 879:Middlewares/Third_Party/LwIP/src/core/tcp_out.c **** 
 880:Middlewares/Third_Party/LwIP/src/core/tcp_out.c ****   return ERR_OK;
 881:Middlewares/Third_Party/LwIP/src/core/tcp_out.c **** }
 882:Middlewares/Third_Party/LwIP/src/core/tcp_out.c **** 
 883:Middlewares/Third_Party/LwIP/src/core/tcp_out.c **** #if LWIP_TCP_TIMESTAMPS
 884:Middlewares/Third_Party/LwIP/src/core/tcp_out.c **** /* Build a timestamp option (12 bytes long) at the specified options pointer)
 885:Middlewares/Third_Party/LwIP/src/core/tcp_out.c ****  *
 886:Middlewares/Third_Party/LwIP/src/core/tcp_out.c ****  * @param pcb tcp_pcb
 887:Middlewares/Third_Party/LwIP/src/core/tcp_out.c ****  * @param opts option pointer where to store the timestamp option
 888:Middlewares/Third_Party/LwIP/src/core/tcp_out.c ****  */
 889:Middlewares/Third_Party/LwIP/src/core/tcp_out.c **** static void
 890:Middlewares/Third_Party/LwIP/src/core/tcp_out.c **** tcp_build_timestamp_option(struct tcp_pcb *pcb, u32_t *opts)
 891:Middlewares/Third_Party/LwIP/src/core/tcp_out.c **** {
 892:Middlewares/Third_Party/LwIP/src/core/tcp_out.c ****   /* Pad with two NOP options to make everything nicely aligned */
 893:Middlewares/Third_Party/LwIP/src/core/tcp_out.c ****   opts[0] = PP_HTONL(0x0101080A);
 894:Middlewares/Third_Party/LwIP/src/core/tcp_out.c ****   opts[1] = lwip_htonl(sys_now());
 895:Middlewares/Third_Party/LwIP/src/core/tcp_out.c ****   opts[2] = lwip_htonl(pcb->ts_recent);
 896:Middlewares/Third_Party/LwIP/src/core/tcp_out.c **** }
 897:Middlewares/Third_Party/LwIP/src/core/tcp_out.c **** #endif
 898:Middlewares/Third_Party/LwIP/src/core/tcp_out.c **** 
 899:Middlewares/Third_Party/LwIP/src/core/tcp_out.c **** #if LWIP_WND_SCALE
 900:Middlewares/Third_Party/LwIP/src/core/tcp_out.c **** /** Build a window scale option (3 bytes long) at the specified options pointer)
 901:Middlewares/Third_Party/LwIP/src/core/tcp_out.c ****  *
 902:Middlewares/Third_Party/LwIP/src/core/tcp_out.c ****  * @param opts option pointer where to store the window scale option
 903:Middlewares/Third_Party/LwIP/src/core/tcp_out.c ****  */
 904:Middlewares/Third_Party/LwIP/src/core/tcp_out.c **** static void
 905:Middlewares/Third_Party/LwIP/src/core/tcp_out.c **** tcp_build_wnd_scale_option(u32_t *opts)
 906:Middlewares/Third_Party/LwIP/src/core/tcp_out.c **** {
 907:Middlewares/Third_Party/LwIP/src/core/tcp_out.c ****   /* Pad with one NOP option to make everything nicely aligned */
 908:Middlewares/Third_Party/LwIP/src/core/tcp_out.c ****   opts[0] = PP_HTONL(0x01030300 | TCP_RCV_SCALE);
 909:Middlewares/Third_Party/LwIP/src/core/tcp_out.c **** }
 910:Middlewares/Third_Party/LwIP/src/core/tcp_out.c **** #endif
 911:Middlewares/Third_Party/LwIP/src/core/tcp_out.c **** 
 912:Middlewares/Third_Party/LwIP/src/core/tcp_out.c **** /**
 913:Middlewares/Third_Party/LwIP/src/core/tcp_out.c ****  * Send an ACK without data.
 914:Middlewares/Third_Party/LwIP/src/core/tcp_out.c ****  *
 915:Middlewares/Third_Party/LwIP/src/core/tcp_out.c ****  * @param pcb Protocol control block for the TCP connection to send the ACK
 916:Middlewares/Third_Party/LwIP/src/core/tcp_out.c ****  */
 917:Middlewares/Third_Party/LwIP/src/core/tcp_out.c **** err_t
 918:Middlewares/Third_Party/LwIP/src/core/tcp_out.c **** tcp_send_empty_ack(struct tcp_pcb *pcb)
 919:Middlewares/Third_Party/LwIP/src/core/tcp_out.c **** {
 920:Middlewares/Third_Party/LwIP/src/core/tcp_out.c ****   err_t err;
 921:Middlewares/Third_Party/LwIP/src/core/tcp_out.c ****   struct pbuf *p;
 922:Middlewares/Third_Party/LwIP/src/core/tcp_out.c ****   u8_t optlen = 0;
 923:Middlewares/Third_Party/LwIP/src/core/tcp_out.c ****   struct netif *netif;
 924:Middlewares/Third_Party/LwIP/src/core/tcp_out.c **** #if LWIP_TCP_TIMESTAMPS || CHECKSUM_GEN_TCP
 925:Middlewares/Third_Party/LwIP/src/core/tcp_out.c ****   struct tcp_hdr *tcphdr;
 926:Middlewares/Third_Party/LwIP/src/core/tcp_out.c **** #endif /* LWIP_TCP_TIMESTAMPS || CHECKSUM_GEN_TCP */
 927:Middlewares/Third_Party/LwIP/src/core/tcp_out.c **** 
 928:Middlewares/Third_Party/LwIP/src/core/tcp_out.c **** #if LWIP_TCP_TIMESTAMPS
ARM GAS  C:\Users\Nina\AppData\Local\Temp\cc9LyW5f.s 			page 33


 929:Middlewares/Third_Party/LwIP/src/core/tcp_out.c ****   if (pcb->flags & TF_TIMESTAMP) {
 930:Middlewares/Third_Party/LwIP/src/core/tcp_out.c ****     optlen = LWIP_TCP_OPT_LENGTH(TF_SEG_OPTS_TS);
 931:Middlewares/Third_Party/LwIP/src/core/tcp_out.c ****   }
 932:Middlewares/Third_Party/LwIP/src/core/tcp_out.c **** #endif
 933:Middlewares/Third_Party/LwIP/src/core/tcp_out.c **** 
 934:Middlewares/Third_Party/LwIP/src/core/tcp_out.c ****   p = tcp_output_alloc_header(pcb, optlen, 0, lwip_htonl(pcb->snd_nxt));
 935:Middlewares/Third_Party/LwIP/src/core/tcp_out.c ****   if (p == NULL) {
 936:Middlewares/Third_Party/LwIP/src/core/tcp_out.c ****     /* let tcp_fasttmr retry sending this ACK */
 937:Middlewares/Third_Party/LwIP/src/core/tcp_out.c ****     pcb->flags |= (TF_ACK_DELAY | TF_ACK_NOW);
 938:Middlewares/Third_Party/LwIP/src/core/tcp_out.c ****     LWIP_DEBUGF(TCP_OUTPUT_DEBUG, ("tcp_output: (ACK) could not allocate pbuf\n"));
 939:Middlewares/Third_Party/LwIP/src/core/tcp_out.c ****     return ERR_BUF;
 940:Middlewares/Third_Party/LwIP/src/core/tcp_out.c ****   }
 941:Middlewares/Third_Party/LwIP/src/core/tcp_out.c **** #if LWIP_TCP_TIMESTAMPS || CHECKSUM_GEN_TCP
 942:Middlewares/Third_Party/LwIP/src/core/tcp_out.c ****   tcphdr = (struct tcp_hdr *)p->payload;
 943:Middlewares/Third_Party/LwIP/src/core/tcp_out.c **** #endif /* LWIP_TCP_TIMESTAMPS || CHECKSUM_GEN_TCP */
 944:Middlewares/Third_Party/LwIP/src/core/tcp_out.c ****   LWIP_DEBUGF(TCP_OUTPUT_DEBUG,
 945:Middlewares/Third_Party/LwIP/src/core/tcp_out.c ****               ("tcp_output: sending ACK for %"U32_F"\n", pcb->rcv_nxt));
 946:Middlewares/Third_Party/LwIP/src/core/tcp_out.c **** 
 947:Middlewares/Third_Party/LwIP/src/core/tcp_out.c ****   /* NB. MSS and window scale options are only sent on SYNs, so ignore them here */
 948:Middlewares/Third_Party/LwIP/src/core/tcp_out.c **** #if LWIP_TCP_TIMESTAMPS
 949:Middlewares/Third_Party/LwIP/src/core/tcp_out.c ****   pcb->ts_lastacksent = pcb->rcv_nxt;
 950:Middlewares/Third_Party/LwIP/src/core/tcp_out.c **** 
 951:Middlewares/Third_Party/LwIP/src/core/tcp_out.c ****   if (pcb->flags & TF_TIMESTAMP) {
 952:Middlewares/Third_Party/LwIP/src/core/tcp_out.c ****     tcp_build_timestamp_option(pcb, (u32_t *)(tcphdr + 1));
 953:Middlewares/Third_Party/LwIP/src/core/tcp_out.c ****   }
 954:Middlewares/Third_Party/LwIP/src/core/tcp_out.c **** #endif
 955:Middlewares/Third_Party/LwIP/src/core/tcp_out.c **** 
 956:Middlewares/Third_Party/LwIP/src/core/tcp_out.c ****   netif = ip_route(&pcb->local_ip, &pcb->remote_ip);
 957:Middlewares/Third_Party/LwIP/src/core/tcp_out.c ****   if (netif == NULL) {
 958:Middlewares/Third_Party/LwIP/src/core/tcp_out.c ****     err = ERR_RTE;
 959:Middlewares/Third_Party/LwIP/src/core/tcp_out.c ****   } else {
 960:Middlewares/Third_Party/LwIP/src/core/tcp_out.c **** #if CHECKSUM_GEN_TCP
 961:Middlewares/Third_Party/LwIP/src/core/tcp_out.c ****     IF__NETIF_CHECKSUM_ENABLED(netif, NETIF_CHECKSUM_GEN_TCP) {
 962:Middlewares/Third_Party/LwIP/src/core/tcp_out.c ****       tcphdr->chksum = ip_chksum_pseudo(p, IP_PROTO_TCP, p->tot_len,
 963:Middlewares/Third_Party/LwIP/src/core/tcp_out.c ****         &pcb->local_ip, &pcb->remote_ip);
 964:Middlewares/Third_Party/LwIP/src/core/tcp_out.c ****     }
 965:Middlewares/Third_Party/LwIP/src/core/tcp_out.c **** #endif
 966:Middlewares/Third_Party/LwIP/src/core/tcp_out.c ****     NETIF_SET_HWADDRHINT(netif, &(pcb->addr_hint));
 967:Middlewares/Third_Party/LwIP/src/core/tcp_out.c ****     err = ip_output_if(p, &pcb->local_ip, &pcb->remote_ip,
 968:Middlewares/Third_Party/LwIP/src/core/tcp_out.c ****       pcb->ttl, pcb->tos, IP_PROTO_TCP, netif);
 969:Middlewares/Third_Party/LwIP/src/core/tcp_out.c ****     NETIF_SET_HWADDRHINT(netif, NULL);
 970:Middlewares/Third_Party/LwIP/src/core/tcp_out.c ****   }
 971:Middlewares/Third_Party/LwIP/src/core/tcp_out.c ****   pbuf_free(p);
 972:Middlewares/Third_Party/LwIP/src/core/tcp_out.c **** 
 973:Middlewares/Third_Party/LwIP/src/core/tcp_out.c ****   if (err != ERR_OK) {
 974:Middlewares/Third_Party/LwIP/src/core/tcp_out.c ****     /* let tcp_fasttmr retry sending this ACK */
 975:Middlewares/Third_Party/LwIP/src/core/tcp_out.c ****     pcb->flags |= (TF_ACK_DELAY | TF_ACK_NOW);
 976:Middlewares/Third_Party/LwIP/src/core/tcp_out.c ****   } else {
 977:Middlewares/Third_Party/LwIP/src/core/tcp_out.c ****     /* remove ACK flags from the PCB, as we sent an empty ACK now */
 978:Middlewares/Third_Party/LwIP/src/core/tcp_out.c ****     pcb->flags &= ~(TF_ACK_DELAY | TF_ACK_NOW);
 979:Middlewares/Third_Party/LwIP/src/core/tcp_out.c ****   }
 980:Middlewares/Third_Party/LwIP/src/core/tcp_out.c **** 
 981:Middlewares/Third_Party/LwIP/src/core/tcp_out.c ****   return err;
 982:Middlewares/Third_Party/LwIP/src/core/tcp_out.c **** }
 983:Middlewares/Third_Party/LwIP/src/core/tcp_out.c **** 
 984:Middlewares/Third_Party/LwIP/src/core/tcp_out.c **** /**
 985:Middlewares/Third_Party/LwIP/src/core/tcp_out.c ****  * @ingroup tcp_raw
ARM GAS  C:\Users\Nina\AppData\Local\Temp\cc9LyW5f.s 			page 34


 986:Middlewares/Third_Party/LwIP/src/core/tcp_out.c ****  * Find out what we can send and send it
 987:Middlewares/Third_Party/LwIP/src/core/tcp_out.c ****  *
 988:Middlewares/Third_Party/LwIP/src/core/tcp_out.c ****  * @param pcb Protocol control block for the TCP connection to send data
 989:Middlewares/Third_Party/LwIP/src/core/tcp_out.c ****  * @return ERR_OK if data has been sent or nothing to send
 990:Middlewares/Third_Party/LwIP/src/core/tcp_out.c ****  *         another err_t on error
 991:Middlewares/Third_Party/LwIP/src/core/tcp_out.c ****  */
 992:Middlewares/Third_Party/LwIP/src/core/tcp_out.c **** err_t
 993:Middlewares/Third_Party/LwIP/src/core/tcp_out.c **** tcp_output(struct tcp_pcb *pcb)
 994:Middlewares/Third_Party/LwIP/src/core/tcp_out.c **** {
 995:Middlewares/Third_Party/LwIP/src/core/tcp_out.c ****   struct tcp_seg *seg, *useg;
 996:Middlewares/Third_Party/LwIP/src/core/tcp_out.c ****   u32_t wnd, snd_nxt;
 997:Middlewares/Third_Party/LwIP/src/core/tcp_out.c ****   err_t err;
 998:Middlewares/Third_Party/LwIP/src/core/tcp_out.c ****   struct netif *netif;
 999:Middlewares/Third_Party/LwIP/src/core/tcp_out.c **** #if TCP_CWND_DEBUG
1000:Middlewares/Third_Party/LwIP/src/core/tcp_out.c ****   s16_t i = 0;
1001:Middlewares/Third_Party/LwIP/src/core/tcp_out.c **** #endif /* TCP_CWND_DEBUG */
1002:Middlewares/Third_Party/LwIP/src/core/tcp_out.c **** 
1003:Middlewares/Third_Party/LwIP/src/core/tcp_out.c ****   /* pcb->state LISTEN not allowed here */
1004:Middlewares/Third_Party/LwIP/src/core/tcp_out.c ****   LWIP_ASSERT("don't call tcp_output for listen-pcbs",
1005:Middlewares/Third_Party/LwIP/src/core/tcp_out.c ****     pcb->state != LISTEN);
1006:Middlewares/Third_Party/LwIP/src/core/tcp_out.c **** 
1007:Middlewares/Third_Party/LwIP/src/core/tcp_out.c ****   /* First, check if we are invoked by the TCP input processing
1008:Middlewares/Third_Party/LwIP/src/core/tcp_out.c ****      code. If so, we do not output anything. Instead, we rely on the
1009:Middlewares/Third_Party/LwIP/src/core/tcp_out.c ****      input processing code to call us when input processing is done
1010:Middlewares/Third_Party/LwIP/src/core/tcp_out.c ****      with. */
1011:Middlewares/Third_Party/LwIP/src/core/tcp_out.c ****   if (tcp_input_pcb == pcb) {
1012:Middlewares/Third_Party/LwIP/src/core/tcp_out.c ****     return ERR_OK;
1013:Middlewares/Third_Party/LwIP/src/core/tcp_out.c ****   }
1014:Middlewares/Third_Party/LwIP/src/core/tcp_out.c **** 
1015:Middlewares/Third_Party/LwIP/src/core/tcp_out.c ****   wnd = LWIP_MIN(pcb->snd_wnd, pcb->cwnd);
1016:Middlewares/Third_Party/LwIP/src/core/tcp_out.c **** 
1017:Middlewares/Third_Party/LwIP/src/core/tcp_out.c ****   seg = pcb->unsent;
1018:Middlewares/Third_Party/LwIP/src/core/tcp_out.c **** 
1019:Middlewares/Third_Party/LwIP/src/core/tcp_out.c ****   /* If the TF_ACK_NOW flag is set and no data will be sent (either
1020:Middlewares/Third_Party/LwIP/src/core/tcp_out.c ****    * because the ->unsent queue is empty or because the window does
1021:Middlewares/Third_Party/LwIP/src/core/tcp_out.c ****    * not allow it), construct an empty ACK segment and send it.
1022:Middlewares/Third_Party/LwIP/src/core/tcp_out.c ****    *
1023:Middlewares/Third_Party/LwIP/src/core/tcp_out.c ****    * If data is to be sent, we will just piggyback the ACK (see below).
1024:Middlewares/Third_Party/LwIP/src/core/tcp_out.c ****    */
1025:Middlewares/Third_Party/LwIP/src/core/tcp_out.c ****   if (pcb->flags & TF_ACK_NOW &&
1026:Middlewares/Third_Party/LwIP/src/core/tcp_out.c ****      (seg == NULL ||
1027:Middlewares/Third_Party/LwIP/src/core/tcp_out.c ****       lwip_ntohl(seg->tcphdr->seqno) - pcb->lastack + seg->len > wnd)) {
1028:Middlewares/Third_Party/LwIP/src/core/tcp_out.c ****      return tcp_send_empty_ack(pcb);
1029:Middlewares/Third_Party/LwIP/src/core/tcp_out.c ****   }
1030:Middlewares/Third_Party/LwIP/src/core/tcp_out.c **** 
1031:Middlewares/Third_Party/LwIP/src/core/tcp_out.c ****   /* useg should point to last segment on unacked queue */
1032:Middlewares/Third_Party/LwIP/src/core/tcp_out.c ****   useg = pcb->unacked;
1033:Middlewares/Third_Party/LwIP/src/core/tcp_out.c ****   if (useg != NULL) {
1034:Middlewares/Third_Party/LwIP/src/core/tcp_out.c ****     for (; useg->next != NULL; useg = useg->next);
1035:Middlewares/Third_Party/LwIP/src/core/tcp_out.c ****   }
1036:Middlewares/Third_Party/LwIP/src/core/tcp_out.c **** 
1037:Middlewares/Third_Party/LwIP/src/core/tcp_out.c ****   netif = ip_route(&pcb->local_ip, &pcb->remote_ip);
1038:Middlewares/Third_Party/LwIP/src/core/tcp_out.c ****   if (netif == NULL) {
1039:Middlewares/Third_Party/LwIP/src/core/tcp_out.c ****     return ERR_RTE;
1040:Middlewares/Third_Party/LwIP/src/core/tcp_out.c ****   }
1041:Middlewares/Third_Party/LwIP/src/core/tcp_out.c **** 
1042:Middlewares/Third_Party/LwIP/src/core/tcp_out.c ****   /* If we don't have a local IP address, we get one from netif */
ARM GAS  C:\Users\Nina\AppData\Local\Temp\cc9LyW5f.s 			page 35


1043:Middlewares/Third_Party/LwIP/src/core/tcp_out.c ****   if (ip_addr_isany(&pcb->local_ip)) {
1044:Middlewares/Third_Party/LwIP/src/core/tcp_out.c ****     const ip_addr_t *local_ip = ip_netif_get_local_ip(netif, &pcb->remote_ip);
1045:Middlewares/Third_Party/LwIP/src/core/tcp_out.c ****     if (local_ip == NULL) {
1046:Middlewares/Third_Party/LwIP/src/core/tcp_out.c ****       return ERR_RTE;
1047:Middlewares/Third_Party/LwIP/src/core/tcp_out.c ****     }
1048:Middlewares/Third_Party/LwIP/src/core/tcp_out.c ****     ip_addr_copy(pcb->local_ip, *local_ip);
1049:Middlewares/Third_Party/LwIP/src/core/tcp_out.c ****   }
1050:Middlewares/Third_Party/LwIP/src/core/tcp_out.c **** 
1051:Middlewares/Third_Party/LwIP/src/core/tcp_out.c **** #if TCP_OUTPUT_DEBUG
1052:Middlewares/Third_Party/LwIP/src/core/tcp_out.c ****   if (seg == NULL) {
1053:Middlewares/Third_Party/LwIP/src/core/tcp_out.c ****     LWIP_DEBUGF(TCP_OUTPUT_DEBUG, ("tcp_output: nothing to send (%p)\n",
1054:Middlewares/Third_Party/LwIP/src/core/tcp_out.c ****                                    (void*)pcb->unsent));
1055:Middlewares/Third_Party/LwIP/src/core/tcp_out.c ****   }
1056:Middlewares/Third_Party/LwIP/src/core/tcp_out.c **** #endif /* TCP_OUTPUT_DEBUG */
1057:Middlewares/Third_Party/LwIP/src/core/tcp_out.c **** #if TCP_CWND_DEBUG
1058:Middlewares/Third_Party/LwIP/src/core/tcp_out.c ****   if (seg == NULL) {
1059:Middlewares/Third_Party/LwIP/src/core/tcp_out.c ****     LWIP_DEBUGF(TCP_CWND_DEBUG, ("tcp_output: snd_wnd %"TCPWNDSIZE_F
1060:Middlewares/Third_Party/LwIP/src/core/tcp_out.c ****                                  ", cwnd %"TCPWNDSIZE_F", wnd %"U32_F
1061:Middlewares/Third_Party/LwIP/src/core/tcp_out.c ****                                  ", seg == NULL, ack %"U32_F"\n",
1062:Middlewares/Third_Party/LwIP/src/core/tcp_out.c ****                                  pcb->snd_wnd, pcb->cwnd, wnd, pcb->lastack));
1063:Middlewares/Third_Party/LwIP/src/core/tcp_out.c ****   } else {
1064:Middlewares/Third_Party/LwIP/src/core/tcp_out.c ****     LWIP_DEBUGF(TCP_CWND_DEBUG,
1065:Middlewares/Third_Party/LwIP/src/core/tcp_out.c ****                 ("tcp_output: snd_wnd %"TCPWNDSIZE_F", cwnd %"TCPWNDSIZE_F", wnd %"U32_F
1066:Middlewares/Third_Party/LwIP/src/core/tcp_out.c ****                  ", effwnd %"U32_F", seq %"U32_F", ack %"U32_F"\n",
1067:Middlewares/Third_Party/LwIP/src/core/tcp_out.c ****                  pcb->snd_wnd, pcb->cwnd, wnd,
1068:Middlewares/Third_Party/LwIP/src/core/tcp_out.c ****                  lwip_ntohl(seg->tcphdr->seqno) - pcb->lastack + seg->len,
1069:Middlewares/Third_Party/LwIP/src/core/tcp_out.c ****                  lwip_ntohl(seg->tcphdr->seqno), pcb->lastack));
1070:Middlewares/Third_Party/LwIP/src/core/tcp_out.c ****   }
1071:Middlewares/Third_Party/LwIP/src/core/tcp_out.c **** #endif /* TCP_CWND_DEBUG */
1072:Middlewares/Third_Party/LwIP/src/core/tcp_out.c ****   /* Check if we need to start the persistent timer when the next unsent segment
1073:Middlewares/Third_Party/LwIP/src/core/tcp_out.c ****    * does not fit within the remaining send window and RTO timer is not running (we
1074:Middlewares/Third_Party/LwIP/src/core/tcp_out.c ****    * have no in-flight data). A traditional approach would fill the remaining window
1075:Middlewares/Third_Party/LwIP/src/core/tcp_out.c ****    * with part of the unsent segment (which will engage zero-window probing upon
1076:Middlewares/Third_Party/LwIP/src/core/tcp_out.c ****    * reception of the zero window update from the receiver). This ensures the
1077:Middlewares/Third_Party/LwIP/src/core/tcp_out.c ****    * subsequent window update is reliably received. With the goal of being lightweight,
1078:Middlewares/Third_Party/LwIP/src/core/tcp_out.c ****    * we avoid splitting the unsent segment and treat the window as already zero.
1079:Middlewares/Third_Party/LwIP/src/core/tcp_out.c ****    */
1080:Middlewares/Third_Party/LwIP/src/core/tcp_out.c ****   if (seg != NULL &&
1081:Middlewares/Third_Party/LwIP/src/core/tcp_out.c ****       lwip_ntohl(seg->tcphdr->seqno) - pcb->lastack + seg->len > wnd &&
1082:Middlewares/Third_Party/LwIP/src/core/tcp_out.c ****       wnd > 0 && wnd == pcb->snd_wnd && pcb->unacked == NULL) {
1083:Middlewares/Third_Party/LwIP/src/core/tcp_out.c ****     /* Start the persist timer */
1084:Middlewares/Third_Party/LwIP/src/core/tcp_out.c ****     if (pcb->persist_backoff == 0) {
1085:Middlewares/Third_Party/LwIP/src/core/tcp_out.c ****       pcb->persist_cnt = 0;
1086:Middlewares/Third_Party/LwIP/src/core/tcp_out.c ****       pcb->persist_backoff = 1;
1087:Middlewares/Third_Party/LwIP/src/core/tcp_out.c ****     }
1088:Middlewares/Third_Party/LwIP/src/core/tcp_out.c ****     goto output_done;
1089:Middlewares/Third_Party/LwIP/src/core/tcp_out.c ****   }
1090:Middlewares/Third_Party/LwIP/src/core/tcp_out.c ****   /* data available and window allows it to be sent? */
1091:Middlewares/Third_Party/LwIP/src/core/tcp_out.c ****   while (seg != NULL &&
1092:Middlewares/Third_Party/LwIP/src/core/tcp_out.c ****          lwip_ntohl(seg->tcphdr->seqno) - pcb->lastack + seg->len <= wnd) {
1093:Middlewares/Third_Party/LwIP/src/core/tcp_out.c ****     LWIP_ASSERT("RST not expected here!",
1094:Middlewares/Third_Party/LwIP/src/core/tcp_out.c ****                 (TCPH_FLAGS(seg->tcphdr) & TCP_RST) == 0);
1095:Middlewares/Third_Party/LwIP/src/core/tcp_out.c ****     /* Stop sending if the nagle algorithm would prevent it
1096:Middlewares/Third_Party/LwIP/src/core/tcp_out.c ****      * Don't stop:
1097:Middlewares/Third_Party/LwIP/src/core/tcp_out.c ****      * - if tcp_write had a memory error before (prevent delayed ACK timeout) or
1098:Middlewares/Third_Party/LwIP/src/core/tcp_out.c ****      * - if FIN was already enqueued for this PCB (SYN is always alone in a segment -
1099:Middlewares/Third_Party/LwIP/src/core/tcp_out.c ****      *   either seg->next != NULL or pcb->unacked == NULL;
ARM GAS  C:\Users\Nina\AppData\Local\Temp\cc9LyW5f.s 			page 36


1100:Middlewares/Third_Party/LwIP/src/core/tcp_out.c ****      *   RST is no sent using tcp_write/tcp_output.
1101:Middlewares/Third_Party/LwIP/src/core/tcp_out.c ****      */
1102:Middlewares/Third_Party/LwIP/src/core/tcp_out.c ****     if ((tcp_do_output_nagle(pcb) == 0) &&
1103:Middlewares/Third_Party/LwIP/src/core/tcp_out.c ****       ((pcb->flags & (TF_NAGLEMEMERR | TF_FIN)) == 0)) {
1104:Middlewares/Third_Party/LwIP/src/core/tcp_out.c ****       break;
1105:Middlewares/Third_Party/LwIP/src/core/tcp_out.c ****     }
1106:Middlewares/Third_Party/LwIP/src/core/tcp_out.c **** #if TCP_CWND_DEBUG
1107:Middlewares/Third_Party/LwIP/src/core/tcp_out.c ****     LWIP_DEBUGF(TCP_CWND_DEBUG, ("tcp_output: snd_wnd %"TCPWNDSIZE_F", cwnd %"TCPWNDSIZE_F", wnd %"
1108:Middlewares/Third_Party/LwIP/src/core/tcp_out.c ****                             pcb->snd_wnd, pcb->cwnd, wnd,
1109:Middlewares/Third_Party/LwIP/src/core/tcp_out.c ****                             lwip_ntohl(seg->tcphdr->seqno) + seg->len -
1110:Middlewares/Third_Party/LwIP/src/core/tcp_out.c ****                             pcb->lastack,
1111:Middlewares/Third_Party/LwIP/src/core/tcp_out.c ****                             lwip_ntohl(seg->tcphdr->seqno), pcb->lastack, i));
1112:Middlewares/Third_Party/LwIP/src/core/tcp_out.c ****     ++i;
1113:Middlewares/Third_Party/LwIP/src/core/tcp_out.c **** #endif /* TCP_CWND_DEBUG */
1114:Middlewares/Third_Party/LwIP/src/core/tcp_out.c **** 
1115:Middlewares/Third_Party/LwIP/src/core/tcp_out.c ****     if (pcb->state != SYN_SENT) {
1116:Middlewares/Third_Party/LwIP/src/core/tcp_out.c ****       TCPH_SET_FLAG(seg->tcphdr, TCP_ACK);
1117:Middlewares/Third_Party/LwIP/src/core/tcp_out.c ****     }
1118:Middlewares/Third_Party/LwIP/src/core/tcp_out.c **** 
1119:Middlewares/Third_Party/LwIP/src/core/tcp_out.c **** #if TCP_OVERSIZE_DBGCHECK
1120:Middlewares/Third_Party/LwIP/src/core/tcp_out.c ****     seg->oversize_left = 0;
1121:Middlewares/Third_Party/LwIP/src/core/tcp_out.c **** #endif /* TCP_OVERSIZE_DBGCHECK */
1122:Middlewares/Third_Party/LwIP/src/core/tcp_out.c ****     err = tcp_output_segment(seg, pcb, netif);
1123:Middlewares/Third_Party/LwIP/src/core/tcp_out.c ****     if (err != ERR_OK) {
1124:Middlewares/Third_Party/LwIP/src/core/tcp_out.c ****       /* segment could not be sent, for whatever reason */
1125:Middlewares/Third_Party/LwIP/src/core/tcp_out.c ****       pcb->flags |= TF_NAGLEMEMERR;
1126:Middlewares/Third_Party/LwIP/src/core/tcp_out.c ****       return err;
1127:Middlewares/Third_Party/LwIP/src/core/tcp_out.c ****     }
1128:Middlewares/Third_Party/LwIP/src/core/tcp_out.c ****     pcb->unsent = seg->next;
1129:Middlewares/Third_Party/LwIP/src/core/tcp_out.c ****     if (pcb->state != SYN_SENT) {
1130:Middlewares/Third_Party/LwIP/src/core/tcp_out.c ****       pcb->flags &= ~(TF_ACK_DELAY | TF_ACK_NOW);
1131:Middlewares/Third_Party/LwIP/src/core/tcp_out.c ****     }
1132:Middlewares/Third_Party/LwIP/src/core/tcp_out.c ****     snd_nxt = lwip_ntohl(seg->tcphdr->seqno) + TCP_TCPLEN(seg);
1133:Middlewares/Third_Party/LwIP/src/core/tcp_out.c ****     if (TCP_SEQ_LT(pcb->snd_nxt, snd_nxt)) {
1134:Middlewares/Third_Party/LwIP/src/core/tcp_out.c ****       pcb->snd_nxt = snd_nxt;
1135:Middlewares/Third_Party/LwIP/src/core/tcp_out.c ****     }
1136:Middlewares/Third_Party/LwIP/src/core/tcp_out.c ****     /* put segment on unacknowledged list if length > 0 */
1137:Middlewares/Third_Party/LwIP/src/core/tcp_out.c ****     if (TCP_TCPLEN(seg) > 0) {
1138:Middlewares/Third_Party/LwIP/src/core/tcp_out.c ****       seg->next = NULL;
1139:Middlewares/Third_Party/LwIP/src/core/tcp_out.c ****       /* unacked list is empty? */
1140:Middlewares/Third_Party/LwIP/src/core/tcp_out.c ****       if (pcb->unacked == NULL) {
1141:Middlewares/Third_Party/LwIP/src/core/tcp_out.c ****         pcb->unacked = seg;
1142:Middlewares/Third_Party/LwIP/src/core/tcp_out.c ****         useg = seg;
1143:Middlewares/Third_Party/LwIP/src/core/tcp_out.c ****       /* unacked list is not empty? */
1144:Middlewares/Third_Party/LwIP/src/core/tcp_out.c ****       } else {
1145:Middlewares/Third_Party/LwIP/src/core/tcp_out.c ****         /* In the case of fast retransmit, the packet should not go to the tail
1146:Middlewares/Third_Party/LwIP/src/core/tcp_out.c ****          * of the unacked queue, but rather somewhere before it. We need to check for
1147:Middlewares/Third_Party/LwIP/src/core/tcp_out.c ****          * this case. -STJ Jul 27, 2004 */
1148:Middlewares/Third_Party/LwIP/src/core/tcp_out.c ****         if (TCP_SEQ_LT(lwip_ntohl(seg->tcphdr->seqno), lwip_ntohl(useg->tcphdr->seqno))) {
1149:Middlewares/Third_Party/LwIP/src/core/tcp_out.c ****           /* add segment to before tail of unacked list, keeping the list sorted */
1150:Middlewares/Third_Party/LwIP/src/core/tcp_out.c ****           struct tcp_seg **cur_seg = &(pcb->unacked);
1151:Middlewares/Third_Party/LwIP/src/core/tcp_out.c ****           while (*cur_seg &&
1152:Middlewares/Third_Party/LwIP/src/core/tcp_out.c ****             TCP_SEQ_LT(lwip_ntohl((*cur_seg)->tcphdr->seqno), lwip_ntohl(seg->tcphdr->seqno))) {
1153:Middlewares/Third_Party/LwIP/src/core/tcp_out.c ****               cur_seg = &((*cur_seg)->next );
1154:Middlewares/Third_Party/LwIP/src/core/tcp_out.c ****           }
1155:Middlewares/Third_Party/LwIP/src/core/tcp_out.c ****           seg->next = (*cur_seg);
1156:Middlewares/Third_Party/LwIP/src/core/tcp_out.c ****           (*cur_seg) = seg;
ARM GAS  C:\Users\Nina\AppData\Local\Temp\cc9LyW5f.s 			page 37


1157:Middlewares/Third_Party/LwIP/src/core/tcp_out.c ****         } else {
1158:Middlewares/Third_Party/LwIP/src/core/tcp_out.c ****           /* add segment to tail of unacked list */
1159:Middlewares/Third_Party/LwIP/src/core/tcp_out.c ****           useg->next = seg;
1160:Middlewares/Third_Party/LwIP/src/core/tcp_out.c ****           useg = useg->next;
1161:Middlewares/Third_Party/LwIP/src/core/tcp_out.c ****         }
1162:Middlewares/Third_Party/LwIP/src/core/tcp_out.c ****       }
1163:Middlewares/Third_Party/LwIP/src/core/tcp_out.c ****     /* do not queue empty segments on the unacked list */
1164:Middlewares/Third_Party/LwIP/src/core/tcp_out.c ****     } else {
1165:Middlewares/Third_Party/LwIP/src/core/tcp_out.c ****       tcp_seg_free(seg);
1166:Middlewares/Third_Party/LwIP/src/core/tcp_out.c ****     }
1167:Middlewares/Third_Party/LwIP/src/core/tcp_out.c ****     seg = pcb->unsent;
1168:Middlewares/Third_Party/LwIP/src/core/tcp_out.c ****   }
1169:Middlewares/Third_Party/LwIP/src/core/tcp_out.c **** output_done:
1170:Middlewares/Third_Party/LwIP/src/core/tcp_out.c **** #if TCP_OVERSIZE
1171:Middlewares/Third_Party/LwIP/src/core/tcp_out.c ****   if (pcb->unsent == NULL) {
1172:Middlewares/Third_Party/LwIP/src/core/tcp_out.c ****     /* last unsent has been removed, reset unsent_oversize */
1173:Middlewares/Third_Party/LwIP/src/core/tcp_out.c ****     pcb->unsent_oversize = 0;
1174:Middlewares/Third_Party/LwIP/src/core/tcp_out.c ****   }
1175:Middlewares/Third_Party/LwIP/src/core/tcp_out.c **** #endif /* TCP_OVERSIZE */
1176:Middlewares/Third_Party/LwIP/src/core/tcp_out.c **** 
1177:Middlewares/Third_Party/LwIP/src/core/tcp_out.c ****   pcb->flags &= ~TF_NAGLEMEMERR;
1178:Middlewares/Third_Party/LwIP/src/core/tcp_out.c ****   return ERR_OK;
1179:Middlewares/Third_Party/LwIP/src/core/tcp_out.c **** }
1180:Middlewares/Third_Party/LwIP/src/core/tcp_out.c **** 
1181:Middlewares/Third_Party/LwIP/src/core/tcp_out.c **** /**
1182:Middlewares/Third_Party/LwIP/src/core/tcp_out.c ****  * Called by tcp_output() to actually send a TCP segment over IP.
1183:Middlewares/Third_Party/LwIP/src/core/tcp_out.c ****  *
1184:Middlewares/Third_Party/LwIP/src/core/tcp_out.c ****  * @param seg the tcp_seg to send
1185:Middlewares/Third_Party/LwIP/src/core/tcp_out.c ****  * @param pcb the tcp_pcb for the TCP connection used to send the segment
1186:Middlewares/Third_Party/LwIP/src/core/tcp_out.c ****  * @param netif the netif used to send the segment
1187:Middlewares/Third_Party/LwIP/src/core/tcp_out.c ****  */
1188:Middlewares/Third_Party/LwIP/src/core/tcp_out.c **** static err_t
1189:Middlewares/Third_Party/LwIP/src/core/tcp_out.c **** tcp_output_segment(struct tcp_seg *seg, struct tcp_pcb *pcb, struct netif *netif)
1190:Middlewares/Third_Party/LwIP/src/core/tcp_out.c **** {
 701              		.loc 1 1190 1 is_stmt 1 view -0
 702              		.cfi_startproc
 703              		@ args = 0, pretend = 0, frame = 0
 704              		@ frame_needed = 0, uses_anonymous_args = 0
1191:Middlewares/Third_Party/LwIP/src/core/tcp_out.c ****   err_t err;
 705              		.loc 1 1191 3 view .LVU206
1192:Middlewares/Third_Party/LwIP/src/core/tcp_out.c ****   u16_t len;
 706              		.loc 1 1192 3 view .LVU207
1193:Middlewares/Third_Party/LwIP/src/core/tcp_out.c ****   u32_t *opts;
 707              		.loc 1 1193 3 view .LVU208
1194:Middlewares/Third_Party/LwIP/src/core/tcp_out.c **** 
1195:Middlewares/Third_Party/LwIP/src/core/tcp_out.c ****   if (seg->p->ref != 1) {
 708              		.loc 1 1195 3 view .LVU209
 709              		.loc 1 1195 10 is_stmt 0 view .LVU210
 710 0000 4368     		ldr	r3, [r0, #4]
 711              		.loc 1 1195 13 view .LVU211
 712 0002 DB89     		ldrh	r3, [r3, #14]
 713              		.loc 1 1195 6 view .LVU212
 714 0004 012B     		cmp	r3, #1
 715 0006 01D0     		beq	.L61
1196:Middlewares/Third_Party/LwIP/src/core/tcp_out.c ****     /* This can happen if the pbuf of this segment is still referenced by the
1197:Middlewares/Third_Party/LwIP/src/core/tcp_out.c ****        netif driver due to deferred transmission. Since this function modifies
1198:Middlewares/Third_Party/LwIP/src/core/tcp_out.c ****        p->len, we must not continue in this case. */
ARM GAS  C:\Users\Nina\AppData\Local\Temp\cc9LyW5f.s 			page 38


1199:Middlewares/Third_Party/LwIP/src/core/tcp_out.c ****     return ERR_OK;
 716              		.loc 1 1199 12 view .LVU213
 717 0008 0020     		movs	r0, #0
 718              	.LVL71:
1200:Middlewares/Third_Party/LwIP/src/core/tcp_out.c ****   }
1201:Middlewares/Third_Party/LwIP/src/core/tcp_out.c **** 
1202:Middlewares/Third_Party/LwIP/src/core/tcp_out.c ****   /* The TCP header has already been constructed, but the ackno and
1203:Middlewares/Third_Party/LwIP/src/core/tcp_out.c ****    wnd fields remain. */
1204:Middlewares/Third_Party/LwIP/src/core/tcp_out.c ****   seg->tcphdr->ackno = lwip_htonl(pcb->rcv_nxt);
1205:Middlewares/Third_Party/LwIP/src/core/tcp_out.c **** 
1206:Middlewares/Third_Party/LwIP/src/core/tcp_out.c ****   /* advertise our receive window size in this TCP segment */
1207:Middlewares/Third_Party/LwIP/src/core/tcp_out.c **** #if LWIP_WND_SCALE
1208:Middlewares/Third_Party/LwIP/src/core/tcp_out.c ****   if (seg->flags & TF_SEG_OPTS_WND_SCALE) {
1209:Middlewares/Third_Party/LwIP/src/core/tcp_out.c ****     /* The Window field in a SYN segment itself (the only type where we send
1210:Middlewares/Third_Party/LwIP/src/core/tcp_out.c ****        the window scale option) is never scaled. */
1211:Middlewares/Third_Party/LwIP/src/core/tcp_out.c ****     seg->tcphdr->wnd = lwip_htons(TCPWND_MIN16(pcb->rcv_ann_wnd));
1212:Middlewares/Third_Party/LwIP/src/core/tcp_out.c ****   } else
1213:Middlewares/Third_Party/LwIP/src/core/tcp_out.c **** #endif /* LWIP_WND_SCALE */
1214:Middlewares/Third_Party/LwIP/src/core/tcp_out.c ****   {
1215:Middlewares/Third_Party/LwIP/src/core/tcp_out.c ****     seg->tcphdr->wnd = lwip_htons(TCPWND_MIN16(RCV_WND_SCALE(pcb, pcb->rcv_ann_wnd)));
1216:Middlewares/Third_Party/LwIP/src/core/tcp_out.c ****   }
1217:Middlewares/Third_Party/LwIP/src/core/tcp_out.c **** 
1218:Middlewares/Third_Party/LwIP/src/core/tcp_out.c ****   pcb->rcv_ann_right_edge = pcb->rcv_nxt + pcb->rcv_ann_wnd;
1219:Middlewares/Third_Party/LwIP/src/core/tcp_out.c **** 
1220:Middlewares/Third_Party/LwIP/src/core/tcp_out.c ****   /* Add any requested options.  NB MSS option is only set on SYN
1221:Middlewares/Third_Party/LwIP/src/core/tcp_out.c ****      packets, so ignore it here */
1222:Middlewares/Third_Party/LwIP/src/core/tcp_out.c ****   /* cast through void* to get rid of alignment warnings */
1223:Middlewares/Third_Party/LwIP/src/core/tcp_out.c ****   opts = (u32_t *)(void *)(seg->tcphdr + 1);
1224:Middlewares/Third_Party/LwIP/src/core/tcp_out.c ****   if (seg->flags & TF_SEG_OPTS_MSS) {
1225:Middlewares/Third_Party/LwIP/src/core/tcp_out.c ****     u16_t mss;
1226:Middlewares/Third_Party/LwIP/src/core/tcp_out.c **** #if TCP_CALCULATE_EFF_SEND_MSS
1227:Middlewares/Third_Party/LwIP/src/core/tcp_out.c ****     mss = tcp_eff_send_mss(TCP_MSS, &pcb->local_ip, &pcb->remote_ip);
1228:Middlewares/Third_Party/LwIP/src/core/tcp_out.c **** #else /* TCP_CALCULATE_EFF_SEND_MSS */
1229:Middlewares/Third_Party/LwIP/src/core/tcp_out.c ****     mss = TCP_MSS;
1230:Middlewares/Third_Party/LwIP/src/core/tcp_out.c **** #endif /* TCP_CALCULATE_EFF_SEND_MSS */
1231:Middlewares/Third_Party/LwIP/src/core/tcp_out.c ****     *opts = TCP_BUILD_MSS_OPTION(mss);
1232:Middlewares/Third_Party/LwIP/src/core/tcp_out.c ****     opts += 1;
1233:Middlewares/Third_Party/LwIP/src/core/tcp_out.c ****   }
1234:Middlewares/Third_Party/LwIP/src/core/tcp_out.c **** #if LWIP_TCP_TIMESTAMPS
1235:Middlewares/Third_Party/LwIP/src/core/tcp_out.c ****   pcb->ts_lastacksent = pcb->rcv_nxt;
1236:Middlewares/Third_Party/LwIP/src/core/tcp_out.c **** 
1237:Middlewares/Third_Party/LwIP/src/core/tcp_out.c ****   if (seg->flags & TF_SEG_OPTS_TS) {
1238:Middlewares/Third_Party/LwIP/src/core/tcp_out.c ****     tcp_build_timestamp_option(pcb, opts);
1239:Middlewares/Third_Party/LwIP/src/core/tcp_out.c ****     opts += 3;
1240:Middlewares/Third_Party/LwIP/src/core/tcp_out.c ****   }
1241:Middlewares/Third_Party/LwIP/src/core/tcp_out.c **** #endif
1242:Middlewares/Third_Party/LwIP/src/core/tcp_out.c **** #if LWIP_WND_SCALE
1243:Middlewares/Third_Party/LwIP/src/core/tcp_out.c ****   if (seg->flags & TF_SEG_OPTS_WND_SCALE) {
1244:Middlewares/Third_Party/LwIP/src/core/tcp_out.c ****     tcp_build_wnd_scale_option(opts);
1245:Middlewares/Third_Party/LwIP/src/core/tcp_out.c ****     opts += 1;
1246:Middlewares/Third_Party/LwIP/src/core/tcp_out.c ****   }
1247:Middlewares/Third_Party/LwIP/src/core/tcp_out.c **** #endif
1248:Middlewares/Third_Party/LwIP/src/core/tcp_out.c **** 
1249:Middlewares/Third_Party/LwIP/src/core/tcp_out.c ****   /* Set retransmission timer running if it is not currently enabled
1250:Middlewares/Third_Party/LwIP/src/core/tcp_out.c ****      This must be set before checking the route. */
1251:Middlewares/Third_Party/LwIP/src/core/tcp_out.c ****   if (pcb->rtime < 0) {
1252:Middlewares/Third_Party/LwIP/src/core/tcp_out.c ****     pcb->rtime = 0;
ARM GAS  C:\Users\Nina\AppData\Local\Temp\cc9LyW5f.s 			page 39


1253:Middlewares/Third_Party/LwIP/src/core/tcp_out.c ****   }
1254:Middlewares/Third_Party/LwIP/src/core/tcp_out.c **** 
1255:Middlewares/Third_Party/LwIP/src/core/tcp_out.c ****   if (pcb->rttest == 0) {
1256:Middlewares/Third_Party/LwIP/src/core/tcp_out.c ****     pcb->rttest = tcp_ticks;
1257:Middlewares/Third_Party/LwIP/src/core/tcp_out.c ****     pcb->rtseq = lwip_ntohl(seg->tcphdr->seqno);
1258:Middlewares/Third_Party/LwIP/src/core/tcp_out.c **** 
1259:Middlewares/Third_Party/LwIP/src/core/tcp_out.c ****     LWIP_DEBUGF(TCP_RTO_DEBUG, ("tcp_output_segment: rtseq %"U32_F"\n", pcb->rtseq));
1260:Middlewares/Third_Party/LwIP/src/core/tcp_out.c ****   }
1261:Middlewares/Third_Party/LwIP/src/core/tcp_out.c ****   LWIP_DEBUGF(TCP_OUTPUT_DEBUG, ("tcp_output_segment: %"U32_F":%"U32_F"\n",
1262:Middlewares/Third_Party/LwIP/src/core/tcp_out.c ****           lwip_htonl(seg->tcphdr->seqno), lwip_htonl(seg->tcphdr->seqno) +
1263:Middlewares/Third_Party/LwIP/src/core/tcp_out.c ****           seg->len));
1264:Middlewares/Third_Party/LwIP/src/core/tcp_out.c **** 
1265:Middlewares/Third_Party/LwIP/src/core/tcp_out.c ****   len = (u16_t)((u8_t *)seg->tcphdr - (u8_t *)seg->p->payload);
1266:Middlewares/Third_Party/LwIP/src/core/tcp_out.c ****   if (len == 0) {
1267:Middlewares/Third_Party/LwIP/src/core/tcp_out.c ****     /** Exclude retransmitted segments from this count. */
1268:Middlewares/Third_Party/LwIP/src/core/tcp_out.c ****     MIB2_STATS_INC(mib2.tcpoutsegs);
1269:Middlewares/Third_Party/LwIP/src/core/tcp_out.c ****   }
1270:Middlewares/Third_Party/LwIP/src/core/tcp_out.c **** 
1271:Middlewares/Third_Party/LwIP/src/core/tcp_out.c ****   seg->p->len -= len;
1272:Middlewares/Third_Party/LwIP/src/core/tcp_out.c ****   seg->p->tot_len -= len;
1273:Middlewares/Third_Party/LwIP/src/core/tcp_out.c **** 
1274:Middlewares/Third_Party/LwIP/src/core/tcp_out.c ****   seg->p->payload = seg->tcphdr;
1275:Middlewares/Third_Party/LwIP/src/core/tcp_out.c **** 
1276:Middlewares/Third_Party/LwIP/src/core/tcp_out.c ****   seg->tcphdr->chksum = 0;
1277:Middlewares/Third_Party/LwIP/src/core/tcp_out.c **** #if CHECKSUM_GEN_TCP
1278:Middlewares/Third_Party/LwIP/src/core/tcp_out.c ****   IF__NETIF_CHECKSUM_ENABLED(netif, NETIF_CHECKSUM_GEN_TCP) {
1279:Middlewares/Third_Party/LwIP/src/core/tcp_out.c **** #if TCP_CHECKSUM_ON_COPY
1280:Middlewares/Third_Party/LwIP/src/core/tcp_out.c ****     u32_t acc;
1281:Middlewares/Third_Party/LwIP/src/core/tcp_out.c **** #if TCP_CHECKSUM_ON_COPY_SANITY_CHECK
1282:Middlewares/Third_Party/LwIP/src/core/tcp_out.c ****     u16_t chksum_slow = ip_chksum_pseudo(seg->p, IP_PROTO_TCP,
1283:Middlewares/Third_Party/LwIP/src/core/tcp_out.c ****       seg->p->tot_len, &pcb->local_ip, &pcb->remote_ip);
1284:Middlewares/Third_Party/LwIP/src/core/tcp_out.c **** #endif /* TCP_CHECKSUM_ON_COPY_SANITY_CHECK */
1285:Middlewares/Third_Party/LwIP/src/core/tcp_out.c ****     if ((seg->flags & TF_SEG_DATA_CHECKSUMMED) == 0) {
1286:Middlewares/Third_Party/LwIP/src/core/tcp_out.c ****       LWIP_ASSERT("data included but not checksummed",
1287:Middlewares/Third_Party/LwIP/src/core/tcp_out.c ****         seg->p->tot_len == (TCPH_HDRLEN(seg->tcphdr) * 4));
1288:Middlewares/Third_Party/LwIP/src/core/tcp_out.c ****     }
1289:Middlewares/Third_Party/LwIP/src/core/tcp_out.c **** 
1290:Middlewares/Third_Party/LwIP/src/core/tcp_out.c ****     /* rebuild TCP header checksum (TCP header changes for retransmissions!) */
1291:Middlewares/Third_Party/LwIP/src/core/tcp_out.c ****     acc = ip_chksum_pseudo_partial(seg->p, IP_PROTO_TCP,
1292:Middlewares/Third_Party/LwIP/src/core/tcp_out.c ****       seg->p->tot_len, TCPH_HDRLEN(seg->tcphdr) * 4, &pcb->local_ip, &pcb->remote_ip);
1293:Middlewares/Third_Party/LwIP/src/core/tcp_out.c ****     /* add payload checksum */
1294:Middlewares/Third_Party/LwIP/src/core/tcp_out.c ****     if (seg->chksum_swapped) {
1295:Middlewares/Third_Party/LwIP/src/core/tcp_out.c ****       seg->chksum = SWAP_BYTES_IN_WORD(seg->chksum);
1296:Middlewares/Third_Party/LwIP/src/core/tcp_out.c ****       seg->chksum_swapped = 0;
1297:Middlewares/Third_Party/LwIP/src/core/tcp_out.c ****     }
1298:Middlewares/Third_Party/LwIP/src/core/tcp_out.c ****     acc += (u16_t)~(seg->chksum);
1299:Middlewares/Third_Party/LwIP/src/core/tcp_out.c ****     seg->tcphdr->chksum = FOLD_U32T(acc);
1300:Middlewares/Third_Party/LwIP/src/core/tcp_out.c **** #if TCP_CHECKSUM_ON_COPY_SANITY_CHECK
1301:Middlewares/Third_Party/LwIP/src/core/tcp_out.c ****     if (chksum_slow != seg->tcphdr->chksum) {
1302:Middlewares/Third_Party/LwIP/src/core/tcp_out.c ****       TCP_CHECKSUM_ON_COPY_SANITY_CHECK_FAIL(
1303:Middlewares/Third_Party/LwIP/src/core/tcp_out.c ****                   ("tcp_output_segment: calculated checksum is %"X16_F" instead of %"X16_F"\n",
1304:Middlewares/Third_Party/LwIP/src/core/tcp_out.c ****                   seg->tcphdr->chksum, chksum_slow));
1305:Middlewares/Third_Party/LwIP/src/core/tcp_out.c ****       seg->tcphdr->chksum = chksum_slow;
1306:Middlewares/Third_Party/LwIP/src/core/tcp_out.c ****     }
1307:Middlewares/Third_Party/LwIP/src/core/tcp_out.c **** #endif /* TCP_CHECKSUM_ON_COPY_SANITY_CHECK */
1308:Middlewares/Third_Party/LwIP/src/core/tcp_out.c **** #else /* TCP_CHECKSUM_ON_COPY */
1309:Middlewares/Third_Party/LwIP/src/core/tcp_out.c ****     seg->tcphdr->chksum = ip_chksum_pseudo(seg->p, IP_PROTO_TCP,
ARM GAS  C:\Users\Nina\AppData\Local\Temp\cc9LyW5f.s 			page 40


1310:Middlewares/Third_Party/LwIP/src/core/tcp_out.c ****       seg->p->tot_len, &pcb->local_ip, &pcb->remote_ip);
1311:Middlewares/Third_Party/LwIP/src/core/tcp_out.c **** #endif /* TCP_CHECKSUM_ON_COPY */
1312:Middlewares/Third_Party/LwIP/src/core/tcp_out.c ****   }
1313:Middlewares/Third_Party/LwIP/src/core/tcp_out.c **** #endif /* CHECKSUM_GEN_TCP */
1314:Middlewares/Third_Party/LwIP/src/core/tcp_out.c ****   TCP_STATS_INC(tcp.xmit);
1315:Middlewares/Third_Party/LwIP/src/core/tcp_out.c **** 
1316:Middlewares/Third_Party/LwIP/src/core/tcp_out.c ****   NETIF_SET_HWADDRHINT(netif, &(pcb->addr_hint));
1317:Middlewares/Third_Party/LwIP/src/core/tcp_out.c ****   err = ip_output_if(seg->p, &pcb->local_ip, &pcb->remote_ip, pcb->ttl,
1318:Middlewares/Third_Party/LwIP/src/core/tcp_out.c ****     pcb->tos, IP_PROTO_TCP, netif);
1319:Middlewares/Third_Party/LwIP/src/core/tcp_out.c ****   NETIF_SET_HWADDRHINT(netif, NULL);
1320:Middlewares/Third_Party/LwIP/src/core/tcp_out.c ****   return err;
1321:Middlewares/Third_Party/LwIP/src/core/tcp_out.c **** }
 719              		.loc 1 1321 1 view .LVU214
 720 000a 7047     		bx	lr
 721              	.LVL72:
 722              	.L61:
1190:Middlewares/Third_Party/LwIP/src/core/tcp_out.c ****   err_t err;
 723              		.loc 1 1190 1 view .LVU215
 724 000c F0B5     		push	{r4, r5, r6, r7, lr}
 725              	.LCFI4:
 726              		.cfi_def_cfa_offset 20
 727              		.cfi_offset 4, -20
 728              		.cfi_offset 5, -16
 729              		.cfi_offset 6, -12
 730              		.cfi_offset 7, -8
 731              		.cfi_offset 14, -4
 732 000e 85B0     		sub	sp, sp, #20
 733              	.LCFI5:
 734              		.cfi_def_cfa_offset 40
 735 0010 0446     		mov	r4, r0
 736 0012 0D46     		mov	r5, r1
 737 0014 1646     		mov	r6, r2
1204:Middlewares/Third_Party/LwIP/src/core/tcp_out.c **** 
 738              		.loc 1 1204 3 is_stmt 1 view .LVU216
1204:Middlewares/Third_Party/LwIP/src/core/tcp_out.c **** 
 739              		.loc 1 1204 6 is_stmt 0 view .LVU217
 740 0016 C768     		ldr	r7, [r0, #12]
1204:Middlewares/Third_Party/LwIP/src/core/tcp_out.c **** 
 741              		.loc 1 1204 24 view .LVU218
 742 0018 486A     		ldr	r0, [r1, #36]
 743              	.LVL73:
1204:Middlewares/Third_Party/LwIP/src/core/tcp_out.c **** 
 744              		.loc 1 1204 24 view .LVU219
 745 001a FFF7FEFF 		bl	lwip_htonl
 746              	.LVL74:
1204:Middlewares/Third_Party/LwIP/src/core/tcp_out.c **** 
 747              		.loc 1 1204 22 view .LVU220
 748 001e B860     		str	r0, [r7, #8]	@ unaligned
1215:Middlewares/Third_Party/LwIP/src/core/tcp_out.c ****   }
 749              		.loc 1 1215 5 is_stmt 1 view .LVU221
1215:Middlewares/Third_Party/LwIP/src/core/tcp_out.c ****   }
 750              		.loc 1 1215 8 is_stmt 0 view .LVU222
 751 0020 E768     		ldr	r7, [r4, #12]
1215:Middlewares/Third_Party/LwIP/src/core/tcp_out.c ****   }
 752              		.loc 1 1215 24 view .LVU223
 753 0022 688D     		ldrh	r0, [r5, #42]
 754 0024 FFF7FEFF 		bl	lwip_htons
ARM GAS  C:\Users\Nina\AppData\Local\Temp\cc9LyW5f.s 			page 41


 755              	.LVL75:
1215:Middlewares/Third_Party/LwIP/src/core/tcp_out.c ****   }
 756              		.loc 1 1215 22 view .LVU224
 757 0028 F881     		strh	r0, [r7, #14]	@ unaligned
1218:Middlewares/Third_Party/LwIP/src/core/tcp_out.c **** 
 758              		.loc 1 1218 3 is_stmt 1 view .LVU225
1218:Middlewares/Third_Party/LwIP/src/core/tcp_out.c **** 
 759              		.loc 1 1218 32 is_stmt 0 view .LVU226
 760 002a 6B6A     		ldr	r3, [r5, #36]
1218:Middlewares/Third_Party/LwIP/src/core/tcp_out.c **** 
 761              		.loc 1 1218 47 view .LVU227
 762 002c 6A8D     		ldrh	r2, [r5, #42]
1218:Middlewares/Third_Party/LwIP/src/core/tcp_out.c **** 
 763              		.loc 1 1218 42 view .LVU228
 764 002e 1344     		add	r3, r3, r2
1218:Middlewares/Third_Party/LwIP/src/core/tcp_out.c **** 
 765              		.loc 1 1218 27 view .LVU229
 766 0030 EB62     		str	r3, [r5, #44]
1223:Middlewares/Third_Party/LwIP/src/core/tcp_out.c ****   if (seg->flags & TF_SEG_OPTS_MSS) {
 767              		.loc 1 1223 3 is_stmt 1 view .LVU230
1223:Middlewares/Third_Party/LwIP/src/core/tcp_out.c ****   if (seg->flags & TF_SEG_OPTS_MSS) {
 768              		.loc 1 1223 31 is_stmt 0 view .LVU231
 769 0032 E768     		ldr	r7, [r4, #12]
 770              	.LVL76:
1224:Middlewares/Third_Party/LwIP/src/core/tcp_out.c ****     u16_t mss;
 771              		.loc 1 1224 3 is_stmt 1 view .LVU232
1224:Middlewares/Third_Party/LwIP/src/core/tcp_out.c ****     u16_t mss;
 772              		.loc 1 1224 10 is_stmt 0 view .LVU233
 773 0034 A37A     		ldrb	r3, [r4, #10]	@ zero_extendqisi2
1224:Middlewares/Third_Party/LwIP/src/core/tcp_out.c ****     u16_t mss;
 774              		.loc 1 1224 6 view .LVU234
 775 0036 13F0010F 		tst	r3, #1
 776 003a 25D1     		bne	.L62
 777              	.LVL77:
 778              	.L53:
1251:Middlewares/Third_Party/LwIP/src/core/tcp_out.c ****     pcb->rtime = 0;
 779              		.loc 1 1251 3 is_stmt 1 view .LVU235
1251:Middlewares/Third_Party/LwIP/src/core/tcp_out.c ****     pcb->rtime = 0;
 780              		.loc 1 1251 10 is_stmt 0 view .LVU236
 781 003c B5F93030 		ldrsh	r3, [r5, #48]
1251:Middlewares/Third_Party/LwIP/src/core/tcp_out.c ****     pcb->rtime = 0;
 782              		.loc 1 1251 6 view .LVU237
 783 0040 002B     		cmp	r3, #0
 784 0042 2CDB     		blt	.L63
 785              	.L54:
1255:Middlewares/Third_Party/LwIP/src/core/tcp_out.c ****     pcb->rttest = tcp_ticks;
 786              		.loc 1 1255 3 is_stmt 1 view .LVU238
1255:Middlewares/Third_Party/LwIP/src/core/tcp_out.c ****     pcb->rttest = tcp_ticks;
 787              		.loc 1 1255 10 is_stmt 0 view .LVU239
 788 0044 6B6B     		ldr	r3, [r5, #52]
1255:Middlewares/Third_Party/LwIP/src/core/tcp_out.c ****     pcb->rttest = tcp_ticks;
 789              		.loc 1 1255 6 view .LVU240
 790 0046 002B     		cmp	r3, #0
 791 0048 2CD0     		beq	.L64
 792              	.L55:
1259:Middlewares/Third_Party/LwIP/src/core/tcp_out.c ****   }
 793              		.loc 1 1259 85 is_stmt 1 view .LVU241
ARM GAS  C:\Users\Nina\AppData\Local\Temp\cc9LyW5f.s 			page 42


1263:Middlewares/Third_Party/LwIP/src/core/tcp_out.c **** 
 794              		.loc 1 1263 21 view .LVU242
1265:Middlewares/Third_Party/LwIP/src/core/tcp_out.c ****   if (len == 0) {
 795              		.loc 1 1265 3 view .LVU243
1265:Middlewares/Third_Party/LwIP/src/core/tcp_out.c ****   if (len == 0) {
 796              		.loc 1 1265 28 is_stmt 0 view .LVU244
 797 004a E368     		ldr	r3, [r4, #12]
1265:Middlewares/Third_Party/LwIP/src/core/tcp_out.c ****   if (len == 0) {
 798              		.loc 1 1265 50 view .LVU245
 799 004c 6268     		ldr	r2, [r4, #4]
1265:Middlewares/Third_Party/LwIP/src/core/tcp_out.c ****   if (len == 0) {
 800              		.loc 1 1265 53 view .LVU246
 801 004e 5168     		ldr	r1, [r2, #4]
1265:Middlewares/Third_Party/LwIP/src/core/tcp_out.c ****   if (len == 0) {
 802              		.loc 1 1265 37 view .LVU247
 803 0050 5B1A     		subs	r3, r3, r1
1265:Middlewares/Third_Party/LwIP/src/core/tcp_out.c ****   if (len == 0) {
 804              		.loc 1 1265 7 view .LVU248
 805 0052 9BB2     		uxth	r3, r3
 806              	.LVL78:
1266:Middlewares/Third_Party/LwIP/src/core/tcp_out.c ****     /** Exclude retransmitted segments from this count. */
 807              		.loc 1 1266 3 is_stmt 1 view .LVU249
1268:Middlewares/Third_Party/LwIP/src/core/tcp_out.c ****   }
 808              		.loc 1 1268 36 view .LVU250
1271:Middlewares/Third_Party/LwIP/src/core/tcp_out.c ****   seg->p->tot_len -= len;
 809              		.loc 1 1271 3 view .LVU251
1271:Middlewares/Third_Party/LwIP/src/core/tcp_out.c ****   seg->p->tot_len -= len;
 810              		.loc 1 1271 15 is_stmt 0 view .LVU252
 811 0054 5189     		ldrh	r1, [r2, #10]
 812 0056 C91A     		subs	r1, r1, r3
 813 0058 5181     		strh	r1, [r2, #10]	@ movhi
1272:Middlewares/Third_Party/LwIP/src/core/tcp_out.c **** 
 814              		.loc 1 1272 3 is_stmt 1 view .LVU253
1272:Middlewares/Third_Party/LwIP/src/core/tcp_out.c **** 
 815              		.loc 1 1272 6 is_stmt 0 view .LVU254
 816 005a 6168     		ldr	r1, [r4, #4]
1272:Middlewares/Third_Party/LwIP/src/core/tcp_out.c **** 
 817              		.loc 1 1272 19 view .LVU255
 818 005c 0A89     		ldrh	r2, [r1, #8]
 819 005e D31A     		subs	r3, r2, r3
 820              	.LVL79:
1272:Middlewares/Third_Party/LwIP/src/core/tcp_out.c **** 
 821              		.loc 1 1272 19 view .LVU256
 822 0060 0B81     		strh	r3, [r1, #8]	@ movhi
1274:Middlewares/Third_Party/LwIP/src/core/tcp_out.c **** 
 823              		.loc 1 1274 3 is_stmt 1 view .LVU257
1274:Middlewares/Third_Party/LwIP/src/core/tcp_out.c **** 
 824              		.loc 1 1274 6 is_stmt 0 view .LVU258
 825 0062 6268     		ldr	r2, [r4, #4]
1274:Middlewares/Third_Party/LwIP/src/core/tcp_out.c **** 
 826              		.loc 1 1274 24 view .LVU259
 827 0064 E368     		ldr	r3, [r4, #12]
1274:Middlewares/Third_Party/LwIP/src/core/tcp_out.c **** 
 828              		.loc 1 1274 19 view .LVU260
 829 0066 5360     		str	r3, [r2, #4]
1276:Middlewares/Third_Party/LwIP/src/core/tcp_out.c **** #if CHECKSUM_GEN_TCP
 830              		.loc 1 1276 3 is_stmt 1 view .LVU261
ARM GAS  C:\Users\Nina\AppData\Local\Temp\cc9LyW5f.s 			page 43


1276:Middlewares/Third_Party/LwIP/src/core/tcp_out.c **** #if CHECKSUM_GEN_TCP
 831              		.loc 1 1276 23 is_stmt 0 view .LVU262
 832 0068 0022     		movs	r2, #0
 833 006a 1A74     		strb	r2, [r3, #16]
 834 006c 5A74     		strb	r2, [r3, #17]
1314:Middlewares/Third_Party/LwIP/src/core/tcp_out.c **** 
 835              		.loc 1 1314 26 is_stmt 1 view .LVU263
1316:Middlewares/Third_Party/LwIP/src/core/tcp_out.c ****   err = ip_output_if(seg->p, &pcb->local_ip, &pcb->remote_ip, pcb->ttl,
 836              		.loc 1 1316 49 view .LVU264
1317:Middlewares/Third_Party/LwIP/src/core/tcp_out.c ****     pcb->tos, IP_PROTO_TCP, netif);
 837              		.loc 1 1317 3 view .LVU265
1317:Middlewares/Third_Party/LwIP/src/core/tcp_out.c ****     pcb->tos, IP_PROTO_TCP, netif);
 838              		.loc 1 1317 9 is_stmt 0 view .LVU266
 839 006e 0296     		str	r6, [sp, #8]
 840 0070 0623     		movs	r3, #6
 841 0072 0193     		str	r3, [sp, #4]
 842 0074 6B7A     		ldrb	r3, [r5, #9]	@ zero_extendqisi2
 843 0076 0093     		str	r3, [sp]
 844 0078 AB7A     		ldrb	r3, [r5, #10]	@ zero_extendqisi2
 845 007a 2A1D     		adds	r2, r5, #4
 846 007c 2946     		mov	r1, r5
 847 007e 6068     		ldr	r0, [r4, #4]
 848 0080 FFF7FEFF 		bl	ip4_output_if
 849              	.LVL80:
1319:Middlewares/Third_Party/LwIP/src/core/tcp_out.c ****   return err;
 850              		.loc 1 1319 36 is_stmt 1 view .LVU267
1320:Middlewares/Third_Party/LwIP/src/core/tcp_out.c **** }
 851              		.loc 1 1320 3 view .LVU268
 852              		.loc 1 1321 1 is_stmt 0 view .LVU269
 853 0084 05B0     		add	sp, sp, #20
 854              	.LCFI6:
 855              		.cfi_remember_state
 856              		.cfi_def_cfa_offset 20
 857              		@ sp needed
 858 0086 F0BD     		pop	{r4, r5, r6, r7, pc}
 859              	.LVL81:
 860              	.L62:
 861              	.LCFI7:
 862              		.cfi_restore_state
 863              	.LBB2:
1225:Middlewares/Third_Party/LwIP/src/core/tcp_out.c **** #if TCP_CALCULATE_EFF_SEND_MSS
 864              		.loc 1 1225 5 is_stmt 1 view .LVU270
1227:Middlewares/Third_Party/LwIP/src/core/tcp_out.c **** #else /* TCP_CALCULATE_EFF_SEND_MSS */
 865              		.loc 1 1227 5 view .LVU271
1227:Middlewares/Third_Party/LwIP/src/core/tcp_out.c **** #else /* TCP_CALCULATE_EFF_SEND_MSS */
 866              		.loc 1 1227 11 is_stmt 0 view .LVU272
 867 0088 291D     		adds	r1, r5, #4
 868 008a 4FF40670 		mov	r0, #536
 869 008e FFF7FEFF 		bl	tcp_eff_send_mss_impl
 870              	.LVL82:
1231:Middlewares/Third_Party/LwIP/src/core/tcp_out.c ****     opts += 1;
 871              		.loc 1 1231 5 is_stmt 1 view .LVU273
1231:Middlewares/Third_Party/LwIP/src/core/tcp_out.c ****     opts += 1;
 872              		.loc 1 1231 13 is_stmt 0 view .LVU274
 873 0092 40F00170 		orr	r0, r0, #33816576
 874              	.LVL83:
1231:Middlewares/Third_Party/LwIP/src/core/tcp_out.c ****     opts += 1;
ARM GAS  C:\Users\Nina\AppData\Local\Temp\cc9LyW5f.s 			page 44


 875              		.loc 1 1231 13 view .LVU275
 876 0096 FFF7FEFF 		bl	lwip_htonl
 877              	.LVL84:
1231:Middlewares/Third_Party/LwIP/src/core/tcp_out.c ****     opts += 1;
 878              		.loc 1 1231 11 view .LVU276
 879 009a 7861     		str	r0, [r7, #20]
1232:Middlewares/Third_Party/LwIP/src/core/tcp_out.c ****   }
 880              		.loc 1 1232 5 is_stmt 1 view .LVU277
 881              	.LVL85:
1232:Middlewares/Third_Party/LwIP/src/core/tcp_out.c ****   }
 882              		.loc 1 1232 5 is_stmt 0 view .LVU278
 883 009c CEE7     		b	.L53
 884              	.LVL86:
 885              	.L63:
1232:Middlewares/Third_Party/LwIP/src/core/tcp_out.c ****   }
 886              		.loc 1 1232 5 view .LVU279
 887              	.LBE2:
1252:Middlewares/Third_Party/LwIP/src/core/tcp_out.c ****   }
 888              		.loc 1 1252 5 is_stmt 1 view .LVU280
1252:Middlewares/Third_Party/LwIP/src/core/tcp_out.c ****   }
 889              		.loc 1 1252 16 is_stmt 0 view .LVU281
 890 009e 0023     		movs	r3, #0
 891 00a0 2B86     		strh	r3, [r5, #48]	@ movhi
 892 00a2 CFE7     		b	.L54
 893              	.L64:
1256:Middlewares/Third_Party/LwIP/src/core/tcp_out.c ****     pcb->rtseq = lwip_ntohl(seg->tcphdr->seqno);
 894              		.loc 1 1256 5 is_stmt 1 view .LVU282
1256:Middlewares/Third_Party/LwIP/src/core/tcp_out.c ****     pcb->rtseq = lwip_ntohl(seg->tcphdr->seqno);
 895              		.loc 1 1256 17 is_stmt 0 view .LVU283
 896 00a4 044B     		ldr	r3, .L65
 897 00a6 1B68     		ldr	r3, [r3]
 898 00a8 6B63     		str	r3, [r5, #52]
1257:Middlewares/Third_Party/LwIP/src/core/tcp_out.c **** 
 899              		.loc 1 1257 5 is_stmt 1 view .LVU284
1257:Middlewares/Third_Party/LwIP/src/core/tcp_out.c **** 
 900              		.loc 1 1257 18 is_stmt 0 view .LVU285
 901 00aa E368     		ldr	r3, [r4, #12]
 902 00ac 5868     		ldr	r0, [r3, #4]	@ unaligned
 903 00ae FFF7FEFF 		bl	lwip_htonl
 904              	.LVL87:
1257:Middlewares/Third_Party/LwIP/src/core/tcp_out.c **** 
 905              		.loc 1 1257 16 view .LVU286
 906 00b2 A863     		str	r0, [r5, #56]
 907 00b4 C9E7     		b	.L55
 908              	.L66:
 909 00b6 00BF     		.align	2
 910              	.L65:
 911 00b8 00000000 		.word	tcp_ticks
 912              		.cfi_endproc
 913              	.LFE169:
 915              		.section	.rodata.tcp_write.str1.4,"aMS",%progbits,1
 916              		.align	2
 917              	.LC7:
 918 0000 7463705F 		.ascii	"tcp_write: arg == NULL (programmer violates API)\000"
 918      77726974 
 918      653A2061 
 918      7267203D 
ARM GAS  C:\Users\Nina\AppData\Local\Temp\cc9LyW5f.s 			page 45


 918      3D204E55 
 919 0031 000000   		.align	2
 920              	.LC8:
 921 0034 6D73735F 		.ascii	"mss_local is too small\000"
 921      6C6F6361 
 921      6C206973 
 921      20746F6F 
 921      20736D61 
 922 004b 00       		.align	2
 923              	.LC9:
 924 004c 696E636F 		.ascii	"inconsistent oversize vs. space\000"
 924      6E736973 
 924      74656E74 
 924      206F7665 
 924      7273697A 
 925              		.align	2
 926              	.LC10:
 927 006c 696E636F 		.ascii	"inconsistent oversize vs. len\000"
 927      6E736973 
 927      74656E74 
 927      206F7665 
 927      7273697A 
 928 008a 0000     		.align	2
 929              	.LC11:
 930 008c 7463705F 		.ascii	"tcp_write: ROM pbufs cannot be oversized\000"
 930      77726974 
 930      653A2052 
 930      4F4D2070 
 930      62756673 
 931 00b5 000000   		.align	2
 932              	.LC12:
 933 00b8 756E7365 		.ascii	"unsent_oversize mismatch (pcb->unsent is NULL)\000"
 933      6E745F6F 
 933      76657273 
 933      697A6520 
 933      6D69736D 
 934 00e7 00       		.align	2
 935              	.LC13:
 936 00e8 7463705F 		.ascii	"tcp_write: check that first pbuf can hold the compl"
 936      77726974 
 936      653A2063 
 936      6865636B 
 936      20746861 
 937 011b 65746520 		.ascii	"ete seglen\000"
 937      7365676C 
 937      656E00
 938 0126 0000     		.align	2
 939              	.LC14:
 940 0128 6F766572 		.ascii	"oversize == 0\000"
 940      73697A65 
 940      203D3D20 
 940      3000
 941 0136 0000     		.align	2
 942              	.LC15:
 943 0138 70726576 		.ascii	"prev_seg != NULL\000"
 943      5F736567 
 943      20213D20 
ARM GAS  C:\Users\Nina\AppData\Local\Temp\cc9LyW5f.s 			page 46


 943      4E554C4C 
 943      00
 944 0149 000000   		.align	2
 945              	.LC16:
 946 014c 7463705F 		.ascii	"tcp_write: cannot concatenate when pcb->unsent is e"
 946      77726974 
 946      653A2063 
 946      616E6E6F 
 946      7420636F 
 947 017f 6D707479 		.ascii	"mpty\000"
 947      00
 948              		.align	2
 949              	.LC17:
 950 0184 7463705F 		.ascii	"tcp_write: extension of reference requires referenc"
 950      77726974 
 950      653A2065 
 950      7874656E 
 950      73696F6E 
 951 01b7 6500     		.ascii	"e\000"
 952 01b9 000000   		.align	2
 953              	.LC18:
 954 01bc 7463705F 		.ascii	"tcp_write: valid queue length\000"
 954      77726974 
 954      653A2076 
 954      616C6964 
 954      20717565 
 955              		.section	.text.tcp_write,"ax",%progbits
 956              		.align	1
 957              		.global	tcp_write
 958              		.syntax unified
 959              		.thumb
 960              		.thumb_func
 961              		.fpu fpv5-sp-d16
 963              	tcp_write:
 964              	.LVL88:
 965              	.LFB165:
 369:Middlewares/Third_Party/LwIP/src/core/tcp_out.c ****   struct pbuf *concat_p = NULL;
 966              		.loc 1 369 1 is_stmt 1 view -0
 967              		.cfi_startproc
 968              		@ args = 0, pretend = 0, frame = 48
 969              		@ frame_needed = 0, uses_anonymous_args = 0
 369:Middlewares/Third_Party/LwIP/src/core/tcp_out.c ****   struct pbuf *concat_p = NULL;
 970              		.loc 1 369 1 is_stmt 0 view .LVU288
 971 0000 2DE9F04F 		push	{r4, r5, r6, r7, r8, r9, r10, fp, lr}
 972              	.LCFI8:
 973              		.cfi_def_cfa_offset 36
 974              		.cfi_offset 4, -36
 975              		.cfi_offset 5, -32
 976              		.cfi_offset 6, -28
 977              		.cfi_offset 7, -24
 978              		.cfi_offset 8, -20
 979              		.cfi_offset 9, -16
 980              		.cfi_offset 10, -12
 981              		.cfi_offset 11, -8
 982              		.cfi_offset 14, -4
 983 0004 91B0     		sub	sp, sp, #68
 984              	.LCFI9:
ARM GAS  C:\Users\Nina\AppData\Local\Temp\cc9LyW5f.s 			page 47


 985              		.cfi_def_cfa_offset 104
 986 0006 8046     		mov	r8, r0
 987 0008 0891     		str	r1, [sp, #32]
 988 000a 9246     		mov	r10, r2
 989 000c 0793     		str	r3, [sp, #28]
 370:Middlewares/Third_Party/LwIP/src/core/tcp_out.c ****   struct tcp_seg *last_unsent = NULL, *seg = NULL, *prev_seg = NULL, *queue = NULL;
 990              		.loc 1 370 3 is_stmt 1 view .LVU289
 991              	.LVL89:
 371:Middlewares/Third_Party/LwIP/src/core/tcp_out.c ****   u16_t pos = 0; /* position in 'arg' data */
 992              		.loc 1 371 3 view .LVU290
 372:Middlewares/Third_Party/LwIP/src/core/tcp_out.c ****   u16_t queuelen;
 993              		.loc 1 372 3 view .LVU291
 373:Middlewares/Third_Party/LwIP/src/core/tcp_out.c ****   u8_t optlen = 0;
 994              		.loc 1 373 3 view .LVU292
 374:Middlewares/Third_Party/LwIP/src/core/tcp_out.c ****   u8_t optflags = 0;
 995              		.loc 1 374 3 view .LVU293
 375:Middlewares/Third_Party/LwIP/src/core/tcp_out.c **** #if TCP_OVERSIZE
 996              		.loc 1 375 3 view .LVU294
 377:Middlewares/Third_Party/LwIP/src/core/tcp_out.c ****   u16_t oversize_used = 0;
 997              		.loc 1 377 3 view .LVU295
 377:Middlewares/Third_Party/LwIP/src/core/tcp_out.c ****   u16_t oversize_used = 0;
 998              		.loc 1 377 9 is_stmt 0 view .LVU296
 999 000e 0023     		movs	r3, #0
 1000              	.LVL90:
 377:Middlewares/Third_Party/LwIP/src/core/tcp_out.c ****   u16_t oversize_used = 0;
 1001              		.loc 1 377 9 view .LVU297
 1002 0010 ADF83E30 		strh	r3, [sp, #62]	@ movhi
 378:Middlewares/Third_Party/LwIP/src/core/tcp_out.c **** #if TCP_OVERSIZE_DBGCHECK
 1003              		.loc 1 378 3 is_stmt 1 view .LVU298
 1004              	.LVL91:
 383:Middlewares/Third_Party/LwIP/src/core/tcp_out.c **** #if TCP_CHECKSUM_ON_COPY
 1005              		.loc 1 383 3 view .LVU299
 389:Middlewares/Third_Party/LwIP/src/core/tcp_out.c ****   /* don't allocate segments bigger than half the maximum window we ever received */
 1006              		.loc 1 389 3 view .LVU300
 391:Middlewares/Third_Party/LwIP/src/core/tcp_out.c ****   mss_local = mss_local ? mss_local : pcb->mss;
 1007              		.loc 1 391 3 view .LVU301
 391:Middlewares/Third_Party/LwIP/src/core/tcp_out.c ****   mss_local = mss_local ? mss_local : pcb->mss;
 1008              		.loc 1 391 21 is_stmt 0 view .LVU302
 1009 0014 B0F85E30 		ldrh	r3, [r0, #94]
 1010 0018 5B08     		lsrs	r3, r3, #1
 1011 001a B0F832B0 		ldrh	fp, [r0, #50]
 391:Middlewares/Third_Party/LwIP/src/core/tcp_out.c ****   mss_local = mss_local ? mss_local : pcb->mss;
 1012              		.loc 1 391 9 view .LVU303
 1013 001e 5B45     		cmp	r3, fp
 1014 0020 28BF     		it	cs
 1015 0022 5B46     		movcs	r3, fp
 1016              	.LVL92:
 392:Middlewares/Third_Party/LwIP/src/core/tcp_out.c **** 
 1017              		.loc 1 392 3 is_stmt 1 view .LVU304
 392:Middlewares/Third_Party/LwIP/src/core/tcp_out.c **** 
 1018              		.loc 1 392 13 is_stmt 0 view .LVU305
 1019 0024 03B1     		cbz	r3, .L68
 1020 0026 9B46     		mov	fp, r3
 1021              	.L68:
 1022              	.LVL93:
 400:Middlewares/Third_Party/LwIP/src/core/tcp_out.c ****   LWIP_ERROR("tcp_write: arg == NULL (programmer violates API)",
 1023              		.loc 1 400 45 is_stmt 1 discriminator 4 view .LVU306
ARM GAS  C:\Users\Nina\AppData\Local\Temp\cc9LyW5f.s 			page 48


 401:Middlewares/Third_Party/LwIP/src/core/tcp_out.c ****              arg != NULL, return ERR_ARG;);
 1024              		.loc 1 401 3 discriminator 4 view .LVU307
 401:Middlewares/Third_Party/LwIP/src/core/tcp_out.c ****              arg != NULL, return ERR_ARG;);
 1025              		.loc 1 401 3 discriminator 4 view .LVU308
 1026 0028 089B     		ldr	r3, [sp, #32]
 1027 002a 002B     		cmp	r3, #0
 1028 002c 00F08B80 		beq	.L124
 401:Middlewares/Third_Party/LwIP/src/core/tcp_out.c ****              arg != NULL, return ERR_ARG;);
 1029              		.loc 1 401 3 discriminator 2 view .LVU309
 401:Middlewares/Third_Party/LwIP/src/core/tcp_out.c ****              arg != NULL, return ERR_ARG;);
 1030              		.loc 1 401 3 discriminator 2 view .LVU310
 404:Middlewares/Third_Party/LwIP/src/core/tcp_out.c ****   if (err != ERR_OK) {
 1031              		.loc 1 404 3 discriminator 2 view .LVU311
 404:Middlewares/Third_Party/LwIP/src/core/tcp_out.c ****   if (err != ERR_OK) {
 1032              		.loc 1 404 9 is_stmt 0 discriminator 2 view .LVU312
 1033 0030 5146     		mov	r1, r10
 1034              	.LVL94:
 404:Middlewares/Third_Party/LwIP/src/core/tcp_out.c ****   if (err != ERR_OK) {
 1035              		.loc 1 404 9 discriminator 2 view .LVU313
 1036 0032 4046     		mov	r0, r8
 1037              	.LVL95:
 404:Middlewares/Third_Party/LwIP/src/core/tcp_out.c ****   if (err != ERR_OK) {
 1038              		.loc 1 404 9 discriminator 2 view .LVU314
 1039 0034 FFF7FEFF 		bl	tcp_write_checks
 1040              	.LVL96:
 405:Middlewares/Third_Party/LwIP/src/core/tcp_out.c ****     return err;
 1041              		.loc 1 405 3 is_stmt 1 discriminator 2 view .LVU315
 405:Middlewares/Third_Party/LwIP/src/core/tcp_out.c ****     return err;
 1042              		.loc 1 405 6 is_stmt 0 discriminator 2 view .LVU316
 1043 0038 0A90     		str	r0, [sp, #40]
 1044 003a 0028     		cmp	r0, #0
 1045 003c 40F08E81 		bne	.L70
 408:Middlewares/Third_Party/LwIP/src/core/tcp_out.c **** 
 1046              		.loc 1 408 3 is_stmt 1 view .LVU317
 408:Middlewares/Third_Party/LwIP/src/core/tcp_out.c **** 
 1047              		.loc 1 408 12 is_stmt 0 view .LVU318
 1048 0040 B8F86260 		ldrh	r6, [r8, #98]
 1049              	.LVL97:
 445:Middlewares/Third_Party/LwIP/src/core/tcp_out.c ****     u16_t space;
 1050              		.loc 1 445 3 is_stmt 1 view .LVU319
 445:Middlewares/Third_Party/LwIP/src/core/tcp_out.c ****     u16_t space;
 1051              		.loc 1 445 10 is_stmt 0 view .LVU320
 1052 0044 D8F86890 		ldr	r9, [r8, #104]
 445:Middlewares/Third_Party/LwIP/src/core/tcp_out.c ****     u16_t space;
 1053              		.loc 1 445 6 view .LVU321
 1054 0048 B9F1000F 		cmp	r9, #0
 1055 004c 00F0CD80 		beq	.L71
 1056 0050 4B46     		mov	r3, r9
 1057              	.LVL98:
 1058              	.L72:
 1059              	.LBB3:
 450:Middlewares/Third_Party/LwIP/src/core/tcp_out.c ****          last_unsent = last_unsent->next);
 1060              		.loc 1 450 37 is_stmt 1 discriminator 1 view .LVU322
 1061 0052 0993     		str	r3, [sp, #36]
 450:Middlewares/Third_Party/LwIP/src/core/tcp_out.c ****          last_unsent = last_unsent->next);
 1062              		.loc 1 450 48 is_stmt 0 discriminator 1 view .LVU323
 1063 0054 1B68     		ldr	r3, [r3]
ARM GAS  C:\Users\Nina\AppData\Local\Temp\cc9LyW5f.s 			page 49


 1064              	.LVL99:
 450:Middlewares/Third_Party/LwIP/src/core/tcp_out.c ****          last_unsent = last_unsent->next);
 1065              		.loc 1 450 5 discriminator 1 view .LVU324
 1066 0056 002B     		cmp	r3, #0
 1067 0058 FBD1     		bne	.L72
 1068 005a 9946     		mov	r9, r3
 454:Middlewares/Third_Party/LwIP/src/core/tcp_out.c ****     LWIP_ASSERT("mss_local is too small", mss_local >= last_unsent->len + unsent_optlen);
 1069              		.loc 1 454 5 is_stmt 1 view .LVU325
 454:Middlewares/Third_Party/LwIP/src/core/tcp_out.c ****     LWIP_ASSERT("mss_local is too small", mss_local >= last_unsent->len + unsent_optlen);
 1070              		.loc 1 454 21 is_stmt 0 view .LVU326
 1071 005c 099B     		ldr	r3, [sp, #36]
 1072 005e 9C7A     		ldrb	r4, [r3, #10]	@ zero_extendqisi2
 1073 0060 A400     		lsls	r4, r4, #2
 454:Middlewares/Third_Party/LwIP/src/core/tcp_out.c ****     LWIP_ASSERT("mss_local is too small", mss_local >= last_unsent->len + unsent_optlen);
 1074              		.loc 1 454 19 view .LVU327
 1075 0062 04F00404 		and	r4, r4, #4
 1076              	.LVL100:
 455:Middlewares/Third_Party/LwIP/src/core/tcp_out.c ****     space = mss_local - (last_unsent->len + unsent_optlen);
 1077              		.loc 1 455 5 is_stmt 1 view .LVU328
 455:Middlewares/Third_Party/LwIP/src/core/tcp_out.c ****     space = mss_local - (last_unsent->len + unsent_optlen);
 1078              		.loc 1 455 5 view .LVU329
 1079 0066 1B89     		ldrh	r3, [r3, #8]
 1080 0068 2344     		add	r3, r3, r4
 1081 006a 9B45     		cmp	fp, r3
 1082 006c 76DB     		blt	.L125
 1083              	.LVL101:
 1084              	.L73:
 455:Middlewares/Third_Party/LwIP/src/core/tcp_out.c ****     space = mss_local - (last_unsent->len + unsent_optlen);
 1085              		.loc 1 455 5 discriminator 3 view .LVU330
 455:Middlewares/Third_Party/LwIP/src/core/tcp_out.c ****     space = mss_local - (last_unsent->len + unsent_optlen);
 1086              		.loc 1 455 5 discriminator 3 view .LVU331
 456:Middlewares/Third_Party/LwIP/src/core/tcp_out.c **** 
 1087              		.loc 1 456 5 discriminator 3 view .LVU332
 456:Middlewares/Third_Party/LwIP/src/core/tcp_out.c **** 
 1088              		.loc 1 456 37 is_stmt 0 discriminator 3 view .LVU333
 1089 006e 099B     		ldr	r3, [sp, #36]
 1090 0070 1B89     		ldrh	r3, [r3, #8]
 456:Middlewares/Third_Party/LwIP/src/core/tcp_out.c **** 
 1091              		.loc 1 456 43 discriminator 3 view .LVU334
 1092 0072 1C44     		add	r4, r4, r3
 1093              	.LVL102:
 456:Middlewares/Third_Party/LwIP/src/core/tcp_out.c **** 
 1094              		.loc 1 456 43 discriminator 3 view .LVU335
 1095 0074 A4B2     		uxth	r4, r4
 456:Middlewares/Third_Party/LwIP/src/core/tcp_out.c **** 
 1096              		.loc 1 456 11 discriminator 3 view .LVU336
 1097 0076 ABEB0404 		sub	r4, fp, r4
 1098 007a A4B2     		uxth	r4, r4
 1099              	.LVL103:
 471:Middlewares/Third_Party/LwIP/src/core/tcp_out.c ****     if (oversize > 0) {
 1100              		.loc 1 471 5 is_stmt 1 discriminator 3 view .LVU337
 471:Middlewares/Third_Party/LwIP/src/core/tcp_out.c ****     if (oversize > 0) {
 1101              		.loc 1 471 19 is_stmt 0 discriminator 3 view .LVU338
 1102 007c B8F86430 		ldrh	r3, [r8, #100]
 1103 0080 0B93     		str	r3, [sp, #44]
 471:Middlewares/Third_Party/LwIP/src/core/tcp_out.c ****     if (oversize > 0) {
 1104              		.loc 1 471 14 discriminator 3 view .LVU339
ARM GAS  C:\Users\Nina\AppData\Local\Temp\cc9LyW5f.s 			page 50


 1105 0082 ADF83E30 		strh	r3, [sp, #62]	@ movhi
 472:Middlewares/Third_Party/LwIP/src/core/tcp_out.c ****       LWIP_ASSERT("inconsistent oversize vs. space", oversize <= space);
 1106              		.loc 1 472 5 is_stmt 1 discriminator 3 view .LVU340
 472:Middlewares/Third_Party/LwIP/src/core/tcp_out.c ****       LWIP_ASSERT("inconsistent oversize vs. space", oversize <= space);
 1107              		.loc 1 472 8 is_stmt 0 discriminator 3 view .LVU341
 1108 0086 002B     		cmp	r3, #0
 1109 0088 78D0     		beq	.L109
 473:Middlewares/Third_Party/LwIP/src/core/tcp_out.c ****       seg = last_unsent;
 1110              		.loc 1 473 7 is_stmt 1 view .LVU342
 473:Middlewares/Third_Party/LwIP/src/core/tcp_out.c ****       seg = last_unsent;
 1111              		.loc 1 473 7 view .LVU343
 1112 008a A342     		cmp	r3, r4
 1113 008c 6ED8     		bhi	.L126
 1114              	.L75:
 473:Middlewares/Third_Party/LwIP/src/core/tcp_out.c ****       seg = last_unsent;
 1115              		.loc 1 473 7 discriminator 3 view .LVU344
 473:Middlewares/Third_Party/LwIP/src/core/tcp_out.c ****       seg = last_unsent;
 1116              		.loc 1 473 7 discriminator 3 view .LVU345
 474:Middlewares/Third_Party/LwIP/src/core/tcp_out.c ****       oversize_used = LWIP_MIN(space, LWIP_MIN(oversize, len));
 1117              		.loc 1 474 7 discriminator 3 view .LVU346
 1118              	.LVL104:
 475:Middlewares/Third_Party/LwIP/src/core/tcp_out.c ****       pos += oversize_used;
 1119              		.loc 1 475 7 discriminator 3 view .LVU347
 475:Middlewares/Third_Party/LwIP/src/core/tcp_out.c ****       pos += oversize_used;
 1120              		.loc 1 475 23 is_stmt 0 discriminator 3 view .LVU348
 1121 008e BDF83E30 		ldrh	r3, [sp, #62]
 1122 0092 1A46     		mov	r2, r3
 1123 0094 5345     		cmp	r3, r10
 1124 0096 28BF     		it	cs
 1125 0098 5246     		movcs	r2, r10
 475:Middlewares/Third_Party/LwIP/src/core/tcp_out.c ****       pos += oversize_used;
 1126              		.loc 1 475 21 discriminator 3 view .LVU349
 1127 009a A242     		cmp	r2, r4
 1128 009c 28BF     		it	cs
 1129 009e 2246     		movcs	r2, r4
 1130 00a0 0B92     		str	r2, [sp, #44]
 1131              	.LVL105:
 476:Middlewares/Third_Party/LwIP/src/core/tcp_out.c ****       oversize -= oversize_used;
 1132              		.loc 1 476 7 is_stmt 1 discriminator 3 view .LVU350
 477:Middlewares/Third_Party/LwIP/src/core/tcp_out.c ****       space -= oversize_used;
 1133              		.loc 1 477 7 discriminator 3 view .LVU351
 477:Middlewares/Third_Party/LwIP/src/core/tcp_out.c ****       space -= oversize_used;
 1134              		.loc 1 477 16 is_stmt 0 discriminator 3 view .LVU352
 1135 00a2 9B1A     		subs	r3, r3, r2
 1136 00a4 ADF83E30 		strh	r3, [sp, #62]	@ movhi
 478:Middlewares/Third_Party/LwIP/src/core/tcp_out.c ****     }
 1137              		.loc 1 478 7 is_stmt 1 discriminator 3 view .LVU353
 478:Middlewares/Third_Party/LwIP/src/core/tcp_out.c ****     }
 1138              		.loc 1 478 13 is_stmt 0 discriminator 3 view .LVU354
 1139 00a8 A41A     		subs	r4, r4, r2
 1140              	.LVL106:
 478:Middlewares/Third_Party/LwIP/src/core/tcp_out.c ****     }
 1141              		.loc 1 478 13 discriminator 3 view .LVU355
 1142 00aa A4B2     		uxth	r4, r4
 1143              	.LVL107:
 474:Middlewares/Third_Party/LwIP/src/core/tcp_out.c ****       oversize_used = LWIP_MIN(space, LWIP_MIN(oversize, len));
 1144              		.loc 1 474 11 discriminator 3 view .LVU356
ARM GAS  C:\Users\Nina\AppData\Local\Temp\cc9LyW5f.s 			page 51


 1145 00ac 099F     		ldr	r7, [sp, #36]
 1146              	.LVL108:
 1147              	.L74:
 481:Middlewares/Third_Party/LwIP/src/core/tcp_out.c **** #endif /* TCP_OVERSIZE */
 1148              		.loc 1 481 5 is_stmt 1 view .LVU357
 481:Middlewares/Third_Party/LwIP/src/core/tcp_out.c **** #endif /* TCP_OVERSIZE */
 1149              		.loc 1 481 5 view .LVU358
 1150 00ae BDF83E20 		ldrh	r2, [sp, #62]
 1151 00b2 0B9B     		ldr	r3, [sp, #44]
 1152 00b4 B3EB0A03 		subs	r3, r3, r10
 1153 00b8 18BF     		it	ne
 1154 00ba 0123     		movne	r3, #1
 1155 00bc 002A     		cmp	r2, #0
 1156 00be 08BF     		it	eq
 1157 00c0 0023     		moveq	r3, #0
 1158 00c2 002B     		cmp	r3, #0
 1159 00c4 5CD1     		bne	.L127
 1160              	.L76:
 481:Middlewares/Third_Party/LwIP/src/core/tcp_out.c **** #endif /* TCP_OVERSIZE */
 1161              		.loc 1 481 5 discriminator 3 view .LVU359
 481:Middlewares/Third_Party/LwIP/src/core/tcp_out.c **** #endif /* TCP_OVERSIZE */
 1162              		.loc 1 481 5 discriminator 3 view .LVU360
 495:Middlewares/Third_Party/LwIP/src/core/tcp_out.c ****       u16_t seglen = LWIP_MIN(space, len - pos);
 1163              		.loc 1 495 5 discriminator 3 view .LVU361
 495:Middlewares/Third_Party/LwIP/src/core/tcp_out.c ****       u16_t seglen = LWIP_MIN(space, len - pos);
 1164              		.loc 1 495 8 is_stmt 0 discriminator 3 view .LVU362
 1165 00c6 0B9B     		ldr	r3, [sp, #44]
 1166 00c8 002C     		cmp	r4, #0
 1167 00ca 18BF     		it	ne
 1168 00cc 5345     		cmpne	r3, r10
 1169 00ce 80F05381 		bcs	.L110
 495:Middlewares/Third_Party/LwIP/src/core/tcp_out.c ****       u16_t seglen = LWIP_MIN(space, len - pos);
 1170              		.loc 1 495 51 discriminator 1 view .LVU363
 1171 00d2 099A     		ldr	r2, [sp, #36]
 1172 00d4 1289     		ldrh	r2, [r2, #8]
 1173 00d6 0D92     		str	r2, [sp, #52]
 495:Middlewares/Third_Party/LwIP/src/core/tcp_out.c ****       u16_t seglen = LWIP_MIN(space, len - pos);
 1174              		.loc 1 495 36 discriminator 1 view .LVU364
 1175 00d8 002A     		cmp	r2, #0
 1176 00da 00F05681 		beq	.L111
 1177              	.LBB4:
 496:Middlewares/Third_Party/LwIP/src/core/tcp_out.c ****       seg = last_unsent;
 1178              		.loc 1 496 7 is_stmt 1 view .LVU365
 496:Middlewares/Third_Party/LwIP/src/core/tcp_out.c ****       seg = last_unsent;
 1179              		.loc 1 496 22 is_stmt 0 view .LVU366
 1180 00de AAEB0305 		sub	r5, r10, r3
 1181 00e2 A542     		cmp	r5, r4
 1182 00e4 A8BF     		it	ge
 1183 00e6 2546     		movge	r5, r4
 496:Middlewares/Third_Party/LwIP/src/core/tcp_out.c ****       seg = last_unsent;
 1184              		.loc 1 496 13 view .LVU367
 1185 00e8 AFB2     		uxth	r7, r5
 1186              	.LVL109:
 497:Middlewares/Third_Party/LwIP/src/core/tcp_out.c **** 
 1187              		.loc 1 497 7 is_stmt 1 view .LVU368
 502:Middlewares/Third_Party/LwIP/src/core/tcp_out.c ****         /* Data is copied */
 1188              		.loc 1 502 7 view .LVU369
ARM GAS  C:\Users\Nina\AppData\Local\Temp\cc9LyW5f.s 			page 52


 502:Middlewares/Third_Party/LwIP/src/core/tcp_out.c ****         /* Data is copied */
 1189              		.loc 1 502 10 is_stmt 0 view .LVU370
 1190 00ea 079B     		ldr	r3, [sp, #28]
 1191 00ec 13F0010F 		tst	r3, #1
 1192 00f0 4ED1     		bne	.L128
 1193              	.LBB5:
 521:Middlewares/Third_Party/LwIP/src/core/tcp_out.c ****         for (p = last_unsent->p; p->next != NULL; p = p->next);
 1194              		.loc 1 521 9 is_stmt 1 view .LVU371
 522:Middlewares/Third_Party/LwIP/src/core/tcp_out.c ****         if (p->type == PBUF_ROM && (const u8_t *)p->payload + p->len == (const u8_t *)arg) {
 1195              		.loc 1 522 9 view .LVU372
 522:Middlewares/Third_Party/LwIP/src/core/tcp_out.c ****         if (p->type == PBUF_ROM && (const u8_t *)p->payload + p->len == (const u8_t *)arg) {
 1196              		.loc 1 522 16 is_stmt 0 view .LVU373
 1197 00f2 099B     		ldr	r3, [sp, #36]
 1198 00f4 D3F80490 		ldr	r9, [r3, #4]
 1199              	.LVL110:
 522:Middlewares/Third_Party/LwIP/src/core/tcp_out.c ****         if (p->type == PBUF_ROM && (const u8_t *)p->payload + p->len == (const u8_t *)arg) {
 1200              		.loc 1 522 16 view .LVU374
 1201 00f8 4A46     		mov	r2, r9
 1202              	.LVL111:
 1203              	.L81:
 522:Middlewares/Third_Party/LwIP/src/core/tcp_out.c ****         if (p->type == PBUF_ROM && (const u8_t *)p->payload + p->len == (const u8_t *)arg) {
 1204              		.loc 1 522 34 is_stmt 1 discriminator 1 view .LVU375
 1205 00fa 1346     		mov	r3, r2
 522:Middlewares/Third_Party/LwIP/src/core/tcp_out.c ****         if (p->type == PBUF_ROM && (const u8_t *)p->payload + p->len == (const u8_t *)arg) {
 1206              		.loc 1 522 35 is_stmt 0 discriminator 1 view .LVU376
 1207 00fc 1268     		ldr	r2, [r2]
 1208              	.LVL112:
 522:Middlewares/Third_Party/LwIP/src/core/tcp_out.c ****         if (p->type == PBUF_ROM && (const u8_t *)p->payload + p->len == (const u8_t *)arg) {
 1209              		.loc 1 522 9 discriminator 1 view .LVU377
 1210 00fe 002A     		cmp	r2, #0
 1211 0100 FBD1     		bne	.L81
 1212 0102 9146     		mov	r9, r2
 523:Middlewares/Third_Party/LwIP/src/core/tcp_out.c ****           LWIP_ASSERT("tcp_write: ROM pbufs cannot be oversized", pos == 0);
 1213              		.loc 1 523 9 is_stmt 1 view .LVU378
 523:Middlewares/Third_Party/LwIP/src/core/tcp_out.c ****           LWIP_ASSERT("tcp_write: ROM pbufs cannot be oversized", pos == 0);
 1214              		.loc 1 523 14 is_stmt 0 view .LVU379
 1215 0104 1A7B     		ldrb	r2, [r3, #12]	@ zero_extendqisi2
 523:Middlewares/Third_Party/LwIP/src/core/tcp_out.c ****           LWIP_ASSERT("tcp_write: ROM pbufs cannot be oversized", pos == 0);
 1216              		.loc 1 523 12 view .LVU380
 1217 0106 012A     		cmp	r2, #1
 1218 0108 05D1     		bne	.L82
 523:Middlewares/Third_Party/LwIP/src/core/tcp_out.c ****           LWIP_ASSERT("tcp_write: ROM pbufs cannot be oversized", pos == 0);
 1219              		.loc 1 523 51 discriminator 1 view .LVU381
 1220 010a 5A68     		ldr	r2, [r3, #4]
 523:Middlewares/Third_Party/LwIP/src/core/tcp_out.c ****           LWIP_ASSERT("tcp_write: ROM pbufs cannot be oversized", pos == 0);
 1221              		.loc 1 523 64 discriminator 1 view .LVU382
 1222 010c 5B89     		ldrh	r3, [r3, #10]
 1223              	.LVL113:
 523:Middlewares/Third_Party/LwIP/src/core/tcp_out.c ****           LWIP_ASSERT("tcp_write: ROM pbufs cannot be oversized", pos == 0);
 1224              		.loc 1 523 61 discriminator 1 view .LVU383
 1225 010e 1344     		add	r3, r3, r2
 523:Middlewares/Third_Party/LwIP/src/core/tcp_out.c ****           LWIP_ASSERT("tcp_write: ROM pbufs cannot be oversized", pos == 0);
 1226              		.loc 1 523 33 discriminator 1 view .LVU384
 1227 0110 089A     		ldr	r2, [sp, #32]
 1228 0112 9342     		cmp	r3, r2
 1229 0114 5CD0     		beq	.L129
 1230              	.L82:
ARM GAS  C:\Users\Nina\AppData\Local\Temp\cc9LyW5f.s 			page 53


 527:Middlewares/Third_Party/LwIP/src/core/tcp_out.c ****             LWIP_DEBUGF(TCP_OUTPUT_DEBUG | LWIP_DBG_LEVEL_SERIOUS,
 1231              		.loc 1 527 11 is_stmt 1 view .LVU385
 527:Middlewares/Third_Party/LwIP/src/core/tcp_out.c ****             LWIP_DEBUGF(TCP_OUTPUT_DEBUG | LWIP_DBG_LEVEL_SERIOUS,
 1232              		.loc 1 527 27 is_stmt 0 view .LVU386
 1233 0116 0122     		movs	r2, #1
 1234 0118 3946     		mov	r1, r7
 1235 011a 0420     		movs	r0, #4
 1236 011c FFF7FEFF 		bl	pbuf_alloc
 1237              	.LVL114:
 527:Middlewares/Third_Party/LwIP/src/core/tcp_out.c ****             LWIP_DEBUGF(TCP_OUTPUT_DEBUG | LWIP_DBG_LEVEL_SERIOUS,
 1238              		.loc 1 527 14 view .LVU387
 1239 0120 8146     		mov	r9, r0
 1240 0122 0028     		cmp	r0, #0
 1241 0124 00F0EC81 		beq	.L114
 533:Middlewares/Third_Party/LwIP/src/core/tcp_out.c ****           queuelen += pbuf_clen(concat_p);
 1242              		.loc 1 533 11 is_stmt 1 view .LVU388
 533:Middlewares/Third_Party/LwIP/src/core/tcp_out.c ****           queuelen += pbuf_clen(concat_p);
 1243              		.loc 1 533 68 is_stmt 0 view .LVU389
 1244 0128 089B     		ldr	r3, [sp, #32]
 1245 012a 0B9A     		ldr	r2, [sp, #44]
 1246 012c 1344     		add	r3, r3, r2
 533:Middlewares/Third_Party/LwIP/src/core/tcp_out.c ****           queuelen += pbuf_clen(concat_p);
 1247              		.loc 1 533 49 view .LVU390
 1248 012e 4360     		str	r3, [r0, #4]
 534:Middlewares/Third_Party/LwIP/src/core/tcp_out.c ****         }
 1249              		.loc 1 534 11 is_stmt 1 view .LVU391
 534:Middlewares/Third_Party/LwIP/src/core/tcp_out.c ****         }
 1250              		.loc 1 534 23 is_stmt 0 view .LVU392
 1251 0130 FFF7FEFF 		bl	pbuf_clen
 1252              	.LVL115:
 534:Middlewares/Third_Party/LwIP/src/core/tcp_out.c ****         }
 1253              		.loc 1 534 20 view .LVU393
 1254 0134 0644     		add	r6, r6, r0
 1255              	.LVL116:
 534:Middlewares/Third_Party/LwIP/src/core/tcp_out.c ****         }
 1256              		.loc 1 534 20 view .LVU394
 1257 0136 B6B2     		uxth	r6, r6
 1258              	.LVL117:
 534:Middlewares/Third_Party/LwIP/src/core/tcp_out.c ****         }
 1259              		.loc 1 534 20 view .LVU395
 1260              	.LBE5:
 1261              	.LBE4:
 1262              	.LBE3:
 383:Middlewares/Third_Party/LwIP/src/core/tcp_out.c **** #if TCP_CHECKSUM_ON_COPY
 1263              		.loc 1 383 9 view .LVU396
 1264 0138 0023     		movs	r3, #0
 1265 013a 0D93     		str	r3, [sp, #52]
 1266              	.LVL118:
 1267              	.L80:
 1268              	.LBB10:
 1269              	.LBB7:
 544:Middlewares/Third_Party/LwIP/src/core/tcp_out.c ****     }
 1270              		.loc 1 544 7 is_stmt 1 view .LVU397
 544:Middlewares/Third_Party/LwIP/src/core/tcp_out.c ****     }
 1271              		.loc 1 544 11 is_stmt 0 view .LVU398
 1272 013c 0B9B     		ldr	r3, [sp, #44]
 1273 013e DC19     		adds	r4, r3, r7
ARM GAS  C:\Users\Nina\AppData\Local\Temp\cc9LyW5f.s 			page 54


 1274              	.LVL119:
 544:Middlewares/Third_Party/LwIP/src/core/tcp_out.c ****     }
 1275              		.loc 1 544 11 view .LVU399
 1276 0140 A4B2     		uxth	r4, r4
 1277              	.LVL120:
 497:Middlewares/Third_Party/LwIP/src/core/tcp_out.c **** 
 1278              		.loc 1 497 11 view .LVU400
 1279 0142 099F     		ldr	r7, [sp, #36]
 1280              	.LVL121:
 497:Middlewares/Third_Party/LwIP/src/core/tcp_out.c **** 
 1281              		.loc 1 497 11 view .LVU401
 1282 0144 1BE1     		b	.L77
 1283              	.LVL122:
 1284              	.L124:
 497:Middlewares/Third_Party/LwIP/src/core/tcp_out.c **** 
 1285              		.loc 1 497 11 view .LVU402
 1286              	.LBE7:
 1287              	.LBE10:
 401:Middlewares/Third_Party/LwIP/src/core/tcp_out.c ****              arg != NULL, return ERR_ARG;);
 1288              		.loc 1 401 3 is_stmt 1 discriminator 1 view .LVU403
 401:Middlewares/Third_Party/LwIP/src/core/tcp_out.c ****              arg != NULL, return ERR_ARG;);
 1289              		.loc 1 401 3 discriminator 1 view .LVU404
 1290 0146 A04B     		ldr	r3, .L144
 1291 0148 40F29112 		movw	r2, #401
 1292              	.LVL123:
 401:Middlewares/Third_Party/LwIP/src/core/tcp_out.c ****              arg != NULL, return ERR_ARG;);
 1293              		.loc 1 401 3 is_stmt 0 discriminator 1 view .LVU405
 1294 014c 9F49     		ldr	r1, .L144+4
 1295              	.LVL124:
 401:Middlewares/Third_Party/LwIP/src/core/tcp_out.c ****              arg != NULL, return ERR_ARG;);
 1296              		.loc 1 401 3 discriminator 1 view .LVU406
 1297 014e A048     		ldr	r0, .L144+8
 1298              	.LVL125:
 401:Middlewares/Third_Party/LwIP/src/core/tcp_out.c ****              arg != NULL, return ERR_ARG;);
 1299              		.loc 1 401 3 discriminator 1 view .LVU407
 1300 0150 FFF7FEFF 		bl	printf
 1301              	.LVL126:
 401:Middlewares/Third_Party/LwIP/src/core/tcp_out.c ****              arg != NULL, return ERR_ARG;);
 1302              		.loc 1 401 3 is_stmt 1 discriminator 1 view .LVU408
 401:Middlewares/Third_Party/LwIP/src/core/tcp_out.c ****              arg != NULL, return ERR_ARG;);
 1303              		.loc 1 401 3 discriminator 1 view .LVU409
 1304 0154 6FF00F03 		mvn	r3, #15
 1305 0158 0A93     		str	r3, [sp, #40]
 1306 015a FFE0     		b	.L70
 1307              	.LVL127:
 1308              	.L125:
 1309              	.LBB11:
 455:Middlewares/Third_Party/LwIP/src/core/tcp_out.c ****     space = mss_local - (last_unsent->len + unsent_optlen);
 1310              		.loc 1 455 5 discriminator 1 view .LVU410
 455:Middlewares/Third_Party/LwIP/src/core/tcp_out.c ****     space = mss_local - (last_unsent->len + unsent_optlen);
 1311              		.loc 1 455 5 discriminator 1 view .LVU411
 1312 015c 9A4B     		ldr	r3, .L144
 1313 015e 40F2C712 		movw	r2, #455
 1314 0162 9C49     		ldr	r1, .L144+12
 1315 0164 9A48     		ldr	r0, .L144+8
 1316              	.LVL128:
 455:Middlewares/Third_Party/LwIP/src/core/tcp_out.c ****     space = mss_local - (last_unsent->len + unsent_optlen);
ARM GAS  C:\Users\Nina\AppData\Local\Temp\cc9LyW5f.s 			page 55


 1317              		.loc 1 455 5 is_stmt 0 discriminator 1 view .LVU412
 1318 0166 FFF7FEFF 		bl	printf
 1319              	.LVL129:
 1320 016a 80E7     		b	.L73
 1321              	.LVL130:
 1322              	.L126:
 473:Middlewares/Third_Party/LwIP/src/core/tcp_out.c ****       seg = last_unsent;
 1323              		.loc 1 473 7 is_stmt 1 discriminator 1 view .LVU413
 473:Middlewares/Third_Party/LwIP/src/core/tcp_out.c ****       seg = last_unsent;
 1324              		.loc 1 473 7 discriminator 1 view .LVU414
 1325 016c 964B     		ldr	r3, .L144
 1326 016e 40F2D912 		movw	r2, #473
 1327 0172 9949     		ldr	r1, .L144+16
 1328 0174 9648     		ldr	r0, .L144+8
 1329 0176 FFF7FEFF 		bl	printf
 1330              	.LVL131:
 1331 017a 88E7     		b	.L75
 1332              	.L109:
 1333              	.LBE11:
 371:Middlewares/Third_Party/LwIP/src/core/tcp_out.c ****   u16_t pos = 0; /* position in 'arg' data */
 1334              		.loc 1 371 40 is_stmt 0 view .LVU415
 1335 017c 4F46     		mov	r7, r9
 1336 017e 96E7     		b	.L74
 1337              	.LVL132:
 1338              	.L127:
 1339              	.LBB12:
 481:Middlewares/Third_Party/LwIP/src/core/tcp_out.c **** #endif /* TCP_OVERSIZE */
 1340              		.loc 1 481 5 is_stmt 1 discriminator 1 view .LVU416
 481:Middlewares/Third_Party/LwIP/src/core/tcp_out.c **** #endif /* TCP_OVERSIZE */
 1341              		.loc 1 481 5 discriminator 1 view .LVU417
 1342 0180 914B     		ldr	r3, .L144
 1343 0182 40F2E112 		movw	r2, #481
 1344 0186 9549     		ldr	r1, .L144+20
 1345 0188 9148     		ldr	r0, .L144+8
 1346 018a FFF7FEFF 		bl	printf
 1347              	.LVL133:
 1348 018e 9AE7     		b	.L76
 1349              	.LVL134:
 1350              	.L128:
 1351              	.LBB8:
 504:Middlewares/Third_Party/LwIP/src/core/tcp_out.c ****           LWIP_DEBUGF(TCP_OUTPUT_DEBUG | LWIP_DBG_LEVEL_SERIOUS,
 1352              		.loc 1 504 9 view .LVU418
 504:Middlewares/Third_Party/LwIP/src/core/tcp_out.c ****           LWIP_DEBUGF(TCP_OUTPUT_DEBUG | LWIP_DBG_LEVEL_SERIOUS,
 1353              		.loc 1 504 25 is_stmt 0 view .LVU419
 1354 0190 0123     		movs	r3, #1
 1355 0192 0293     		str	r3, [sp, #8]
 1356 0194 079B     		ldr	r3, [sp, #28]
 1357 0196 0193     		str	r3, [sp, #4]
 1358 0198 CDF80080 		str	r8, [sp]
 1359 019c 0DF13E03 		add	r3, sp, #62
 1360 01a0 2246     		mov	r2, r4
 1361 01a2 3946     		mov	r1, r7
 1362 01a4 0420     		movs	r0, #4
 1363 01a6 FFF7FEFF 		bl	tcp_pbuf_prealloc
 1364              	.LVL135:
 504:Middlewares/Third_Party/LwIP/src/core/tcp_out.c ****           LWIP_DEBUGF(TCP_OUTPUT_DEBUG | LWIP_DBG_LEVEL_SERIOUS,
 1365              		.loc 1 504 12 view .LVU420
ARM GAS  C:\Users\Nina\AppData\Local\Temp\cc9LyW5f.s 			page 56


 1366 01aa 8146     		mov	r9, r0
 1367 01ac 0028     		cmp	r0, #0
 1368 01ae 00F0A581 		beq	.L112
 513:Middlewares/Third_Party/LwIP/src/core/tcp_out.c **** #if TCP_CHECKSUM_ON_COPY
 1369              		.loc 1 513 9 is_stmt 1 view .LVU421
 1370 01b2 3A46     		mov	r2, r7
 1371 01b4 089B     		ldr	r3, [sp, #32]
 1372 01b6 0B99     		ldr	r1, [sp, #44]
 1373 01b8 5918     		adds	r1, r3, r1
 1374 01ba 4068     		ldr	r0, [r0, #4]
 1375              	.LVL136:
 513:Middlewares/Third_Party/LwIP/src/core/tcp_out.c **** #if TCP_CHECKSUM_ON_COPY
 1376              		.loc 1 513 9 is_stmt 0 view .LVU422
 1377 01bc FFF7FEFF 		bl	memcpy
 1378              	.LVL137:
 517:Middlewares/Third_Party/LwIP/src/core/tcp_out.c ****       } else {
 1379              		.loc 1 517 9 is_stmt 1 view .LVU423
 517:Middlewares/Third_Party/LwIP/src/core/tcp_out.c ****       } else {
 1380              		.loc 1 517 21 is_stmt 0 view .LVU424
 1381 01c0 4846     		mov	r0, r9
 1382 01c2 FFF7FEFF 		bl	pbuf_clen
 1383              	.LVL138:
 517:Middlewares/Third_Party/LwIP/src/core/tcp_out.c ****       } else {
 1384              		.loc 1 517 18 view .LVU425
 1385 01c6 0644     		add	r6, r6, r0
 1386              	.LVL139:
 517:Middlewares/Third_Party/LwIP/src/core/tcp_out.c ****       } else {
 1387              		.loc 1 517 18 view .LVU426
 1388 01c8 B6B2     		uxth	r6, r6
 1389              	.LVL140:
 517:Middlewares/Third_Party/LwIP/src/core/tcp_out.c ****       } else {
 1390              		.loc 1 517 18 view .LVU427
 1391              	.LBE8:
 1392              	.LBE12:
 383:Middlewares/Third_Party/LwIP/src/core/tcp_out.c **** #if TCP_CHECKSUM_ON_COPY
 1393              		.loc 1 383 9 view .LVU428
 1394 01ca 0023     		movs	r3, #0
 1395 01cc 0D93     		str	r3, [sp, #52]
 1396              	.LBB13:
 1397              	.LBB9:
 1398 01ce B5E7     		b	.L80
 1399              	.LVL141:
 1400              	.L129:
 1401              	.LBB6:
 524:Middlewares/Third_Party/LwIP/src/core/tcp_out.c ****           extendlen = seglen;
 1402              		.loc 1 524 11 is_stmt 1 view .LVU429
 524:Middlewares/Third_Party/LwIP/src/core/tcp_out.c ****           extendlen = seglen;
 1403              		.loc 1 524 11 view .LVU430
 1404 01d0 0B9B     		ldr	r3, [sp, #44]
 1405 01d2 0BB9     		cbnz	r3, .L130
 525:Middlewares/Third_Party/LwIP/src/core/tcp_out.c ****         } else {
 1406              		.loc 1 525 21 is_stmt 0 view .LVU431
 1407 01d4 0D97     		str	r7, [sp, #52]
 1408 01d6 B1E7     		b	.L80
 1409              	.L130:
 524:Middlewares/Third_Party/LwIP/src/core/tcp_out.c ****           extendlen = seglen;
 1410              		.loc 1 524 11 is_stmt 1 discriminator 1 view .LVU432
ARM GAS  C:\Users\Nina\AppData\Local\Temp\cc9LyW5f.s 			page 57


 524:Middlewares/Third_Party/LwIP/src/core/tcp_out.c ****           extendlen = seglen;
 1411              		.loc 1 524 11 discriminator 1 view .LVU433
 1412 01d8 7B4B     		ldr	r3, .L144
 1413 01da 4FF40372 		mov	r2, #524
 1414 01de 8049     		ldr	r1, .L144+24
 1415 01e0 7B48     		ldr	r0, .L144+8
 1416 01e2 FFF7FEFF 		bl	printf
 1417              	.LVL142:
 525:Middlewares/Third_Party/LwIP/src/core/tcp_out.c ****         } else {
 1418              		.loc 1 525 21 is_stmt 0 discriminator 1 view .LVU434
 1419 01e6 0D97     		str	r7, [sp, #52]
 1420 01e8 A8E7     		b	.L80
 1421              	.LVL143:
 1422              	.L71:
 525:Middlewares/Third_Party/LwIP/src/core/tcp_out.c ****         } else {
 1423              		.loc 1 525 21 discriminator 1 view .LVU435
 1424              	.LBE6:
 1425              	.LBE9:
 1426              	.LBE13:
 548:Middlewares/Third_Party/LwIP/src/core/tcp_out.c ****                 pcb->unsent_oversize == 0);
 1427              		.loc 1 548 5 is_stmt 1 discriminator 2 view .LVU436
 548:Middlewares/Third_Party/LwIP/src/core/tcp_out.c ****                 pcb->unsent_oversize == 0);
 1428              		.loc 1 548 5 discriminator 2 view .LVU437
 1429 01ea B8F86440 		ldrh	r4, [r8, #100]
 1430 01ee 2CB9     		cbnz	r4, .L131
 383:Middlewares/Third_Party/LwIP/src/core/tcp_out.c **** #if TCP_CHECKSUM_ON_COPY
 1431              		.loc 1 383 9 is_stmt 0 view .LVU438
 1432 01f0 0D94     		str	r4, [sp, #52]
 378:Middlewares/Third_Party/LwIP/src/core/tcp_out.c **** #if TCP_OVERSIZE_DBGCHECK
 1433              		.loc 1 378 9 view .LVU439
 1434 01f2 0B94     		str	r4, [sp, #44]
 371:Middlewares/Third_Party/LwIP/src/core/tcp_out.c ****   u16_t pos = 0; /* position in 'arg' data */
 1435              		.loc 1 371 40 view .LVU440
 1436 01f4 4F46     		mov	r7, r9
 371:Middlewares/Third_Party/LwIP/src/core/tcp_out.c ****   u16_t pos = 0; /* position in 'arg' data */
 1437              		.loc 1 371 19 view .LVU441
 1438 01f6 CDF82490 		str	r9, [sp, #36]
 1439 01fa C0E0     		b	.L77
 1440              	.L131:
 548:Middlewares/Third_Party/LwIP/src/core/tcp_out.c ****                 pcb->unsent_oversize == 0);
 1441              		.loc 1 548 5 is_stmt 1 discriminator 1 view .LVU442
 548:Middlewares/Third_Party/LwIP/src/core/tcp_out.c ****                 pcb->unsent_oversize == 0);
 1442              		.loc 1 548 5 discriminator 1 view .LVU443
 1443 01fc 724B     		ldr	r3, .L144
 1444 01fe 4FF40972 		mov	r2, #548
 1445 0202 7849     		ldr	r1, .L144+28
 1446 0204 7248     		ldr	r0, .L144+8
 1447              	.LVL144:
 548:Middlewares/Third_Party/LwIP/src/core/tcp_out.c ****                 pcb->unsent_oversize == 0);
 1448              		.loc 1 548 5 is_stmt 0 discriminator 1 view .LVU444
 1449 0206 FFF7FEFF 		bl	printf
 1450              	.LVL145:
 371:Middlewares/Third_Party/LwIP/src/core/tcp_out.c ****   u16_t pos = 0; /* position in 'arg' data */
 1451              		.loc 1 371 40 discriminator 1 view .LVU445
 1452 020a 4F46     		mov	r7, r9
 371:Middlewares/Third_Party/LwIP/src/core/tcp_out.c ****   u16_t pos = 0; /* position in 'arg' data */
 1453              		.loc 1 371 19 discriminator 1 view .LVU446
ARM GAS  C:\Users\Nina\AppData\Local\Temp\cc9LyW5f.s 			page 58


 1454 020c CDF82490 		str	r9, [sp, #36]
 383:Middlewares/Third_Party/LwIP/src/core/tcp_out.c **** #if TCP_CHECKSUM_ON_COPY
 1455              		.loc 1 383 9 discriminator 1 view .LVU447
 1456 0210 0024     		movs	r4, #0
 1457 0212 0D94     		str	r4, [sp, #52]
 378:Middlewares/Third_Party/LwIP/src/core/tcp_out.c **** #if TCP_OVERSIZE_DBGCHECK
 1458              		.loc 1 378 9 discriminator 1 view .LVU448
 1459 0214 0B94     		str	r4, [sp, #44]
 1460 0216 B2E0     		b	.L77
 1461              	.LVL146:
 1462              	.L137:
 1463              	.LBB14:
 572:Middlewares/Third_Party/LwIP/src/core/tcp_out.c ****         LWIP_DEBUGF(TCP_OUTPUT_DEBUG | LWIP_DBG_LEVEL_SERIOUS, ("tcp_write : could not allocate mem
 1464              		.loc 1 572 7 is_stmt 1 view .LVU449
 572:Middlewares/Third_Party/LwIP/src/core/tcp_out.c ****         LWIP_DEBUGF(TCP_OUTPUT_DEBUG | LWIP_DBG_LEVEL_SERIOUS, ("tcp_write : could not allocate mem
 1465              		.loc 1 572 16 is_stmt 0 view .LVU450
 1466 0218 069B     		ldr	r3, [sp, #24]
 1467 021a B3FA83F3 		clz	r3, r3
 1468 021e 5B09     		lsrs	r3, r3, #5
 1469 0220 0293     		str	r3, [sp, #8]
 1470 0222 079B     		ldr	r3, [sp, #28]
 1471 0224 0193     		str	r3, [sp, #4]
 1472 0226 CDF80080 		str	r8, [sp]
 1473 022a 0DF13E03 		add	r3, sp, #62
 1474 022e 5A46     		mov	r2, fp
 1475 0230 2946     		mov	r1, r5
 1476 0232 0020     		movs	r0, #0
 1477 0234 FFF7FEFF 		bl	tcp_pbuf_prealloc
 1478              	.LVL147:
 572:Middlewares/Third_Party/LwIP/src/core/tcp_out.c ****         LWIP_DEBUGF(TCP_OUTPUT_DEBUG | LWIP_DBG_LEVEL_SERIOUS, ("tcp_write : could not allocate mem
 1479              		.loc 1 572 10 view .LVU451
 1480 0238 0746     		mov	r7, r0
 1481              	.LVL148:
 572:Middlewares/Third_Party/LwIP/src/core/tcp_out.c ****         LWIP_DEBUGF(TCP_OUTPUT_DEBUG | LWIP_DBG_LEVEL_SERIOUS, ("tcp_write : could not allocate mem
 1482              		.loc 1 572 10 view .LVU452
 1483 023a 0028     		cmp	r0, #0
 1484 023c 00F06281 		beq	.L120
 576:Middlewares/Third_Party/LwIP/src/core/tcp_out.c ****                   (p->len >= seglen));
 1485              		.loc 1 576 7 is_stmt 1 view .LVU453
 576:Middlewares/Third_Party/LwIP/src/core/tcp_out.c ****                   (p->len >= seglen));
 1486              		.loc 1 576 7 view .LVU454
 1487 0240 4389     		ldrh	r3, [r0, #10]
 1488 0242 AB42     		cmp	r3, r5
 1489 0244 06D3     		bcc	.L132
 1490              	.LVL149:
 1491              	.L84:
 576:Middlewares/Third_Party/LwIP/src/core/tcp_out.c ****                   (p->len >= seglen));
 1492              		.loc 1 576 7 discriminator 3 view .LVU455
 576:Middlewares/Third_Party/LwIP/src/core/tcp_out.c ****                   (p->len >= seglen));
 1493              		.loc 1 576 7 discriminator 3 view .LVU456
 578:Middlewares/Third_Party/LwIP/src/core/tcp_out.c ****     } else {
 1494              		.loc 1 578 7 discriminator 3 view .LVU457
 1495 0246 2A46     		mov	r2, r5
 1496 0248 089B     		ldr	r3, [sp, #32]
 1497 024a 1919     		adds	r1, r3, r4
 1498 024c 7868     		ldr	r0, [r7, #4]
 1499 024e FFF7FEFF 		bl	memcpy
ARM GAS  C:\Users\Nina\AppData\Local\Temp\cc9LyW5f.s 			page 59


 1500              	.LVL150:
 1501 0252 25E0     		b	.L85
 1502              	.LVL151:
 1503              	.L132:
 576:Middlewares/Third_Party/LwIP/src/core/tcp_out.c ****                   (p->len >= seglen));
 1504              		.loc 1 576 7 discriminator 1 view .LVU458
 576:Middlewares/Third_Party/LwIP/src/core/tcp_out.c ****                   (p->len >= seglen));
 1505              		.loc 1 576 7 discriminator 1 view .LVU459
 1506 0254 5C4B     		ldr	r3, .L144
 1507 0256 4FF41072 		mov	r2, #576
 1508 025a 6349     		ldr	r1, .L144+32
 1509 025c 5C48     		ldr	r0, .L144+8
 1510              	.LVL152:
 576:Middlewares/Third_Party/LwIP/src/core/tcp_out.c ****                   (p->len >= seglen));
 1511              		.loc 1 576 7 is_stmt 0 discriminator 1 view .LVU460
 1512 025e FFF7FEFF 		bl	printf
 1513              	.LVL153:
 1514 0262 F0E7     		b	.L84
 1515              	.LVL154:
 1516              	.L138:
 1517              	.LBB15:
 587:Middlewares/Third_Party/LwIP/src/core/tcp_out.c **** #endif /* TCP_OVERSIZE */
 1518              		.loc 1 587 7 is_stmt 1 discriminator 1 view .LVU461
 587:Middlewares/Third_Party/LwIP/src/core/tcp_out.c **** #endif /* TCP_OVERSIZE */
 1519              		.loc 1 587 7 discriminator 1 view .LVU462
 1520 0264 584B     		ldr	r3, .L144
 1521 0266 40F24B22 		movw	r2, #587
 1522 026a 6049     		ldr	r1, .L144+36
 1523 026c 5848     		ldr	r0, .L144+8
 1524 026e FFF7FEFF 		bl	printf
 1525              	.LVL155:
 1526              	.L86:
 587:Middlewares/Third_Party/LwIP/src/core/tcp_out.c **** #endif /* TCP_OVERSIZE */
 1527              		.loc 1 587 7 discriminator 3 view .LVU463
 587:Middlewares/Third_Party/LwIP/src/core/tcp_out.c **** #endif /* TCP_OVERSIZE */
 1528              		.loc 1 587 7 discriminator 3 view .LVU464
 589:Middlewares/Third_Party/LwIP/src/core/tcp_out.c ****         LWIP_DEBUGF(TCP_OUTPUT_DEBUG | LWIP_DBG_LEVEL_SERIOUS, ("tcp_write: could not allocate memo
 1529              		.loc 1 589 7 discriminator 3 view .LVU465
 589:Middlewares/Third_Party/LwIP/src/core/tcp_out.c ****         LWIP_DEBUGF(TCP_OUTPUT_DEBUG | LWIP_DBG_LEVEL_SERIOUS, ("tcp_write: could not allocate memo
 1530              		.loc 1 589 17 is_stmt 0 discriminator 3 view .LVU466
 1531 0272 0122     		movs	r2, #1
 1532 0274 2946     		mov	r1, r5
 1533 0276 0020     		movs	r0, #0
 1534 0278 FFF7FEFF 		bl	pbuf_alloc
 1535              	.LVL156:
 589:Middlewares/Third_Party/LwIP/src/core/tcp_out.c ****         LWIP_DEBUGF(TCP_OUTPUT_DEBUG | LWIP_DBG_LEVEL_SERIOUS, ("tcp_write: could not allocate memo
 1536              		.loc 1 589 10 discriminator 3 view .LVU467
 1537 027c 8146     		mov	r9, r0
 1538 027e 0028     		cmp	r0, #0
 1539 0280 00F04381 		beq	.L121
 602:Middlewares/Third_Party/LwIP/src/core/tcp_out.c **** 
 1540              		.loc 1 602 7 is_stmt 1 view .LVU468
 602:Middlewares/Third_Party/LwIP/src/core/tcp_out.c **** 
 1541              		.loc 1 602 58 is_stmt 0 view .LVU469
 1542 0284 089B     		ldr	r3, [sp, #32]
 1543 0286 2344     		add	r3, r3, r4
 602:Middlewares/Third_Party/LwIP/src/core/tcp_out.c **** 
ARM GAS  C:\Users\Nina\AppData\Local\Temp\cc9LyW5f.s 			page 60


 1544              		.loc 1 602 39 view .LVU470
 1545 0288 4360     		str	r3, [r0, #4]
 605:Middlewares/Third_Party/LwIP/src/core/tcp_out.c ****         /* If allocation fails, we have to deallocate the data pbuf as
 1546              		.loc 1 605 7 is_stmt 1 view .LVU471
 605:Middlewares/Third_Party/LwIP/src/core/tcp_out.c ****         /* If allocation fails, we have to deallocate the data pbuf as
 1547              		.loc 1 605 16 is_stmt 0 view .LVU472
 1548 028a 0022     		movs	r2, #0
 1549 028c 1146     		mov	r1, r2
 1550 028e 1046     		mov	r0, r2
 1551              	.LVL157:
 605:Middlewares/Third_Party/LwIP/src/core/tcp_out.c ****         /* If allocation fails, we have to deallocate the data pbuf as
 1552              		.loc 1 605 16 view .LVU473
 1553 0290 FFF7FEFF 		bl	pbuf_alloc
 1554              	.LVL158:
 605:Middlewares/Third_Party/LwIP/src/core/tcp_out.c ****         /* If allocation fails, we have to deallocate the data pbuf as
 1555              		.loc 1 605 10 view .LVU474
 1556 0294 0746     		mov	r7, r0
 1557              	.LVL159:
 605:Middlewares/Third_Party/LwIP/src/core/tcp_out.c ****         /* If allocation fails, we have to deallocate the data pbuf as
 1558              		.loc 1 605 10 view .LVU475
 1559 0296 0028     		cmp	r0, #0
 1560 0298 32D0     		beq	.L133
 613:Middlewares/Third_Party/LwIP/src/core/tcp_out.c ****     }
 1561              		.loc 1 613 7 is_stmt 1 view .LVU476
 1562 029a 4946     		mov	r1, r9
 1563 029c FFF7FEFF 		bl	pbuf_cat
 1564              	.LVL160:
 1565              	.L85:
 613:Middlewares/Third_Party/LwIP/src/core/tcp_out.c ****     }
 1566              		.loc 1 613 7 is_stmt 0 view .LVU477
 1567              	.LBE15:
 616:Middlewares/Third_Party/LwIP/src/core/tcp_out.c **** 
 1568              		.loc 1 616 5 is_stmt 1 view .LVU478
 616:Middlewares/Third_Party/LwIP/src/core/tcp_out.c **** 
 1569              		.loc 1 616 17 is_stmt 0 view .LVU479
 1570 02a0 3846     		mov	r0, r7
 1571 02a2 FFF7FEFF 		bl	pbuf_clen
 1572              	.LVL161:
 616:Middlewares/Third_Party/LwIP/src/core/tcp_out.c **** 
 1573              		.loc 1 616 14 view .LVU480
 1574 02a6 0644     		add	r6, r6, r0
 1575              	.LVL162:
 616:Middlewares/Third_Party/LwIP/src/core/tcp_out.c **** 
 1576              		.loc 1 616 14 view .LVU481
 1577 02a8 B6B2     		uxth	r6, r6
 1578              	.LVL163:
 621:Middlewares/Third_Party/LwIP/src/core/tcp_out.c ****       LWIP_DEBUGF(TCP_OUTPUT_DEBUG | LWIP_DBG_LEVEL_SERIOUS, ("tcp_write: queue too long %"U16_F" (
 1579              		.loc 1 621 5 is_stmt 1 view .LVU482
 621:Middlewares/Third_Party/LwIP/src/core/tcp_out.c ****       LWIP_DEBUGF(TCP_OUTPUT_DEBUG | LWIP_DBG_LEVEL_SERIOUS, ("tcp_write: queue too long %"U16_F" (
 1580              		.loc 1 621 8 is_stmt 0 view .LVU483
 1581 02aa 092E     		cmp	r6, #9
 1582 02ac 2ED8     		bhi	.L134
 628:Middlewares/Third_Party/LwIP/src/core/tcp_out.c ****       goto memerr;
 1583              		.loc 1 628 5 is_stmt 1 view .LVU484
 628:Middlewares/Third_Party/LwIP/src/core/tcp_out.c ****       goto memerr;
 1584              		.loc 1 628 49 is_stmt 0 view .LVU485
 1585 02ae D8F85830 		ldr	r3, [r8, #88]
ARM GAS  C:\Users\Nina\AppData\Local\Temp\cc9LyW5f.s 			page 61


 628:Middlewares/Third_Party/LwIP/src/core/tcp_out.c ****       goto memerr;
 1586              		.loc 1 628 16 view .LVU486
 1587 02b2 0022     		movs	r2, #0
 1588 02b4 0092     		str	r2, [sp]
 1589 02b6 2344     		add	r3, r3, r4
 1590 02b8 3946     		mov	r1, r7
 1591 02ba 4046     		mov	r0, r8
 1592 02bc FFF7FEFF 		bl	tcp_create_segment
 1593              	.LVL164:
 628:Middlewares/Third_Party/LwIP/src/core/tcp_out.c ****       goto memerr;
 1594              		.loc 1 628 8 view .LVU487
 1595 02c0 0746     		mov	r7, r0
 1596              	.LVL165:
 628:Middlewares/Third_Party/LwIP/src/core/tcp_out.c ****       goto memerr;
 1597              		.loc 1 628 8 view .LVU488
 1598 02c2 0028     		cmp	r0, #0
 1599 02c4 00F02481 		beq	.L122
 641:Middlewares/Third_Party/LwIP/src/core/tcp_out.c ****       queue = seg;
 1600              		.loc 1 641 5 is_stmt 1 view .LVU489
 641:Middlewares/Third_Party/LwIP/src/core/tcp_out.c ****       queue = seg;
 1601              		.loc 1 641 8 is_stmt 0 view .LVU490
 1602 02c8 069B     		ldr	r3, [sp, #24]
 1603 02ca 002B     		cmp	r3, #0
 1604 02cc 52D0     		beq	.L116
 645:Middlewares/Third_Party/LwIP/src/core/tcp_out.c ****       prev_seg->next = seg;
 1605              		.loc 1 645 7 is_stmt 1 view .LVU491
 645:Middlewares/Third_Party/LwIP/src/core/tcp_out.c ****       prev_seg->next = seg;
 1606              		.loc 1 645 7 view .LVU492
 1607 02ce 059B     		ldr	r3, [sp, #20]
 1608 02d0 002B     		cmp	r3, #0
 1609 02d2 47D0     		beq	.L135
 1610              	.LVL166:
 1611              	.L90:
 645:Middlewares/Third_Party/LwIP/src/core/tcp_out.c ****       prev_seg->next = seg;
 1612              		.loc 1 645 7 discriminator 3 view .LVU493
 645:Middlewares/Third_Party/LwIP/src/core/tcp_out.c ****       prev_seg->next = seg;
 1613              		.loc 1 645 7 discriminator 3 view .LVU494
 646:Middlewares/Third_Party/LwIP/src/core/tcp_out.c ****     }
 1614              		.loc 1 646 7 discriminator 3 view .LVU495
 646:Middlewares/Third_Party/LwIP/src/core/tcp_out.c ****     }
 1615              		.loc 1 646 22 is_stmt 0 discriminator 3 view .LVU496
 1616 02d4 059B     		ldr	r3, [sp, #20]
 1617 02d6 1F60     		str	r7, [r3]
 1618              	.LVL167:
 1619              	.L89:
 649:Middlewares/Third_Party/LwIP/src/core/tcp_out.c **** 
 1620              		.loc 1 649 5 is_stmt 1 view .LVU497
 653:Middlewares/Third_Party/LwIP/src/core/tcp_out.c **** 
 1621              		.loc 1 653 57 view .LVU498
 655:Middlewares/Third_Party/LwIP/src/core/tcp_out.c ****   }
 1622              		.loc 1 655 5 view .LVU499
 655:Middlewares/Third_Party/LwIP/src/core/tcp_out.c ****   }
 1623              		.loc 1 655 9 is_stmt 0 view .LVU500
 1624 02d8 2C44     		add	r4, r4, r5
 1625              	.LVL168:
 655:Middlewares/Third_Party/LwIP/src/core/tcp_out.c ****   }
 1626              		.loc 1 655 9 view .LVU501
ARM GAS  C:\Users\Nina\AppData\Local\Temp\cc9LyW5f.s 			page 62


 1627 02da A4B2     		uxth	r4, r4
 1628              	.LVL169:
 649:Middlewares/Third_Party/LwIP/src/core/tcp_out.c **** 
 1629              		.loc 1 649 14 view .LVU502
 1630 02dc 0597     		str	r7, [sp, #20]
 1631              	.LVL170:
 1632              	.L91:
 649:Middlewares/Third_Party/LwIP/src/core/tcp_out.c **** 
 1633              		.loc 1 649 14 view .LVU503
 1634              	.LBE14:
 559:Middlewares/Third_Party/LwIP/src/core/tcp_out.c ****     struct pbuf *p;
 1635              		.loc 1 559 9 is_stmt 1 view .LVU504
 1636 02de 5445     		cmp	r4, r10
 1637 02e0 55D2     		bcs	.L136
 1638              	.LBB17:
 560:Middlewares/Third_Party/LwIP/src/core/tcp_out.c ****     u16_t left = len - pos;
 1639              		.loc 1 560 5 view .LVU505
 561:Middlewares/Third_Party/LwIP/src/core/tcp_out.c ****     u16_t max_len = mss_local - optlen;
 1640              		.loc 1 561 5 view .LVU506
 561:Middlewares/Third_Party/LwIP/src/core/tcp_out.c ****     u16_t max_len = mss_local - optlen;
 1641              		.loc 1 561 11 is_stmt 0 view .LVU507
 1642 02e2 AAEB0405 		sub	r5, r10, r4
 1643 02e6 ADB2     		uxth	r5, r5
 1644              	.LVL171:
 562:Middlewares/Third_Party/LwIP/src/core/tcp_out.c ****     u16_t seglen = LWIP_MIN(left, max_len);
 1645              		.loc 1 562 5 is_stmt 1 view .LVU508
 563:Middlewares/Third_Party/LwIP/src/core/tcp_out.c **** #if TCP_CHECKSUM_ON_COPY
 1646              		.loc 1 563 5 view .LVU509
 563:Middlewares/Third_Party/LwIP/src/core/tcp_out.c **** #if TCP_CHECKSUM_ON_COPY
 1647              		.loc 1 563 11 is_stmt 0 view .LVU510
 1648 02e8 5D45     		cmp	r5, fp
 1649 02ea 28BF     		it	cs
 1650 02ec 5D46     		movcs	r5, fp
 1651              	.LVL172:
 569:Middlewares/Third_Party/LwIP/src/core/tcp_out.c ****       /* If copy is set, memory should be allocated and data copied
 1652              		.loc 1 569 5 is_stmt 1 view .LVU511
 569:Middlewares/Third_Party/LwIP/src/core/tcp_out.c ****       /* If copy is set, memory should be allocated and data copied
 1653              		.loc 1 569 8 is_stmt 0 view .LVU512
 1654 02ee 079B     		ldr	r3, [sp, #28]
 1655 02f0 13F0010F 		tst	r3, #1
 1656 02f4 90D1     		bne	.L137
 1657              	.LBB16:
 585:Middlewares/Third_Party/LwIP/src/core/tcp_out.c **** #if TCP_OVERSIZE
 1658              		.loc 1 585 7 is_stmt 1 view .LVU513
 587:Middlewares/Third_Party/LwIP/src/core/tcp_out.c **** #endif /* TCP_OVERSIZE */
 1659              		.loc 1 587 7 view .LVU514
 587:Middlewares/Third_Party/LwIP/src/core/tcp_out.c **** #endif /* TCP_OVERSIZE */
 1660              		.loc 1 587 7 view .LVU515
 1661 02f6 BDF83E30 		ldrh	r3, [sp, #62]
 1662 02fa 002B     		cmp	r3, #0
 1663 02fc B9D0     		beq	.L86
 1664 02fe B1E7     		b	.L138
 1665              	.LVL173:
 1666              	.L133:
 587:Middlewares/Third_Party/LwIP/src/core/tcp_out.c **** #endif /* TCP_OVERSIZE */
 1667              		.loc 1 587 7 is_stmt 0 view .LVU516
 1668 0300 4846     		mov	r0, r9
ARM GAS  C:\Users\Nina\AppData\Local\Temp\cc9LyW5f.s 			page 63


 1669              	.LVL174:
 587:Middlewares/Third_Party/LwIP/src/core/tcp_out.c **** #endif /* TCP_OVERSIZE */
 1670              		.loc 1 587 7 view .LVU517
 1671 0302 DDF83090 		ldr	r9, [sp, #48]
 1672              	.LVL175:
 608:Middlewares/Third_Party/LwIP/src/core/tcp_out.c ****         LWIP_DEBUGF(TCP_OUTPUT_DEBUG | LWIP_DBG_LEVEL_SERIOUS, ("tcp_write: could not allocate memo
 1673              		.loc 1 608 9 is_stmt 1 view .LVU518
 1674 0306 FFF7FEFF 		bl	pbuf_free
 1675              	.LVL176:
 609:Middlewares/Third_Party/LwIP/src/core/tcp_out.c ****         goto memerr;
 1676              		.loc 1 609 123 view .LVU519
 610:Middlewares/Third_Party/LwIP/src/core/tcp_out.c ****       }
 1677              		.loc 1 610 9 view .LVU520
 1678 030a 04E0     		b	.L79
 1679              	.L134:
 610:Middlewares/Third_Party/LwIP/src/core/tcp_out.c ****       }
 1680              		.loc 1 610 9 is_stmt 0 view .LVU521
 1681 030c DDF83090 		ldr	r9, [sp, #48]
 1682              	.LBE16:
 623:Middlewares/Third_Party/LwIP/src/core/tcp_out.c ****       pbuf_free(p);
 1683              		.loc 1 623 42 is_stmt 1 view .LVU522
 624:Middlewares/Third_Party/LwIP/src/core/tcp_out.c ****       goto memerr;
 1684              		.loc 1 624 7 view .LVU523
 1685 0310 3846     		mov	r0, r7
 1686 0312 FFF7FEFF 		bl	pbuf_free
 1687              	.LVL177:
 625:Middlewares/Third_Party/LwIP/src/core/tcp_out.c ****     }
 1688              		.loc 1 625 7 view .LVU524
 1689              	.L79:
 625:Middlewares/Third_Party/LwIP/src/core/tcp_out.c ****     }
 1690              		.loc 1 625 7 is_stmt 0 view .LVU525
 1691              	.LBE17:
 759:Middlewares/Third_Party/LwIP/src/core/tcp_out.c ****   TCP_STATS_INC(tcp.memerr);
 1692              		.loc 1 759 3 is_stmt 1 view .LVU526
 759:Middlewares/Third_Party/LwIP/src/core/tcp_out.c ****   TCP_STATS_INC(tcp.memerr);
 1693              		.loc 1 759 14 is_stmt 0 view .LVU527
 1694 0316 98F81A30 		ldrb	r3, [r8, #26]	@ zero_extendqisi2
 1695 031a 63F07F03 		orn	r3, r3, #127
 1696 031e 88F81A30 		strb	r3, [r8, #26]
 760:Middlewares/Third_Party/LwIP/src/core/tcp_out.c **** 
 1697              		.loc 1 760 28 is_stmt 1 view .LVU528
 762:Middlewares/Third_Party/LwIP/src/core/tcp_out.c ****     pbuf_free(concat_p);
 1698              		.loc 1 762 3 view .LVU529
 762:Middlewares/Third_Party/LwIP/src/core/tcp_out.c ****     pbuf_free(concat_p);
 1699              		.loc 1 762 6 is_stmt 0 view .LVU530
 1700 0322 B9F1000F 		cmp	r9, #0
 1701 0326 02D0     		beq	.L107
 763:Middlewares/Third_Party/LwIP/src/core/tcp_out.c ****   }
 1702              		.loc 1 763 5 is_stmt 1 view .LVU531
 1703 0328 4846     		mov	r0, r9
 1704 032a FFF7FEFF 		bl	pbuf_free
 1705              	.LVL178:
 1706              	.L107:
 765:Middlewares/Third_Party/LwIP/src/core/tcp_out.c ****     tcp_segs_free(queue);
 1707              		.loc 1 765 3 view .LVU532
 765:Middlewares/Third_Party/LwIP/src/core/tcp_out.c ****     tcp_segs_free(queue);
 1708              		.loc 1 765 6 is_stmt 0 view .LVU533
ARM GAS  C:\Users\Nina\AppData\Local\Temp\cc9LyW5f.s 			page 64


 1709 032e 069B     		ldr	r3, [sp, #24]
 1710 0330 13B1     		cbz	r3, .L108
 766:Middlewares/Third_Party/LwIP/src/core/tcp_out.c ****   }
 1711              		.loc 1 766 5 is_stmt 1 view .LVU534
 1712 0332 1846     		mov	r0, r3
 1713 0334 FFF7FEFF 		bl	tcp_segs_free
 1714              	.LVL179:
 1715              	.L108:
 768:Middlewares/Third_Party/LwIP/src/core/tcp_out.c ****     LWIP_ASSERT("tcp_write: valid queue length", pcb->unacked != NULL ||
 1716              		.loc 1 768 3 view .LVU535
 768:Middlewares/Third_Party/LwIP/src/core/tcp_out.c ****     LWIP_ASSERT("tcp_write: valid queue length", pcb->unacked != NULL ||
 1717              		.loc 1 768 10 is_stmt 0 view .LVU536
 1718 0338 B8F86230 		ldrh	r3, [r8, #98]
 768:Middlewares/Third_Party/LwIP/src/core/tcp_out.c ****     LWIP_ASSERT("tcp_write: valid queue length", pcb->unacked != NULL ||
 1719              		.loc 1 768 6 view .LVU537
 1720 033c 002B     		cmp	r3, #0
 1721 033e 00F0F580 		beq	.L117
 769:Middlewares/Third_Party/LwIP/src/core/tcp_out.c ****       pcb->unsent != NULL);
 1722              		.loc 1 769 5 is_stmt 1 view .LVU538
 769:Middlewares/Third_Party/LwIP/src/core/tcp_out.c ****       pcb->unsent != NULL);
 1723              		.loc 1 769 5 view .LVU539
 1724 0342 D8F86C30 		ldr	r3, [r8, #108]
 1725 0346 002B     		cmp	r3, #0
 1726 0348 40F0F480 		bne	.L118
 769:Middlewares/Third_Party/LwIP/src/core/tcp_out.c ****       pcb->unsent != NULL);
 1727              		.loc 1 769 5 is_stmt 0 discriminator 1 view .LVU540
 1728 034c D8F86830 		ldr	r3, [r8, #104]
 1729 0350 002B     		cmp	r3, #0
 1730 0352 00F0E080 		beq	.L139
 773:Middlewares/Third_Party/LwIP/src/core/tcp_out.c **** }
 1731              		.loc 1 773 10 view .LVU541
 1732 0356 4FF0FF33 		mov	r3, #-1
 1733 035a 0A93     		str	r3, [sp, #40]
 1734              	.LVL180:
 1735              	.L70:
 774:Middlewares/Third_Party/LwIP/src/core/tcp_out.c **** 
 1736              		.loc 1 774 1 view .LVU542
 1737 035c 0A98     		ldr	r0, [sp, #40]
 1738 035e 11B0     		add	sp, sp, #68
 1739              	.LCFI10:
 1740              		.cfi_remember_state
 1741              		.cfi_def_cfa_offset 36
 1742              		@ sp needed
 1743 0360 BDE8F08F 		pop	{r4, r5, r6, r7, r8, r9, r10, fp, pc}
 1744              	.LVL181:
 1745              	.L135:
 1746              	.LCFI11:
 1747              		.cfi_restore_state
 1748              	.LBB18:
 645:Middlewares/Third_Party/LwIP/src/core/tcp_out.c ****       prev_seg->next = seg;
 1749              		.loc 1 645 7 is_stmt 1 discriminator 1 view .LVU543
 645:Middlewares/Third_Party/LwIP/src/core/tcp_out.c ****       prev_seg->next = seg;
 1750              		.loc 1 645 7 discriminator 1 view .LVU544
 1751 0364 184B     		ldr	r3, .L144
 1752 0366 40F28522 		movw	r2, #645
 1753 036a 2149     		ldr	r1, .L144+40
 1754 036c 1848     		ldr	r0, .L144+8
ARM GAS  C:\Users\Nina\AppData\Local\Temp\cc9LyW5f.s 			page 65


 1755              	.LVL182:
 645:Middlewares/Third_Party/LwIP/src/core/tcp_out.c ****       prev_seg->next = seg;
 1756              		.loc 1 645 7 is_stmt 0 discriminator 1 view .LVU545
 1757 036e FFF7FEFF 		bl	printf
 1758              	.LVL183:
 1759 0372 AFE7     		b	.L90
 1760              	.LVL184:
 1761              	.L116:
 642:Middlewares/Third_Party/LwIP/src/core/tcp_out.c ****     } else {
 1762              		.loc 1 642 13 view .LVU546
 1763 0374 0690     		str	r0, [sp, #24]
 1764              	.LVL185:
 642:Middlewares/Third_Party/LwIP/src/core/tcp_out.c ****     } else {
 1765              		.loc 1 642 13 view .LVU547
 1766 0376 AFE7     		b	.L89
 1767              	.LVL186:
 1768              	.L110:
 642:Middlewares/Third_Party/LwIP/src/core/tcp_out.c ****     } else {
 1769              		.loc 1 642 13 view .LVU548
 1770              	.LBE18:
 1771              	.LBB19:
 1772 0378 0B9C     		ldr	r4, [sp, #44]
 1773              	.LVL187:
 642:Middlewares/Third_Party/LwIP/src/core/tcp_out.c ****     } else {
 1774              		.loc 1 642 13 view .LVU549
 1775              	.LBE19:
 383:Middlewares/Third_Party/LwIP/src/core/tcp_out.c **** #if TCP_CHECKSUM_ON_COPY
 1776              		.loc 1 383 9 view .LVU550
 1777 037a 0023     		movs	r3, #0
 1778 037c 0D93     		str	r3, [sp, #52]
 1779              	.LVL188:
 1780              	.L77:
 371:Middlewares/Third_Party/LwIP/src/core/tcp_out.c ****   u16_t pos = 0; /* position in 'arg' data */
 1781              		.loc 1 371 19 view .LVU551
 1782 037e 0023     		movs	r3, #0
 1783 0380 0693     		str	r3, [sp, #24]
 1784 0382 0593     		str	r3, [sp, #20]
 1785 0384 CDF83090 		str	r9, [sp, #48]
 1786 0388 A9E7     		b	.L91
 1787              	.LVL189:
 1788              	.L111:
 1789              	.LBB20:
 371:Middlewares/Third_Party/LwIP/src/core/tcp_out.c ****   u16_t pos = 0; /* position in 'arg' data */
 1790              		.loc 1 371 19 view .LVU552
 1791 038a 0B9C     		ldr	r4, [sp, #44]
 1792              	.LVL190:
 371:Middlewares/Third_Party/LwIP/src/core/tcp_out.c ****   u16_t pos = 0; /* position in 'arg' data */
 1793              		.loc 1 371 19 view .LVU553
 1794 038c F7E7     		b	.L77
 1795              	.LVL191:
 1796              	.L136:
 371:Middlewares/Third_Party/LwIP/src/core/tcp_out.c ****   u16_t pos = 0; /* position in 'arg' data */
 1797              		.loc 1 371 19 view .LVU554
 1798 038e DDF83090 		ldr	r9, [sp, #48]
 1799              	.LBE20:
 673:Middlewares/Third_Party/LwIP/src/core/tcp_out.c ****     struct pbuf *p;
 1800              		.loc 1 673 3 is_stmt 1 view .LVU555
ARM GAS  C:\Users\Nina\AppData\Local\Temp\cc9LyW5f.s 			page 66


 673:Middlewares/Third_Party/LwIP/src/core/tcp_out.c ****     struct pbuf *p;
 1801              		.loc 1 673 6 is_stmt 0 view .LVU556
 1802 0392 0B9D     		ldr	r5, [sp, #44]
 1803 0394 002D     		cmp	r5, #0
 1804 0396 32D0     		beq	.L93
 1805              	.LBB21:
