ARM GAS  C:\Users\Nina\AppData\Local\Temp\ccRQvxBe.s 			page 1


   1              		.cpu cortex-m7
   2              		.eabi_attribute 27, 1
   3              		.eabi_attribute 28, 1
   4              		.eabi_attribute 20, 1
   5              		.eabi_attribute 21, 1
   6              		.eabi_attribute 23, 3
   7              		.eabi_attribute 24, 1
   8              		.eabi_attribute 25, 1
   9              		.eabi_attribute 26, 1
  10              		.eabi_attribute 30, 1
  11              		.eabi_attribute 34, 1
  12              		.eabi_attribute 18, 4
  13              		.file	"tcpip.c"
  14              		.text
  15              	.Ltext0:
  16              		.cfi_sections	.debug_frame
  17              		.section	.rodata.tcpip_thread.str1.4,"aMS",%progbits,1
  18              		.align	2
  19              	.LC0:
  20 0000 4D696464 		.ascii	"Middlewares/Third_Party/LwIP/src/api/tcpip.c\000"
  20      6C657761 
  20      7265732F 
  20      54686972 
  20      645F5061 
  21 002d 000000   		.align	2
  22              	.LC1:
  23 0030 74637069 		.ascii	"tcpip_thread: invalid message\000"
  23      705F7468 
  23      72656164 
  23      3A20696E 
  23      76616C69 
  24 004e 0000     		.align	2
  25              	.LC2:
  26 0050 41737365 		.ascii	"Assertion \"%s\" failed at line %d in %s\012\000"
  26      7274696F 
  26      6E202225 
  26      73222066 
  26      61696C65 
  27              		.section	.text.tcpip_thread,"ax",%progbits
  28              		.align	1
  29              		.arch armv7e-m
  30              		.syntax unified
  31              		.thumb
  32              		.thumb_func
  33              		.fpu fpv5-sp-d16
  35              	tcpip_thread:
  36              	.LVL0:
  37              	.LFB165:
  38              		.file 1 "Middlewares/Third_Party/LwIP/src/api/tcpip.c"
   1:Middlewares/Third_Party/LwIP/src/api/tcpip.c **** /**
   2:Middlewares/Third_Party/LwIP/src/api/tcpip.c ****  * @file
   3:Middlewares/Third_Party/LwIP/src/api/tcpip.c ****  * Sequential API Main thread module
   4:Middlewares/Third_Party/LwIP/src/api/tcpip.c ****  *
   5:Middlewares/Third_Party/LwIP/src/api/tcpip.c ****  */
   6:Middlewares/Third_Party/LwIP/src/api/tcpip.c **** 
   7:Middlewares/Third_Party/LwIP/src/api/tcpip.c **** /*
   8:Middlewares/Third_Party/LwIP/src/api/tcpip.c ****  * Copyright (c) 2001-2004 Swedish Institute of Computer Science.
ARM GAS  C:\Users\Nina\AppData\Local\Temp\ccRQvxBe.s 			page 2


   9:Middlewares/Third_Party/LwIP/src/api/tcpip.c ****  * All rights reserved.
  10:Middlewares/Third_Party/LwIP/src/api/tcpip.c ****  *
  11:Middlewares/Third_Party/LwIP/src/api/tcpip.c ****  * Redistribution and use in source and binary forms, with or without modification,
  12:Middlewares/Third_Party/LwIP/src/api/tcpip.c ****  * are permitted provided that the following conditions are met:
  13:Middlewares/Third_Party/LwIP/src/api/tcpip.c ****  *
  14:Middlewares/Third_Party/LwIP/src/api/tcpip.c ****  * 1. Redistributions of source code must retain the above copyright notice,
  15:Middlewares/Third_Party/LwIP/src/api/tcpip.c ****  *    this list of conditions and the following disclaimer.
  16:Middlewares/Third_Party/LwIP/src/api/tcpip.c ****  * 2. Redistributions in binary form must reproduce the above copyright notice,
  17:Middlewares/Third_Party/LwIP/src/api/tcpip.c ****  *    this list of conditions and the following disclaimer in the documentation
  18:Middlewares/Third_Party/LwIP/src/api/tcpip.c ****  *    and/or other materials provided with the distribution.
  19:Middlewares/Third_Party/LwIP/src/api/tcpip.c ****  * 3. The name of the author may not be used to endorse or promote products
  20:Middlewares/Third_Party/LwIP/src/api/tcpip.c ****  *    derived from this software without specific prior written permission.
  21:Middlewares/Third_Party/LwIP/src/api/tcpip.c ****  *
  22:Middlewares/Third_Party/LwIP/src/api/tcpip.c ****  * THIS SOFTWARE IS PROVIDED BY THE AUTHOR ``AS IS'' AND ANY EXPRESS OR IMPLIED
  23:Middlewares/Third_Party/LwIP/src/api/tcpip.c ****  * WARRANTIES, INCLUDING, BUT NOT LIMITED TO, THE IMPLIED WARRANTIES OF
  24:Middlewares/Third_Party/LwIP/src/api/tcpip.c ****  * MERCHANTABILITY AND FITNESS FOR A PARTICULAR PURPOSE ARE DISCLAIMED. IN NO EVENT
  25:Middlewares/Third_Party/LwIP/src/api/tcpip.c ****  * SHALL THE AUTHOR BE LIABLE FOR ANY DIRECT, INDIRECT, INCIDENTAL, SPECIAL,
  26:Middlewares/Third_Party/LwIP/src/api/tcpip.c ****  * EXEMPLARY, OR CONSEQUENTIAL DAMAGES (INCLUDING, BUT NOT LIMITED TO, PROCUREMENT
  27:Middlewares/Third_Party/LwIP/src/api/tcpip.c ****  * OF SUBSTITUTE GOODS OR SERVICES; LOSS OF USE, DATA, OR PROFITS; OR BUSINESS
  28:Middlewares/Third_Party/LwIP/src/api/tcpip.c ****  * INTERRUPTION) HOWEVER CAUSED AND ON ANY THEORY OF LIABILITY, WHETHER IN
  29:Middlewares/Third_Party/LwIP/src/api/tcpip.c ****  * CONTRACT, STRICT LIABILITY, OR TORT (INCLUDING NEGLIGENCE OR OTHERWISE) ARISING
  30:Middlewares/Third_Party/LwIP/src/api/tcpip.c ****  * IN ANY WAY OUT OF THE USE OF THIS SOFTWARE, EVEN IF ADVISED OF THE POSSIBILITY
  31:Middlewares/Third_Party/LwIP/src/api/tcpip.c ****  * OF SUCH DAMAGE.
  32:Middlewares/Third_Party/LwIP/src/api/tcpip.c ****  *
  33:Middlewares/Third_Party/LwIP/src/api/tcpip.c ****  * This file is part of the lwIP TCP/IP stack.
  34:Middlewares/Third_Party/LwIP/src/api/tcpip.c ****  *
  35:Middlewares/Third_Party/LwIP/src/api/tcpip.c ****  * Author: Adam Dunkels <adam@sics.se>
  36:Middlewares/Third_Party/LwIP/src/api/tcpip.c ****  *
  37:Middlewares/Third_Party/LwIP/src/api/tcpip.c ****  */
  38:Middlewares/Third_Party/LwIP/src/api/tcpip.c **** 
  39:Middlewares/Third_Party/LwIP/src/api/tcpip.c **** #include "lwip/opt.h"
  40:Middlewares/Third_Party/LwIP/src/api/tcpip.c **** 
  41:Middlewares/Third_Party/LwIP/src/api/tcpip.c **** #if !NO_SYS /* don't build if not configured for use in lwipopts.h */
  42:Middlewares/Third_Party/LwIP/src/api/tcpip.c **** 
  43:Middlewares/Third_Party/LwIP/src/api/tcpip.c **** #include "lwip/priv/tcpip_priv.h"
  44:Middlewares/Third_Party/LwIP/src/api/tcpip.c **** #include "lwip/sys.h"
  45:Middlewares/Third_Party/LwIP/src/api/tcpip.c **** #include "lwip/memp.h"
  46:Middlewares/Third_Party/LwIP/src/api/tcpip.c **** #include "lwip/mem.h"
  47:Middlewares/Third_Party/LwIP/src/api/tcpip.c **** #include "lwip/init.h"
  48:Middlewares/Third_Party/LwIP/src/api/tcpip.c **** #include "lwip/ip.h"
  49:Middlewares/Third_Party/LwIP/src/api/tcpip.c **** #include "lwip/pbuf.h"
  50:Middlewares/Third_Party/LwIP/src/api/tcpip.c **** #include "lwip/etharp.h"
  51:Middlewares/Third_Party/LwIP/src/api/tcpip.c **** #include "netif/ethernet.h"
  52:Middlewares/Third_Party/LwIP/src/api/tcpip.c **** 
  53:Middlewares/Third_Party/LwIP/src/api/tcpip.c **** #define TCPIP_MSG_VAR_REF(name)     API_VAR_REF(name)
  54:Middlewares/Third_Party/LwIP/src/api/tcpip.c **** #define TCPIP_MSG_VAR_DECLARE(name) API_VAR_DECLARE(struct tcpip_msg, name)
  55:Middlewares/Third_Party/LwIP/src/api/tcpip.c **** #define TCPIP_MSG_VAR_ALLOC(name)   API_VAR_ALLOC(struct tcpip_msg, MEMP_TCPIP_MSG_API, name, ERR_M
  56:Middlewares/Third_Party/LwIP/src/api/tcpip.c **** #define TCPIP_MSG_VAR_FREE(name)    API_VAR_FREE(MEMP_TCPIP_MSG_API, name)
  57:Middlewares/Third_Party/LwIP/src/api/tcpip.c **** 
  58:Middlewares/Third_Party/LwIP/src/api/tcpip.c **** /* global variables */
  59:Middlewares/Third_Party/LwIP/src/api/tcpip.c **** static tcpip_init_done_fn tcpip_init_done;
  60:Middlewares/Third_Party/LwIP/src/api/tcpip.c **** static void *tcpip_init_done_arg;
  61:Middlewares/Third_Party/LwIP/src/api/tcpip.c **** static sys_mbox_t mbox;
  62:Middlewares/Third_Party/LwIP/src/api/tcpip.c **** 
  63:Middlewares/Third_Party/LwIP/src/api/tcpip.c **** #if LWIP_TCPIP_CORE_LOCKING
  64:Middlewares/Third_Party/LwIP/src/api/tcpip.c **** /** The global semaphore to lock the stack. */
  65:Middlewares/Third_Party/LwIP/src/api/tcpip.c **** sys_mutex_t lock_tcpip_core;
ARM GAS  C:\Users\Nina\AppData\Local\Temp\ccRQvxBe.s 			page 3


  66:Middlewares/Third_Party/LwIP/src/api/tcpip.c **** #endif /* LWIP_TCPIP_CORE_LOCKING */
  67:Middlewares/Third_Party/LwIP/src/api/tcpip.c **** 
  68:Middlewares/Third_Party/LwIP/src/api/tcpip.c **** #if LWIP_TIMERS
  69:Middlewares/Third_Party/LwIP/src/api/tcpip.c **** /* wait for a message, timeouts are processed while waiting */
  70:Middlewares/Third_Party/LwIP/src/api/tcpip.c **** #define TCPIP_MBOX_FETCH(mbox, msg) sys_timeouts_mbox_fetch(mbox, msg)
  71:Middlewares/Third_Party/LwIP/src/api/tcpip.c **** #else /* LWIP_TIMERS */
  72:Middlewares/Third_Party/LwIP/src/api/tcpip.c **** /* wait for a message with timers disabled (e.g. pass a timer-check trigger into tcpip_thread) */
  73:Middlewares/Third_Party/LwIP/src/api/tcpip.c **** #define TCPIP_MBOX_FETCH(mbox, msg) sys_mbox_fetch(mbox, msg)
  74:Middlewares/Third_Party/LwIP/src/api/tcpip.c **** #endif /* LWIP_TIMERS */
  75:Middlewares/Third_Party/LwIP/src/api/tcpip.c **** 
  76:Middlewares/Third_Party/LwIP/src/api/tcpip.c **** /**
  77:Middlewares/Third_Party/LwIP/src/api/tcpip.c ****  * The main lwIP thread. This thread has exclusive access to lwIP core functions
  78:Middlewares/Third_Party/LwIP/src/api/tcpip.c ****  * (unless access to them is not locked). Other threads communicate with this
  79:Middlewares/Third_Party/LwIP/src/api/tcpip.c ****  * thread using message boxes.
  80:Middlewares/Third_Party/LwIP/src/api/tcpip.c ****  *
  81:Middlewares/Third_Party/LwIP/src/api/tcpip.c ****  * It also starts all the timers to make sure they are running in the right
  82:Middlewares/Third_Party/LwIP/src/api/tcpip.c ****  * thread context.
  83:Middlewares/Third_Party/LwIP/src/api/tcpip.c ****  *
  84:Middlewares/Third_Party/LwIP/src/api/tcpip.c ****  * @param arg unused argument
  85:Middlewares/Third_Party/LwIP/src/api/tcpip.c ****  */
  86:Middlewares/Third_Party/LwIP/src/api/tcpip.c **** static void
  87:Middlewares/Third_Party/LwIP/src/api/tcpip.c **** tcpip_thread(void *arg)
  88:Middlewares/Third_Party/LwIP/src/api/tcpip.c **** {
  39              		.loc 1 88 1 view -0
  40              		.cfi_startproc
  41              		@ Volatile: function does not return.
  42              		@ args = 0, pretend = 0, frame = 8
  43              		@ frame_needed = 0, uses_anonymous_args = 0
  44              		.loc 1 88 1 is_stmt 0 view .LVU1
  45 0000 00B5     		push	{lr}
  46              	.LCFI0:
  47              		.cfi_def_cfa_offset 4
  48              		.cfi_offset 14, -4
  49 0002 83B0     		sub	sp, sp, #12
  50              	.LCFI1:
  51              		.cfi_def_cfa_offset 16
  89:Middlewares/Third_Party/LwIP/src/api/tcpip.c ****   struct tcpip_msg *msg;
  52              		.loc 1 89 3 is_stmt 1 view .LVU2
  90:Middlewares/Third_Party/LwIP/src/api/tcpip.c ****   LWIP_UNUSED_ARG(arg);
  53              		.loc 1 90 3 view .LVU3
  91:Middlewares/Third_Party/LwIP/src/api/tcpip.c **** 
  92:Middlewares/Third_Party/LwIP/src/api/tcpip.c ****   if (tcpip_init_done != NULL) {
  54              		.loc 1 92 3 view .LVU4
  55              		.loc 1 92 23 is_stmt 0 view .LVU5
  56 0004 204B     		ldr	r3, .L12
  57 0006 1B68     		ldr	r3, [r3]
  58              		.loc 1 92 6 view .LVU6
  59 0008 13B1     		cbz	r3, .L2
  93:Middlewares/Third_Party/LwIP/src/api/tcpip.c ****     tcpip_init_done(tcpip_init_done_arg);
  60              		.loc 1 93 5 is_stmt 1 view .LVU7
  61 000a 204A     		ldr	r2, .L12+4
  62 000c 1068     		ldr	r0, [r2]
  63              	.LVL1:
  64              		.loc 1 93 5 is_stmt 0 view .LVU8
  65 000e 9847     		blx	r3
  66              	.LVL2:
  67              	.L2:
ARM GAS  C:\Users\Nina\AppData\Local\Temp\ccRQvxBe.s 			page 4


  94:Middlewares/Third_Party/LwIP/src/api/tcpip.c ****   }
  95:Middlewares/Third_Party/LwIP/src/api/tcpip.c **** 
  96:Middlewares/Third_Party/LwIP/src/api/tcpip.c ****   LOCK_TCPIP_CORE();
  68              		.loc 1 96 3 is_stmt 1 view .LVU9
  69 0010 1F48     		ldr	r0, .L12+8
  70 0012 FFF7FEFF 		bl	sys_mutex_lock
  71              	.LVL3:
  72 0016 05E0     		b	.L3
  73              	.L10:
  97:Middlewares/Third_Party/LwIP/src/api/tcpip.c ****   while (1) {                          /* MAIN Loop */
  98:Middlewares/Third_Party/LwIP/src/api/tcpip.c ****     UNLOCK_TCPIP_CORE();
  99:Middlewares/Third_Party/LwIP/src/api/tcpip.c ****     LWIP_TCPIP_THREAD_ALIVE();
 100:Middlewares/Third_Party/LwIP/src/api/tcpip.c ****     /* wait for a message, timeouts are processed while waiting */
 101:Middlewares/Third_Party/LwIP/src/api/tcpip.c ****     TCPIP_MBOX_FETCH(&mbox, (void **)&msg);
 102:Middlewares/Third_Party/LwIP/src/api/tcpip.c ****     LOCK_TCPIP_CORE();
 103:Middlewares/Third_Party/LwIP/src/api/tcpip.c ****     if (msg == NULL) {
 104:Middlewares/Third_Party/LwIP/src/api/tcpip.c ****       LWIP_DEBUGF(TCPIP_DEBUG, ("tcpip_thread: invalid message: NULL\n"));
  74              		.loc 1 104 74 discriminator 1 view .LVU10
 105:Middlewares/Third_Party/LwIP/src/api/tcpip.c ****       LWIP_ASSERT("tcpip_thread: invalid message", 0);
  75              		.loc 1 105 7 discriminator 1 view .LVU11
  76              		.loc 1 105 7 discriminator 1 view .LVU12
  77              		.loc 1 105 7 discriminator 1 view .LVU13
  78              		.loc 1 105 7 discriminator 1 view .LVU14
  79 0018 1E4B     		ldr	r3, .L12+12
  80 001a 6922     		movs	r2, #105
  81 001c 1E49     		ldr	r1, .L12+16
  82 001e 1F48     		ldr	r0, .L12+20
  83 0020 FFF7FEFF 		bl	printf
  84              	.LVL4:
  85              		.loc 1 105 7 discriminator 1 view .LVU15
  86              		.loc 1 105 7 discriminator 1 view .LVU16
 106:Middlewares/Third_Party/LwIP/src/api/tcpip.c ****       continue;
  87              		.loc 1 106 7 discriminator 1 view .LVU17
  88              	.L3:
  97:Middlewares/Third_Party/LwIP/src/api/tcpip.c ****   while (1) {                          /* MAIN Loop */
  89              		.loc 1 97 3 view .LVU18
  98:Middlewares/Third_Party/LwIP/src/api/tcpip.c ****     LWIP_TCPIP_THREAD_ALIVE();
  90              		.loc 1 98 5 view .LVU19
  91 0024 1A4C     		ldr	r4, .L12+8
  92 0026 2046     		mov	r0, r4
  93 0028 FFF7FEFF 		bl	sys_mutex_unlock
  94              	.LVL5:
  99:Middlewares/Third_Party/LwIP/src/api/tcpip.c ****     /* wait for a message, timeouts are processed while waiting */
  95              		.loc 1 99 30 view .LVU20
 101:Middlewares/Third_Party/LwIP/src/api/tcpip.c ****     LOCK_TCPIP_CORE();
  96              		.loc 1 101 5 view .LVU21
  97 002c 01A9     		add	r1, sp, #4
  98 002e 1C48     		ldr	r0, .L12+24
  99 0030 FFF7FEFF 		bl	sys_timeouts_mbox_fetch
 100              	.LVL6:
 102:Middlewares/Third_Party/LwIP/src/api/tcpip.c ****     if (msg == NULL) {
 101              		.loc 1 102 5 view .LVU22
 102 0034 2046     		mov	r0, r4
 103 0036 FFF7FEFF 		bl	sys_mutex_lock
 104              	.LVL7:
 103:Middlewares/Third_Party/LwIP/src/api/tcpip.c ****       LWIP_DEBUGF(TCPIP_DEBUG, ("tcpip_thread: invalid message: NULL\n"));
 105              		.loc 1 103 5 view .LVU23
ARM GAS  C:\Users\Nina\AppData\Local\Temp\ccRQvxBe.s 			page 5


 103:Middlewares/Third_Party/LwIP/src/api/tcpip.c ****       LWIP_DEBUGF(TCPIP_DEBUG, ("tcpip_thread: invalid message: NULL\n"));
 106              		.loc 1 103 13 is_stmt 0 view .LVU24
 107 003a 019B     		ldr	r3, [sp, #4]
 103:Middlewares/Third_Party/LwIP/src/api/tcpip.c ****       LWIP_DEBUGF(TCPIP_DEBUG, ("tcpip_thread: invalid message: NULL\n"));
 108              		.loc 1 103 8 view .LVU25
 109 003c 002B     		cmp	r3, #0
 110 003e EBD0     		beq	.L10
 107:Middlewares/Third_Party/LwIP/src/api/tcpip.c ****     }
 108:Middlewares/Third_Party/LwIP/src/api/tcpip.c ****     switch (msg->type) {
 111              		.loc 1 108 5 is_stmt 1 view .LVU26
 112              		.loc 1 108 16 is_stmt 0 view .LVU27
 113 0040 1A78     		ldrb	r2, [r3]	@ zero_extendqisi2
 114              		.loc 1 108 5 view .LVU28
 115 0042 032A     		cmp	r2, #3
 116 0044 13D0     		beq	.L6
 117 0046 042A     		cmp	r2, #4
 118 0048 19D0     		beq	.L7
 119 004a 022A     		cmp	r2, #2
 120 004c 06D0     		beq	.L11
 109:Middlewares/Third_Party/LwIP/src/api/tcpip.c **** #if !LWIP_TCPIP_CORE_LOCKING
 110:Middlewares/Third_Party/LwIP/src/api/tcpip.c ****     case TCPIP_MSG_API:
 111:Middlewares/Third_Party/LwIP/src/api/tcpip.c ****       LWIP_DEBUGF(TCPIP_DEBUG, ("tcpip_thread: API message %p\n", (void *)msg));
 112:Middlewares/Third_Party/LwIP/src/api/tcpip.c ****       msg->msg.api_msg.function(msg->msg.api_msg.msg);
 113:Middlewares/Third_Party/LwIP/src/api/tcpip.c ****       break;
 114:Middlewares/Third_Party/LwIP/src/api/tcpip.c ****     case TCPIP_MSG_API_CALL:
 115:Middlewares/Third_Party/LwIP/src/api/tcpip.c ****       LWIP_DEBUGF(TCPIP_DEBUG, ("tcpip_thread: API CALL message %p\n", (void *)msg));
 116:Middlewares/Third_Party/LwIP/src/api/tcpip.c ****       msg->msg.api_call.arg->err = msg->msg.api_call.function(msg->msg.api_call.arg);
 117:Middlewares/Third_Party/LwIP/src/api/tcpip.c ****       sys_sem_signal(msg->msg.api_call.sem);
 118:Middlewares/Third_Party/LwIP/src/api/tcpip.c ****       break;
 119:Middlewares/Third_Party/LwIP/src/api/tcpip.c **** #endif /* !LWIP_TCPIP_CORE_LOCKING */
 120:Middlewares/Third_Party/LwIP/src/api/tcpip.c **** 
 121:Middlewares/Third_Party/LwIP/src/api/tcpip.c **** #if !LWIP_TCPIP_CORE_LOCKING_INPUT
 122:Middlewares/Third_Party/LwIP/src/api/tcpip.c ****     case TCPIP_MSG_INPKT:
 123:Middlewares/Third_Party/LwIP/src/api/tcpip.c ****       LWIP_DEBUGF(TCPIP_DEBUG, ("tcpip_thread: PACKET %p\n", (void *)msg));
 124:Middlewares/Third_Party/LwIP/src/api/tcpip.c ****       msg->msg.inp.input_fn(msg->msg.inp.p, msg->msg.inp.netif);
 125:Middlewares/Third_Party/LwIP/src/api/tcpip.c ****       memp_free(MEMP_TCPIP_MSG_INPKT, msg);
 126:Middlewares/Third_Party/LwIP/src/api/tcpip.c ****       break;
 127:Middlewares/Third_Party/LwIP/src/api/tcpip.c **** #endif /* !LWIP_TCPIP_CORE_LOCKING_INPUT */
 128:Middlewares/Third_Party/LwIP/src/api/tcpip.c **** 
 129:Middlewares/Third_Party/LwIP/src/api/tcpip.c **** #if LWIP_TCPIP_TIMEOUT && LWIP_TIMERS
 130:Middlewares/Third_Party/LwIP/src/api/tcpip.c ****     case TCPIP_MSG_TIMEOUT:
 131:Middlewares/Third_Party/LwIP/src/api/tcpip.c ****       LWIP_DEBUGF(TCPIP_DEBUG, ("tcpip_thread: TIMEOUT %p\n", (void *)msg));
 132:Middlewares/Third_Party/LwIP/src/api/tcpip.c ****       sys_timeout(msg->msg.tmo.msecs, msg->msg.tmo.h, msg->msg.tmo.arg);
 133:Middlewares/Third_Party/LwIP/src/api/tcpip.c ****       memp_free(MEMP_TCPIP_MSG_API, msg);
 134:Middlewares/Third_Party/LwIP/src/api/tcpip.c ****       break;
 135:Middlewares/Third_Party/LwIP/src/api/tcpip.c ****     case TCPIP_MSG_UNTIMEOUT:
 136:Middlewares/Third_Party/LwIP/src/api/tcpip.c ****       LWIP_DEBUGF(TCPIP_DEBUG, ("tcpip_thread: UNTIMEOUT %p\n", (void *)msg));
 137:Middlewares/Third_Party/LwIP/src/api/tcpip.c ****       sys_untimeout(msg->msg.tmo.h, msg->msg.tmo.arg);
 138:Middlewares/Third_Party/LwIP/src/api/tcpip.c ****       memp_free(MEMP_TCPIP_MSG_API, msg);
 139:Middlewares/Third_Party/LwIP/src/api/tcpip.c ****       break;
 140:Middlewares/Third_Party/LwIP/src/api/tcpip.c **** #endif /* LWIP_TCPIP_TIMEOUT && LWIP_TIMERS */
 141:Middlewares/Third_Party/LwIP/src/api/tcpip.c **** 
 142:Middlewares/Third_Party/LwIP/src/api/tcpip.c ****     case TCPIP_MSG_CALLBACK:
 143:Middlewares/Third_Party/LwIP/src/api/tcpip.c ****       LWIP_DEBUGF(TCPIP_DEBUG, ("tcpip_thread: CALLBACK %p\n", (void *)msg));
 144:Middlewares/Third_Party/LwIP/src/api/tcpip.c ****       msg->msg.cb.function(msg->msg.cb.ctx);
 145:Middlewares/Third_Party/LwIP/src/api/tcpip.c ****       memp_free(MEMP_TCPIP_MSG_API, msg);
 146:Middlewares/Third_Party/LwIP/src/api/tcpip.c ****       break;
ARM GAS  C:\Users\Nina\AppData\Local\Temp\ccRQvxBe.s 			page 6


 147:Middlewares/Third_Party/LwIP/src/api/tcpip.c **** 
 148:Middlewares/Third_Party/LwIP/src/api/tcpip.c ****     case TCPIP_MSG_CALLBACK_STATIC:
 149:Middlewares/Third_Party/LwIP/src/api/tcpip.c ****       LWIP_DEBUGF(TCPIP_DEBUG, ("tcpip_thread: CALLBACK_STATIC %p\n", (void *)msg));
 150:Middlewares/Third_Party/LwIP/src/api/tcpip.c ****       msg->msg.cb.function(msg->msg.cb.ctx);
 151:Middlewares/Third_Party/LwIP/src/api/tcpip.c ****       break;
 152:Middlewares/Third_Party/LwIP/src/api/tcpip.c **** 
 153:Middlewares/Third_Party/LwIP/src/api/tcpip.c ****     default:
 154:Middlewares/Third_Party/LwIP/src/api/tcpip.c ****       LWIP_DEBUGF(TCPIP_DEBUG, ("tcpip_thread: invalid message: %d\n", msg->type));
 121              		.loc 1 154 83 is_stmt 1 discriminator 1 view .LVU29
 155:Middlewares/Third_Party/LwIP/src/api/tcpip.c ****       LWIP_ASSERT("tcpip_thread: invalid message", 0);
 122              		.loc 1 155 7 discriminator 1 view .LVU30
 123              		.loc 1 155 7 discriminator 1 view .LVU31
 124              		.loc 1 155 7 discriminator 1 view .LVU32
 125              		.loc 1 155 7 discriminator 1 view .LVU33
 126 004e 114B     		ldr	r3, .L12+12
 127 0050 9B22     		movs	r2, #155
 128 0052 1149     		ldr	r1, .L12+16
 129 0054 1148     		ldr	r0, .L12+20
 130 0056 FFF7FEFF 		bl	printf
 131              	.LVL8:
 132              		.loc 1 155 7 discriminator 1 view .LVU34
 133              		.loc 1 155 7 discriminator 1 view .LVU35
 156:Middlewares/Third_Party/LwIP/src/api/tcpip.c ****       break;
 134              		.loc 1 156 7 discriminator 1 view .LVU36
 135 005a E3E7     		b	.L3
 136              	.L11:
 123:Middlewares/Third_Party/LwIP/src/api/tcpip.c ****       msg->msg.inp.input_fn(msg->msg.inp.p, msg->msg.inp.netif);
 137              		.loc 1 123 75 view .LVU37
 124:Middlewares/Third_Party/LwIP/src/api/tcpip.c ****       memp_free(MEMP_TCPIP_MSG_INPKT, msg);
 138              		.loc 1 124 7 view .LVU38
 124:Middlewares/Third_Party/LwIP/src/api/tcpip.c ****       memp_free(MEMP_TCPIP_MSG_INPKT, msg);
 139              		.loc 1 124 19 is_stmt 0 view .LVU39
 140 005c DA68     		ldr	r2, [r3, #12]
 124:Middlewares/Third_Party/LwIP/src/api/tcpip.c ****       memp_free(MEMP_TCPIP_MSG_INPKT, msg);
 141              		.loc 1 124 7 view .LVU40
 142 005e 9968     		ldr	r1, [r3, #8]
 143 0060 5868     		ldr	r0, [r3, #4]
 144 0062 9047     		blx	r2
 145              	.LVL9:
 125:Middlewares/Third_Party/LwIP/src/api/tcpip.c ****       break;
 146              		.loc 1 125 7 is_stmt 1 view .LVU41
 147 0064 0199     		ldr	r1, [sp, #4]
 148 0066 0920     		movs	r0, #9
 149 0068 FFF7FEFF 		bl	memp_free
 150              	.LVL10:
 126:Middlewares/Third_Party/LwIP/src/api/tcpip.c **** #endif /* !LWIP_TCPIP_CORE_LOCKING_INPUT */
 151              		.loc 1 126 7 view .LVU42
 152 006c DAE7     		b	.L3
 153              	.L6:
 143:Middlewares/Third_Party/LwIP/src/api/tcpip.c ****       msg->msg.cb.function(msg->msg.cb.ctx);
 154              		.loc 1 143 77 view .LVU43
 144:Middlewares/Third_Party/LwIP/src/api/tcpip.c ****       memp_free(MEMP_TCPIP_MSG_API, msg);
 155              		.loc 1 144 7 view .LVU44
 144:Middlewares/Third_Party/LwIP/src/api/tcpip.c ****       memp_free(MEMP_TCPIP_MSG_API, msg);
 156              		.loc 1 144 18 is_stmt 0 view .LVU45
 157 006e 5A68     		ldr	r2, [r3, #4]
 144:Middlewares/Third_Party/LwIP/src/api/tcpip.c ****       memp_free(MEMP_TCPIP_MSG_API, msg);
ARM GAS  C:\Users\Nina\AppData\Local\Temp\ccRQvxBe.s 			page 7


 158              		.loc 1 144 7 view .LVU46
 159 0070 9868     		ldr	r0, [r3, #8]
 160 0072 9047     		blx	r2
 161              	.LVL11:
 145:Middlewares/Third_Party/LwIP/src/api/tcpip.c ****       break;
 162              		.loc 1 145 7 is_stmt 1 view .LVU47
 163 0074 0199     		ldr	r1, [sp, #4]
 164 0076 0820     		movs	r0, #8
 165 0078 FFF7FEFF 		bl	memp_free
 166              	.LVL12:
 146:Middlewares/Third_Party/LwIP/src/api/tcpip.c **** 
 167              		.loc 1 146 7 view .LVU48
 168 007c D2E7     		b	.L3
 169              	.L7:
 149:Middlewares/Third_Party/LwIP/src/api/tcpip.c ****       msg->msg.cb.function(msg->msg.cb.ctx);
 170              		.loc 1 149 84 view .LVU49
 150:Middlewares/Third_Party/LwIP/src/api/tcpip.c ****       break;
 171              		.loc 1 150 7 view .LVU50
 150:Middlewares/Third_Party/LwIP/src/api/tcpip.c ****       break;
 172              		.loc 1 150 18 is_stmt 0 view .LVU51
 173 007e 5A68     		ldr	r2, [r3, #4]
 150:Middlewares/Third_Party/LwIP/src/api/tcpip.c ****       break;
 174              		.loc 1 150 7 view .LVU52
 175 0080 9868     		ldr	r0, [r3, #8]
 176 0082 9047     		blx	r2
 177              	.LVL13:
 151:Middlewares/Third_Party/LwIP/src/api/tcpip.c **** 
 178              		.loc 1 151 7 is_stmt 1 view .LVU53
 179 0084 CEE7     		b	.L3
 180              	.L13:
 181 0086 00BF     		.align	2
 182              	.L12:
 183 0088 00000000 		.word	.LANCHOR0
 184 008c 00000000 		.word	.LANCHOR1
 185 0090 00000000 		.word	lock_tcpip_core
 186 0094 00000000 		.word	.LC0
 187 0098 30000000 		.word	.LC1
 188 009c 50000000 		.word	.LC2
 189 00a0 00000000 		.word	.LANCHOR2
 190              		.cfi_endproc
 191              	.LFE165:
 193              		.section	.text.pbuf_free_int,"ax",%progbits
 194              		.align	1
 195              		.syntax unified
 196              		.thumb
 197              		.thumb_func
 198              		.fpu fpv5-sp-d16
 200              	pbuf_free_int:
 201              	.LVL14:
 202              	.LFB175:
 157:Middlewares/Third_Party/LwIP/src/api/tcpip.c ****     }
 158:Middlewares/Third_Party/LwIP/src/api/tcpip.c ****   }
 159:Middlewares/Third_Party/LwIP/src/api/tcpip.c **** }
 160:Middlewares/Third_Party/LwIP/src/api/tcpip.c **** 
 161:Middlewares/Third_Party/LwIP/src/api/tcpip.c **** /**
 162:Middlewares/Third_Party/LwIP/src/api/tcpip.c ****  * Pass a received packet to tcpip_thread for input processing
 163:Middlewares/Third_Party/LwIP/src/api/tcpip.c ****  *
ARM GAS  C:\Users\Nina\AppData\Local\Temp\ccRQvxBe.s 			page 8


 164:Middlewares/Third_Party/LwIP/src/api/tcpip.c ****  * @param p the received packet
 165:Middlewares/Third_Party/LwIP/src/api/tcpip.c ****  * @param inp the network interface on which the packet was received
 166:Middlewares/Third_Party/LwIP/src/api/tcpip.c ****  * @param input_fn input function to call
 167:Middlewares/Third_Party/LwIP/src/api/tcpip.c ****  */
 168:Middlewares/Third_Party/LwIP/src/api/tcpip.c **** err_t
 169:Middlewares/Third_Party/LwIP/src/api/tcpip.c **** tcpip_inpkt(struct pbuf *p, struct netif *inp, netif_input_fn input_fn)
 170:Middlewares/Third_Party/LwIP/src/api/tcpip.c **** {
 171:Middlewares/Third_Party/LwIP/src/api/tcpip.c **** #if LWIP_TCPIP_CORE_LOCKING_INPUT
 172:Middlewares/Third_Party/LwIP/src/api/tcpip.c ****   err_t ret;
 173:Middlewares/Third_Party/LwIP/src/api/tcpip.c ****   LWIP_DEBUGF(TCPIP_DEBUG, ("tcpip_inpkt: PACKET %p/%p\n", (void *)p, (void *)inp));
 174:Middlewares/Third_Party/LwIP/src/api/tcpip.c ****   LOCK_TCPIP_CORE();
 175:Middlewares/Third_Party/LwIP/src/api/tcpip.c ****   ret = input_fn(p, inp);
 176:Middlewares/Third_Party/LwIP/src/api/tcpip.c ****   UNLOCK_TCPIP_CORE();
 177:Middlewares/Third_Party/LwIP/src/api/tcpip.c ****   return ret;
 178:Middlewares/Third_Party/LwIP/src/api/tcpip.c **** #else /* LWIP_TCPIP_CORE_LOCKING_INPUT */
 179:Middlewares/Third_Party/LwIP/src/api/tcpip.c ****   struct tcpip_msg *msg;
 180:Middlewares/Third_Party/LwIP/src/api/tcpip.c **** 
 181:Middlewares/Third_Party/LwIP/src/api/tcpip.c ****   LWIP_ASSERT("Invalid mbox", sys_mbox_valid_val(mbox));
 182:Middlewares/Third_Party/LwIP/src/api/tcpip.c **** 
 183:Middlewares/Third_Party/LwIP/src/api/tcpip.c ****   msg = (struct tcpip_msg *)memp_malloc(MEMP_TCPIP_MSG_INPKT);
 184:Middlewares/Third_Party/LwIP/src/api/tcpip.c ****   if (msg == NULL) {
 185:Middlewares/Third_Party/LwIP/src/api/tcpip.c ****     return ERR_MEM;
 186:Middlewares/Third_Party/LwIP/src/api/tcpip.c ****   }
 187:Middlewares/Third_Party/LwIP/src/api/tcpip.c **** 
 188:Middlewares/Third_Party/LwIP/src/api/tcpip.c ****   msg->type = TCPIP_MSG_INPKT;
 189:Middlewares/Third_Party/LwIP/src/api/tcpip.c ****   msg->msg.inp.p = p;
 190:Middlewares/Third_Party/LwIP/src/api/tcpip.c ****   msg->msg.inp.netif = inp;
 191:Middlewares/Third_Party/LwIP/src/api/tcpip.c ****   msg->msg.inp.input_fn = input_fn;
 192:Middlewares/Third_Party/LwIP/src/api/tcpip.c ****   if (sys_mbox_trypost(&mbox, msg) != ERR_OK) {
 193:Middlewares/Third_Party/LwIP/src/api/tcpip.c ****     memp_free(MEMP_TCPIP_MSG_INPKT, msg);
 194:Middlewares/Third_Party/LwIP/src/api/tcpip.c ****     return ERR_MEM;
 195:Middlewares/Third_Party/LwIP/src/api/tcpip.c ****   }
 196:Middlewares/Third_Party/LwIP/src/api/tcpip.c ****   return ERR_OK;
 197:Middlewares/Third_Party/LwIP/src/api/tcpip.c **** #endif /* LWIP_TCPIP_CORE_LOCKING_INPUT */
 198:Middlewares/Third_Party/LwIP/src/api/tcpip.c **** }
 199:Middlewares/Third_Party/LwIP/src/api/tcpip.c **** 
 200:Middlewares/Third_Party/LwIP/src/api/tcpip.c **** /**
 201:Middlewares/Third_Party/LwIP/src/api/tcpip.c ****  * @ingroup lwip_os
 202:Middlewares/Third_Party/LwIP/src/api/tcpip.c ****  * Pass a received packet to tcpip_thread for input processing with
 203:Middlewares/Third_Party/LwIP/src/api/tcpip.c ****  * ethernet_input or ip_input. Don't call directly, pass to netif_add()
 204:Middlewares/Third_Party/LwIP/src/api/tcpip.c ****  * and call netif->input().
 205:Middlewares/Third_Party/LwIP/src/api/tcpip.c ****  *
 206:Middlewares/Third_Party/LwIP/src/api/tcpip.c ****  * @param p the received packet, p->payload pointing to the Ethernet header or
 207:Middlewares/Third_Party/LwIP/src/api/tcpip.c ****  *          to an IP header (if inp doesn't have NETIF_FLAG_ETHARP or
 208:Middlewares/Third_Party/LwIP/src/api/tcpip.c ****  *          NETIF_FLAG_ETHERNET flags)
 209:Middlewares/Third_Party/LwIP/src/api/tcpip.c ****  * @param inp the network interface on which the packet was received
 210:Middlewares/Third_Party/LwIP/src/api/tcpip.c ****  */
 211:Middlewares/Third_Party/LwIP/src/api/tcpip.c **** err_t
 212:Middlewares/Third_Party/LwIP/src/api/tcpip.c **** tcpip_input(struct pbuf *p, struct netif *inp)
 213:Middlewares/Third_Party/LwIP/src/api/tcpip.c **** {
 214:Middlewares/Third_Party/LwIP/src/api/tcpip.c **** #if LWIP_ETHERNET
 215:Middlewares/Third_Party/LwIP/src/api/tcpip.c ****   if (inp->flags & (NETIF_FLAG_ETHARP | NETIF_FLAG_ETHERNET)) {
 216:Middlewares/Third_Party/LwIP/src/api/tcpip.c ****     return tcpip_inpkt(p, inp, ethernet_input);
 217:Middlewares/Third_Party/LwIP/src/api/tcpip.c ****   } else
 218:Middlewares/Third_Party/LwIP/src/api/tcpip.c **** #endif /* LWIP_ETHERNET */
 219:Middlewares/Third_Party/LwIP/src/api/tcpip.c ****   return tcpip_inpkt(p, inp, ip_input);
 220:Middlewares/Third_Party/LwIP/src/api/tcpip.c **** }
ARM GAS  C:\Users\Nina\AppData\Local\Temp\ccRQvxBe.s 			page 9


 221:Middlewares/Third_Party/LwIP/src/api/tcpip.c **** 
 222:Middlewares/Third_Party/LwIP/src/api/tcpip.c **** /**
 223:Middlewares/Third_Party/LwIP/src/api/tcpip.c ****  * Call a specific function in the thread context of
 224:Middlewares/Third_Party/LwIP/src/api/tcpip.c ****  * tcpip_thread for easy access synchronization.
 225:Middlewares/Third_Party/LwIP/src/api/tcpip.c ****  * A function called in that way may access lwIP core code
 226:Middlewares/Third_Party/LwIP/src/api/tcpip.c ****  * without fearing concurrent access.
 227:Middlewares/Third_Party/LwIP/src/api/tcpip.c ****  *
 228:Middlewares/Third_Party/LwIP/src/api/tcpip.c ****  * @param function the function to call
 229:Middlewares/Third_Party/LwIP/src/api/tcpip.c ****  * @param ctx parameter passed to f
 230:Middlewares/Third_Party/LwIP/src/api/tcpip.c ****  * @param block 1 to block until the request is posted, 0 to non-blocking mode
 231:Middlewares/Third_Party/LwIP/src/api/tcpip.c ****  * @return ERR_OK if the function was called, another err_t if not
 232:Middlewares/Third_Party/LwIP/src/api/tcpip.c ****  */
 233:Middlewares/Third_Party/LwIP/src/api/tcpip.c **** err_t
 234:Middlewares/Third_Party/LwIP/src/api/tcpip.c **** tcpip_callback_with_block(tcpip_callback_fn function, void *ctx, u8_t block)
 235:Middlewares/Third_Party/LwIP/src/api/tcpip.c **** {
 236:Middlewares/Third_Party/LwIP/src/api/tcpip.c ****   struct tcpip_msg *msg;
 237:Middlewares/Third_Party/LwIP/src/api/tcpip.c **** 
 238:Middlewares/Third_Party/LwIP/src/api/tcpip.c ****   LWIP_ASSERT("Invalid mbox", sys_mbox_valid_val(mbox));
 239:Middlewares/Third_Party/LwIP/src/api/tcpip.c **** 
 240:Middlewares/Third_Party/LwIP/src/api/tcpip.c ****   msg = (struct tcpip_msg *)memp_malloc(MEMP_TCPIP_MSG_API);
 241:Middlewares/Third_Party/LwIP/src/api/tcpip.c ****   if (msg == NULL) {
 242:Middlewares/Third_Party/LwIP/src/api/tcpip.c ****     return ERR_MEM;
 243:Middlewares/Third_Party/LwIP/src/api/tcpip.c ****   }
 244:Middlewares/Third_Party/LwIP/src/api/tcpip.c **** 
 245:Middlewares/Third_Party/LwIP/src/api/tcpip.c ****   msg->type = TCPIP_MSG_CALLBACK;
 246:Middlewares/Third_Party/LwIP/src/api/tcpip.c ****   msg->msg.cb.function = function;
 247:Middlewares/Third_Party/LwIP/src/api/tcpip.c ****   msg->msg.cb.ctx = ctx;
 248:Middlewares/Third_Party/LwIP/src/api/tcpip.c ****   if (block) {
 249:Middlewares/Third_Party/LwIP/src/api/tcpip.c ****     sys_mbox_post(&mbox, msg);
 250:Middlewares/Third_Party/LwIP/src/api/tcpip.c ****   } else {
 251:Middlewares/Third_Party/LwIP/src/api/tcpip.c ****     if (sys_mbox_trypost(&mbox, msg) != ERR_OK) {
 252:Middlewares/Third_Party/LwIP/src/api/tcpip.c ****       memp_free(MEMP_TCPIP_MSG_API, msg);
 253:Middlewares/Third_Party/LwIP/src/api/tcpip.c ****       return ERR_MEM;
 254:Middlewares/Third_Party/LwIP/src/api/tcpip.c ****     }
 255:Middlewares/Third_Party/LwIP/src/api/tcpip.c ****   }
 256:Middlewares/Third_Party/LwIP/src/api/tcpip.c ****   return ERR_OK;
 257:Middlewares/Third_Party/LwIP/src/api/tcpip.c **** }
 258:Middlewares/Third_Party/LwIP/src/api/tcpip.c **** 
 259:Middlewares/Third_Party/LwIP/src/api/tcpip.c **** #if LWIP_TCPIP_TIMEOUT && LWIP_TIMERS
 260:Middlewares/Third_Party/LwIP/src/api/tcpip.c **** /**
 261:Middlewares/Third_Party/LwIP/src/api/tcpip.c ****  * call sys_timeout in tcpip_thread
 262:Middlewares/Third_Party/LwIP/src/api/tcpip.c ****  *
 263:Middlewares/Third_Party/LwIP/src/api/tcpip.c ****  * @param msecs time in milliseconds for timeout
 264:Middlewares/Third_Party/LwIP/src/api/tcpip.c ****  * @param h function to be called on timeout
 265:Middlewares/Third_Party/LwIP/src/api/tcpip.c ****  * @param arg argument to pass to timeout function h
 266:Middlewares/Third_Party/LwIP/src/api/tcpip.c ****  * @return ERR_MEM on memory error, ERR_OK otherwise
 267:Middlewares/Third_Party/LwIP/src/api/tcpip.c ****  */
 268:Middlewares/Third_Party/LwIP/src/api/tcpip.c **** err_t
 269:Middlewares/Third_Party/LwIP/src/api/tcpip.c **** tcpip_timeout(u32_t msecs, sys_timeout_handler h, void *arg)
 270:Middlewares/Third_Party/LwIP/src/api/tcpip.c **** {
 271:Middlewares/Third_Party/LwIP/src/api/tcpip.c ****   struct tcpip_msg *msg;
 272:Middlewares/Third_Party/LwIP/src/api/tcpip.c **** 
 273:Middlewares/Third_Party/LwIP/src/api/tcpip.c ****   LWIP_ASSERT("Invalid mbox", sys_mbox_valid_val(mbox));
 274:Middlewares/Third_Party/LwIP/src/api/tcpip.c **** 
 275:Middlewares/Third_Party/LwIP/src/api/tcpip.c ****   msg = (struct tcpip_msg *)memp_malloc(MEMP_TCPIP_MSG_API);
 276:Middlewares/Third_Party/LwIP/src/api/tcpip.c ****   if (msg == NULL) {
 277:Middlewares/Third_Party/LwIP/src/api/tcpip.c ****     return ERR_MEM;
ARM GAS  C:\Users\Nina\AppData\Local\Temp\ccRQvxBe.s 			page 10


 278:Middlewares/Third_Party/LwIP/src/api/tcpip.c ****   }
 279:Middlewares/Third_Party/LwIP/src/api/tcpip.c **** 
 280:Middlewares/Third_Party/LwIP/src/api/tcpip.c ****   msg->type = TCPIP_MSG_TIMEOUT;
 281:Middlewares/Third_Party/LwIP/src/api/tcpip.c ****   msg->msg.tmo.msecs = msecs;
 282:Middlewares/Third_Party/LwIP/src/api/tcpip.c ****   msg->msg.tmo.h = h;
 283:Middlewares/Third_Party/LwIP/src/api/tcpip.c ****   msg->msg.tmo.arg = arg;
 284:Middlewares/Third_Party/LwIP/src/api/tcpip.c ****   sys_mbox_post(&mbox, msg);
 285:Middlewares/Third_Party/LwIP/src/api/tcpip.c ****   return ERR_OK;
 286:Middlewares/Third_Party/LwIP/src/api/tcpip.c **** }
 287:Middlewares/Third_Party/LwIP/src/api/tcpip.c **** 
 288:Middlewares/Third_Party/LwIP/src/api/tcpip.c **** /**
 289:Middlewares/Third_Party/LwIP/src/api/tcpip.c ****  * call sys_untimeout in tcpip_thread
 290:Middlewares/Third_Party/LwIP/src/api/tcpip.c ****  *
 291:Middlewares/Third_Party/LwIP/src/api/tcpip.c ****  * @param h function to be called on timeout
 292:Middlewares/Third_Party/LwIP/src/api/tcpip.c ****  * @param arg argument to pass to timeout function h
 293:Middlewares/Third_Party/LwIP/src/api/tcpip.c ****  * @return ERR_MEM on memory error, ERR_OK otherwise
 294:Middlewares/Third_Party/LwIP/src/api/tcpip.c ****  */
 295:Middlewares/Third_Party/LwIP/src/api/tcpip.c **** err_t
 296:Middlewares/Third_Party/LwIP/src/api/tcpip.c **** tcpip_untimeout(sys_timeout_handler h, void *arg)
 297:Middlewares/Third_Party/LwIP/src/api/tcpip.c **** {
 298:Middlewares/Third_Party/LwIP/src/api/tcpip.c ****   struct tcpip_msg *msg;
 299:Middlewares/Third_Party/LwIP/src/api/tcpip.c **** 
 300:Middlewares/Third_Party/LwIP/src/api/tcpip.c ****   LWIP_ASSERT("Invalid mbox", sys_mbox_valid_val(mbox));
 301:Middlewares/Third_Party/LwIP/src/api/tcpip.c **** 
 302:Middlewares/Third_Party/LwIP/src/api/tcpip.c ****   msg = (struct tcpip_msg *)memp_malloc(MEMP_TCPIP_MSG_API);
 303:Middlewares/Third_Party/LwIP/src/api/tcpip.c ****   if (msg == NULL) {
 304:Middlewares/Third_Party/LwIP/src/api/tcpip.c ****     return ERR_MEM;
 305:Middlewares/Third_Party/LwIP/src/api/tcpip.c ****   }
 306:Middlewares/Third_Party/LwIP/src/api/tcpip.c **** 
 307:Middlewares/Third_Party/LwIP/src/api/tcpip.c ****   msg->type = TCPIP_MSG_UNTIMEOUT;
 308:Middlewares/Third_Party/LwIP/src/api/tcpip.c ****   msg->msg.tmo.h = h;
 309:Middlewares/Third_Party/LwIP/src/api/tcpip.c ****   msg->msg.tmo.arg = arg;
 310:Middlewares/Third_Party/LwIP/src/api/tcpip.c ****   sys_mbox_post(&mbox, msg);
 311:Middlewares/Third_Party/LwIP/src/api/tcpip.c ****   return ERR_OK;
 312:Middlewares/Third_Party/LwIP/src/api/tcpip.c **** }
 313:Middlewares/Third_Party/LwIP/src/api/tcpip.c **** #endif /* LWIP_TCPIP_TIMEOUT && LWIP_TIMERS */
 314:Middlewares/Third_Party/LwIP/src/api/tcpip.c **** 
 315:Middlewares/Third_Party/LwIP/src/api/tcpip.c **** 
 316:Middlewares/Third_Party/LwIP/src/api/tcpip.c **** /**
 317:Middlewares/Third_Party/LwIP/src/api/tcpip.c ****  * Sends a message to TCPIP thread to call a function. Caller thread blocks on
 318:Middlewares/Third_Party/LwIP/src/api/tcpip.c ****  * on a provided semaphore, which ist NOT automatically signalled by TCPIP thread,
 319:Middlewares/Third_Party/LwIP/src/api/tcpip.c ****  * this has to be done by the user.
 320:Middlewares/Third_Party/LwIP/src/api/tcpip.c ****  * It is recommended to use LWIP_TCPIP_CORE_LOCKING since this is the way
 321:Middlewares/Third_Party/LwIP/src/api/tcpip.c ****  * with least runtime overhead.
 322:Middlewares/Third_Party/LwIP/src/api/tcpip.c ****  *
 323:Middlewares/Third_Party/LwIP/src/api/tcpip.c ****  * @param fn function to be called from TCPIP thread
 324:Middlewares/Third_Party/LwIP/src/api/tcpip.c ****  * @param apimsg argument to API function
 325:Middlewares/Third_Party/LwIP/src/api/tcpip.c ****  * @param sem semaphore to wait on
 326:Middlewares/Third_Party/LwIP/src/api/tcpip.c ****  * @return ERR_OK if the function was called, another err_t if not
 327:Middlewares/Third_Party/LwIP/src/api/tcpip.c ****  */
 328:Middlewares/Third_Party/LwIP/src/api/tcpip.c **** err_t
 329:Middlewares/Third_Party/LwIP/src/api/tcpip.c **** tcpip_send_msg_wait_sem(tcpip_callback_fn fn, void *apimsg, sys_sem_t* sem)
 330:Middlewares/Third_Party/LwIP/src/api/tcpip.c **** {
 331:Middlewares/Third_Party/LwIP/src/api/tcpip.c **** #if LWIP_TCPIP_CORE_LOCKING
 332:Middlewares/Third_Party/LwIP/src/api/tcpip.c ****   LWIP_UNUSED_ARG(sem);
 333:Middlewares/Third_Party/LwIP/src/api/tcpip.c ****   LOCK_TCPIP_CORE();
 334:Middlewares/Third_Party/LwIP/src/api/tcpip.c ****   fn(apimsg);
ARM GAS  C:\Users\Nina\AppData\Local\Temp\ccRQvxBe.s 			page 11


 335:Middlewares/Third_Party/LwIP/src/api/tcpip.c ****   UNLOCK_TCPIP_CORE();
 336:Middlewares/Third_Party/LwIP/src/api/tcpip.c ****   return ERR_OK;
 337:Middlewares/Third_Party/LwIP/src/api/tcpip.c **** #else /* LWIP_TCPIP_CORE_LOCKING */
 338:Middlewares/Third_Party/LwIP/src/api/tcpip.c ****   TCPIP_MSG_VAR_DECLARE(msg);
 339:Middlewares/Third_Party/LwIP/src/api/tcpip.c **** 
 340:Middlewares/Third_Party/LwIP/src/api/tcpip.c ****   LWIP_ASSERT("semaphore not initialized", sys_sem_valid(sem));
 341:Middlewares/Third_Party/LwIP/src/api/tcpip.c ****   LWIP_ASSERT("Invalid mbox", sys_mbox_valid_val(mbox));
 342:Middlewares/Third_Party/LwIP/src/api/tcpip.c **** 
 343:Middlewares/Third_Party/LwIP/src/api/tcpip.c ****   TCPIP_MSG_VAR_ALLOC(msg);
 344:Middlewares/Third_Party/LwIP/src/api/tcpip.c ****   TCPIP_MSG_VAR_REF(msg).type = TCPIP_MSG_API;
 345:Middlewares/Third_Party/LwIP/src/api/tcpip.c ****   TCPIP_MSG_VAR_REF(msg).msg.api_msg.function = fn;
 346:Middlewares/Third_Party/LwIP/src/api/tcpip.c ****   TCPIP_MSG_VAR_REF(msg).msg.api_msg.msg = apimsg;
 347:Middlewares/Third_Party/LwIP/src/api/tcpip.c ****   sys_mbox_post(&mbox, &TCPIP_MSG_VAR_REF(msg));
 348:Middlewares/Third_Party/LwIP/src/api/tcpip.c ****   sys_arch_sem_wait(sem, 0);
 349:Middlewares/Third_Party/LwIP/src/api/tcpip.c ****   TCPIP_MSG_VAR_FREE(msg);
 350:Middlewares/Third_Party/LwIP/src/api/tcpip.c ****   return ERR_OK;
 351:Middlewares/Third_Party/LwIP/src/api/tcpip.c **** #endif /* LWIP_TCPIP_CORE_LOCKING */
 352:Middlewares/Third_Party/LwIP/src/api/tcpip.c **** }
 353:Middlewares/Third_Party/LwIP/src/api/tcpip.c **** 
 354:Middlewares/Third_Party/LwIP/src/api/tcpip.c **** /**
 355:Middlewares/Third_Party/LwIP/src/api/tcpip.c ****  * Synchronously calls function in TCPIP thread and waits for its completion.
 356:Middlewares/Third_Party/LwIP/src/api/tcpip.c ****  * It is recommended to use LWIP_TCPIP_CORE_LOCKING (preferred) or
 357:Middlewares/Third_Party/LwIP/src/api/tcpip.c ****  * LWIP_NETCONN_SEM_PER_THREAD. 
 358:Middlewares/Third_Party/LwIP/src/api/tcpip.c ****  * If not, a semaphore is created and destroyed on every call which is usually
 359:Middlewares/Third_Party/LwIP/src/api/tcpip.c ****  * an expensive/slow operation.
 360:Middlewares/Third_Party/LwIP/src/api/tcpip.c ****  * @param fn Function to call
 361:Middlewares/Third_Party/LwIP/src/api/tcpip.c ****  * @param call Call parameters
 362:Middlewares/Third_Party/LwIP/src/api/tcpip.c ****  * @return Return value from tcpip_api_call_fn
 363:Middlewares/Third_Party/LwIP/src/api/tcpip.c ****  */
 364:Middlewares/Third_Party/LwIP/src/api/tcpip.c **** err_t
 365:Middlewares/Third_Party/LwIP/src/api/tcpip.c **** tcpip_api_call(tcpip_api_call_fn fn, struct tcpip_api_call_data *call)
 366:Middlewares/Third_Party/LwIP/src/api/tcpip.c **** {
 367:Middlewares/Third_Party/LwIP/src/api/tcpip.c **** #if LWIP_TCPIP_CORE_LOCKING
 368:Middlewares/Third_Party/LwIP/src/api/tcpip.c ****   err_t err;
 369:Middlewares/Third_Party/LwIP/src/api/tcpip.c ****   LOCK_TCPIP_CORE();
 370:Middlewares/Third_Party/LwIP/src/api/tcpip.c ****   err = fn(call);
 371:Middlewares/Third_Party/LwIP/src/api/tcpip.c ****   UNLOCK_TCPIP_CORE();
 372:Middlewares/Third_Party/LwIP/src/api/tcpip.c ****   return err;
 373:Middlewares/Third_Party/LwIP/src/api/tcpip.c **** #else /* LWIP_TCPIP_CORE_LOCKING */
 374:Middlewares/Third_Party/LwIP/src/api/tcpip.c ****   TCPIP_MSG_VAR_DECLARE(msg);
 375:Middlewares/Third_Party/LwIP/src/api/tcpip.c **** 
 376:Middlewares/Third_Party/LwIP/src/api/tcpip.c **** #if !LWIP_NETCONN_SEM_PER_THREAD
 377:Middlewares/Third_Party/LwIP/src/api/tcpip.c ****   err_t err = sys_sem_new(&call->sem, 0);
 378:Middlewares/Third_Party/LwIP/src/api/tcpip.c ****   if (err != ERR_OK) {
 379:Middlewares/Third_Party/LwIP/src/api/tcpip.c ****     return err;
 380:Middlewares/Third_Party/LwIP/src/api/tcpip.c ****   }
 381:Middlewares/Third_Party/LwIP/src/api/tcpip.c **** #endif /* LWIP_NETCONN_SEM_PER_THREAD */
 382:Middlewares/Third_Party/LwIP/src/api/tcpip.c **** 
 383:Middlewares/Third_Party/LwIP/src/api/tcpip.c ****   LWIP_ASSERT("Invalid mbox", sys_mbox_valid_val(mbox));
 384:Middlewares/Third_Party/LwIP/src/api/tcpip.c **** 
 385:Middlewares/Third_Party/LwIP/src/api/tcpip.c ****   TCPIP_MSG_VAR_ALLOC(msg);
 386:Middlewares/Third_Party/LwIP/src/api/tcpip.c ****   TCPIP_MSG_VAR_REF(msg).type = TCPIP_MSG_API_CALL;
 387:Middlewares/Third_Party/LwIP/src/api/tcpip.c ****   TCPIP_MSG_VAR_REF(msg).msg.api_call.arg = call;
 388:Middlewares/Third_Party/LwIP/src/api/tcpip.c ****   TCPIP_MSG_VAR_REF(msg).msg.api_call.function = fn;
 389:Middlewares/Third_Party/LwIP/src/api/tcpip.c **** #if LWIP_NETCONN_SEM_PER_THREAD
 390:Middlewares/Third_Party/LwIP/src/api/tcpip.c ****   TCPIP_MSG_VAR_REF(msg).msg.api_call.sem = LWIP_NETCONN_THREAD_SEM_GET();
 391:Middlewares/Third_Party/LwIP/src/api/tcpip.c **** #else /* LWIP_NETCONN_SEM_PER_THREAD */
ARM GAS  C:\Users\Nina\AppData\Local\Temp\ccRQvxBe.s 			page 12


 392:Middlewares/Third_Party/LwIP/src/api/tcpip.c ****   TCPIP_MSG_VAR_REF(msg).msg.api_call.sem = &call->sem;
 393:Middlewares/Third_Party/LwIP/src/api/tcpip.c **** #endif /* LWIP_NETCONN_SEM_PER_THREAD */
 394:Middlewares/Third_Party/LwIP/src/api/tcpip.c ****   sys_mbox_post(&mbox, &TCPIP_MSG_VAR_REF(msg));
 395:Middlewares/Third_Party/LwIP/src/api/tcpip.c ****   sys_arch_sem_wait(TCPIP_MSG_VAR_REF(msg).msg.api_call.sem, 0);
 396:Middlewares/Third_Party/LwIP/src/api/tcpip.c ****   TCPIP_MSG_VAR_FREE(msg);
 397:Middlewares/Third_Party/LwIP/src/api/tcpip.c **** 
 398:Middlewares/Third_Party/LwIP/src/api/tcpip.c **** #if !LWIP_NETCONN_SEM_PER_THREAD
 399:Middlewares/Third_Party/LwIP/src/api/tcpip.c ****   sys_sem_free(&call->sem);
 400:Middlewares/Third_Party/LwIP/src/api/tcpip.c **** #endif /* LWIP_NETCONN_SEM_PER_THREAD */
 401:Middlewares/Third_Party/LwIP/src/api/tcpip.c **** 
 402:Middlewares/Third_Party/LwIP/src/api/tcpip.c ****   return call->err;
 403:Middlewares/Third_Party/LwIP/src/api/tcpip.c **** #endif /* LWIP_TCPIP_CORE_LOCKING */
 404:Middlewares/Third_Party/LwIP/src/api/tcpip.c **** }
 405:Middlewares/Third_Party/LwIP/src/api/tcpip.c **** 
 406:Middlewares/Third_Party/LwIP/src/api/tcpip.c **** /**
 407:Middlewares/Third_Party/LwIP/src/api/tcpip.c ****  * Allocate a structure for a static callback message and initialize it.
 408:Middlewares/Third_Party/LwIP/src/api/tcpip.c ****  * This is intended to be used to send "static" messages from interrupt context.
 409:Middlewares/Third_Party/LwIP/src/api/tcpip.c ****  *
 410:Middlewares/Third_Party/LwIP/src/api/tcpip.c ****  * @param function the function to call
 411:Middlewares/Third_Party/LwIP/src/api/tcpip.c ****  * @param ctx parameter passed to function
 412:Middlewares/Third_Party/LwIP/src/api/tcpip.c ****  * @return a struct pointer to pass to tcpip_trycallback().
 413:Middlewares/Third_Party/LwIP/src/api/tcpip.c ****  */
 414:Middlewares/Third_Party/LwIP/src/api/tcpip.c **** struct tcpip_callback_msg*
 415:Middlewares/Third_Party/LwIP/src/api/tcpip.c **** tcpip_callbackmsg_new(tcpip_callback_fn function, void *ctx)
 416:Middlewares/Third_Party/LwIP/src/api/tcpip.c **** {
 417:Middlewares/Third_Party/LwIP/src/api/tcpip.c ****   struct tcpip_msg *msg = (struct tcpip_msg *)memp_malloc(MEMP_TCPIP_MSG_API);
 418:Middlewares/Third_Party/LwIP/src/api/tcpip.c ****   if (msg == NULL) {
 419:Middlewares/Third_Party/LwIP/src/api/tcpip.c ****     return NULL;
 420:Middlewares/Third_Party/LwIP/src/api/tcpip.c ****   }
 421:Middlewares/Third_Party/LwIP/src/api/tcpip.c ****   msg->type = TCPIP_MSG_CALLBACK_STATIC;
 422:Middlewares/Third_Party/LwIP/src/api/tcpip.c ****   msg->msg.cb.function = function;
 423:Middlewares/Third_Party/LwIP/src/api/tcpip.c ****   msg->msg.cb.ctx = ctx;
 424:Middlewares/Third_Party/LwIP/src/api/tcpip.c ****   return (struct tcpip_callback_msg*)msg;
 425:Middlewares/Third_Party/LwIP/src/api/tcpip.c **** }
 426:Middlewares/Third_Party/LwIP/src/api/tcpip.c **** 
 427:Middlewares/Third_Party/LwIP/src/api/tcpip.c **** /**
 428:Middlewares/Third_Party/LwIP/src/api/tcpip.c ****  * Free a callback message allocated by tcpip_callbackmsg_new().
 429:Middlewares/Third_Party/LwIP/src/api/tcpip.c ****  *
 430:Middlewares/Third_Party/LwIP/src/api/tcpip.c ****  * @param msg the message to free
 431:Middlewares/Third_Party/LwIP/src/api/tcpip.c ****  */
 432:Middlewares/Third_Party/LwIP/src/api/tcpip.c **** void
 433:Middlewares/Third_Party/LwIP/src/api/tcpip.c **** tcpip_callbackmsg_delete(struct tcpip_callback_msg* msg)
 434:Middlewares/Third_Party/LwIP/src/api/tcpip.c **** {
 435:Middlewares/Third_Party/LwIP/src/api/tcpip.c ****   memp_free(MEMP_TCPIP_MSG_API, msg);
 436:Middlewares/Third_Party/LwIP/src/api/tcpip.c **** }
 437:Middlewares/Third_Party/LwIP/src/api/tcpip.c **** 
 438:Middlewares/Third_Party/LwIP/src/api/tcpip.c **** /**
 439:Middlewares/Third_Party/LwIP/src/api/tcpip.c ****  * Try to post a callback-message to the tcpip_thread mbox
 440:Middlewares/Third_Party/LwIP/src/api/tcpip.c ****  * This is intended to be used to send "static" messages from interrupt context.
 441:Middlewares/Third_Party/LwIP/src/api/tcpip.c ****  *
 442:Middlewares/Third_Party/LwIP/src/api/tcpip.c ****  * @param msg pointer to the message to post
 443:Middlewares/Third_Party/LwIP/src/api/tcpip.c ****  * @return sys_mbox_trypost() return code
 444:Middlewares/Third_Party/LwIP/src/api/tcpip.c ****  */
 445:Middlewares/Third_Party/LwIP/src/api/tcpip.c **** err_t
 446:Middlewares/Third_Party/LwIP/src/api/tcpip.c **** tcpip_trycallback(struct tcpip_callback_msg* msg)
 447:Middlewares/Third_Party/LwIP/src/api/tcpip.c **** {
 448:Middlewares/Third_Party/LwIP/src/api/tcpip.c ****   LWIP_ASSERT("Invalid mbox", sys_mbox_valid_val(mbox));
ARM GAS  C:\Users\Nina\AppData\Local\Temp\ccRQvxBe.s 			page 13


 449:Middlewares/Third_Party/LwIP/src/api/tcpip.c ****   return sys_mbox_trypost(&mbox, msg);
 450:Middlewares/Third_Party/LwIP/src/api/tcpip.c **** }
 451:Middlewares/Third_Party/LwIP/src/api/tcpip.c **** 
 452:Middlewares/Third_Party/LwIP/src/api/tcpip.c **** /**
 453:Middlewares/Third_Party/LwIP/src/api/tcpip.c ****  * @ingroup lwip_os
 454:Middlewares/Third_Party/LwIP/src/api/tcpip.c ****  * Initialize this module:
 455:Middlewares/Third_Party/LwIP/src/api/tcpip.c ****  * - initialize all sub modules
 456:Middlewares/Third_Party/LwIP/src/api/tcpip.c ****  * - start the tcpip_thread
 457:Middlewares/Third_Party/LwIP/src/api/tcpip.c ****  *
 458:Middlewares/Third_Party/LwIP/src/api/tcpip.c ****  * @param initfunc a function to call when tcpip_thread is running and finished initializing
 459:Middlewares/Third_Party/LwIP/src/api/tcpip.c ****  * @param arg argument to pass to initfunc
 460:Middlewares/Third_Party/LwIP/src/api/tcpip.c ****  */
 461:Middlewares/Third_Party/LwIP/src/api/tcpip.c **** void
 462:Middlewares/Third_Party/LwIP/src/api/tcpip.c **** tcpip_init(tcpip_init_done_fn initfunc, void *arg)
 463:Middlewares/Third_Party/LwIP/src/api/tcpip.c **** {
 464:Middlewares/Third_Party/LwIP/src/api/tcpip.c ****   lwip_init();
 465:Middlewares/Third_Party/LwIP/src/api/tcpip.c **** 
 466:Middlewares/Third_Party/LwIP/src/api/tcpip.c ****   tcpip_init_done = initfunc;
 467:Middlewares/Third_Party/LwIP/src/api/tcpip.c ****   tcpip_init_done_arg = arg;
 468:Middlewares/Third_Party/LwIP/src/api/tcpip.c ****   if (sys_mbox_new(&mbox, TCPIP_MBOX_SIZE) != ERR_OK) {
 469:Middlewares/Third_Party/LwIP/src/api/tcpip.c ****     LWIP_ASSERT("failed to create tcpip_thread mbox", 0);
 470:Middlewares/Third_Party/LwIP/src/api/tcpip.c ****   }
 471:Middlewares/Third_Party/LwIP/src/api/tcpip.c **** #if LWIP_TCPIP_CORE_LOCKING
 472:Middlewares/Third_Party/LwIP/src/api/tcpip.c ****   if (sys_mutex_new(&lock_tcpip_core) != ERR_OK) {
 473:Middlewares/Third_Party/LwIP/src/api/tcpip.c ****     LWIP_ASSERT("failed to create lock_tcpip_core", 0);
 474:Middlewares/Third_Party/LwIP/src/api/tcpip.c ****   }
 475:Middlewares/Third_Party/LwIP/src/api/tcpip.c **** #endif /* LWIP_TCPIP_CORE_LOCKING */
 476:Middlewares/Third_Party/LwIP/src/api/tcpip.c **** 
 477:Middlewares/Third_Party/LwIP/src/api/tcpip.c ****   sys_thread_new(TCPIP_THREAD_NAME, tcpip_thread, NULL, TCPIP_THREAD_STACKSIZE, TCPIP_THREAD_PRIO);
 478:Middlewares/Third_Party/LwIP/src/api/tcpip.c **** }
 479:Middlewares/Third_Party/LwIP/src/api/tcpip.c **** 
 480:Middlewares/Third_Party/LwIP/src/api/tcpip.c **** /**
 481:Middlewares/Third_Party/LwIP/src/api/tcpip.c ****  * Simple callback function used with tcpip_callback to free a pbuf
 482:Middlewares/Third_Party/LwIP/src/api/tcpip.c ****  * (pbuf_free has a wrong signature for tcpip_callback)
 483:Middlewares/Third_Party/LwIP/src/api/tcpip.c ****  *
 484:Middlewares/Third_Party/LwIP/src/api/tcpip.c ****  * @param p The pbuf (chain) to be dereferenced.
 485:Middlewares/Third_Party/LwIP/src/api/tcpip.c ****  */
 486:Middlewares/Third_Party/LwIP/src/api/tcpip.c **** static void
 487:Middlewares/Third_Party/LwIP/src/api/tcpip.c **** pbuf_free_int(void *p)
 488:Middlewares/Third_Party/LwIP/src/api/tcpip.c **** {
 203              		.loc 1 488 1 view -0
 204              		.cfi_startproc
 205              		@ args = 0, pretend = 0, frame = 0
 206              		@ frame_needed = 0, uses_anonymous_args = 0
 207              		.loc 1 488 1 is_stmt 0 view .LVU55
 208 0000 08B5     		push	{r3, lr}
 209              	.LCFI2:
 210              		.cfi_def_cfa_offset 8
 211              		.cfi_offset 3, -8
 212              		.cfi_offset 14, -4
 489:Middlewares/Third_Party/LwIP/src/api/tcpip.c ****   struct pbuf *q = (struct pbuf *)p;
 213              		.loc 1 489 3 is_stmt 1 view .LVU56
 214              	.LVL15:
 490:Middlewares/Third_Party/LwIP/src/api/tcpip.c ****   pbuf_free(q);
 215              		.loc 1 490 3 view .LVU57
 216 0002 FFF7FEFF 		bl	pbuf_free
 217              	.LVL16:
ARM GAS  C:\Users\Nina\AppData\Local\Temp\ccRQvxBe.s 			page 14


 491:Middlewares/Third_Party/LwIP/src/api/tcpip.c **** }
 218              		.loc 1 491 1 is_stmt 0 view .LVU58
 219 0006 08BD     		pop	{r3, pc}
 220              		.cfi_endproc
 221              	.LFE175:
 223              		.section	.rodata.tcpip_inpkt.str1.4,"aMS",%progbits,1
 224              		.align	2
 225              	.LC3:
 226 0000 496E7661 		.ascii	"Invalid mbox\000"
 226      6C696420 
 226      6D626F78 
 226      00
 227              		.section	.text.tcpip_inpkt,"ax",%progbits
 228              		.align	1
 229              		.global	tcpip_inpkt
 230              		.syntax unified
 231              		.thumb
 232              		.thumb_func
 233              		.fpu fpv5-sp-d16
 235              	tcpip_inpkt:
 236              	.LVL17:
 237              	.LFB166:
 170:Middlewares/Third_Party/LwIP/src/api/tcpip.c **** #if LWIP_TCPIP_CORE_LOCKING_INPUT
 238              		.loc 1 170 1 is_stmt 1 view -0
 239              		.cfi_startproc
 240              		@ args = 0, pretend = 0, frame = 0
 241              		@ frame_needed = 0, uses_anonymous_args = 0
 170:Middlewares/Third_Party/LwIP/src/api/tcpip.c **** #if LWIP_TCPIP_CORE_LOCKING_INPUT
 242              		.loc 1 170 1 is_stmt 0 view .LVU60
 243 0000 F8B5     		push	{r3, r4, r5, r6, r7, lr}
 244              	.LCFI3:
 245              		.cfi_def_cfa_offset 24
 246              		.cfi_offset 3, -24
 247              		.cfi_offset 4, -20
 248              		.cfi_offset 5, -16
 249              		.cfi_offset 6, -12
 250              		.cfi_offset 7, -8
 251              		.cfi_offset 14, -4
 252 0002 0746     		mov	r7, r0
 253 0004 0E46     		mov	r6, r1
 254 0006 1546     		mov	r5, r2
 179:Middlewares/Third_Party/LwIP/src/api/tcpip.c **** 
 255              		.loc 1 179 3 is_stmt 1 view .LVU61
 181:Middlewares/Third_Party/LwIP/src/api/tcpip.c **** 
 256              		.loc 1 181 3 view .LVU62
 181:Middlewares/Third_Party/LwIP/src/api/tcpip.c **** 
 257              		.loc 1 181 3 view .LVU63
 258 0008 1248     		ldr	r0, .L23
 259              	.LVL18:
 181:Middlewares/Third_Party/LwIP/src/api/tcpip.c **** 
 260              		.loc 1 181 3 is_stmt 0 view .LVU64
 261 000a FFF7FEFF 		bl	sys_mbox_valid
 262              	.LVL19:
 181:Middlewares/Third_Party/LwIP/src/api/tcpip.c **** 
 263              		.loc 1 181 3 view .LVU65
 264 000e 78B1     		cbz	r0, .L21
 265              	.L17:
ARM GAS  C:\Users\Nina\AppData\Local\Temp\ccRQvxBe.s 			page 15


 181:Middlewares/Third_Party/LwIP/src/api/tcpip.c **** 
 266              		.loc 1 181 3 is_stmt 1 discriminator 3 view .LVU66
 181:Middlewares/Third_Party/LwIP/src/api/tcpip.c **** 
 267              		.loc 1 181 3 discriminator 3 view .LVU67
 183:Middlewares/Third_Party/LwIP/src/api/tcpip.c ****   if (msg == NULL) {
 268              		.loc 1 183 3 discriminator 3 view .LVU68
 183:Middlewares/Third_Party/LwIP/src/api/tcpip.c ****   if (msg == NULL) {
 269              		.loc 1 183 29 is_stmt 0 discriminator 3 view .LVU69
 270 0010 0920     		movs	r0, #9
 271 0012 FFF7FEFF 		bl	memp_malloc
 272              	.LVL20:
 184:Middlewares/Third_Party/LwIP/src/api/tcpip.c ****     return ERR_MEM;
 273              		.loc 1 184 3 is_stmt 1 discriminator 3 view .LVU70
 184:Middlewares/Third_Party/LwIP/src/api/tcpip.c ****     return ERR_MEM;
 274              		.loc 1 184 6 is_stmt 0 discriminator 3 view .LVU71
 275 0016 0446     		mov	r4, r0
 276 0018 C0B1     		cbz	r0, .L19
 188:Middlewares/Third_Party/LwIP/src/api/tcpip.c ****   msg->msg.inp.p = p;
 277              		.loc 1 188 3 is_stmt 1 view .LVU72
 188:Middlewares/Third_Party/LwIP/src/api/tcpip.c ****   msg->msg.inp.p = p;
 278              		.loc 1 188 13 is_stmt 0 view .LVU73
 279 001a 0223     		movs	r3, #2
 280 001c 0370     		strb	r3, [r0]
 189:Middlewares/Third_Party/LwIP/src/api/tcpip.c ****   msg->msg.inp.netif = inp;
 281              		.loc 1 189 3 is_stmt 1 view .LVU74
 189:Middlewares/Third_Party/LwIP/src/api/tcpip.c ****   msg->msg.inp.netif = inp;
 282              		.loc 1 189 18 is_stmt 0 view .LVU75
 283 001e 4760     		str	r7, [r0, #4]
 190:Middlewares/Third_Party/LwIP/src/api/tcpip.c ****   msg->msg.inp.input_fn = input_fn;
 284              		.loc 1 190 3 is_stmt 1 view .LVU76
 190:Middlewares/Third_Party/LwIP/src/api/tcpip.c ****   msg->msg.inp.input_fn = input_fn;
 285              		.loc 1 190 22 is_stmt 0 view .LVU77
 286 0020 8660     		str	r6, [r0, #8]
 191:Middlewares/Third_Party/LwIP/src/api/tcpip.c ****   if (sys_mbox_trypost(&mbox, msg) != ERR_OK) {
 287              		.loc 1 191 3 is_stmt 1 view .LVU78
 191:Middlewares/Third_Party/LwIP/src/api/tcpip.c ****   if (sys_mbox_trypost(&mbox, msg) != ERR_OK) {
 288              		.loc 1 191 25 is_stmt 0 view .LVU79
 289 0022 C560     		str	r5, [r0, #12]
 192:Middlewares/Third_Party/LwIP/src/api/tcpip.c ****     memp_free(MEMP_TCPIP_MSG_INPKT, msg);
 290              		.loc 1 192 3 is_stmt 1 view .LVU80
 192:Middlewares/Third_Party/LwIP/src/api/tcpip.c ****     memp_free(MEMP_TCPIP_MSG_INPKT, msg);
 291              		.loc 1 192 7 is_stmt 0 view .LVU81
 292 0024 0146     		mov	r1, r0
 293 0026 0B48     		ldr	r0, .L23
 294              	.LVL21:
 192:Middlewares/Third_Party/LwIP/src/api/tcpip.c ****     memp_free(MEMP_TCPIP_MSG_INPKT, msg);
 295              		.loc 1 192 7 view .LVU82
 296 0028 FFF7FEFF 		bl	sys_mbox_trypost
 297              	.LVL22:
 192:Middlewares/Third_Party/LwIP/src/api/tcpip.c ****     memp_free(MEMP_TCPIP_MSG_INPKT, msg);
 298              		.loc 1 192 6 view .LVU83
 299 002c 38B9     		cbnz	r0, .L22
 300              	.L18:
 198:Middlewares/Third_Party/LwIP/src/api/tcpip.c **** 
 301              		.loc 1 198 1 view .LVU84
 302 002e F8BD     		pop	{r3, r4, r5, r6, r7, pc}
 303              	.LVL23:
ARM GAS  C:\Users\Nina\AppData\Local\Temp\ccRQvxBe.s 			page 16


 304              	.L21:
 181:Middlewares/Third_Party/LwIP/src/api/tcpip.c **** 
 305              		.loc 1 181 3 is_stmt 1 discriminator 1 view .LVU85
 181:Middlewares/Third_Party/LwIP/src/api/tcpip.c **** 
 306              		.loc 1 181 3 discriminator 1 view .LVU86
 307 0030 094B     		ldr	r3, .L23+4
 308 0032 B522     		movs	r2, #181
 309 0034 0949     		ldr	r1, .L23+8
 310 0036 0A48     		ldr	r0, .L23+12
 311 0038 FFF7FEFF 		bl	printf
 312              	.LVL24:
 313 003c E8E7     		b	.L17
 314              	.LVL25:
 315              	.L22:
 193:Middlewares/Third_Party/LwIP/src/api/tcpip.c ****     return ERR_MEM;
 316              		.loc 1 193 5 view .LVU87
 317 003e 2146     		mov	r1, r4
 318 0040 0920     		movs	r0, #9
 319 0042 FFF7FEFF 		bl	memp_free
 320              	.LVL26:
 194:Middlewares/Third_Party/LwIP/src/api/tcpip.c ****   }
 321              		.loc 1 194 5 view .LVU88
 194:Middlewares/Third_Party/LwIP/src/api/tcpip.c ****   }
 322              		.loc 1 194 12 is_stmt 0 view .LVU89
 323 0046 4FF0FF30 		mov	r0, #-1
 324 004a F0E7     		b	.L18
 325              	.LVL27:
 326              	.L19:
 185:Middlewares/Third_Party/LwIP/src/api/tcpip.c ****   }
 327              		.loc 1 185 12 view .LVU90
 328 004c 4FF0FF30 		mov	r0, #-1
 329              	.LVL28:
 185:Middlewares/Third_Party/LwIP/src/api/tcpip.c ****   }
 330              		.loc 1 185 12 view .LVU91
 331 0050 EDE7     		b	.L18
 332              	.L24:
 333 0052 00BF     		.align	2
 334              	.L23:
 335 0054 00000000 		.word	.LANCHOR2
 336 0058 00000000 		.word	.LC0
 337 005c 00000000 		.word	.LC3
 338 0060 50000000 		.word	.LC2
 339              		.cfi_endproc
 340              	.LFE166:
 342              		.section	.text.tcpip_input,"ax",%progbits
 343              		.align	1
 344              		.global	tcpip_input
 345              		.syntax unified
 346              		.thumb
 347              		.thumb_func
 348              		.fpu fpv5-sp-d16
 350              	tcpip_input:
 351              	.LVL29:
 352              	.LFB167:
 213:Middlewares/Third_Party/LwIP/src/api/tcpip.c **** #if LWIP_ETHERNET
 353              		.loc 1 213 1 is_stmt 1 view -0
 354              		.cfi_startproc
ARM GAS  C:\Users\Nina\AppData\Local\Temp\ccRQvxBe.s 			page 17


 355              		@ args = 0, pretend = 0, frame = 0
 356              		@ frame_needed = 0, uses_anonymous_args = 0
 213:Middlewares/Third_Party/LwIP/src/api/tcpip.c **** #if LWIP_ETHERNET
 357              		.loc 1 213 1 is_stmt 0 view .LVU93
 358 0000 08B5     		push	{r3, lr}
 359              	.LCFI4:
 360              		.cfi_def_cfa_offset 8
 361              		.cfi_offset 3, -8
 362              		.cfi_offset 14, -4
 215:Middlewares/Third_Party/LwIP/src/api/tcpip.c ****     return tcpip_inpkt(p, inp, ethernet_input);
 363              		.loc 1 215 3 is_stmt 1 view .LVU94
 215:Middlewares/Third_Party/LwIP/src/api/tcpip.c ****     return tcpip_inpkt(p, inp, ethernet_input);
 364              		.loc 1 215 10 is_stmt 0 view .LVU95
 365 0002 91F82F30 		ldrb	r3, [r1, #47]	@ zero_extendqisi2
 215:Middlewares/Third_Party/LwIP/src/api/tcpip.c ****     return tcpip_inpkt(p, inp, ethernet_input);
 366              		.loc 1 215 6 view .LVU96
 367 0006 13F0180F 		tst	r3, #24
 368 000a 03D0     		beq	.L26
 216:Middlewares/Third_Party/LwIP/src/api/tcpip.c ****   } else
 369              		.loc 1 216 5 is_stmt 1 view .LVU97
 216:Middlewares/Third_Party/LwIP/src/api/tcpip.c ****   } else
 370              		.loc 1 216 12 is_stmt 0 view .LVU98
 371 000c 034A     		ldr	r2, .L29
 372 000e FFF7FEFF 		bl	tcpip_inpkt
 373              	.LVL30:
 374              	.L27:
 220:Middlewares/Third_Party/LwIP/src/api/tcpip.c **** 
 375              		.loc 1 220 1 view .LVU99
 376 0012 08BD     		pop	{r3, pc}
 377              	.LVL31:
 378              	.L26:
 219:Middlewares/Third_Party/LwIP/src/api/tcpip.c **** }
 379              		.loc 1 219 3 is_stmt 1 view .LVU100
 219:Middlewares/Third_Party/LwIP/src/api/tcpip.c **** }
 380              		.loc 1 219 10 is_stmt 0 view .LVU101
 381 0014 024A     		ldr	r2, .L29+4
 382 0016 FFF7FEFF 		bl	tcpip_inpkt
 383              	.LVL32:
 219:Middlewares/Third_Party/LwIP/src/api/tcpip.c **** }
 384              		.loc 1 219 10 view .LVU102
 385 001a FAE7     		b	.L27
 386              	.L30:
 387              		.align	2
 388              	.L29:
 389 001c 00000000 		.word	ethernet_input
 390 0020 00000000 		.word	ip4_input
 391              		.cfi_endproc
 392              	.LFE167:
 394              		.section	.text.tcpip_callback_with_block,"ax",%progbits
 395              		.align	1
 396              		.global	tcpip_callback_with_block
 397              		.syntax unified
 398              		.thumb
 399              		.thumb_func
 400              		.fpu fpv5-sp-d16
 402              	tcpip_callback_with_block:
 403              	.LVL33:
ARM GAS  C:\Users\Nina\AppData\Local\Temp\ccRQvxBe.s 			page 18


 404              	.LFB168:
 235:Middlewares/Third_Party/LwIP/src/api/tcpip.c ****   struct tcpip_msg *msg;
 405              		.loc 1 235 1 is_stmt 1 view -0
 406              		.cfi_startproc
 407              		@ args = 0, pretend = 0, frame = 0
 408              		@ frame_needed = 0, uses_anonymous_args = 0
 235:Middlewares/Third_Party/LwIP/src/api/tcpip.c ****   struct tcpip_msg *msg;
 409              		.loc 1 235 1 is_stmt 0 view .LVU104
 410 0000 F8B5     		push	{r3, r4, r5, r6, r7, lr}
 411              	.LCFI5:
 412              		.cfi_def_cfa_offset 24
 413              		.cfi_offset 3, -24
 414              		.cfi_offset 4, -20
 415              		.cfi_offset 5, -16
 416              		.cfi_offset 6, -12
 417              		.cfi_offset 7, -8
 418              		.cfi_offset 14, -4
 419 0002 0746     		mov	r7, r0
 420 0004 0E46     		mov	r6, r1
 421 0006 1546     		mov	r5, r2
 236:Middlewares/Third_Party/LwIP/src/api/tcpip.c **** 
 422              		.loc 1 236 3 is_stmt 1 view .LVU105
 238:Middlewares/Third_Party/LwIP/src/api/tcpip.c **** 
 423              		.loc 1 238 3 view .LVU106
 238:Middlewares/Third_Party/LwIP/src/api/tcpip.c **** 
 424              		.loc 1 238 3 view .LVU107
 425 0008 1548     		ldr	r0, .L38
 426              	.LVL34:
 238:Middlewares/Third_Party/LwIP/src/api/tcpip.c **** 
 427              		.loc 1 238 3 is_stmt 0 view .LVU108
 428 000a FFF7FEFF 		bl	sys_mbox_valid
 429              	.LVL35:
 238:Middlewares/Third_Party/LwIP/src/api/tcpip.c **** 
 430              		.loc 1 238 3 view .LVU109
 431 000e 78B1     		cbz	r0, .L37
 432              	.L32:
 238:Middlewares/Third_Party/LwIP/src/api/tcpip.c **** 
 433              		.loc 1 238 3 is_stmt 1 discriminator 3 view .LVU110
 238:Middlewares/Third_Party/LwIP/src/api/tcpip.c **** 
 434              		.loc 1 238 3 discriminator 3 view .LVU111
 240:Middlewares/Third_Party/LwIP/src/api/tcpip.c ****   if (msg == NULL) {
 435              		.loc 1 240 3 discriminator 3 view .LVU112
 240:Middlewares/Third_Party/LwIP/src/api/tcpip.c ****   if (msg == NULL) {
 436              		.loc 1 240 29 is_stmt 0 discriminator 3 view .LVU113
 437 0010 0820     		movs	r0, #8
 438 0012 FFF7FEFF 		bl	memp_malloc
 439              	.LVL36:
 241:Middlewares/Third_Party/LwIP/src/api/tcpip.c ****     return ERR_MEM;
 440              		.loc 1 241 3 is_stmt 1 discriminator 3 view .LVU114
 241:Middlewares/Third_Party/LwIP/src/api/tcpip.c ****     return ERR_MEM;
 441              		.loc 1 241 6 is_stmt 0 discriminator 3 view .LVU115
 442 0016 0446     		mov	r4, r0
 443 0018 F0B1     		cbz	r0, .L35
 245:Middlewares/Third_Party/LwIP/src/api/tcpip.c ****   msg->msg.cb.function = function;
 444              		.loc 1 245 3 is_stmt 1 view .LVU116
 245:Middlewares/Third_Party/LwIP/src/api/tcpip.c ****   msg->msg.cb.function = function;
 445              		.loc 1 245 13 is_stmt 0 view .LVU117
ARM GAS  C:\Users\Nina\AppData\Local\Temp\ccRQvxBe.s 			page 19


 446 001a 0323     		movs	r3, #3
 447 001c 0370     		strb	r3, [r0]
 246:Middlewares/Third_Party/LwIP/src/api/tcpip.c ****   msg->msg.cb.ctx = ctx;
 448              		.loc 1 246 3 is_stmt 1 view .LVU118
 246:Middlewares/Third_Party/LwIP/src/api/tcpip.c ****   msg->msg.cb.ctx = ctx;
 449              		.loc 1 246 24 is_stmt 0 view .LVU119
 450 001e 4760     		str	r7, [r0, #4]
 247:Middlewares/Third_Party/LwIP/src/api/tcpip.c ****   if (block) {
 451              		.loc 1 247 3 is_stmt 1 view .LVU120
 247:Middlewares/Third_Party/LwIP/src/api/tcpip.c ****   if (block) {
 452              		.loc 1 247 19 is_stmt 0 view .LVU121
 453 0020 8660     		str	r6, [r0, #8]
 248:Middlewares/Third_Party/LwIP/src/api/tcpip.c ****     sys_mbox_post(&mbox, msg);
 454              		.loc 1 248 3 is_stmt 1 view .LVU122
 248:Middlewares/Third_Party/LwIP/src/api/tcpip.c ****     sys_mbox_post(&mbox, msg);
 455              		.loc 1 248 6 is_stmt 0 view .LVU123
 456 0022 65B1     		cbz	r5, .L34
 249:Middlewares/Third_Party/LwIP/src/api/tcpip.c ****   } else {
 457              		.loc 1 249 5 is_stmt 1 view .LVU124
 458 0024 0146     		mov	r1, r0
 459 0026 0E48     		ldr	r0, .L38
 460              	.LVL37:
 249:Middlewares/Third_Party/LwIP/src/api/tcpip.c ****   } else {
 461              		.loc 1 249 5 is_stmt 0 view .LVU125
 462 0028 FFF7FEFF 		bl	sys_mbox_post
 463              	.LVL38:
 256:Middlewares/Third_Party/LwIP/src/api/tcpip.c **** }
 464              		.loc 1 256 10 view .LVU126
 465 002c 0020     		movs	r0, #0
 466              	.L33:
 257:Middlewares/Third_Party/LwIP/src/api/tcpip.c **** 
 467              		.loc 1 257 1 view .LVU127
 468 002e F8BD     		pop	{r3, r4, r5, r6, r7, pc}
 469              	.LVL39:
 470              	.L37:
 238:Middlewares/Third_Party/LwIP/src/api/tcpip.c **** 
 471              		.loc 1 238 3 is_stmt 1 discriminator 1 view .LVU128
 238:Middlewares/Third_Party/LwIP/src/api/tcpip.c **** 
 472              		.loc 1 238 3 discriminator 1 view .LVU129
 473 0030 0C4B     		ldr	r3, .L38+4
 474 0032 EE22     		movs	r2, #238
 475 0034 0C49     		ldr	r1, .L38+8
 476 0036 0D48     		ldr	r0, .L38+12
 477 0038 FFF7FEFF 		bl	printf
 478              	.LVL40:
 479 003c E8E7     		b	.L32
 480              	.LVL41:
 481              	.L34:
 251:Middlewares/Third_Party/LwIP/src/api/tcpip.c ****       memp_free(MEMP_TCPIP_MSG_API, msg);
 482              		.loc 1 251 5 view .LVU130
 251:Middlewares/Third_Party/LwIP/src/api/tcpip.c ****       memp_free(MEMP_TCPIP_MSG_API, msg);
 483              		.loc 1 251 9 is_stmt 0 view .LVU131
 484 003e 0146     		mov	r1, r0
 485 0040 0748     		ldr	r0, .L38
 486              	.LVL42:
 251:Middlewares/Third_Party/LwIP/src/api/tcpip.c ****       memp_free(MEMP_TCPIP_MSG_API, msg);
 487              		.loc 1 251 9 view .LVU132
ARM GAS  C:\Users\Nina\AppData\Local\Temp\ccRQvxBe.s 			page 20


 488 0042 FFF7FEFF 		bl	sys_mbox_trypost
 489              	.LVL43:
 251:Middlewares/Third_Party/LwIP/src/api/tcpip.c ****       memp_free(MEMP_TCPIP_MSG_API, msg);
 490              		.loc 1 251 8 view .LVU133
 491 0046 0028     		cmp	r0, #0
 492 0048 F1D0     		beq	.L33
 252:Middlewares/Third_Party/LwIP/src/api/tcpip.c ****       return ERR_MEM;
 493              		.loc 1 252 7 is_stmt 1 view .LVU134
 494 004a 2146     		mov	r1, r4
 495 004c 0820     		movs	r0, #8
 496 004e FFF7FEFF 		bl	memp_free
 497              	.LVL44:
 253:Middlewares/Third_Party/LwIP/src/api/tcpip.c ****     }
 498              		.loc 1 253 7 view .LVU135
 253:Middlewares/Third_Party/LwIP/src/api/tcpip.c ****     }
 499              		.loc 1 253 14 is_stmt 0 view .LVU136
 500 0052 4FF0FF30 		mov	r0, #-1
 501 0056 EAE7     		b	.L33
 502              	.LVL45:
 503              	.L35:
 242:Middlewares/Third_Party/LwIP/src/api/tcpip.c ****   }
 504              		.loc 1 242 12 view .LVU137
 505 0058 4FF0FF30 		mov	r0, #-1
 506              	.LVL46:
 242:Middlewares/Third_Party/LwIP/src/api/tcpip.c ****   }
 507              		.loc 1 242 12 view .LVU138
 508 005c E7E7     		b	.L33
 509              	.L39:
 510 005e 00BF     		.align	2
 511              	.L38:
 512 0060 00000000 		.word	.LANCHOR2
 513 0064 00000000 		.word	.LC0
 514 0068 00000000 		.word	.LC3
 515 006c 50000000 		.word	.LC2
 516              		.cfi_endproc
 517              	.LFE168:
 519              		.section	.text.tcpip_send_msg_wait_sem,"ax",%progbits
 520              		.align	1
 521              		.global	tcpip_send_msg_wait_sem
 522              		.syntax unified
 523              		.thumb
 524              		.thumb_func
 525              		.fpu fpv5-sp-d16
 527              	tcpip_send_msg_wait_sem:
 528              	.LVL47:
 529              	.LFB169:
 330:Middlewares/Third_Party/LwIP/src/api/tcpip.c **** #if LWIP_TCPIP_CORE_LOCKING
 530              		.loc 1 330 1 is_stmt 1 view -0
 531              		.cfi_startproc
 532              		@ args = 0, pretend = 0, frame = 0
 533              		@ frame_needed = 0, uses_anonymous_args = 0
 330:Middlewares/Third_Party/LwIP/src/api/tcpip.c **** #if LWIP_TCPIP_CORE_LOCKING
 534              		.loc 1 330 1 is_stmt 0 view .LVU140
 535 0000 70B5     		push	{r4, r5, r6, lr}
 536              	.LCFI6:
 537              		.cfi_def_cfa_offset 16
 538              		.cfi_offset 4, -16
ARM GAS  C:\Users\Nina\AppData\Local\Temp\ccRQvxBe.s 			page 21


 539              		.cfi_offset 5, -12
 540              		.cfi_offset 6, -8
 541              		.cfi_offset 14, -4
 542 0002 0446     		mov	r4, r0
 543 0004 0D46     		mov	r5, r1
 332:Middlewares/Third_Party/LwIP/src/api/tcpip.c ****   LOCK_TCPIP_CORE();
 544              		.loc 1 332 3 is_stmt 1 view .LVU141
 333:Middlewares/Third_Party/LwIP/src/api/tcpip.c ****   fn(apimsg);
 545              		.loc 1 333 3 view .LVU142
 546 0006 054E     		ldr	r6, .L42
 547 0008 3046     		mov	r0, r6
 548              	.LVL48:
 333:Middlewares/Third_Party/LwIP/src/api/tcpip.c ****   fn(apimsg);
 549              		.loc 1 333 3 is_stmt 0 view .LVU143
 550 000a FFF7FEFF 		bl	sys_mutex_lock
 551              	.LVL49:
 334:Middlewares/Third_Party/LwIP/src/api/tcpip.c ****   UNLOCK_TCPIP_CORE();
 552              		.loc 1 334 3 is_stmt 1 view .LVU144
 553 000e 2846     		mov	r0, r5
 554 0010 A047     		blx	r4
 555              	.LVL50:
 335:Middlewares/Third_Party/LwIP/src/api/tcpip.c ****   return ERR_OK;
 556              		.loc 1 335 3 view .LVU145
 557 0012 3046     		mov	r0, r6
 558 0014 FFF7FEFF 		bl	sys_mutex_unlock
 559              	.LVL51:
 336:Middlewares/Third_Party/LwIP/src/api/tcpip.c **** #else /* LWIP_TCPIP_CORE_LOCKING */
 560              		.loc 1 336 3 view .LVU146
 352:Middlewares/Third_Party/LwIP/src/api/tcpip.c **** 
 561              		.loc 1 352 1 is_stmt 0 view .LVU147
 562 0018 0020     		movs	r0, #0
 563 001a 70BD     		pop	{r4, r5, r6, pc}
 564              	.LVL52:
 565              	.L43:
 352:Middlewares/Third_Party/LwIP/src/api/tcpip.c **** 
 566              		.loc 1 352 1 view .LVU148
 567              		.align	2
 568              	.L42:
 569 001c 00000000 		.word	lock_tcpip_core
 570              		.cfi_endproc
 571              	.LFE169:
 573              		.section	.text.tcpip_api_call,"ax",%progbits
 574              		.align	1
 575              		.global	tcpip_api_call
 576              		.syntax unified
 577              		.thumb
 578              		.thumb_func
 579              		.fpu fpv5-sp-d16
 581              	tcpip_api_call:
 582              	.LVL53:
 583              	.LFB170:
 366:Middlewares/Third_Party/LwIP/src/api/tcpip.c **** #if LWIP_TCPIP_CORE_LOCKING
 584              		.loc 1 366 1 is_stmt 1 view -0
 585              		.cfi_startproc
 586              		@ args = 0, pretend = 0, frame = 0
 587              		@ frame_needed = 0, uses_anonymous_args = 0
 366:Middlewares/Third_Party/LwIP/src/api/tcpip.c **** #if LWIP_TCPIP_CORE_LOCKING
ARM GAS  C:\Users\Nina\AppData\Local\Temp\ccRQvxBe.s 			page 22


 588              		.loc 1 366 1 is_stmt 0 view .LVU150
 589 0000 70B5     		push	{r4, r5, r6, lr}
 590              	.LCFI7:
 591              		.cfi_def_cfa_offset 16
 592              		.cfi_offset 4, -16
 593              		.cfi_offset 5, -12
 594              		.cfi_offset 6, -8
 595              		.cfi_offset 14, -4
 596 0002 0446     		mov	r4, r0
 597 0004 0D46     		mov	r5, r1
 368:Middlewares/Third_Party/LwIP/src/api/tcpip.c ****   LOCK_TCPIP_CORE();
 598              		.loc 1 368 3 is_stmt 1 view .LVU151
 369:Middlewares/Third_Party/LwIP/src/api/tcpip.c ****   err = fn(call);
 599              		.loc 1 369 3 view .LVU152
 600 0006 064E     		ldr	r6, .L46
 601 0008 3046     		mov	r0, r6
 602              	.LVL54:
 369:Middlewares/Third_Party/LwIP/src/api/tcpip.c ****   err = fn(call);
 603              		.loc 1 369 3 is_stmt 0 view .LVU153
 604 000a FFF7FEFF 		bl	sys_mutex_lock
 605              	.LVL55:
 370:Middlewares/Third_Party/LwIP/src/api/tcpip.c ****   UNLOCK_TCPIP_CORE();
 606              		.loc 1 370 3 is_stmt 1 view .LVU154
 370:Middlewares/Third_Party/LwIP/src/api/tcpip.c ****   UNLOCK_TCPIP_CORE();
 607              		.loc 1 370 9 is_stmt 0 view .LVU155
 608 000e 2846     		mov	r0, r5
 609 0010 A047     		blx	r4
 610              	.LVL56:
 611 0012 0446     		mov	r4, r0
 612              	.LVL57:
 371:Middlewares/Third_Party/LwIP/src/api/tcpip.c ****   return err;
 613              		.loc 1 371 3 is_stmt 1 view .LVU156
 614 0014 3046     		mov	r0, r6
 615 0016 FFF7FEFF 		bl	sys_mutex_unlock
 616              	.LVL58:
 372:Middlewares/Third_Party/LwIP/src/api/tcpip.c **** #else /* LWIP_TCPIP_CORE_LOCKING */
 617              		.loc 1 372 3 view .LVU157
 404:Middlewares/Third_Party/LwIP/src/api/tcpip.c **** 
 618              		.loc 1 404 1 is_stmt 0 view .LVU158
 619 001a 2046     		mov	r0, r4
 620 001c 70BD     		pop	{r4, r5, r6, pc}
 621              	.LVL59:
 622              	.L47:
 404:Middlewares/Third_Party/LwIP/src/api/tcpip.c **** 
 623              		.loc 1 404 1 view .LVU159
 624 001e 00BF     		.align	2
 625              	.L46:
 626 0020 00000000 		.word	lock_tcpip_core
 627              		.cfi_endproc
 628              	.LFE170:
 630              		.section	.text.tcpip_callbackmsg_new,"ax",%progbits
 631              		.align	1
 632              		.global	tcpip_callbackmsg_new
 633              		.syntax unified
 634              		.thumb
 635              		.thumb_func
 636              		.fpu fpv5-sp-d16
ARM GAS  C:\Users\Nina\AppData\Local\Temp\ccRQvxBe.s 			page 23


 638              	tcpip_callbackmsg_new:
 639              	.LVL60:
 640              	.LFB171:
 416:Middlewares/Third_Party/LwIP/src/api/tcpip.c ****   struct tcpip_msg *msg = (struct tcpip_msg *)memp_malloc(MEMP_TCPIP_MSG_API);
 641              		.loc 1 416 1 is_stmt 1 view -0
 642              		.cfi_startproc
 643              		@ args = 0, pretend = 0, frame = 0
 644              		@ frame_needed = 0, uses_anonymous_args = 0
 416:Middlewares/Third_Party/LwIP/src/api/tcpip.c ****   struct tcpip_msg *msg = (struct tcpip_msg *)memp_malloc(MEMP_TCPIP_MSG_API);
 645              		.loc 1 416 1 is_stmt 0 view .LVU161
 646 0000 38B5     		push	{r3, r4, r5, lr}
 647              	.LCFI8:
 648              		.cfi_def_cfa_offset 16
 649              		.cfi_offset 3, -16
 650              		.cfi_offset 4, -12
 651              		.cfi_offset 5, -8
 652              		.cfi_offset 14, -4
 653 0002 0546     		mov	r5, r0
 654 0004 0C46     		mov	r4, r1
 417:Middlewares/Third_Party/LwIP/src/api/tcpip.c ****   if (msg == NULL) {
 655              		.loc 1 417 3 is_stmt 1 view .LVU162
 417:Middlewares/Third_Party/LwIP/src/api/tcpip.c ****   if (msg == NULL) {
 656              		.loc 1 417 47 is_stmt 0 view .LVU163
 657 0006 0820     		movs	r0, #8
 658              	.LVL61:
 417:Middlewares/Third_Party/LwIP/src/api/tcpip.c ****   if (msg == NULL) {
 659              		.loc 1 417 47 view .LVU164
 660 0008 FFF7FEFF 		bl	memp_malloc
 661              	.LVL62:
 418:Middlewares/Third_Party/LwIP/src/api/tcpip.c ****     return NULL;
 662              		.loc 1 418 3 is_stmt 1 view .LVU165
 418:Middlewares/Third_Party/LwIP/src/api/tcpip.c ****     return NULL;
 663              		.loc 1 418 6 is_stmt 0 view .LVU166
 664 000c 0346     		mov	r3, r0
 665 000e 18B1     		cbz	r0, .L48
 421:Middlewares/Third_Party/LwIP/src/api/tcpip.c ****   msg->msg.cb.function = function;
 666              		.loc 1 421 3 is_stmt 1 view .LVU167
 421:Middlewares/Third_Party/LwIP/src/api/tcpip.c ****   msg->msg.cb.function = function;
 667              		.loc 1 421 13 is_stmt 0 view .LVU168
 668 0010 0422     		movs	r2, #4
 669 0012 0270     		strb	r2, [r0]
 422:Middlewares/Third_Party/LwIP/src/api/tcpip.c ****   msg->msg.cb.ctx = ctx;
 670              		.loc 1 422 3 is_stmt 1 view .LVU169
 422:Middlewares/Third_Party/LwIP/src/api/tcpip.c ****   msg->msg.cb.ctx = ctx;
 671              		.loc 1 422 24 is_stmt 0 view .LVU170
 672 0014 4560     		str	r5, [r0, #4]
 423:Middlewares/Third_Party/LwIP/src/api/tcpip.c ****   return (struct tcpip_callback_msg*)msg;
 673              		.loc 1 423 3 is_stmt 1 view .LVU171
 423:Middlewares/Third_Party/LwIP/src/api/tcpip.c ****   return (struct tcpip_callback_msg*)msg;
 674              		.loc 1 423 19 is_stmt 0 view .LVU172
 675 0016 8460     		str	r4, [r0, #8]
 424:Middlewares/Third_Party/LwIP/src/api/tcpip.c **** }
 676              		.loc 1 424 3 is_stmt 1 view .LVU173
 677              	.L48:
 425:Middlewares/Third_Party/LwIP/src/api/tcpip.c **** 
 678              		.loc 1 425 1 is_stmt 0 view .LVU174
 679 0018 1846     		mov	r0, r3
ARM GAS  C:\Users\Nina\AppData\Local\Temp\ccRQvxBe.s 			page 24


 680              	.LVL63:
 425:Middlewares/Third_Party/LwIP/src/api/tcpip.c **** 
 681              		.loc 1 425 1 view .LVU175
 682 001a 38BD     		pop	{r3, r4, r5, pc}
 425:Middlewares/Third_Party/LwIP/src/api/tcpip.c **** 
 683              		.loc 1 425 1 view .LVU176
 684              		.cfi_endproc
 685              	.LFE171:
 687              		.section	.text.tcpip_callbackmsg_delete,"ax",%progbits
 688              		.align	1
 689              		.global	tcpip_callbackmsg_delete
 690              		.syntax unified
 691              		.thumb
 692              		.thumb_func
 693              		.fpu fpv5-sp-d16
 695              	tcpip_callbackmsg_delete:
 696              	.LVL64:
 697              	.LFB172:
 434:Middlewares/Third_Party/LwIP/src/api/tcpip.c ****   memp_free(MEMP_TCPIP_MSG_API, msg);
 698              		.loc 1 434 1 is_stmt 1 view -0
 699              		.cfi_startproc
 700              		@ args = 0, pretend = 0, frame = 0
 701              		@ frame_needed = 0, uses_anonymous_args = 0
 434:Middlewares/Third_Party/LwIP/src/api/tcpip.c ****   memp_free(MEMP_TCPIP_MSG_API, msg);
 702              		.loc 1 434 1 is_stmt 0 view .LVU178
 703 0000 08B5     		push	{r3, lr}
 704              	.LCFI9:
 705              		.cfi_def_cfa_offset 8
 706              		.cfi_offset 3, -8
 707              		.cfi_offset 14, -4
 708 0002 0146     		mov	r1, r0
 435:Middlewares/Third_Party/LwIP/src/api/tcpip.c **** }
 709              		.loc 1 435 3 is_stmt 1 view .LVU179
 710 0004 0820     		movs	r0, #8
 711              	.LVL65:
 435:Middlewares/Third_Party/LwIP/src/api/tcpip.c **** }
 712              		.loc 1 435 3 is_stmt 0 view .LVU180
 713 0006 FFF7FEFF 		bl	memp_free
 714              	.LVL66:
 436:Middlewares/Third_Party/LwIP/src/api/tcpip.c **** 
 715              		.loc 1 436 1 view .LVU181
 716 000a 08BD     		pop	{r3, pc}
 717              		.cfi_endproc
 718              	.LFE172:
 720              		.section	.text.tcpip_trycallback,"ax",%progbits
 721              		.align	1
 722              		.global	tcpip_trycallback
 723              		.syntax unified
 724              		.thumb
 725              		.thumb_func
 726              		.fpu fpv5-sp-d16
 728              	tcpip_trycallback:
 729              	.LVL67:
 730              	.LFB173:
 447:Middlewares/Third_Party/LwIP/src/api/tcpip.c ****   LWIP_ASSERT("Invalid mbox", sys_mbox_valid_val(mbox));
 731              		.loc 1 447 1 is_stmt 1 view -0
 732              		.cfi_startproc
ARM GAS  C:\Users\Nina\AppData\Local\Temp\ccRQvxBe.s 			page 25


 733              		@ args = 0, pretend = 0, frame = 0
 734              		@ frame_needed = 0, uses_anonymous_args = 0
 447:Middlewares/Third_Party/LwIP/src/api/tcpip.c ****   LWIP_ASSERT("Invalid mbox", sys_mbox_valid_val(mbox));
 735              		.loc 1 447 1 is_stmt 0 view .LVU183
 736 0000 10B5     		push	{r4, lr}
 737              	.LCFI10:
 738              		.cfi_def_cfa_offset 8
 739              		.cfi_offset 4, -8
 740              		.cfi_offset 14, -4
 741 0002 0446     		mov	r4, r0
 448:Middlewares/Third_Party/LwIP/src/api/tcpip.c ****   return sys_mbox_trypost(&mbox, msg);
 742              		.loc 1 448 3 is_stmt 1 view .LVU184
 448:Middlewares/Third_Party/LwIP/src/api/tcpip.c ****   return sys_mbox_trypost(&mbox, msg);
 743              		.loc 1 448 3 view .LVU185
 744 0004 0848     		ldr	r0, .L57
 745              	.LVL68:
 448:Middlewares/Third_Party/LwIP/src/api/tcpip.c ****   return sys_mbox_trypost(&mbox, msg);
 746              		.loc 1 448 3 is_stmt 0 view .LVU186
 747 0006 FFF7FEFF 		bl	sys_mbox_valid
 748              	.LVL69:
 749 000a 20B1     		cbz	r0, .L56
 750              	.L54:
 448:Middlewares/Third_Party/LwIP/src/api/tcpip.c ****   return sys_mbox_trypost(&mbox, msg);
 751              		.loc 1 448 3 is_stmt 1 discriminator 3 view .LVU187
 448:Middlewares/Third_Party/LwIP/src/api/tcpip.c ****   return sys_mbox_trypost(&mbox, msg);
 752              		.loc 1 448 3 discriminator 3 view .LVU188
 449:Middlewares/Third_Party/LwIP/src/api/tcpip.c **** }
 753              		.loc 1 449 3 discriminator 3 view .LVU189
 449:Middlewares/Third_Party/LwIP/src/api/tcpip.c **** }
 754              		.loc 1 449 10 is_stmt 0 discriminator 3 view .LVU190
 755 000c 2146     		mov	r1, r4
 756 000e 0648     		ldr	r0, .L57
 757 0010 FFF7FEFF 		bl	sys_mbox_trypost
 758              	.LVL70:
 450:Middlewares/Third_Party/LwIP/src/api/tcpip.c **** 
 759              		.loc 1 450 1 discriminator 3 view .LVU191
 760 0014 10BD     		pop	{r4, pc}
 761              	.LVL71:
 762              	.L56:
 448:Middlewares/Third_Party/LwIP/src/api/tcpip.c ****   return sys_mbox_trypost(&mbox, msg);
 763              		.loc 1 448 3 is_stmt 1 discriminator 1 view .LVU192
 448:Middlewares/Third_Party/LwIP/src/api/tcpip.c ****   return sys_mbox_trypost(&mbox, msg);
 764              		.loc 1 448 3 discriminator 1 view .LVU193
 765 0016 054B     		ldr	r3, .L57+4
 766 0018 4FF4E072 		mov	r2, #448
 767 001c 0449     		ldr	r1, .L57+8
 768 001e 0548     		ldr	r0, .L57+12
 769 0020 FFF7FEFF 		bl	printf
 770              	.LVL72:
 771 0024 F2E7     		b	.L54
 772              	.L58:
 773 0026 00BF     		.align	2
 774              	.L57:
 775 0028 00000000 		.word	.LANCHOR2
 776 002c 00000000 		.word	.LC0
 777 0030 00000000 		.word	.LC3
 778 0034 50000000 		.word	.LC2
ARM GAS  C:\Users\Nina\AppData\Local\Temp\ccRQvxBe.s 			page 26


 779              		.cfi_endproc
 780              	.LFE173:
 782              		.section	.rodata.tcpip_init.str1.4,"aMS",%progbits,1
 783              		.align	2
 784              	.LC4:
 785 0000 6661696C 		.ascii	"failed to create tcpip_thread mbox\000"
 785      65642074 
 785      6F206372 
 785      65617465 
 785      20746370 
 786 0023 00       		.align	2
 787              	.LC5:
 788 0024 6661696C 		.ascii	"failed to create lock_tcpip_core\000"
 788      65642074 
 788      6F206372 
 788      65617465 
 788      206C6F63 
 789 0045 000000   		.align	2
 790              	.LC6:
 791 0048 74637069 		.ascii	"tcpip_thread\000"
 791      705F7468 
 791      72656164 
 791      00
 792              		.section	.text.tcpip_init,"ax",%progbits
 793              		.align	1
 794              		.global	tcpip_init
 795              		.syntax unified
 796              		.thumb
 797              		.thumb_func
 798              		.fpu fpv5-sp-d16
 800              	tcpip_init:
 801              	.LVL73:
 802              	.LFB174:
 463:Middlewares/Third_Party/LwIP/src/api/tcpip.c ****   lwip_init();
 803              		.loc 1 463 1 view -0
 804              		.cfi_startproc
 805              		@ args = 0, pretend = 0, frame = 0
 806              		@ frame_needed = 0, uses_anonymous_args = 0
 463:Middlewares/Third_Party/LwIP/src/api/tcpip.c ****   lwip_init();
 807              		.loc 1 463 1 is_stmt 0 view .LVU195
 808 0000 30B5     		push	{r4, r5, lr}
 809              	.LCFI11:
 810              		.cfi_def_cfa_offset 12
 811              		.cfi_offset 4, -12
 812              		.cfi_offset 5, -8
 813              		.cfi_offset 14, -4
 814 0002 83B0     		sub	sp, sp, #12
 815              	.LCFI12:
 816              		.cfi_def_cfa_offset 24
 817 0004 0546     		mov	r5, r0
 818 0006 0C46     		mov	r4, r1
 464:Middlewares/Third_Party/LwIP/src/api/tcpip.c **** 
 819              		.loc 1 464 3 is_stmt 1 view .LVU196
 820 0008 FFF7FEFF 		bl	lwip_init
 821              	.LVL74:
 466:Middlewares/Third_Party/LwIP/src/api/tcpip.c ****   tcpip_init_done_arg = arg;
 822              		.loc 1 466 3 view .LVU197
ARM GAS  C:\Users\Nina\AppData\Local\Temp\ccRQvxBe.s 			page 27


 466:Middlewares/Third_Party/LwIP/src/api/tcpip.c ****   tcpip_init_done_arg = arg;
 823              		.loc 1 466 19 is_stmt 0 view .LVU198
 824 000c 134B     		ldr	r3, .L65
 825 000e 1D60     		str	r5, [r3]
 467:Middlewares/Third_Party/LwIP/src/api/tcpip.c ****   if (sys_mbox_new(&mbox, TCPIP_MBOX_SIZE) != ERR_OK) {
 826              		.loc 1 467 3 is_stmt 1 view .LVU199
 467:Middlewares/Third_Party/LwIP/src/api/tcpip.c ****   if (sys_mbox_new(&mbox, TCPIP_MBOX_SIZE) != ERR_OK) {
 827              		.loc 1 467 23 is_stmt 0 view .LVU200
 828 0010 134B     		ldr	r3, .L65+4
 829 0012 1C60     		str	r4, [r3]
 468:Middlewares/Third_Party/LwIP/src/api/tcpip.c ****     LWIP_ASSERT("failed to create tcpip_thread mbox", 0);
 830              		.loc 1 468 3 is_stmt 1 view .LVU201
 468:Middlewares/Third_Party/LwIP/src/api/tcpip.c ****     LWIP_ASSERT("failed to create tcpip_thread mbox", 0);
 831              		.loc 1 468 7 is_stmt 0 view .LVU202
 832 0014 0621     		movs	r1, #6
 833 0016 1348     		ldr	r0, .L65+8
 834 0018 FFF7FEFF 		bl	sys_mbox_new
 835              	.LVL75:
 468:Middlewares/Third_Party/LwIP/src/api/tcpip.c ****     LWIP_ASSERT("failed to create tcpip_thread mbox", 0);
 836              		.loc 1 468 6 view .LVU203
 837 001c 70B9     		cbnz	r0, .L63
 838              	.L60:
 469:Middlewares/Third_Party/LwIP/src/api/tcpip.c ****   }
 839              		.loc 1 469 5 is_stmt 1 discriminator 3 view .LVU204
 469:Middlewares/Third_Party/LwIP/src/api/tcpip.c ****   }
 840              		.loc 1 469 5 discriminator 3 view .LVU205
 472:Middlewares/Third_Party/LwIP/src/api/tcpip.c ****     LWIP_ASSERT("failed to create lock_tcpip_core", 0);
 841              		.loc 1 472 3 discriminator 3 view .LVU206
 472:Middlewares/Third_Party/LwIP/src/api/tcpip.c ****     LWIP_ASSERT("failed to create lock_tcpip_core", 0);
 842              		.loc 1 472 7 is_stmt 0 discriminator 3 view .LVU207
 843 001e 1248     		ldr	r0, .L65+12
 844 0020 FFF7FEFF 		bl	sys_mutex_new
 845              	.LVL76:
 472:Middlewares/Third_Party/LwIP/src/api/tcpip.c ****     LWIP_ASSERT("failed to create lock_tcpip_core", 0);
 846              		.loc 1 472 6 discriminator 3 view .LVU208
 847 0024 90B9     		cbnz	r0, .L64
 848              	.L61:
 473:Middlewares/Third_Party/LwIP/src/api/tcpip.c ****   }
 849              		.loc 1 473 5 is_stmt 1 discriminator 3 view .LVU209
 473:Middlewares/Third_Party/LwIP/src/api/tcpip.c ****   }
 850              		.loc 1 473 5 discriminator 3 view .LVU210
 477:Middlewares/Third_Party/LwIP/src/api/tcpip.c **** }
 851              		.loc 1 477 3 discriminator 3 view .LVU211
 852 0026 0323     		movs	r3, #3
 853 0028 0093     		str	r3, [sp]
 854 002a 4FF48063 		mov	r3, #1024
 855 002e 0022     		movs	r2, #0
 856 0030 0E49     		ldr	r1, .L65+16
 857 0032 0F48     		ldr	r0, .L65+20
 858 0034 FFF7FEFF 		bl	sys_thread_new
 859              	.LVL77:
 478:Middlewares/Third_Party/LwIP/src/api/tcpip.c **** 
 860              		.loc 1 478 1 is_stmt 0 discriminator 3 view .LVU212
 861 0038 03B0     		add	sp, sp, #12
 862              	.LCFI13:
 863              		.cfi_remember_state
 864              		.cfi_def_cfa_offset 12
ARM GAS  C:\Users\Nina\AppData\Local\Temp\ccRQvxBe.s 			page 28


 865              		@ sp needed
 866 003a 30BD     		pop	{r4, r5, pc}
 867              	.LVL78:
 868              	.L63:
 869              	.LCFI14:
 870              		.cfi_restore_state
 469:Middlewares/Third_Party/LwIP/src/api/tcpip.c ****   }
 871              		.loc 1 469 5 is_stmt 1 discriminator 1 view .LVU213
 469:Middlewares/Third_Party/LwIP/src/api/tcpip.c ****   }
 872              		.loc 1 469 5 discriminator 1 view .LVU214
 469:Middlewares/Third_Party/LwIP/src/api/tcpip.c ****   }
 873              		.loc 1 469 5 discriminator 1 view .LVU215
 469:Middlewares/Third_Party/LwIP/src/api/tcpip.c ****   }
 874              		.loc 1 469 5 discriminator 1 view .LVU216
 875 003c 0D4B     		ldr	r3, .L65+24
 876 003e 40F2D512 		movw	r2, #469
 877 0042 0D49     		ldr	r1, .L65+28
 878 0044 0D48     		ldr	r0, .L65+32
 879 0046 FFF7FEFF 		bl	printf
 880              	.LVL79:
 881 004a E8E7     		b	.L60
 882              	.L64:
 473:Middlewares/Third_Party/LwIP/src/api/tcpip.c ****   }
 883              		.loc 1 473 5 discriminator 1 view .LVU217
 473:Middlewares/Third_Party/LwIP/src/api/tcpip.c ****   }
 884              		.loc 1 473 5 discriminator 1 view .LVU218
 473:Middlewares/Third_Party/LwIP/src/api/tcpip.c ****   }
 885              		.loc 1 473 5 discriminator 1 view .LVU219
 473:Middlewares/Third_Party/LwIP/src/api/tcpip.c ****   }
 886              		.loc 1 473 5 discriminator 1 view .LVU220
 887 004c 094B     		ldr	r3, .L65+24
 888 004e 40F2D912 		movw	r2, #473
 889 0052 0B49     		ldr	r1, .L65+36
 890 0054 0948     		ldr	r0, .L65+32
 891 0056 FFF7FEFF 		bl	printf
 892              	.LVL80:
 893 005a E4E7     		b	.L61
 894              	.L66:
 895              		.align	2
 896              	.L65:
 897 005c 00000000 		.word	.LANCHOR0
 898 0060 00000000 		.word	.LANCHOR1
 899 0064 00000000 		.word	.LANCHOR2
 900 0068 00000000 		.word	lock_tcpip_core
 901 006c 00000000 		.word	tcpip_thread
 902 0070 48000000 		.word	.LC6
 903 0074 00000000 		.word	.LC0
 904 0078 00000000 		.word	.LC4
 905 007c 50000000 		.word	.LC2
 906 0080 24000000 		.word	.LC5
 907              		.cfi_endproc
 908              	.LFE174:
 910              		.section	.text.pbuf_free_callback,"ax",%progbits
 911              		.align	1
 912              		.global	pbuf_free_callback
 913              		.syntax unified
 914              		.thumb
ARM GAS  C:\Users\Nina\AppData\Local\Temp\ccRQvxBe.s 			page 29


 915              		.thumb_func
 916              		.fpu fpv5-sp-d16
 918              	pbuf_free_callback:
 919              	.LVL81:
 920              	.LFB176:
 492:Middlewares/Third_Party/LwIP/src/api/tcpip.c **** 
 493:Middlewares/Third_Party/LwIP/src/api/tcpip.c **** /**
 494:Middlewares/Third_Party/LwIP/src/api/tcpip.c ****  * A simple wrapper function that allows you to free a pbuf from interrupt context.
 495:Middlewares/Third_Party/LwIP/src/api/tcpip.c ****  *
 496:Middlewares/Third_Party/LwIP/src/api/tcpip.c ****  * @param p The pbuf (chain) to be dereferenced.
 497:Middlewares/Third_Party/LwIP/src/api/tcpip.c ****  * @return ERR_OK if callback could be enqueued, an err_t if not
 498:Middlewares/Third_Party/LwIP/src/api/tcpip.c ****  */
 499:Middlewares/Third_Party/LwIP/src/api/tcpip.c **** err_t
 500:Middlewares/Third_Party/LwIP/src/api/tcpip.c **** pbuf_free_callback(struct pbuf *p)
 501:Middlewares/Third_Party/LwIP/src/api/tcpip.c **** {
 921              		.loc 1 501 1 view -0
 922              		.cfi_startproc
 923              		@ args = 0, pretend = 0, frame = 0
 924              		@ frame_needed = 0, uses_anonymous_args = 0
 925              		.loc 1 501 1 is_stmt 0 view .LVU222
 926 0000 08B5     		push	{r3, lr}
 927              	.LCFI15:
 928              		.cfi_def_cfa_offset 8
 929              		.cfi_offset 3, -8
 930              		.cfi_offset 14, -4
 931 0002 0146     		mov	r1, r0
 502:Middlewares/Third_Party/LwIP/src/api/tcpip.c ****   return tcpip_callback_with_block(pbuf_free_int, p, 0);
 932              		.loc 1 502 3 is_stmt 1 view .LVU223
 933              		.loc 1 502 10 is_stmt 0 view .LVU224
 934 0004 0022     		movs	r2, #0
 935 0006 0248     		ldr	r0, .L69
 936              	.LVL82:
 937              		.loc 1 502 10 view .LVU225
 938 0008 FFF7FEFF 		bl	tcpip_callback_with_block
 939              	.LVL83:
 503:Middlewares/Third_Party/LwIP/src/api/tcpip.c **** }
 940              		.loc 1 503 1 view .LVU226
 941 000c 08BD     		pop	{r3, pc}
 942              	.L70:
 943 000e 00BF     		.align	2
 944              	.L69:
 945 0010 00000000 		.word	pbuf_free_int
 946              		.cfi_endproc
 947              	.LFE176:
 949              		.section	.text.mem_free_callback,"ax",%progbits
 950              		.align	1
 951              		.global	mem_free_callback
 952              		.syntax unified
 953              		.thumb
 954              		.thumb_func
 955              		.fpu fpv5-sp-d16
 957              	mem_free_callback:
 958              	.LVL84:
 959              	.LFB177:
 504:Middlewares/Third_Party/LwIP/src/api/tcpip.c **** 
 505:Middlewares/Third_Party/LwIP/src/api/tcpip.c **** /**
 506:Middlewares/Third_Party/LwIP/src/api/tcpip.c ****  * A simple wrapper function that allows you to free heap memory from
ARM GAS  C:\Users\Nina\AppData\Local\Temp\ccRQvxBe.s 			page 30


 507:Middlewares/Third_Party/LwIP/src/api/tcpip.c ****  * interrupt context.
 508:Middlewares/Third_Party/LwIP/src/api/tcpip.c ****  *
 509:Middlewares/Third_Party/LwIP/src/api/tcpip.c ****  * @param m the heap memory to free
 510:Middlewares/Third_Party/LwIP/src/api/tcpip.c ****  * @return ERR_OK if callback could be enqueued, an err_t if not
 511:Middlewares/Third_Party/LwIP/src/api/tcpip.c ****  */
 512:Middlewares/Third_Party/LwIP/src/api/tcpip.c **** err_t
 513:Middlewares/Third_Party/LwIP/src/api/tcpip.c **** mem_free_callback(void *m)
 514:Middlewares/Third_Party/LwIP/src/api/tcpip.c **** {
 960              		.loc 1 514 1 is_stmt 1 view -0
 961              		.cfi_startproc
 962              		@ args = 0, pretend = 0, frame = 0
 963              		@ frame_needed = 0, uses_anonymous_args = 0
 964              		.loc 1 514 1 is_stmt 0 view .LVU228
 965 0000 08B5     		push	{r3, lr}
 966              	.LCFI16:
 967              		.cfi_def_cfa_offset 8
 968              		.cfi_offset 3, -8
 969              		.cfi_offset 14, -4
 970 0002 0146     		mov	r1, r0
 515:Middlewares/Third_Party/LwIP/src/api/tcpip.c ****   return tcpip_callback_with_block(mem_free, m, 0);
 971              		.loc 1 515 3 is_stmt 1 view .LVU229
 972              		.loc 1 515 10 is_stmt 0 view .LVU230
 973 0004 0022     		movs	r2, #0
 974 0006 0248     		ldr	r0, .L73
 975              	.LVL85:
 976              		.loc 1 515 10 view .LVU231
 977 0008 FFF7FEFF 		bl	tcpip_callback_with_block
 978              	.LVL86:
 516:Middlewares/Third_Party/LwIP/src/api/tcpip.c **** }
 979              		.loc 1 516 1 view .LVU232
 980 000c 08BD     		pop	{r3, pc}
 981              	.L74:
 982 000e 00BF     		.align	2
 983              	.L73:
 984 0010 00000000 		.word	mem_free
 985              		.cfi_endproc
 986              	.LFE177:
 988              		.comm	lock_tcpip_core,4,4
 989              		.section	.bss.mbox,"aw",%nobits
 990              		.align	2
 991              		.set	.LANCHOR2,. + 0
 994              	mbox:
 995 0000 00000000 		.space	4
 996              		.section	.bss.tcpip_init_done,"aw",%nobits
 997              		.align	2
 998              		.set	.LANCHOR0,. + 0
 1001              	tcpip_init_done:
 1002 0000 00000000 		.space	4
 1003              		.section	.bss.tcpip_init_done_arg,"aw",%nobits
 1004              		.align	2
 1005              		.set	.LANCHOR1,. + 0
 1008              	tcpip_init_done_arg:
 1009 0000 00000000 		.space	4
 1010              		.text
 1011              	.Letext0:
 1012              		.file 2 "c:\\program files (x86)\\gnu tools arm embedded\\9 2019-q4-major\\arm-none-eabi\\include\
 1013              		.file 3 "c:\\program files (x86)\\gnu tools arm embedded\\9 2019-q4-major\\arm-none-eabi\\include\
ARM GAS  C:\Users\Nina\AppData\Local\Temp\ccRQvxBe.s 			page 31


 1014              		.file 4 "Drivers/CMSIS/Include/core_cm7.h"
 1015              		.file 5 "Drivers/CMSIS/Device/ST/STM32F7xx/Include/system_stm32f7xx.h"
 1016              		.file 6 "c:\\program files (x86)\\gnu tools arm embedded\\9 2019-q4-major\\arm-none-eabi\\include\
 1017              		.file 7 "c:\\program files (x86)\\gnu tools arm embedded\\9 2019-q4-major\\arm-none-eabi\\include\
 1018              		.file 8 "c:\\program files (x86)\\gnu tools arm embedded\\9 2019-q4-major\\lib\\gcc\\arm-none-eabi
 1019              		.file 9 "c:\\program files (x86)\\gnu tools arm embedded\\9 2019-q4-major\\arm-none-eabi\\include\
 1020              		.file 10 "c:\\program files (x86)\\gnu tools arm embedded\\9 2019-q4-major\\arm-none-eabi\\include
 1021              		.file 11 "c:\\program files (x86)\\gnu tools arm embedded\\9 2019-q4-major\\arm-none-eabi\\include
 1022              		.file 12 "Middlewares/Third_Party/LwIP/src/include/lwip/arch.h"
 1023              		.file 13 "Middlewares/Third_Party/LwIP/src/include/lwip/err.h"
 1024              		.file 14 "Middlewares/Third_Party/FreeRTOS/Source/include/queue.h"
 1025              		.file 15 "Middlewares/Third_Party/FreeRTOS/Source/include/semphr.h"
 1026              		.file 16 "Middlewares/Third_Party/FreeRTOS/Source/CMSIS_RTOS/cmsis_os.h"
 1027              		.file 17 "Middlewares/Third_Party/LwIP/system/arch/sys_arch.h"
 1028              		.file 18 "Middlewares/Third_Party/LwIP/src/include/lwip/timeouts.h"
 1029              		.file 19 "Middlewares/Third_Party/LwIP/src/include/lwip/ip4_addr.h"
 1030              		.file 20 "Middlewares/Third_Party/LwIP/src/include/lwip/ip_addr.h"
 1031              		.file 21 "Middlewares/Third_Party/LwIP/src/include/lwip/pbuf.h"
 1032              		.file 22 "Middlewares/Third_Party/LwIP/src/include/lwip/memp.h"
 1033              		.file 23 "Middlewares/Third_Party/LwIP/src/include/lwip/priv/memp_priv.h"
 1034              		.file 24 "Middlewares/Third_Party/LwIP/src/include/lwip/netif.h"
 1035              		.file 25 "Middlewares/Third_Party/LwIP/src/include/lwip/tcpip.h"
 1036              		.file 26 "Middlewares/Third_Party/LwIP/src/include/lwip/priv/tcpip_priv.h"
 1037              		.file 27 "Middlewares/Third_Party/LwIP/src/include/lwip/prot/ip4.h"
 1038              		.file 28 "Middlewares/Third_Party/LwIP/src/include/lwip/ip.h"
 1039              		.file 29 "Middlewares/Third_Party/LwIP/src/include/lwip/prot/ethernet.h"
 1040              		.file 30 "Middlewares/Third_Party/LwIP/src/include/netif/ethernet.h"
 1041              		.file 31 "Middlewares/Third_Party/LwIP/src/include/lwip/init.h"
 1042              		.file 32 "Middlewares/Third_Party/LwIP/src/include/lwip/sys.h"
 1043              		.file 33 "c:\\program files (x86)\\gnu tools arm embedded\\9 2019-q4-major\\arm-none-eabi\\include
ARM GAS  C:\Users\Nina\AppData\Local\Temp\ccRQvxBe.s 			page 32

