ARM GAS  C:\Users\Nina\AppData\Local\Temp\cc9Cbd1F.s 			page 1


   1              		.cpu cortex-m7
   2              		.eabi_attribute 27, 1
   3              		.eabi_attribute 28, 1
   4              		.eabi_attribute 20, 1
   5              		.eabi_attribute 21, 1
   6              		.eabi_attribute 23, 3
   7              		.eabi_attribute 24, 1
   8              		.eabi_attribute 25, 1
   9              		.eabi_attribute 26, 1
  10              		.eabi_attribute 30, 1
  11              		.eabi_attribute 34, 1
  12              		.eabi_attribute 18, 4
  13              		.file	"timeouts.c"
  14              		.text
  15              	.Ltext0:
  16              		.cfi_sections	.debug_frame
  17              		.section	.text.sys_timeouts_sleeptime,"ax",%progbits
  18              		.align	1
  19              		.arch armv7e-m
  20              		.syntax unified
  21              		.thumb
  22              		.thumb_func
  23              		.fpu fpv5-sp-d16
  25              	sys_timeouts_sleeptime:
  26              	.LFB173:
  27              		.file 1 "Middlewares/Third_Party/LwIP/src/core/timeouts.c"
   1:Middlewares/Third_Party/LwIP/src/core/timeouts.c **** /**
   2:Middlewares/Third_Party/LwIP/src/core/timeouts.c ****  * @file
   3:Middlewares/Third_Party/LwIP/src/core/timeouts.c ****  * Stack-internal timers implementation.
   4:Middlewares/Third_Party/LwIP/src/core/timeouts.c ****  * This file includes timer callbacks for stack-internal timers as well as
   5:Middlewares/Third_Party/LwIP/src/core/timeouts.c ****  * functions to set up or stop timers and check for expired timers.
   6:Middlewares/Third_Party/LwIP/src/core/timeouts.c ****  *
   7:Middlewares/Third_Party/LwIP/src/core/timeouts.c ****  */
   8:Middlewares/Third_Party/LwIP/src/core/timeouts.c **** 
   9:Middlewares/Third_Party/LwIP/src/core/timeouts.c **** /*
  10:Middlewares/Third_Party/LwIP/src/core/timeouts.c ****  * Copyright (c) 2001-2004 Swedish Institute of Computer Science.
  11:Middlewares/Third_Party/LwIP/src/core/timeouts.c ****  * All rights reserved.
  12:Middlewares/Third_Party/LwIP/src/core/timeouts.c ****  *
  13:Middlewares/Third_Party/LwIP/src/core/timeouts.c ****  * Redistribution and use in source and binary forms, with or without modification,
  14:Middlewares/Third_Party/LwIP/src/core/timeouts.c ****  * are permitted provided that the following conditions are met:
  15:Middlewares/Third_Party/LwIP/src/core/timeouts.c ****  *
  16:Middlewares/Third_Party/LwIP/src/core/timeouts.c ****  * 1. Redistributions of source code must retain the above copyright notice,
  17:Middlewares/Third_Party/LwIP/src/core/timeouts.c ****  *    this list of conditions and the following disclaimer.
  18:Middlewares/Third_Party/LwIP/src/core/timeouts.c ****  * 2. Redistributions in binary form must reproduce the above copyright notice,
  19:Middlewares/Third_Party/LwIP/src/core/timeouts.c ****  *    this list of conditions and the following disclaimer in the documentation
  20:Middlewares/Third_Party/LwIP/src/core/timeouts.c ****  *    and/or other materials provided with the distribution.
  21:Middlewares/Third_Party/LwIP/src/core/timeouts.c ****  * 3. The name of the author may not be used to endorse or promote products
  22:Middlewares/Third_Party/LwIP/src/core/timeouts.c ****  *    derived from this software without specific prior written permission.
  23:Middlewares/Third_Party/LwIP/src/core/timeouts.c ****  *
  24:Middlewares/Third_Party/LwIP/src/core/timeouts.c ****  * THIS SOFTWARE IS PROVIDED BY THE AUTHOR ``AS IS'' AND ANY EXPRESS OR IMPLIED
  25:Middlewares/Third_Party/LwIP/src/core/timeouts.c ****  * WARRANTIES, INCLUDING, BUT NOT LIMITED TO, THE IMPLIED WARRANTIES OF
  26:Middlewares/Third_Party/LwIP/src/core/timeouts.c ****  * MERCHANTABILITY AND FITNESS FOR A PARTICULAR PURPOSE ARE DISCLAIMED. IN NO EVENT
  27:Middlewares/Third_Party/LwIP/src/core/timeouts.c ****  * SHALL THE AUTHOR BE LIABLE FOR ANY DIRECT, INDIRECT, INCIDENTAL, SPECIAL,
  28:Middlewares/Third_Party/LwIP/src/core/timeouts.c ****  * EXEMPLARY, OR CONSEQUENTIAL DAMAGES (INCLUDING, BUT NOT LIMITED TO, PROCUREMENT
  29:Middlewares/Third_Party/LwIP/src/core/timeouts.c ****  * OF SUBSTITUTE GOODS OR SERVICES; LOSS OF USE, DATA, OR PROFITS; OR BUSINESS
  30:Middlewares/Third_Party/LwIP/src/core/timeouts.c ****  * INTERRUPTION) HOWEVER CAUSED AND ON ANY THEORY OF LIABILITY, WHETHER IN
  31:Middlewares/Third_Party/LwIP/src/core/timeouts.c ****  * CONTRACT, STRICT LIABILITY, OR TORT (INCLUDING NEGLIGENCE OR OTHERWISE) ARISING
ARM GAS  C:\Users\Nina\AppData\Local\Temp\cc9Cbd1F.s 			page 2


  32:Middlewares/Third_Party/LwIP/src/core/timeouts.c ****  * IN ANY WAY OUT OF THE USE OF THIS SOFTWARE, EVEN IF ADVISED OF THE POSSIBILITY
  33:Middlewares/Third_Party/LwIP/src/core/timeouts.c ****  * OF SUCH DAMAGE.
  34:Middlewares/Third_Party/LwIP/src/core/timeouts.c ****  *
  35:Middlewares/Third_Party/LwIP/src/core/timeouts.c ****  * This file is part of the lwIP TCP/IP stack.
  36:Middlewares/Third_Party/LwIP/src/core/timeouts.c ****  *
  37:Middlewares/Third_Party/LwIP/src/core/timeouts.c ****  * Author: Adam Dunkels <adam@sics.se>
  38:Middlewares/Third_Party/LwIP/src/core/timeouts.c ****  *         Simon Goldschmidt
  39:Middlewares/Third_Party/LwIP/src/core/timeouts.c ****  *
  40:Middlewares/Third_Party/LwIP/src/core/timeouts.c ****  */
  41:Middlewares/Third_Party/LwIP/src/core/timeouts.c **** 
  42:Middlewares/Third_Party/LwIP/src/core/timeouts.c **** #include "lwip/opt.h"
  43:Middlewares/Third_Party/LwIP/src/core/timeouts.c **** 
  44:Middlewares/Third_Party/LwIP/src/core/timeouts.c **** #include "lwip/timeouts.h"
  45:Middlewares/Third_Party/LwIP/src/core/timeouts.c **** #include "lwip/priv/tcp_priv.h"
  46:Middlewares/Third_Party/LwIP/src/core/timeouts.c **** 
  47:Middlewares/Third_Party/LwIP/src/core/timeouts.c **** #include "lwip/def.h"
  48:Middlewares/Third_Party/LwIP/src/core/timeouts.c **** #include "lwip/memp.h"
  49:Middlewares/Third_Party/LwIP/src/core/timeouts.c **** #include "lwip/priv/tcpip_priv.h"
  50:Middlewares/Third_Party/LwIP/src/core/timeouts.c **** 
  51:Middlewares/Third_Party/LwIP/src/core/timeouts.c **** #include "lwip/ip4_frag.h"
  52:Middlewares/Third_Party/LwIP/src/core/timeouts.c **** #include "lwip/etharp.h"
  53:Middlewares/Third_Party/LwIP/src/core/timeouts.c **** #include "lwip/dhcp.h"
  54:Middlewares/Third_Party/LwIP/src/core/timeouts.c **** #include "lwip/autoip.h"
  55:Middlewares/Third_Party/LwIP/src/core/timeouts.c **** #include "lwip/igmp.h"
  56:Middlewares/Third_Party/LwIP/src/core/timeouts.c **** #include "lwip/dns.h"
  57:Middlewares/Third_Party/LwIP/src/core/timeouts.c **** #include "lwip/nd6.h"
  58:Middlewares/Third_Party/LwIP/src/core/timeouts.c **** #include "lwip/ip6_frag.h"
  59:Middlewares/Third_Party/LwIP/src/core/timeouts.c **** #include "lwip/mld6.h"
  60:Middlewares/Third_Party/LwIP/src/core/timeouts.c **** #include "lwip/sys.h"
  61:Middlewares/Third_Party/LwIP/src/core/timeouts.c **** #include "lwip/pbuf.h"
  62:Middlewares/Third_Party/LwIP/src/core/timeouts.c **** 
  63:Middlewares/Third_Party/LwIP/src/core/timeouts.c **** #if LWIP_DEBUG_TIMERNAMES
  64:Middlewares/Third_Party/LwIP/src/core/timeouts.c **** #define HANDLER(x) x, #x
  65:Middlewares/Third_Party/LwIP/src/core/timeouts.c **** #else /* LWIP_DEBUG_TIMERNAMES */
  66:Middlewares/Third_Party/LwIP/src/core/timeouts.c **** #define HANDLER(x) x
  67:Middlewares/Third_Party/LwIP/src/core/timeouts.c **** #endif /* LWIP_DEBUG_TIMERNAMES */
  68:Middlewares/Third_Party/LwIP/src/core/timeouts.c **** 
  69:Middlewares/Third_Party/LwIP/src/core/timeouts.c **** /** This array contains all stack-internal cyclic timers. To get the number of
  70:Middlewares/Third_Party/LwIP/src/core/timeouts.c ****  * timers, use LWIP_ARRAYSIZE() */
  71:Middlewares/Third_Party/LwIP/src/core/timeouts.c **** const struct lwip_cyclic_timer lwip_cyclic_timers[] = {
  72:Middlewares/Third_Party/LwIP/src/core/timeouts.c **** #if LWIP_TCP
  73:Middlewares/Third_Party/LwIP/src/core/timeouts.c ****   /* The TCP timer is a special case: it does not have to run always and
  74:Middlewares/Third_Party/LwIP/src/core/timeouts.c ****      is triggered to start from TCP using tcp_timer_needed() */
  75:Middlewares/Third_Party/LwIP/src/core/timeouts.c ****   {TCP_TMR_INTERVAL, HANDLER(tcp_tmr)},
  76:Middlewares/Third_Party/LwIP/src/core/timeouts.c **** #endif /* LWIP_TCP */
  77:Middlewares/Third_Party/LwIP/src/core/timeouts.c **** #if LWIP_IPV4
  78:Middlewares/Third_Party/LwIP/src/core/timeouts.c **** #if IP_REASSEMBLY
  79:Middlewares/Third_Party/LwIP/src/core/timeouts.c ****   {IP_TMR_INTERVAL, HANDLER(ip_reass_tmr)},
  80:Middlewares/Third_Party/LwIP/src/core/timeouts.c **** #endif /* IP_REASSEMBLY */
  81:Middlewares/Third_Party/LwIP/src/core/timeouts.c **** #if LWIP_ARP
  82:Middlewares/Third_Party/LwIP/src/core/timeouts.c ****   {ARP_TMR_INTERVAL, HANDLER(etharp_tmr)},
  83:Middlewares/Third_Party/LwIP/src/core/timeouts.c **** #endif /* LWIP_ARP */
  84:Middlewares/Third_Party/LwIP/src/core/timeouts.c **** #if LWIP_DHCP
  85:Middlewares/Third_Party/LwIP/src/core/timeouts.c ****   {DHCP_COARSE_TIMER_MSECS, HANDLER(dhcp_coarse_tmr)},
  86:Middlewares/Third_Party/LwIP/src/core/timeouts.c ****   {DHCP_FINE_TIMER_MSECS, HANDLER(dhcp_fine_tmr)},
  87:Middlewares/Third_Party/LwIP/src/core/timeouts.c **** #endif /* LWIP_DHCP */
  88:Middlewares/Third_Party/LwIP/src/core/timeouts.c **** #if LWIP_AUTOIP
ARM GAS  C:\Users\Nina\AppData\Local\Temp\cc9Cbd1F.s 			page 3


  89:Middlewares/Third_Party/LwIP/src/core/timeouts.c ****   {AUTOIP_TMR_INTERVAL, HANDLER(autoip_tmr)},
  90:Middlewares/Third_Party/LwIP/src/core/timeouts.c **** #endif /* LWIP_AUTOIP */
  91:Middlewares/Third_Party/LwIP/src/core/timeouts.c **** #if LWIP_IGMP
  92:Middlewares/Third_Party/LwIP/src/core/timeouts.c ****   {IGMP_TMR_INTERVAL, HANDLER(igmp_tmr)},
  93:Middlewares/Third_Party/LwIP/src/core/timeouts.c **** #endif /* LWIP_IGMP */
  94:Middlewares/Third_Party/LwIP/src/core/timeouts.c **** #endif /* LWIP_IPV4 */
  95:Middlewares/Third_Party/LwIP/src/core/timeouts.c **** #if LWIP_DNS
  96:Middlewares/Third_Party/LwIP/src/core/timeouts.c ****   {DNS_TMR_INTERVAL, HANDLER(dns_tmr)},
  97:Middlewares/Third_Party/LwIP/src/core/timeouts.c **** #endif /* LWIP_DNS */
  98:Middlewares/Third_Party/LwIP/src/core/timeouts.c **** #if LWIP_IPV6
  99:Middlewares/Third_Party/LwIP/src/core/timeouts.c ****   {ND6_TMR_INTERVAL, HANDLER(nd6_tmr)},
 100:Middlewares/Third_Party/LwIP/src/core/timeouts.c **** #if LWIP_IPV6_REASS
 101:Middlewares/Third_Party/LwIP/src/core/timeouts.c ****   {IP6_REASS_TMR_INTERVAL, HANDLER(ip6_reass_tmr)},
 102:Middlewares/Third_Party/LwIP/src/core/timeouts.c **** #endif /* LWIP_IPV6_REASS */
 103:Middlewares/Third_Party/LwIP/src/core/timeouts.c **** #if LWIP_IPV6_MLD
 104:Middlewares/Third_Party/LwIP/src/core/timeouts.c ****   {MLD6_TMR_INTERVAL, HANDLER(mld6_tmr)},
 105:Middlewares/Third_Party/LwIP/src/core/timeouts.c **** #endif /* LWIP_IPV6_MLD */
 106:Middlewares/Third_Party/LwIP/src/core/timeouts.c **** #endif /* LWIP_IPV6 */
 107:Middlewares/Third_Party/LwIP/src/core/timeouts.c **** };
 108:Middlewares/Third_Party/LwIP/src/core/timeouts.c **** 
 109:Middlewares/Third_Party/LwIP/src/core/timeouts.c **** #if LWIP_TIMERS && !LWIP_TIMERS_CUSTOM
 110:Middlewares/Third_Party/LwIP/src/core/timeouts.c **** 
 111:Middlewares/Third_Party/LwIP/src/core/timeouts.c **** /** The one and only timeout list */
 112:Middlewares/Third_Party/LwIP/src/core/timeouts.c **** static struct sys_timeo *next_timeout;
 113:Middlewares/Third_Party/LwIP/src/core/timeouts.c **** static u32_t timeouts_last_time;
 114:Middlewares/Third_Party/LwIP/src/core/timeouts.c **** 
 115:Middlewares/Third_Party/LwIP/src/core/timeouts.c **** #if LWIP_TCP
 116:Middlewares/Third_Party/LwIP/src/core/timeouts.c **** /** global variable that shows if the tcp timer is currently scheduled or not */
 117:Middlewares/Third_Party/LwIP/src/core/timeouts.c **** static int tcpip_tcp_timer_active;
 118:Middlewares/Third_Party/LwIP/src/core/timeouts.c **** 
 119:Middlewares/Third_Party/LwIP/src/core/timeouts.c **** /**
 120:Middlewares/Third_Party/LwIP/src/core/timeouts.c ****  * Timer callback function that calls tcp_tmr() and reschedules itself.
 121:Middlewares/Third_Party/LwIP/src/core/timeouts.c ****  *
 122:Middlewares/Third_Party/LwIP/src/core/timeouts.c ****  * @param arg unused argument
 123:Middlewares/Third_Party/LwIP/src/core/timeouts.c ****  */
 124:Middlewares/Third_Party/LwIP/src/core/timeouts.c **** static void
 125:Middlewares/Third_Party/LwIP/src/core/timeouts.c **** tcpip_tcp_timer(void *arg)
 126:Middlewares/Third_Party/LwIP/src/core/timeouts.c **** {
 127:Middlewares/Third_Party/LwIP/src/core/timeouts.c ****   LWIP_UNUSED_ARG(arg);
 128:Middlewares/Third_Party/LwIP/src/core/timeouts.c **** 
 129:Middlewares/Third_Party/LwIP/src/core/timeouts.c ****   /* call TCP timer handler */
 130:Middlewares/Third_Party/LwIP/src/core/timeouts.c ****   tcp_tmr();
 131:Middlewares/Third_Party/LwIP/src/core/timeouts.c ****   /* timer still needed? */
 132:Middlewares/Third_Party/LwIP/src/core/timeouts.c ****   if (tcp_active_pcbs || tcp_tw_pcbs) {
 133:Middlewares/Third_Party/LwIP/src/core/timeouts.c ****     /* restart timer */
 134:Middlewares/Third_Party/LwIP/src/core/timeouts.c ****     sys_timeout(TCP_TMR_INTERVAL, tcpip_tcp_timer, NULL);
 135:Middlewares/Third_Party/LwIP/src/core/timeouts.c ****   } else {
 136:Middlewares/Third_Party/LwIP/src/core/timeouts.c ****     /* disable timer */
 137:Middlewares/Third_Party/LwIP/src/core/timeouts.c ****     tcpip_tcp_timer_active = 0;
 138:Middlewares/Third_Party/LwIP/src/core/timeouts.c ****   }
 139:Middlewares/Third_Party/LwIP/src/core/timeouts.c **** }
 140:Middlewares/Third_Party/LwIP/src/core/timeouts.c **** 
 141:Middlewares/Third_Party/LwIP/src/core/timeouts.c **** /**
 142:Middlewares/Third_Party/LwIP/src/core/timeouts.c ****  * Called from TCP_REG when registering a new PCB:
 143:Middlewares/Third_Party/LwIP/src/core/timeouts.c ****  * the reason is to have the TCP timer only running when
 144:Middlewares/Third_Party/LwIP/src/core/timeouts.c ****  * there are active (or time-wait) PCBs.
 145:Middlewares/Third_Party/LwIP/src/core/timeouts.c ****  */
ARM GAS  C:\Users\Nina\AppData\Local\Temp\cc9Cbd1F.s 			page 4


 146:Middlewares/Third_Party/LwIP/src/core/timeouts.c **** void
 147:Middlewares/Third_Party/LwIP/src/core/timeouts.c **** tcp_timer_needed(void)
 148:Middlewares/Third_Party/LwIP/src/core/timeouts.c **** {
 149:Middlewares/Third_Party/LwIP/src/core/timeouts.c ****   /* timer is off but needed again? */
 150:Middlewares/Third_Party/LwIP/src/core/timeouts.c ****   if (!tcpip_tcp_timer_active && (tcp_active_pcbs || tcp_tw_pcbs)) {
 151:Middlewares/Third_Party/LwIP/src/core/timeouts.c ****     /* enable and start timer */
 152:Middlewares/Third_Party/LwIP/src/core/timeouts.c ****     tcpip_tcp_timer_active = 1;
 153:Middlewares/Third_Party/LwIP/src/core/timeouts.c ****     sys_timeout(TCP_TMR_INTERVAL, tcpip_tcp_timer, NULL);
 154:Middlewares/Third_Party/LwIP/src/core/timeouts.c ****   }
 155:Middlewares/Third_Party/LwIP/src/core/timeouts.c **** }
 156:Middlewares/Third_Party/LwIP/src/core/timeouts.c **** #endif /* LWIP_TCP */
 157:Middlewares/Third_Party/LwIP/src/core/timeouts.c **** 
 158:Middlewares/Third_Party/LwIP/src/core/timeouts.c **** /**
 159:Middlewares/Third_Party/LwIP/src/core/timeouts.c ****  * Timer callback function that calls mld6_tmr() and reschedules itself.
 160:Middlewares/Third_Party/LwIP/src/core/timeouts.c ****  *
 161:Middlewares/Third_Party/LwIP/src/core/timeouts.c ****  * @param arg unused argument
 162:Middlewares/Third_Party/LwIP/src/core/timeouts.c ****  */
 163:Middlewares/Third_Party/LwIP/src/core/timeouts.c **** static void
 164:Middlewares/Third_Party/LwIP/src/core/timeouts.c **** cyclic_timer(void *arg)
 165:Middlewares/Third_Party/LwIP/src/core/timeouts.c **** {
 166:Middlewares/Third_Party/LwIP/src/core/timeouts.c ****   const struct lwip_cyclic_timer* cyclic = (const struct lwip_cyclic_timer*)arg;
 167:Middlewares/Third_Party/LwIP/src/core/timeouts.c **** #if LWIP_DEBUG_TIMERNAMES
 168:Middlewares/Third_Party/LwIP/src/core/timeouts.c ****   LWIP_DEBUGF(TIMERS_DEBUG, ("tcpip: %s()\n", cyclic->handler_name));
 169:Middlewares/Third_Party/LwIP/src/core/timeouts.c **** #endif
 170:Middlewares/Third_Party/LwIP/src/core/timeouts.c ****   cyclic->handler();
 171:Middlewares/Third_Party/LwIP/src/core/timeouts.c ****   sys_timeout(cyclic->interval_ms, cyclic_timer, arg);
 172:Middlewares/Third_Party/LwIP/src/core/timeouts.c **** }
 173:Middlewares/Third_Party/LwIP/src/core/timeouts.c **** 
 174:Middlewares/Third_Party/LwIP/src/core/timeouts.c **** /** Initialize this module */
 175:Middlewares/Third_Party/LwIP/src/core/timeouts.c **** void sys_timeouts_init(void)
 176:Middlewares/Third_Party/LwIP/src/core/timeouts.c **** {
 177:Middlewares/Third_Party/LwIP/src/core/timeouts.c ****   size_t i;
 178:Middlewares/Third_Party/LwIP/src/core/timeouts.c ****   /* tcp_tmr() at index 0 is started on demand */
 179:Middlewares/Third_Party/LwIP/src/core/timeouts.c ****   for (i = (LWIP_TCP ? 1 : 0); i < LWIP_ARRAYSIZE(lwip_cyclic_timers); i++) {
 180:Middlewares/Third_Party/LwIP/src/core/timeouts.c ****     /* we have to cast via size_t to get rid of const warning
 181:Middlewares/Third_Party/LwIP/src/core/timeouts.c ****       (this is OK as cyclic_timer() casts back to const* */
 182:Middlewares/Third_Party/LwIP/src/core/timeouts.c ****     sys_timeout(lwip_cyclic_timers[i].interval_ms, cyclic_timer, LWIP_CONST_CAST(void*, &lwip_cycli
 183:Middlewares/Third_Party/LwIP/src/core/timeouts.c ****   }
 184:Middlewares/Third_Party/LwIP/src/core/timeouts.c **** 
 185:Middlewares/Third_Party/LwIP/src/core/timeouts.c ****   /* Initialise timestamp for sys_check_timeouts */
 186:Middlewares/Third_Party/LwIP/src/core/timeouts.c ****   timeouts_last_time = sys_now();
 187:Middlewares/Third_Party/LwIP/src/core/timeouts.c **** }
 188:Middlewares/Third_Party/LwIP/src/core/timeouts.c **** 
 189:Middlewares/Third_Party/LwIP/src/core/timeouts.c **** /**
 190:Middlewares/Third_Party/LwIP/src/core/timeouts.c ****  * Create a one-shot timer (aka timeout). Timeouts are processed in the
 191:Middlewares/Third_Party/LwIP/src/core/timeouts.c ****  * following cases:
 192:Middlewares/Third_Party/LwIP/src/core/timeouts.c ****  * - while waiting for a message using sys_timeouts_mbox_fetch()
 193:Middlewares/Third_Party/LwIP/src/core/timeouts.c ****  * - by calling sys_check_timeouts() (NO_SYS==1 only)
 194:Middlewares/Third_Party/LwIP/src/core/timeouts.c ****  *
 195:Middlewares/Third_Party/LwIP/src/core/timeouts.c ****  * @param msecs time in milliseconds after that the timer should expire
 196:Middlewares/Third_Party/LwIP/src/core/timeouts.c ****  * @param handler callback function to call when msecs have elapsed
 197:Middlewares/Third_Party/LwIP/src/core/timeouts.c ****  * @param arg argument to pass to the callback function
 198:Middlewares/Third_Party/LwIP/src/core/timeouts.c ****  */
 199:Middlewares/Third_Party/LwIP/src/core/timeouts.c **** #if LWIP_DEBUG_TIMERNAMES
 200:Middlewares/Third_Party/LwIP/src/core/timeouts.c **** void
 201:Middlewares/Third_Party/LwIP/src/core/timeouts.c **** sys_timeout_debug(u32_t msecs, sys_timeout_handler handler, void *arg, const char* handler_name)
 202:Middlewares/Third_Party/LwIP/src/core/timeouts.c **** #else /* LWIP_DEBUG_TIMERNAMES */
ARM GAS  C:\Users\Nina\AppData\Local\Temp\cc9Cbd1F.s 			page 5


 203:Middlewares/Third_Party/LwIP/src/core/timeouts.c **** void
 204:Middlewares/Third_Party/LwIP/src/core/timeouts.c **** sys_timeout(u32_t msecs, sys_timeout_handler handler, void *arg)
 205:Middlewares/Third_Party/LwIP/src/core/timeouts.c **** #endif /* LWIP_DEBUG_TIMERNAMES */
 206:Middlewares/Third_Party/LwIP/src/core/timeouts.c **** {
 207:Middlewares/Third_Party/LwIP/src/core/timeouts.c ****   struct sys_timeo *timeout, *t;
 208:Middlewares/Third_Party/LwIP/src/core/timeouts.c ****   u32_t now, diff;
 209:Middlewares/Third_Party/LwIP/src/core/timeouts.c **** 
 210:Middlewares/Third_Party/LwIP/src/core/timeouts.c ****   timeout = (struct sys_timeo *)memp_malloc(MEMP_SYS_TIMEOUT);
 211:Middlewares/Third_Party/LwIP/src/core/timeouts.c ****   if (timeout == NULL) {
 212:Middlewares/Third_Party/LwIP/src/core/timeouts.c ****     LWIP_ASSERT("sys_timeout: timeout != NULL, pool MEMP_SYS_TIMEOUT is empty", timeout != NULL);
 213:Middlewares/Third_Party/LwIP/src/core/timeouts.c ****     return;
 214:Middlewares/Third_Party/LwIP/src/core/timeouts.c ****   }
 215:Middlewares/Third_Party/LwIP/src/core/timeouts.c **** 
 216:Middlewares/Third_Party/LwIP/src/core/timeouts.c ****   now = sys_now();
 217:Middlewares/Third_Party/LwIP/src/core/timeouts.c ****   if (next_timeout == NULL) {
 218:Middlewares/Third_Party/LwIP/src/core/timeouts.c ****     diff = 0;
 219:Middlewares/Third_Party/LwIP/src/core/timeouts.c ****     timeouts_last_time = now;
 220:Middlewares/Third_Party/LwIP/src/core/timeouts.c ****   } else {
 221:Middlewares/Third_Party/LwIP/src/core/timeouts.c ****     diff = now - timeouts_last_time;
 222:Middlewares/Third_Party/LwIP/src/core/timeouts.c ****   }
 223:Middlewares/Third_Party/LwIP/src/core/timeouts.c **** 
 224:Middlewares/Third_Party/LwIP/src/core/timeouts.c ****   timeout->next = NULL;
 225:Middlewares/Third_Party/LwIP/src/core/timeouts.c ****   timeout->h = handler;
 226:Middlewares/Third_Party/LwIP/src/core/timeouts.c ****   timeout->arg = arg;
 227:Middlewares/Third_Party/LwIP/src/core/timeouts.c ****   timeout->time = msecs + diff;
 228:Middlewares/Third_Party/LwIP/src/core/timeouts.c **** #if LWIP_DEBUG_TIMERNAMES
 229:Middlewares/Third_Party/LwIP/src/core/timeouts.c ****   timeout->handler_name = handler_name;
 230:Middlewares/Third_Party/LwIP/src/core/timeouts.c ****   LWIP_DEBUGF(TIMERS_DEBUG, ("sys_timeout: %p msecs=%"U32_F" handler=%s arg=%p\n",
 231:Middlewares/Third_Party/LwIP/src/core/timeouts.c ****     (void *)timeout, msecs, handler_name, (void *)arg));
 232:Middlewares/Third_Party/LwIP/src/core/timeouts.c **** #endif /* LWIP_DEBUG_TIMERNAMES */
 233:Middlewares/Third_Party/LwIP/src/core/timeouts.c **** 
 234:Middlewares/Third_Party/LwIP/src/core/timeouts.c ****   if (next_timeout == NULL) {
 235:Middlewares/Third_Party/LwIP/src/core/timeouts.c ****     next_timeout = timeout;
 236:Middlewares/Third_Party/LwIP/src/core/timeouts.c ****     return;
 237:Middlewares/Third_Party/LwIP/src/core/timeouts.c ****   }
 238:Middlewares/Third_Party/LwIP/src/core/timeouts.c **** 
 239:Middlewares/Third_Party/LwIP/src/core/timeouts.c ****   if (next_timeout->time > msecs) {
 240:Middlewares/Third_Party/LwIP/src/core/timeouts.c ****     next_timeout->time -= msecs;
 241:Middlewares/Third_Party/LwIP/src/core/timeouts.c ****     timeout->next = next_timeout;
 242:Middlewares/Third_Party/LwIP/src/core/timeouts.c ****     next_timeout = timeout;
 243:Middlewares/Third_Party/LwIP/src/core/timeouts.c ****   } else {
 244:Middlewares/Third_Party/LwIP/src/core/timeouts.c ****     for (t = next_timeout; t != NULL; t = t->next) {
 245:Middlewares/Third_Party/LwIP/src/core/timeouts.c ****       timeout->time -= t->time;
 246:Middlewares/Third_Party/LwIP/src/core/timeouts.c ****       if (t->next == NULL || t->next->time > timeout->time) {
 247:Middlewares/Third_Party/LwIP/src/core/timeouts.c ****         if (t->next != NULL) {
 248:Middlewares/Third_Party/LwIP/src/core/timeouts.c ****           t->next->time -= timeout->time;
 249:Middlewares/Third_Party/LwIP/src/core/timeouts.c ****         } else if (timeout->time > msecs) {
 250:Middlewares/Third_Party/LwIP/src/core/timeouts.c ****           /* If this is the case, 'timeouts_last_time' and 'now' differs too much.
 251:Middlewares/Third_Party/LwIP/src/core/timeouts.c ****              This can be due to sys_check_timeouts() not being called at the right
 252:Middlewares/Third_Party/LwIP/src/core/timeouts.c ****              times, but also when stopping in a breakpoint. Anyway, let's assume
 253:Middlewares/Third_Party/LwIP/src/core/timeouts.c ****              this is not wanted, so add the first timer's time instead of 'diff' */
 254:Middlewares/Third_Party/LwIP/src/core/timeouts.c ****           timeout->time = msecs + next_timeout->time;
 255:Middlewares/Third_Party/LwIP/src/core/timeouts.c ****         }
 256:Middlewares/Third_Party/LwIP/src/core/timeouts.c ****         timeout->next = t->next;
 257:Middlewares/Third_Party/LwIP/src/core/timeouts.c ****         t->next = timeout;
 258:Middlewares/Third_Party/LwIP/src/core/timeouts.c ****         break;
 259:Middlewares/Third_Party/LwIP/src/core/timeouts.c ****       }
ARM GAS  C:\Users\Nina\AppData\Local\Temp\cc9Cbd1F.s 			page 6


 260:Middlewares/Third_Party/LwIP/src/core/timeouts.c ****     }
 261:Middlewares/Third_Party/LwIP/src/core/timeouts.c ****   }
 262:Middlewares/Third_Party/LwIP/src/core/timeouts.c **** }
 263:Middlewares/Third_Party/LwIP/src/core/timeouts.c **** 
 264:Middlewares/Third_Party/LwIP/src/core/timeouts.c **** /**
 265:Middlewares/Third_Party/LwIP/src/core/timeouts.c ****  * Go through timeout list (for this task only) and remove the first matching
 266:Middlewares/Third_Party/LwIP/src/core/timeouts.c ****  * entry (subsequent entries remain untouched), even though the timeout has not
 267:Middlewares/Third_Party/LwIP/src/core/timeouts.c ****  * triggered yet.
 268:Middlewares/Third_Party/LwIP/src/core/timeouts.c ****  *
 269:Middlewares/Third_Party/LwIP/src/core/timeouts.c ****  * @param handler callback function that would be called by the timeout
 270:Middlewares/Third_Party/LwIP/src/core/timeouts.c ****  * @param arg callback argument that would be passed to handler
 271:Middlewares/Third_Party/LwIP/src/core/timeouts.c **** */
 272:Middlewares/Third_Party/LwIP/src/core/timeouts.c **** void
 273:Middlewares/Third_Party/LwIP/src/core/timeouts.c **** sys_untimeout(sys_timeout_handler handler, void *arg)
 274:Middlewares/Third_Party/LwIP/src/core/timeouts.c **** {
 275:Middlewares/Third_Party/LwIP/src/core/timeouts.c ****   struct sys_timeo *prev_t, *t;
 276:Middlewares/Third_Party/LwIP/src/core/timeouts.c **** 
 277:Middlewares/Third_Party/LwIP/src/core/timeouts.c ****   if (next_timeout == NULL) {
 278:Middlewares/Third_Party/LwIP/src/core/timeouts.c ****     return;
 279:Middlewares/Third_Party/LwIP/src/core/timeouts.c ****   }
 280:Middlewares/Third_Party/LwIP/src/core/timeouts.c **** 
 281:Middlewares/Third_Party/LwIP/src/core/timeouts.c ****   for (t = next_timeout, prev_t = NULL; t != NULL; prev_t = t, t = t->next) {
 282:Middlewares/Third_Party/LwIP/src/core/timeouts.c ****     if ((t->h == handler) && (t->arg == arg)) {
 283:Middlewares/Third_Party/LwIP/src/core/timeouts.c ****       /* We have a match */
 284:Middlewares/Third_Party/LwIP/src/core/timeouts.c ****       /* Unlink from previous in list */
 285:Middlewares/Third_Party/LwIP/src/core/timeouts.c ****       if (prev_t == NULL) {
 286:Middlewares/Third_Party/LwIP/src/core/timeouts.c ****         next_timeout = t->next;
 287:Middlewares/Third_Party/LwIP/src/core/timeouts.c ****       } else {
 288:Middlewares/Third_Party/LwIP/src/core/timeouts.c ****         prev_t->next = t->next;
 289:Middlewares/Third_Party/LwIP/src/core/timeouts.c ****       }
 290:Middlewares/Third_Party/LwIP/src/core/timeouts.c ****       /* If not the last one, add time of this one back to next */
 291:Middlewares/Third_Party/LwIP/src/core/timeouts.c ****       if (t->next != NULL) {
 292:Middlewares/Third_Party/LwIP/src/core/timeouts.c ****         t->next->time += t->time;
 293:Middlewares/Third_Party/LwIP/src/core/timeouts.c ****       }
 294:Middlewares/Third_Party/LwIP/src/core/timeouts.c ****       memp_free(MEMP_SYS_TIMEOUT, t);
 295:Middlewares/Third_Party/LwIP/src/core/timeouts.c ****       return;
 296:Middlewares/Third_Party/LwIP/src/core/timeouts.c ****     }
 297:Middlewares/Third_Party/LwIP/src/core/timeouts.c ****   }
 298:Middlewares/Third_Party/LwIP/src/core/timeouts.c ****   return;
 299:Middlewares/Third_Party/LwIP/src/core/timeouts.c **** }
 300:Middlewares/Third_Party/LwIP/src/core/timeouts.c **** 
 301:Middlewares/Third_Party/LwIP/src/core/timeouts.c **** /**
 302:Middlewares/Third_Party/LwIP/src/core/timeouts.c ****  * @ingroup lwip_nosys
 303:Middlewares/Third_Party/LwIP/src/core/timeouts.c ****  * Handle timeouts for NO_SYS==1 (i.e. without using
 304:Middlewares/Third_Party/LwIP/src/core/timeouts.c ****  * tcpip_thread/sys_timeouts_mbox_fetch(). Uses sys_now() to call timeout
 305:Middlewares/Third_Party/LwIP/src/core/timeouts.c ****  * handler functions when timeouts expire.
 306:Middlewares/Third_Party/LwIP/src/core/timeouts.c ****  *
 307:Middlewares/Third_Party/LwIP/src/core/timeouts.c ****  * Must be called periodically from your main loop.
 308:Middlewares/Third_Party/LwIP/src/core/timeouts.c ****  */
 309:Middlewares/Third_Party/LwIP/src/core/timeouts.c **** #if !NO_SYS && !defined __DOXYGEN__
 310:Middlewares/Third_Party/LwIP/src/core/timeouts.c **** static
 311:Middlewares/Third_Party/LwIP/src/core/timeouts.c **** #endif /* !NO_SYS */
 312:Middlewares/Third_Party/LwIP/src/core/timeouts.c **** void
 313:Middlewares/Third_Party/LwIP/src/core/timeouts.c **** sys_check_timeouts(void)
 314:Middlewares/Third_Party/LwIP/src/core/timeouts.c **** {
 315:Middlewares/Third_Party/LwIP/src/core/timeouts.c ****   if (next_timeout) {
 316:Middlewares/Third_Party/LwIP/src/core/timeouts.c ****     struct sys_timeo *tmptimeout;
ARM GAS  C:\Users\Nina\AppData\Local\Temp\cc9Cbd1F.s 			page 7


 317:Middlewares/Third_Party/LwIP/src/core/timeouts.c ****     u32_t diff;
 318:Middlewares/Third_Party/LwIP/src/core/timeouts.c ****     sys_timeout_handler handler;
 319:Middlewares/Third_Party/LwIP/src/core/timeouts.c ****     void *arg;
 320:Middlewares/Third_Party/LwIP/src/core/timeouts.c ****     u8_t had_one;
 321:Middlewares/Third_Party/LwIP/src/core/timeouts.c ****     u32_t now;
 322:Middlewares/Third_Party/LwIP/src/core/timeouts.c **** 
 323:Middlewares/Third_Party/LwIP/src/core/timeouts.c ****     now = sys_now();
 324:Middlewares/Third_Party/LwIP/src/core/timeouts.c ****     /* this cares for wraparounds */
 325:Middlewares/Third_Party/LwIP/src/core/timeouts.c ****     diff = now - timeouts_last_time;
 326:Middlewares/Third_Party/LwIP/src/core/timeouts.c ****     do {
 327:Middlewares/Third_Party/LwIP/src/core/timeouts.c ****       PBUF_CHECK_FREE_OOSEQ();
 328:Middlewares/Third_Party/LwIP/src/core/timeouts.c ****       had_one = 0;
 329:Middlewares/Third_Party/LwIP/src/core/timeouts.c ****       tmptimeout = next_timeout;
 330:Middlewares/Third_Party/LwIP/src/core/timeouts.c ****       if (tmptimeout && (tmptimeout->time <= diff)) {
 331:Middlewares/Third_Party/LwIP/src/core/timeouts.c ****         /* timeout has expired */
 332:Middlewares/Third_Party/LwIP/src/core/timeouts.c ****         had_one = 1;
 333:Middlewares/Third_Party/LwIP/src/core/timeouts.c ****         timeouts_last_time += tmptimeout->time;
 334:Middlewares/Third_Party/LwIP/src/core/timeouts.c ****         diff -= tmptimeout->time;
 335:Middlewares/Third_Party/LwIP/src/core/timeouts.c ****         next_timeout = tmptimeout->next;
 336:Middlewares/Third_Party/LwIP/src/core/timeouts.c ****         handler = tmptimeout->h;
 337:Middlewares/Third_Party/LwIP/src/core/timeouts.c ****         arg = tmptimeout->arg;
 338:Middlewares/Third_Party/LwIP/src/core/timeouts.c **** #if LWIP_DEBUG_TIMERNAMES
 339:Middlewares/Third_Party/LwIP/src/core/timeouts.c ****         if (handler != NULL) {
 340:Middlewares/Third_Party/LwIP/src/core/timeouts.c ****           LWIP_DEBUGF(TIMERS_DEBUG, ("sct calling h=%s arg=%p\n",
 341:Middlewares/Third_Party/LwIP/src/core/timeouts.c ****             tmptimeout->handler_name, arg));
 342:Middlewares/Third_Party/LwIP/src/core/timeouts.c ****         }
 343:Middlewares/Third_Party/LwIP/src/core/timeouts.c **** #endif /* LWIP_DEBUG_TIMERNAMES */
 344:Middlewares/Third_Party/LwIP/src/core/timeouts.c ****         memp_free(MEMP_SYS_TIMEOUT, tmptimeout);
 345:Middlewares/Third_Party/LwIP/src/core/timeouts.c ****         if (handler != NULL) {
 346:Middlewares/Third_Party/LwIP/src/core/timeouts.c **** #if !NO_SYS
 347:Middlewares/Third_Party/LwIP/src/core/timeouts.c ****           /* For LWIP_TCPIP_CORE_LOCKING, lock the core before calling the
 348:Middlewares/Third_Party/LwIP/src/core/timeouts.c ****              timeout handler function. */
 349:Middlewares/Third_Party/LwIP/src/core/timeouts.c ****           LOCK_TCPIP_CORE();
 350:Middlewares/Third_Party/LwIP/src/core/timeouts.c **** #endif /* !NO_SYS */
 351:Middlewares/Third_Party/LwIP/src/core/timeouts.c ****           handler(arg);
 352:Middlewares/Third_Party/LwIP/src/core/timeouts.c **** #if !NO_SYS
 353:Middlewares/Third_Party/LwIP/src/core/timeouts.c ****           UNLOCK_TCPIP_CORE();
 354:Middlewares/Third_Party/LwIP/src/core/timeouts.c **** #endif /* !NO_SYS */
 355:Middlewares/Third_Party/LwIP/src/core/timeouts.c ****         }
 356:Middlewares/Third_Party/LwIP/src/core/timeouts.c ****         LWIP_TCPIP_THREAD_ALIVE();
 357:Middlewares/Third_Party/LwIP/src/core/timeouts.c ****       }
 358:Middlewares/Third_Party/LwIP/src/core/timeouts.c ****     /* repeat until all expired timers have been called */
 359:Middlewares/Third_Party/LwIP/src/core/timeouts.c ****     } while (had_one);
 360:Middlewares/Third_Party/LwIP/src/core/timeouts.c ****   }
 361:Middlewares/Third_Party/LwIP/src/core/timeouts.c **** }
 362:Middlewares/Third_Party/LwIP/src/core/timeouts.c **** 
 363:Middlewares/Third_Party/LwIP/src/core/timeouts.c **** /** Set back the timestamp of the last call to sys_check_timeouts()
 364:Middlewares/Third_Party/LwIP/src/core/timeouts.c ****  * This is necessary if sys_check_timeouts() hasn't been called for a long
 365:Middlewares/Third_Party/LwIP/src/core/timeouts.c ****  * time (e.g. while saving energy) to prevent all timer functions of that
 366:Middlewares/Third_Party/LwIP/src/core/timeouts.c ****  * period being called.
 367:Middlewares/Third_Party/LwIP/src/core/timeouts.c ****  */
 368:Middlewares/Third_Party/LwIP/src/core/timeouts.c **** void
 369:Middlewares/Third_Party/LwIP/src/core/timeouts.c **** sys_restart_timeouts(void)
 370:Middlewares/Third_Party/LwIP/src/core/timeouts.c **** {
 371:Middlewares/Third_Party/LwIP/src/core/timeouts.c ****   timeouts_last_time = sys_now();
 372:Middlewares/Third_Party/LwIP/src/core/timeouts.c **** }
 373:Middlewares/Third_Party/LwIP/src/core/timeouts.c **** 
ARM GAS  C:\Users\Nina\AppData\Local\Temp\cc9Cbd1F.s 			page 8


 374:Middlewares/Third_Party/LwIP/src/core/timeouts.c **** /** Return the time left before the next timeout is due. If no timeouts are
 375:Middlewares/Third_Party/LwIP/src/core/timeouts.c ****  * enqueued, returns 0xffffffff
 376:Middlewares/Third_Party/LwIP/src/core/timeouts.c ****  */
 377:Middlewares/Third_Party/LwIP/src/core/timeouts.c **** #if !NO_SYS
 378:Middlewares/Third_Party/LwIP/src/core/timeouts.c **** static
 379:Middlewares/Third_Party/LwIP/src/core/timeouts.c **** #endif /* !NO_SYS */
 380:Middlewares/Third_Party/LwIP/src/core/timeouts.c **** u32_t
 381:Middlewares/Third_Party/LwIP/src/core/timeouts.c **** sys_timeouts_sleeptime(void)
 382:Middlewares/Third_Party/LwIP/src/core/timeouts.c **** {
  28              		.loc 1 382 1 view -0
  29              		.cfi_startproc
  30              		@ args = 0, pretend = 0, frame = 0
  31              		@ frame_needed = 0, uses_anonymous_args = 0
  32 0000 08B5     		push	{r3, lr}
  33              	.LCFI0:
  34              		.cfi_def_cfa_offset 8
  35              		.cfi_offset 3, -8
  36              		.cfi_offset 14, -4
 383:Middlewares/Third_Party/LwIP/src/core/timeouts.c ****   u32_t diff;
  37              		.loc 1 383 3 view .LVU1
 384:Middlewares/Third_Party/LwIP/src/core/timeouts.c ****   if (next_timeout == NULL) {
  38              		.loc 1 384 3 view .LVU2
  39              		.loc 1 384 20 is_stmt 0 view .LVU3
  40 0002 0A4B     		ldr	r3, .L6
  41 0004 1B68     		ldr	r3, [r3]
  42              		.loc 1 384 6 view .LVU4
  43 0006 63B1     		cbz	r3, .L3
 385:Middlewares/Third_Party/LwIP/src/core/timeouts.c ****     return 0xffffffff;
 386:Middlewares/Third_Party/LwIP/src/core/timeouts.c ****   }
 387:Middlewares/Third_Party/LwIP/src/core/timeouts.c ****   diff = sys_now() - timeouts_last_time;
  44              		.loc 1 387 3 is_stmt 1 view .LVU5
  45              		.loc 1 387 10 is_stmt 0 view .LVU6
  46 0008 FFF7FEFF 		bl	sys_now
  47              	.LVL0:
  48              		.loc 1 387 20 view .LVU7
  49 000c 084B     		ldr	r3, .L6+4
  50 000e 1B68     		ldr	r3, [r3]
  51              		.loc 1 387 8 view .LVU8
  52 0010 C11A     		subs	r1, r0, r3
  53              	.LVL1:
 388:Middlewares/Third_Party/LwIP/src/core/timeouts.c ****   if (diff > next_timeout->time) {
  54              		.loc 1 388 3 is_stmt 1 view .LVU9
  55              		.loc 1 388 26 is_stmt 0 view .LVU10
  56 0012 064A     		ldr	r2, .L6
  57 0014 1268     		ldr	r2, [r2]
  58 0016 5268     		ldr	r2, [r2, #4]
  59              		.loc 1 388 6 view .LVU11
  60 0018 8A42     		cmp	r2, r1
  61 001a 05D3     		bcc	.L4
 389:Middlewares/Third_Party/LwIP/src/core/timeouts.c ****     return 0;
 390:Middlewares/Third_Party/LwIP/src/core/timeouts.c ****   } else {
 391:Middlewares/Third_Party/LwIP/src/core/timeouts.c ****     return next_timeout->time - diff;
  62              		.loc 1 391 5 is_stmt 1 view .LVU12
  63              		.loc 1 391 31 is_stmt 0 view .LVU13
  64 001c 1B1A     		subs	r3, r3, r0
  65 001e 9818     		adds	r0, r3, r2
  66 0020 03E0     		b	.L1
ARM GAS  C:\Users\Nina\AppData\Local\Temp\cc9Cbd1F.s 			page 9


  67              	.LVL2:
  68              	.L3:
 385:Middlewares/Third_Party/LwIP/src/core/timeouts.c ****   }
  69              		.loc 1 385 12 view .LVU14
  70 0022 4FF0FF30 		mov	r0, #-1
  71 0026 00E0     		b	.L1
  72              	.LVL3:
  73              	.L4:
 389:Middlewares/Third_Party/LwIP/src/core/timeouts.c ****     return 0;
  74              		.loc 1 389 12 view .LVU15
  75 0028 0020     		movs	r0, #0
  76              	.LVL4:
  77              	.L1:
 392:Middlewares/Third_Party/LwIP/src/core/timeouts.c ****   }
 393:Middlewares/Third_Party/LwIP/src/core/timeouts.c **** }
  78              		.loc 1 393 1 view .LVU16
  79 002a 08BD     		pop	{r3, pc}
  80              	.L7:
  81              		.align	2
  82              	.L6:
  83 002c 00000000 		.word	.LANCHOR0
  84 0030 00000000 		.word	.LANCHOR1
  85              		.cfi_endproc
  86              	.LFE173:
  88              		.section	.text.sys_check_timeouts,"ax",%progbits
  89              		.align	1
  90              		.syntax unified
  91              		.thumb
  92              		.thumb_func
  93              		.fpu fpv5-sp-d16
  95              	sys_check_timeouts:
  96              	.LFB171:
 314:Middlewares/Third_Party/LwIP/src/core/timeouts.c ****   if (next_timeout) {
  97              		.loc 1 314 1 is_stmt 1 view -0
  98              		.cfi_startproc
  99              		@ args = 0, pretend = 0, frame = 0
 100              		@ frame_needed = 0, uses_anonymous_args = 0
 101 0000 F8B5     		push	{r3, r4, r5, r6, r7, lr}
 102              	.LCFI1:
 103              		.cfi_def_cfa_offset 24
 104              		.cfi_offset 3, -24
 105              		.cfi_offset 4, -20
 106              		.cfi_offset 5, -16
 107              		.cfi_offset 6, -12
 108              		.cfi_offset 7, -8
 109              		.cfi_offset 14, -4
 315:Middlewares/Third_Party/LwIP/src/core/timeouts.c ****     struct sys_timeo *tmptimeout;
 110              		.loc 1 315 3 view .LVU18
 315:Middlewares/Third_Party/LwIP/src/core/timeouts.c ****     struct sys_timeo *tmptimeout;
 111              		.loc 1 315 7 is_stmt 0 view .LVU19
 112 0002 144B     		ldr	r3, .L13
 113 0004 1B68     		ldr	r3, [r3]
 315:Middlewares/Third_Party/LwIP/src/core/timeouts.c ****     struct sys_timeo *tmptimeout;
 114              		.loc 1 315 6 view .LVU20
 115 0006 1BB3     		cbz	r3, .L8
 116              	.LBB2:
 316:Middlewares/Third_Party/LwIP/src/core/timeouts.c ****     u32_t diff;
ARM GAS  C:\Users\Nina\AppData\Local\Temp\cc9Cbd1F.s 			page 10


 117              		.loc 1 316 5 is_stmt 1 view .LVU21
 317:Middlewares/Third_Party/LwIP/src/core/timeouts.c ****     sys_timeout_handler handler;
 118              		.loc 1 317 5 view .LVU22
 318:Middlewares/Third_Party/LwIP/src/core/timeouts.c ****     void *arg;
 119              		.loc 1 318 5 view .LVU23
 319:Middlewares/Third_Party/LwIP/src/core/timeouts.c ****     u8_t had_one;
 120              		.loc 1 319 5 view .LVU24
 320:Middlewares/Third_Party/LwIP/src/core/timeouts.c ****     u32_t now;
 121              		.loc 1 320 5 view .LVU25
 321:Middlewares/Third_Party/LwIP/src/core/timeouts.c **** 
 122              		.loc 1 321 5 view .LVU26
 323:Middlewares/Third_Party/LwIP/src/core/timeouts.c ****     /* this cares for wraparounds */
 123              		.loc 1 323 5 view .LVU27
 323:Middlewares/Third_Party/LwIP/src/core/timeouts.c ****     /* this cares for wraparounds */
 124              		.loc 1 323 11 is_stmt 0 view .LVU28
 125 0008 FFF7FEFF 		bl	sys_now
 126              	.LVL5:
 325:Middlewares/Third_Party/LwIP/src/core/timeouts.c ****     do {
 127              		.loc 1 325 5 is_stmt 1 view .LVU29
 325:Middlewares/Third_Party/LwIP/src/core/timeouts.c ****     do {
 128              		.loc 1 325 16 is_stmt 0 view .LVU30
 129 000c 124B     		ldr	r3, .L13+4
 130 000e 1C68     		ldr	r4, [r3]
 325:Middlewares/Third_Party/LwIP/src/core/timeouts.c ****     do {
 131              		.loc 1 325 10 view .LVU31
 132 0010 041B     		subs	r4, r0, r4
 133              	.LVL6:
 134              	.L10:
 326:Middlewares/Third_Party/LwIP/src/core/timeouts.c ****       PBUF_CHECK_FREE_OOSEQ();
 135              		.loc 1 326 5 is_stmt 1 view .LVU32
 327:Middlewares/Third_Party/LwIP/src/core/timeouts.c ****       had_one = 0;
 136              		.loc 1 327 30 view .LVU33
 328:Middlewares/Third_Party/LwIP/src/core/timeouts.c ****       tmptimeout = next_timeout;
 137              		.loc 1 328 7 view .LVU34
 329:Middlewares/Third_Party/LwIP/src/core/timeouts.c ****       if (tmptimeout && (tmptimeout->time <= diff)) {
 138              		.loc 1 329 7 view .LVU35
 329:Middlewares/Third_Party/LwIP/src/core/timeouts.c ****       if (tmptimeout && (tmptimeout->time <= diff)) {
 139              		.loc 1 329 18 is_stmt 0 view .LVU36
 140 0012 104B     		ldr	r3, .L13
 141 0014 1968     		ldr	r1, [r3]
 142              	.LVL7:
 330:Middlewares/Third_Party/LwIP/src/core/timeouts.c ****         /* timeout has expired */
 143              		.loc 1 330 7 is_stmt 1 view .LVU37
 330:Middlewares/Third_Party/LwIP/src/core/timeouts.c ****         /* timeout has expired */
 144              		.loc 1 330 10 is_stmt 0 view .LVU38
 145 0016 D9B1     		cbz	r1, .L8
 330:Middlewares/Third_Party/LwIP/src/core/timeouts.c ****         /* timeout has expired */
 146              		.loc 1 330 36 discriminator 1 view .LVU39
 147 0018 4B68     		ldr	r3, [r1, #4]
 330:Middlewares/Third_Party/LwIP/src/core/timeouts.c ****         /* timeout has expired */
 148              		.loc 1 330 22 discriminator 1 view .LVU40
 149 001a A342     		cmp	r3, r4
 150 001c 18D8     		bhi	.L8
 332:Middlewares/Third_Party/LwIP/src/core/timeouts.c ****         timeouts_last_time += tmptimeout->time;
 151              		.loc 1 332 9 is_stmt 1 view .LVU41
 152              	.LVL8:
 333:Middlewares/Third_Party/LwIP/src/core/timeouts.c ****         diff -= tmptimeout->time;
ARM GAS  C:\Users\Nina\AppData\Local\Temp\cc9Cbd1F.s 			page 11


 153              		.loc 1 333 9 view .LVU42
 333:Middlewares/Third_Party/LwIP/src/core/timeouts.c ****         diff -= tmptimeout->time;
 154              		.loc 1 333 28 is_stmt 0 view .LVU43
 155 001e 0E48     		ldr	r0, .L13+4
 156 0020 0268     		ldr	r2, [r0]
 157 0022 1A44     		add	r2, r2, r3
 158 0024 0260     		str	r2, [r0]
 334:Middlewares/Third_Party/LwIP/src/core/timeouts.c ****         next_timeout = tmptimeout->next;
 159              		.loc 1 334 9 is_stmt 1 view .LVU44
 334:Middlewares/Third_Party/LwIP/src/core/timeouts.c ****         next_timeout = tmptimeout->next;
 160              		.loc 1 334 14 is_stmt 0 view .LVU45
 161 0026 E41A     		subs	r4, r4, r3
 162              	.LVL9:
 335:Middlewares/Third_Party/LwIP/src/core/timeouts.c ****         handler = tmptimeout->h;
 163              		.loc 1 335 9 is_stmt 1 view .LVU46
 335:Middlewares/Third_Party/LwIP/src/core/timeouts.c ****         handler = tmptimeout->h;
 164              		.loc 1 335 34 is_stmt 0 view .LVU47
 165 0028 0A68     		ldr	r2, [r1]
 335:Middlewares/Third_Party/LwIP/src/core/timeouts.c ****         handler = tmptimeout->h;
 166              		.loc 1 335 22 view .LVU48
 167 002a 0A4B     		ldr	r3, .L13
 168 002c 1A60     		str	r2, [r3]
 336:Middlewares/Third_Party/LwIP/src/core/timeouts.c ****         arg = tmptimeout->arg;
 169              		.loc 1 336 9 is_stmt 1 view .LVU49
 336:Middlewares/Third_Party/LwIP/src/core/timeouts.c ****         arg = tmptimeout->arg;
 170              		.loc 1 336 17 is_stmt 0 view .LVU50
 171 002e 8D68     		ldr	r5, [r1, #8]
 172              	.LVL10:
 337:Middlewares/Third_Party/LwIP/src/core/timeouts.c **** #if LWIP_DEBUG_TIMERNAMES
 173              		.loc 1 337 9 is_stmt 1 view .LVU51
 337:Middlewares/Third_Party/LwIP/src/core/timeouts.c **** #if LWIP_DEBUG_TIMERNAMES
 174              		.loc 1 337 13 is_stmt 0 view .LVU52
 175 0030 CF68     		ldr	r7, [r1, #12]
 176              	.LVL11:
 344:Middlewares/Third_Party/LwIP/src/core/timeouts.c ****         if (handler != NULL) {
 177              		.loc 1 344 9 is_stmt 1 view .LVU53
 178 0032 0A20     		movs	r0, #10
 179 0034 FFF7FEFF 		bl	memp_free
 180              	.LVL12:
 345:Middlewares/Third_Party/LwIP/src/core/timeouts.c **** #if !NO_SYS
 181              		.loc 1 345 9 view .LVU54
 345:Middlewares/Third_Party/LwIP/src/core/timeouts.c **** #if !NO_SYS
 182              		.loc 1 345 12 is_stmt 0 view .LVU55
 183 0038 002D     		cmp	r5, #0
 184 003a EAD0     		beq	.L10
 349:Middlewares/Third_Party/LwIP/src/core/timeouts.c **** #endif /* !NO_SYS */
 185              		.loc 1 349 11 is_stmt 1 view .LVU56
 186 003c 074E     		ldr	r6, .L13+8
 187 003e 3046     		mov	r0, r6
 188 0040 FFF7FEFF 		bl	sys_mutex_lock
 189              	.LVL13:
 351:Middlewares/Third_Party/LwIP/src/core/timeouts.c **** #if !NO_SYS
 190              		.loc 1 351 11 view .LVU57
 191 0044 3846     		mov	r0, r7
 192 0046 A847     		blx	r5
 193              	.LVL14:
 353:Middlewares/Third_Party/LwIP/src/core/timeouts.c **** #endif /* !NO_SYS */
ARM GAS  C:\Users\Nina\AppData\Local\Temp\cc9Cbd1F.s 			page 12


 194              		.loc 1 353 11 view .LVU58
 195 0048 3046     		mov	r0, r6
 196 004a FFF7FEFF 		bl	sys_mutex_unlock
 197              	.LVL15:
 356:Middlewares/Third_Party/LwIP/src/core/timeouts.c ****       }
 198              		.loc 1 356 34 view .LVU59
 359:Middlewares/Third_Party/LwIP/src/core/timeouts.c ****   }
 199              		.loc 1 359 13 view .LVU60
 200 004e E0E7     		b	.L10
 201              	.LVL16:
 202              	.L8:
 359:Middlewares/Third_Party/LwIP/src/core/timeouts.c ****   }
 203              		.loc 1 359 13 is_stmt 0 view .LVU61
 204              	.LBE2:
 361:Middlewares/Third_Party/LwIP/src/core/timeouts.c **** 
 205              		.loc 1 361 1 view .LVU62
 206 0050 F8BD     		pop	{r3, r4, r5, r6, r7, pc}
 207              	.L14:
 208 0052 00BF     		.align	2
 209              	.L13:
 210 0054 00000000 		.word	.LANCHOR0
 211 0058 00000000 		.word	.LANCHOR1
 212 005c 00000000 		.word	lock_tcpip_core
 213              		.cfi_endproc
 214              	.LFE171:
 216              		.section	.rodata.sys_timeout.str1.4,"aMS",%progbits,1
 217              		.align	2
 218              	.LC0:
 219 0000 4D696464 		.ascii	"Middlewares/Third_Party/LwIP/src/core/timeouts.c\000"
 219      6C657761 
 219      7265732F 
 219      54686972 
 219      645F5061 
 220 0031 000000   		.align	2
 221              	.LC1:
 222 0034 7379735F 		.ascii	"sys_timeout: timeout != NULL, pool MEMP_SYS_TIMEOUT"
 222      74696D65 
 222      6F75743A 
 222      2074696D 
 222      656F7574 
 223 0067 20697320 		.ascii	" is empty\000"
 223      656D7074 
 223      7900
 224 0071 000000   		.align	2
 225              	.LC2:
 226 0074 41737365 		.ascii	"Assertion \"%s\" failed at line %d in %s\012\000"
 226      7274696F 
 226      6E202225 
 226      73222066 
 226      61696C65 
 227              		.section	.text.sys_timeout,"ax",%progbits
 228              		.align	1
 229              		.global	sys_timeout
 230              		.syntax unified
 231              		.thumb
 232              		.thumb_func
 233              		.fpu fpv5-sp-d16
ARM GAS  C:\Users\Nina\AppData\Local\Temp\cc9Cbd1F.s 			page 13


 235              	sys_timeout:
 236              	.LVL17:
 237              	.LFB169:
 206:Middlewares/Third_Party/LwIP/src/core/timeouts.c ****   struct sys_timeo *timeout, *t;
 238              		.loc 1 206 1 is_stmt 1 view -0
 239              		.cfi_startproc
 240              		@ args = 0, pretend = 0, frame = 0
 241              		@ frame_needed = 0, uses_anonymous_args = 0
 206:Middlewares/Third_Party/LwIP/src/core/timeouts.c ****   struct sys_timeo *timeout, *t;
 242              		.loc 1 206 1 is_stmt 0 view .LVU64
 243 0000 2DE9F041 		push	{r4, r5, r6, r7, r8, lr}
 244              	.LCFI2:
 245              		.cfi_def_cfa_offset 24
 246              		.cfi_offset 4, -24
 247              		.cfi_offset 5, -20
 248              		.cfi_offset 6, -16
 249              		.cfi_offset 7, -12
 250              		.cfi_offset 8, -8
 251              		.cfi_offset 14, -4
 252 0004 0546     		mov	r5, r0
 253 0006 8846     		mov	r8, r1
 254 0008 1746     		mov	r7, r2
 207:Middlewares/Third_Party/LwIP/src/core/timeouts.c ****   u32_t now, diff;
 255              		.loc 1 207 3 is_stmt 1 view .LVU65
 208:Middlewares/Third_Party/LwIP/src/core/timeouts.c **** 
 256              		.loc 1 208 3 view .LVU66
 210:Middlewares/Third_Party/LwIP/src/core/timeouts.c ****   if (timeout == NULL) {
 257              		.loc 1 210 3 view .LVU67
 210:Middlewares/Third_Party/LwIP/src/core/timeouts.c ****   if (timeout == NULL) {
 258              		.loc 1 210 33 is_stmt 0 view .LVU68
 259 000a 0A20     		movs	r0, #10
 260              	.LVL18:
 210:Middlewares/Third_Party/LwIP/src/core/timeouts.c ****   if (timeout == NULL) {
 261              		.loc 1 210 33 view .LVU69
 262 000c FFF7FEFF 		bl	memp_malloc
 263              	.LVL19:
 211:Middlewares/Third_Party/LwIP/src/core/timeouts.c ****     LWIP_ASSERT("sys_timeout: timeout != NULL, pool MEMP_SYS_TIMEOUT is empty", timeout != NULL);
 264              		.loc 1 211 3 is_stmt 1 view .LVU70
 211:Middlewares/Third_Party/LwIP/src/core/timeouts.c ****     LWIP_ASSERT("sys_timeout: timeout != NULL, pool MEMP_SYS_TIMEOUT is empty", timeout != NULL);
 265              		.loc 1 211 6 is_stmt 0 view .LVU71
 266 0010 D0B1     		cbz	r0, .L29
 267 0012 0446     		mov	r4, r0
 216:Middlewares/Third_Party/LwIP/src/core/timeouts.c ****   if (next_timeout == NULL) {
 268              		.loc 1 216 3 is_stmt 1 view .LVU72
 216:Middlewares/Third_Party/LwIP/src/core/timeouts.c ****   if (next_timeout == NULL) {
 269              		.loc 1 216 9 is_stmt 0 view .LVU73
 270 0014 FFF7FEFF 		bl	sys_now
 271              	.LVL20:
 217:Middlewares/Third_Party/LwIP/src/core/timeouts.c ****     diff = 0;
 272              		.loc 1 217 3 is_stmt 1 view .LVU74
 217:Middlewares/Third_Party/LwIP/src/core/timeouts.c ****     diff = 0;
 273              		.loc 1 217 20 is_stmt 0 view .LVU75
 274 0018 214B     		ldr	r3, .L32
 275 001a 1E68     		ldr	r6, [r3]
 217:Middlewares/Third_Party/LwIP/src/core/timeouts.c ****     diff = 0;
 276              		.loc 1 217 6 view .LVU76
 277 001c DEB1     		cbz	r6, .L30
ARM GAS  C:\Users\Nina\AppData\Local\Temp\cc9Cbd1F.s 			page 14


 221:Middlewares/Third_Party/LwIP/src/core/timeouts.c ****   }
 278              		.loc 1 221 5 is_stmt 1 view .LVU77
 221:Middlewares/Third_Party/LwIP/src/core/timeouts.c ****   }
 279              		.loc 1 221 16 is_stmt 0 view .LVU78
 280 001e 214B     		ldr	r3, .L32+4
 281 0020 1B68     		ldr	r3, [r3]
 221:Middlewares/Third_Party/LwIP/src/core/timeouts.c ****   }
 282              		.loc 1 221 10 view .LVU79
 283 0022 C31A     		subs	r3, r0, r3
 284              	.LVL21:
 285              	.L19:
 224:Middlewares/Third_Party/LwIP/src/core/timeouts.c ****   timeout->h = handler;
 286              		.loc 1 224 3 is_stmt 1 view .LVU80
 224:Middlewares/Third_Party/LwIP/src/core/timeouts.c ****   timeout->h = handler;
 287              		.loc 1 224 17 is_stmt 0 view .LVU81
 288 0024 0022     		movs	r2, #0
 289 0026 2260     		str	r2, [r4]
 225:Middlewares/Third_Party/LwIP/src/core/timeouts.c ****   timeout->arg = arg;
 290              		.loc 1 225 3 is_stmt 1 view .LVU82
 225:Middlewares/Third_Party/LwIP/src/core/timeouts.c ****   timeout->arg = arg;
 291              		.loc 1 225 14 is_stmt 0 view .LVU83
 292 0028 C4F80880 		str	r8, [r4, #8]
 226:Middlewares/Third_Party/LwIP/src/core/timeouts.c ****   timeout->time = msecs + diff;
 293              		.loc 1 226 3 is_stmt 1 view .LVU84
 226:Middlewares/Third_Party/LwIP/src/core/timeouts.c ****   timeout->time = msecs + diff;
 294              		.loc 1 226 16 is_stmt 0 view .LVU85
 295 002c E760     		str	r7, [r4, #12]
 227:Middlewares/Third_Party/LwIP/src/core/timeouts.c **** #if LWIP_DEBUG_TIMERNAMES
 296              		.loc 1 227 3 is_stmt 1 view .LVU86
 227:Middlewares/Third_Party/LwIP/src/core/timeouts.c **** #if LWIP_DEBUG_TIMERNAMES
 297              		.loc 1 227 25 is_stmt 0 view .LVU87
 298 002e 2B44     		add	r3, r3, r5
 299              	.LVL22:
 227:Middlewares/Third_Party/LwIP/src/core/timeouts.c **** #if LWIP_DEBUG_TIMERNAMES
 300              		.loc 1 227 17 view .LVU88
 301 0030 6360     		str	r3, [r4, #4]
 234:Middlewares/Third_Party/LwIP/src/core/timeouts.c ****     next_timeout = timeout;
 302              		.loc 1 234 3 is_stmt 1 view .LVU89
 234:Middlewares/Third_Party/LwIP/src/core/timeouts.c ****     next_timeout = timeout;
 303              		.loc 1 234 6 is_stmt 0 view .LVU90
 304 0032 A6B1     		cbz	r6, .L31
 239:Middlewares/Third_Party/LwIP/src/core/timeouts.c ****     next_timeout->time -= msecs;
 305              		.loc 1 239 3 is_stmt 1 view .LVU91
 239:Middlewares/Third_Party/LwIP/src/core/timeouts.c ****     next_timeout->time -= msecs;
 306              		.loc 1 239 19 is_stmt 0 view .LVU92
 307 0034 7068     		ldr	r0, [r6, #4]
 308              	.LVL23:
 239:Middlewares/Third_Party/LwIP/src/core/timeouts.c ****     next_timeout->time -= msecs;
 309              		.loc 1 239 6 view .LVU93
 310 0036 A842     		cmp	r0, r5
 311 0038 22D9     		bls	.L26
 240:Middlewares/Third_Party/LwIP/src/core/timeouts.c ****     timeout->next = next_timeout;
 312              		.loc 1 240 5 is_stmt 1 view .LVU94
 240:Middlewares/Third_Party/LwIP/src/core/timeouts.c ****     timeout->next = next_timeout;
 313              		.loc 1 240 24 is_stmt 0 view .LVU95
 314 003a 401B     		subs	r0, r0, r5
 315 003c 7060     		str	r0, [r6, #4]
ARM GAS  C:\Users\Nina\AppData\Local\Temp\cc9Cbd1F.s 			page 15


 241:Middlewares/Third_Party/LwIP/src/core/timeouts.c ****     next_timeout = timeout;
 316              		.loc 1 241 5 is_stmt 1 view .LVU96
 241:Middlewares/Third_Party/LwIP/src/core/timeouts.c ****     next_timeout = timeout;
 317              		.loc 1 241 19 is_stmt 0 view .LVU97
 318 003e 2660     		str	r6, [r4]
 242:Middlewares/Third_Party/LwIP/src/core/timeouts.c ****   } else {
 319              		.loc 1 242 5 is_stmt 1 view .LVU98
 242:Middlewares/Third_Party/LwIP/src/core/timeouts.c ****   } else {
 320              		.loc 1 242 18 is_stmt 0 view .LVU99
 321 0040 174B     		ldr	r3, .L32
 322 0042 1C60     		str	r4, [r3]
 323              	.LVL24:
 324              	.L15:
 262:Middlewares/Third_Party/LwIP/src/core/timeouts.c **** 
 325              		.loc 1 262 1 view .LVU100
 326 0044 BDE8F081 		pop	{r4, r5, r6, r7, r8, pc}
 327              	.LVL25:
 328              	.L29:
 212:Middlewares/Third_Party/LwIP/src/core/timeouts.c ****     return;
 329              		.loc 1 212 5 is_stmt 1 discriminator 1 view .LVU101
 212:Middlewares/Third_Party/LwIP/src/core/timeouts.c ****     return;
 330              		.loc 1 212 5 discriminator 1 view .LVU102
 212:Middlewares/Third_Party/LwIP/src/core/timeouts.c ****     return;
 331              		.loc 1 212 5 discriminator 1 view .LVU103
 212:Middlewares/Third_Party/LwIP/src/core/timeouts.c ****     return;
 332              		.loc 1 212 5 discriminator 1 view .LVU104
 333 0048 174B     		ldr	r3, .L32+8
 334 004a D422     		movs	r2, #212
 335 004c 1749     		ldr	r1, .L32+12
 336 004e 1848     		ldr	r0, .L32+16
 337              	.LVL26:
 212:Middlewares/Third_Party/LwIP/src/core/timeouts.c ****     return;
 338              		.loc 1 212 5 is_stmt 0 discriminator 1 view .LVU105
 339 0050 FFF7FEFF 		bl	printf
 340              	.LVL27:
 212:Middlewares/Third_Party/LwIP/src/core/timeouts.c ****     return;
 341              		.loc 1 212 5 is_stmt 1 discriminator 1 view .LVU106
 212:Middlewares/Third_Party/LwIP/src/core/timeouts.c ****     return;
 342              		.loc 1 212 5 discriminator 1 view .LVU107
 213:Middlewares/Third_Party/LwIP/src/core/timeouts.c ****   }
 343              		.loc 1 213 5 discriminator 1 view .LVU108
 344 0054 F6E7     		b	.L15
 345              	.LVL28:
 346              	.L30:
 218:Middlewares/Third_Party/LwIP/src/core/timeouts.c ****     timeouts_last_time = now;
 347              		.loc 1 218 5 view .LVU109
 219:Middlewares/Third_Party/LwIP/src/core/timeouts.c ****   } else {
 348              		.loc 1 219 5 view .LVU110
 219:Middlewares/Third_Party/LwIP/src/core/timeouts.c ****   } else {
 349              		.loc 1 219 24 is_stmt 0 view .LVU111
 350 0056 134B     		ldr	r3, .L32+4
 351 0058 1860     		str	r0, [r3]
 218:Middlewares/Third_Party/LwIP/src/core/timeouts.c ****     timeouts_last_time = now;
 352              		.loc 1 218 10 view .LVU112
 353 005a 0023     		movs	r3, #0
 354 005c E2E7     		b	.L19
 355              	.LVL29:
ARM GAS  C:\Users\Nina\AppData\Local\Temp\cc9Cbd1F.s 			page 16


 356              	.L31:
 235:Middlewares/Third_Party/LwIP/src/core/timeouts.c ****     return;
 357              		.loc 1 235 5 is_stmt 1 view .LVU113
 235:Middlewares/Third_Party/LwIP/src/core/timeouts.c ****     return;
 358              		.loc 1 235 18 is_stmt 0 view .LVU114
 359 005e 104B     		ldr	r3, .L32
 360 0060 1C60     		str	r4, [r3]
 236:Middlewares/Third_Party/LwIP/src/core/timeouts.c ****   }
 361              		.loc 1 236 5 is_stmt 1 view .LVU115
 362 0062 EFE7     		b	.L15
 363              	.LVL30:
 364              	.L22:
 247:Middlewares/Third_Party/LwIP/src/core/timeouts.c ****           t->next->time -= timeout->time;
 365              		.loc 1 247 9 view .LVU116
 247:Middlewares/Third_Party/LwIP/src/core/timeouts.c ****           t->next->time -= timeout->time;
 366              		.loc 1 247 12 is_stmt 0 view .LVU117
 367 0064 31B1     		cbz	r1, .L23
 248:Middlewares/Third_Party/LwIP/src/core/timeouts.c ****         } else if (timeout->time > msecs) {
 368              		.loc 1 248 11 is_stmt 1 view .LVU118
 248:Middlewares/Third_Party/LwIP/src/core/timeouts.c ****         } else if (timeout->time > msecs) {
 369              		.loc 1 248 25 is_stmt 0 view .LVU119
 370 0066 4868     		ldr	r0, [r1, #4]
 371 0068 C31A     		subs	r3, r0, r3
 372 006a 4B60     		str	r3, [r1, #4]
 373              	.LVL31:
 374              	.L24:
 256:Middlewares/Third_Party/LwIP/src/core/timeouts.c ****         t->next = timeout;
 375              		.loc 1 256 9 is_stmt 1 view .LVU120
 256:Middlewares/Third_Party/LwIP/src/core/timeouts.c ****         t->next = timeout;
 376              		.loc 1 256 26 is_stmt 0 view .LVU121
 377 006c 1368     		ldr	r3, [r2]
 256:Middlewares/Third_Party/LwIP/src/core/timeouts.c ****         t->next = timeout;
 378              		.loc 1 256 23 view .LVU122
 379 006e 2360     		str	r3, [r4]
 257:Middlewares/Third_Party/LwIP/src/core/timeouts.c ****         break;
 380              		.loc 1 257 9 is_stmt 1 view .LVU123
 257:Middlewares/Third_Party/LwIP/src/core/timeouts.c ****         break;
 381              		.loc 1 257 17 is_stmt 0 view .LVU124
 382 0070 1460     		str	r4, [r2]
 258:Middlewares/Third_Party/LwIP/src/core/timeouts.c ****       }
 383              		.loc 1 258 9 is_stmt 1 view .LVU125
 384 0072 E7E7     		b	.L15
 385              	.LVL32:
 386              	.L23:
 249:Middlewares/Third_Party/LwIP/src/core/timeouts.c ****           /* If this is the case, 'timeouts_last_time' and 'now' differs too much.
 387              		.loc 1 249 16 view .LVU126
 249:Middlewares/Third_Party/LwIP/src/core/timeouts.c ****           /* If this is the case, 'timeouts_last_time' and 'now' differs too much.
 388              		.loc 1 249 19 is_stmt 0 view .LVU127
 389 0074 AB42     		cmp	r3, r5
 390 0076 F9D9     		bls	.L24
 254:Middlewares/Third_Party/LwIP/src/core/timeouts.c ****         }
 391              		.loc 1 254 11 is_stmt 1 view .LVU128
 254:Middlewares/Third_Party/LwIP/src/core/timeouts.c ****         }
 392              		.loc 1 254 47 is_stmt 0 view .LVU129
 393 0078 7368     		ldr	r3, [r6, #4]
 254:Middlewares/Third_Party/LwIP/src/core/timeouts.c ****         }
 394              		.loc 1 254 33 view .LVU130
ARM GAS  C:\Users\Nina\AppData\Local\Temp\cc9Cbd1F.s 			page 17


 395 007a 1D44     		add	r5, r5, r3
 396              	.LVL33:
 254:Middlewares/Third_Party/LwIP/src/core/timeouts.c ****         }
 397              		.loc 1 254 25 view .LVU131
 398 007c 6560     		str	r5, [r4, #4]
 399 007e F5E7     		b	.L24
 400              	.LVL34:
 401              	.L26:
 244:Middlewares/Third_Party/LwIP/src/core/timeouts.c ****       timeout->time -= t->time;
 402              		.loc 1 244 12 view .LVU132
 403 0080 3246     		mov	r2, r6
 404              	.L21:
 405              	.LVL35:
 244:Middlewares/Third_Party/LwIP/src/core/timeouts.c ****       timeout->time -= t->time;
 406              		.loc 1 244 28 is_stmt 1 discriminator 1 view .LVU133
 244:Middlewares/Third_Party/LwIP/src/core/timeouts.c ****       timeout->time -= t->time;
 407              		.loc 1 244 5 is_stmt 0 discriminator 1 view .LVU134
 408 0082 002A     		cmp	r2, #0
 409 0084 DED0     		beq	.L15
 245:Middlewares/Third_Party/LwIP/src/core/timeouts.c ****       if (t->next == NULL || t->next->time > timeout->time) {
 410              		.loc 1 245 7 is_stmt 1 view .LVU135
 245:Middlewares/Third_Party/LwIP/src/core/timeouts.c ****       if (t->next == NULL || t->next->time > timeout->time) {
 411              		.loc 1 245 25 is_stmt 0 view .LVU136
 412 0086 5168     		ldr	r1, [r2, #4]
 245:Middlewares/Third_Party/LwIP/src/core/timeouts.c ****       if (t->next == NULL || t->next->time > timeout->time) {
 413              		.loc 1 245 21 view .LVU137
 414 0088 6368     		ldr	r3, [r4, #4]
 415 008a 5B1A     		subs	r3, r3, r1
 416 008c 6360     		str	r3, [r4, #4]
 246:Middlewares/Third_Party/LwIP/src/core/timeouts.c ****         if (t->next != NULL) {
 417              		.loc 1 246 7 is_stmt 1 view .LVU138
 246:Middlewares/Third_Party/LwIP/src/core/timeouts.c ****         if (t->next != NULL) {
 418              		.loc 1 246 12 is_stmt 0 view .LVU139
 419 008e 1168     		ldr	r1, [r2]
 246:Middlewares/Third_Party/LwIP/src/core/timeouts.c ****         if (t->next != NULL) {
 420              		.loc 1 246 10 view .LVU140
 421 0090 0029     		cmp	r1, #0
 422 0092 E7D0     		beq	.L22
 246:Middlewares/Third_Party/LwIP/src/core/timeouts.c ****         if (t->next != NULL) {
 423              		.loc 1 246 37 discriminator 1 view .LVU141
 424 0094 4868     		ldr	r0, [r1, #4]
 246:Middlewares/Third_Party/LwIP/src/core/timeouts.c ****         if (t->next != NULL) {
 425              		.loc 1 246 27 discriminator 1 view .LVU142
 426 0096 8342     		cmp	r3, r0
 427 0098 E4D3     		bcc	.L22
 244:Middlewares/Third_Party/LwIP/src/core/timeouts.c ****       timeout->time -= t->time;
 428              		.loc 1 244 41 view .LVU143
 429 009a 0A46     		mov	r2, r1
 430              	.LVL36:
 244:Middlewares/Third_Party/LwIP/src/core/timeouts.c ****       timeout->time -= t->time;
 431              		.loc 1 244 41 view .LVU144
 432 009c F1E7     		b	.L21
 433              	.L33:
 434 009e 00BF     		.align	2
 435              	.L32:
 436 00a0 00000000 		.word	.LANCHOR0
 437 00a4 00000000 		.word	.LANCHOR1
ARM GAS  C:\Users\Nina\AppData\Local\Temp\cc9Cbd1F.s 			page 18


 438 00a8 00000000 		.word	.LC0
 439 00ac 34000000 		.word	.LC1
 440 00b0 74000000 		.word	.LC2
 441              		.cfi_endproc
 442              	.LFE169:
 444              		.section	.text.tcp_timer_needed,"ax",%progbits
 445              		.align	1
 446              		.global	tcp_timer_needed
 447              		.syntax unified
 448              		.thumb
 449              		.thumb_func
 450              		.fpu fpv5-sp-d16
 452              	tcp_timer_needed:
 453              	.LFB166:
 148:Middlewares/Third_Party/LwIP/src/core/timeouts.c ****   /* timer is off but needed again? */
 454              		.loc 1 148 1 is_stmt 1 view -0
 455              		.cfi_startproc
 456              		@ args = 0, pretend = 0, frame = 0
 457              		@ frame_needed = 0, uses_anonymous_args = 0
 458 0000 08B5     		push	{r3, lr}
 459              	.LCFI3:
 460              		.cfi_def_cfa_offset 8
 461              		.cfi_offset 3, -8
 462              		.cfi_offset 14, -4
 150:Middlewares/Third_Party/LwIP/src/core/timeouts.c ****     /* enable and start timer */
 463              		.loc 1 150 3 view .LVU146
 150:Middlewares/Third_Party/LwIP/src/core/timeouts.c ****     /* enable and start timer */
 464              		.loc 1 150 7 is_stmt 0 view .LVU147
 465 0002 0A4B     		ldr	r3, .L39
 466 0004 1B68     		ldr	r3, [r3]
 150:Middlewares/Third_Party/LwIP/src/core/timeouts.c ****     /* enable and start timer */
 467              		.loc 1 150 6 view .LVU148
 468 0006 53B9     		cbnz	r3, .L34
 150:Middlewares/Third_Party/LwIP/src/core/timeouts.c ****     /* enable and start timer */
 469              		.loc 1 150 35 discriminator 1 view .LVU149
 470 0008 094B     		ldr	r3, .L39+4
 471 000a 1B68     		ldr	r3, [r3]
 150:Middlewares/Third_Party/LwIP/src/core/timeouts.c ****     /* enable and start timer */
 472              		.loc 1 150 31 discriminator 1 view .LVU150
 473 000c 43B1     		cbz	r3, .L38
 474              	.L36:
 152:Middlewares/Third_Party/LwIP/src/core/timeouts.c ****     sys_timeout(TCP_TMR_INTERVAL, tcpip_tcp_timer, NULL);
 475              		.loc 1 152 5 is_stmt 1 view .LVU151
 152:Middlewares/Third_Party/LwIP/src/core/timeouts.c ****     sys_timeout(TCP_TMR_INTERVAL, tcpip_tcp_timer, NULL);
 476              		.loc 1 152 28 is_stmt 0 view .LVU152
 477 000e 074B     		ldr	r3, .L39
 478 0010 0122     		movs	r2, #1
 479 0012 1A60     		str	r2, [r3]
 153:Middlewares/Third_Party/LwIP/src/core/timeouts.c ****   }
 480              		.loc 1 153 5 is_stmt 1 view .LVU153
 481 0014 0022     		movs	r2, #0
 482 0016 0749     		ldr	r1, .L39+8
 483 0018 FA20     		movs	r0, #250
 484 001a FFF7FEFF 		bl	sys_timeout
 485              	.LVL37:
 486              	.L34:
 155:Middlewares/Third_Party/LwIP/src/core/timeouts.c **** #endif /* LWIP_TCP */
ARM GAS  C:\Users\Nina\AppData\Local\Temp\cc9Cbd1F.s 			page 19


 487              		.loc 1 155 1 is_stmt 0 view .LVU154
 488 001e 08BD     		pop	{r3, pc}
 489              	.L38:
 150:Middlewares/Third_Party/LwIP/src/core/timeouts.c ****     /* enable and start timer */
 490              		.loc 1 150 51 discriminator 2 view .LVU155
 491 0020 054B     		ldr	r3, .L39+12
 492 0022 1B68     		ldr	r3, [r3]
 493 0024 002B     		cmp	r3, #0
 494 0026 F2D1     		bne	.L36
 495 0028 F9E7     		b	.L34
 496              	.L40:
 497 002a 00BF     		.align	2
 498              	.L39:
 499 002c 00000000 		.word	.LANCHOR2
 500 0030 00000000 		.word	tcp_active_pcbs
 501 0034 00000000 		.word	tcpip_tcp_timer
 502 0038 00000000 		.word	tcp_tw_pcbs
 503              		.cfi_endproc
 504              	.LFE166:
 506              		.section	.text.tcpip_tcp_timer,"ax",%progbits
 507              		.align	1
 508              		.syntax unified
 509              		.thumb
 510              		.thumb_func
 511              		.fpu fpv5-sp-d16
 513              	tcpip_tcp_timer:
 514              	.LVL38:
 515              	.LFB165:
 126:Middlewares/Third_Party/LwIP/src/core/timeouts.c ****   LWIP_UNUSED_ARG(arg);
 516              		.loc 1 126 1 is_stmt 1 view -0
 517              		.cfi_startproc
 518              		@ args = 0, pretend = 0, frame = 0
 519              		@ frame_needed = 0, uses_anonymous_args = 0
 126:Middlewares/Third_Party/LwIP/src/core/timeouts.c ****   LWIP_UNUSED_ARG(arg);
 520              		.loc 1 126 1 is_stmt 0 view .LVU157
 521 0000 08B5     		push	{r3, lr}
 522              	.LCFI4:
 523              		.cfi_def_cfa_offset 8
 524              		.cfi_offset 3, -8
 525              		.cfi_offset 14, -4
 127:Middlewares/Third_Party/LwIP/src/core/timeouts.c **** 
 526              		.loc 1 127 3 is_stmt 1 view .LVU158
 130:Middlewares/Third_Party/LwIP/src/core/timeouts.c ****   /* timer still needed? */
 527              		.loc 1 130 3 view .LVU159
 528 0002 FFF7FEFF 		bl	tcp_tmr
 529              	.LVL39:
 132:Middlewares/Third_Party/LwIP/src/core/timeouts.c ****     /* restart timer */
 530              		.loc 1 132 3 view .LVU160
 132:Middlewares/Third_Party/LwIP/src/core/timeouts.c ****     /* restart timer */
 531              		.loc 1 132 7 is_stmt 0 view .LVU161
 532 0006 084B     		ldr	r3, .L47
 533 0008 1B68     		ldr	r3, [r3]
 132:Middlewares/Third_Party/LwIP/src/core/timeouts.c ****     /* restart timer */
 534              		.loc 1 132 6 view .LVU162
 535 000a 2BB1     		cbz	r3, .L46
 536              	.L42:
 134:Middlewares/Third_Party/LwIP/src/core/timeouts.c ****   } else {
ARM GAS  C:\Users\Nina\AppData\Local\Temp\cc9Cbd1F.s 			page 20


 537              		.loc 1 134 5 is_stmt 1 view .LVU163
 538 000c 0022     		movs	r2, #0
 539 000e 0749     		ldr	r1, .L47+4
 540 0010 FA20     		movs	r0, #250
 541 0012 FFF7FEFF 		bl	sys_timeout
 542              	.LVL40:
 543              	.L41:
 139:Middlewares/Third_Party/LwIP/src/core/timeouts.c **** 
 544              		.loc 1 139 1 is_stmt 0 view .LVU164
 545 0016 08BD     		pop	{r3, pc}
 546              	.L46:
 132:Middlewares/Third_Party/LwIP/src/core/timeouts.c ****     /* restart timer */
 547              		.loc 1 132 23 discriminator 1 view .LVU165
 548 0018 054B     		ldr	r3, .L47+8
 549 001a 1B68     		ldr	r3, [r3]
 550 001c 002B     		cmp	r3, #0
 551 001e F5D1     		bne	.L42
 137:Middlewares/Third_Party/LwIP/src/core/timeouts.c ****   }
 552              		.loc 1 137 5 is_stmt 1 view .LVU166
 137:Middlewares/Third_Party/LwIP/src/core/timeouts.c ****   }
 553              		.loc 1 137 28 is_stmt 0 view .LVU167
 554 0020 044B     		ldr	r3, .L47+12
 555 0022 0022     		movs	r2, #0
 556 0024 1A60     		str	r2, [r3]
 139:Middlewares/Third_Party/LwIP/src/core/timeouts.c **** 
 557              		.loc 1 139 1 view .LVU168
 558 0026 F6E7     		b	.L41
 559              	.L48:
 560              		.align	2
 561              	.L47:
 562 0028 00000000 		.word	tcp_active_pcbs
 563 002c 00000000 		.word	tcpip_tcp_timer
 564 0030 00000000 		.word	tcp_tw_pcbs
 565 0034 00000000 		.word	.LANCHOR2
 566              		.cfi_endproc
 567              	.LFE165:
 569              		.section	.text.sys_timeouts_init,"ax",%progbits
 570              		.align	1
 571              		.global	sys_timeouts_init
 572              		.syntax unified
 573              		.thumb
 574              		.thumb_func
 575              		.fpu fpv5-sp-d16
 577              	sys_timeouts_init:
 578              	.LFB168:
 176:Middlewares/Third_Party/LwIP/src/core/timeouts.c ****   size_t i;
 579              		.loc 1 176 1 is_stmt 1 view -0
 580              		.cfi_startproc
 581              		@ args = 0, pretend = 0, frame = 0
 582              		@ frame_needed = 0, uses_anonymous_args = 0
 583 0000 10B5     		push	{r4, lr}
 584              	.LCFI5:
 585              		.cfi_def_cfa_offset 8
 586              		.cfi_offset 4, -8
 587              		.cfi_offset 14, -4
 177:Middlewares/Third_Party/LwIP/src/core/timeouts.c ****   /* tcp_tmr() at index 0 is started on demand */
 588              		.loc 1 177 3 view .LVU170
ARM GAS  C:\Users\Nina\AppData\Local\Temp\cc9Cbd1F.s 			page 21


 179:Middlewares/Third_Party/LwIP/src/core/timeouts.c ****     /* we have to cast via size_t to get rid of const warning
 589              		.loc 1 179 3 view .LVU171
 590              	.LVL41:
 179:Middlewares/Third_Party/LwIP/src/core/timeouts.c ****     /* we have to cast via size_t to get rid of const warning
 591              		.loc 1 179 10 is_stmt 0 view .LVU172
 592 0002 0124     		movs	r4, #1
 593              	.LVL42:
 594              	.L50:
 179:Middlewares/Third_Party/LwIP/src/core/timeouts.c ****     /* we have to cast via size_t to get rid of const warning
 595              		.loc 1 179 32 is_stmt 1 discriminator 1 view .LVU173
 179:Middlewares/Third_Party/LwIP/src/core/timeouts.c ****     /* we have to cast via size_t to get rid of const warning
 596              		.loc 1 179 3 is_stmt 0 discriminator 1 view .LVU174
 597 0004 052C     		cmp	r4, #5
 598 0006 09D8     		bhi	.L53
 182:Middlewares/Third_Party/LwIP/src/core/timeouts.c ****   }
 599              		.loc 1 182 5 is_stmt 1 discriminator 3 view .LVU175
 182:Middlewares/Third_Party/LwIP/src/core/timeouts.c ****   }
 600              		.loc 1 182 66 is_stmt 0 discriminator 3 view .LVU176
 601 0008 074B     		ldr	r3, .L54
 182:Middlewares/Third_Party/LwIP/src/core/timeouts.c ****   }
 602              		.loc 1 182 5 discriminator 3 view .LVU177
 603 000a 03EBC402 		add	r2, r3, r4, lsl #3
 604 000e 0749     		ldr	r1, .L54+4
 605 0010 53F83400 		ldr	r0, [r3, r4, lsl #3]
 606 0014 FFF7FEFF 		bl	sys_timeout
 607              	.LVL43:
 179:Middlewares/Third_Party/LwIP/src/core/timeouts.c ****     /* we have to cast via size_t to get rid of const warning
 608              		.loc 1 179 72 is_stmt 1 discriminator 3 view .LVU178
 179:Middlewares/Third_Party/LwIP/src/core/timeouts.c ****     /* we have to cast via size_t to get rid of const warning
 609              		.loc 1 179 73 is_stmt 0 discriminator 3 view .LVU179
 610 0018 0134     		adds	r4, r4, #1
 611              	.LVL44:
 179:Middlewares/Third_Party/LwIP/src/core/timeouts.c ****     /* we have to cast via size_t to get rid of const warning
 612              		.loc 1 179 73 discriminator 3 view .LVU180
 613 001a F3E7     		b	.L50
 614              	.L53:
 186:Middlewares/Third_Party/LwIP/src/core/timeouts.c **** }
 615              		.loc 1 186 3 is_stmt 1 view .LVU181
 186:Middlewares/Third_Party/LwIP/src/core/timeouts.c **** }
 616              		.loc 1 186 24 is_stmt 0 view .LVU182
 617 001c FFF7FEFF 		bl	sys_now
 618              	.LVL45:
 186:Middlewares/Third_Party/LwIP/src/core/timeouts.c **** }
 619              		.loc 1 186 22 view .LVU183
 620 0020 034B     		ldr	r3, .L54+8
 621 0022 1860     		str	r0, [r3]
 187:Middlewares/Third_Party/LwIP/src/core/timeouts.c **** 
 622              		.loc 1 187 1 view .LVU184
 623 0024 10BD     		pop	{r4, pc}
 624              	.LVL46:
 625              	.L55:
 187:Middlewares/Third_Party/LwIP/src/core/timeouts.c **** 
 626              		.loc 1 187 1 view .LVU185
 627 0026 00BF     		.align	2
 628              	.L54:
 629 0028 00000000 		.word	.LANCHOR3
 630 002c 00000000 		.word	cyclic_timer
ARM GAS  C:\Users\Nina\AppData\Local\Temp\cc9Cbd1F.s 			page 22


 631 0030 00000000 		.word	.LANCHOR1
 632              		.cfi_endproc
 633              	.LFE168:
 635              		.section	.text.cyclic_timer,"ax",%progbits
 636              		.align	1
 637              		.syntax unified
 638              		.thumb
 639              		.thumb_func
 640              		.fpu fpv5-sp-d16
 642              	cyclic_timer:
 643              	.LVL47:
 644              	.LFB167:
 165:Middlewares/Third_Party/LwIP/src/core/timeouts.c ****   const struct lwip_cyclic_timer* cyclic = (const struct lwip_cyclic_timer*)arg;
 645              		.loc 1 165 1 is_stmt 1 view -0
 646              		.cfi_startproc
 647              		@ args = 0, pretend = 0, frame = 0
 648              		@ frame_needed = 0, uses_anonymous_args = 0
 165:Middlewares/Third_Party/LwIP/src/core/timeouts.c ****   const struct lwip_cyclic_timer* cyclic = (const struct lwip_cyclic_timer*)arg;
 649              		.loc 1 165 1 is_stmt 0 view .LVU187
 650 0000 10B5     		push	{r4, lr}
 651              	.LCFI6:
 652              		.cfi_def_cfa_offset 8
 653              		.cfi_offset 4, -8
 654              		.cfi_offset 14, -4
 655 0002 0446     		mov	r4, r0
 166:Middlewares/Third_Party/LwIP/src/core/timeouts.c **** #if LWIP_DEBUG_TIMERNAMES
 656              		.loc 1 166 3 is_stmt 1 view .LVU188
 657              	.LVL48:
 170:Middlewares/Third_Party/LwIP/src/core/timeouts.c ****   sys_timeout(cyclic->interval_ms, cyclic_timer, arg);
 658              		.loc 1 170 3 view .LVU189
 170:Middlewares/Third_Party/LwIP/src/core/timeouts.c ****   sys_timeout(cyclic->interval_ms, cyclic_timer, arg);
 659              		.loc 1 170 9 is_stmt 0 view .LVU190
 660 0004 4368     		ldr	r3, [r0, #4]
 170:Middlewares/Third_Party/LwIP/src/core/timeouts.c ****   sys_timeout(cyclic->interval_ms, cyclic_timer, arg);
 661              		.loc 1 170 3 view .LVU191
 662 0006 9847     		blx	r3
 663              	.LVL49:
 171:Middlewares/Third_Party/LwIP/src/core/timeouts.c **** }
 664              		.loc 1 171 3 is_stmt 1 view .LVU192
 665 0008 2246     		mov	r2, r4
 666 000a 0249     		ldr	r1, .L58
 667 000c 2068     		ldr	r0, [r4]
 668 000e FFF7FEFF 		bl	sys_timeout
 669              	.LVL50:
 172:Middlewares/Third_Party/LwIP/src/core/timeouts.c **** 
 670              		.loc 1 172 1 is_stmt 0 view .LVU193
 671 0012 10BD     		pop	{r4, pc}
 672              	.LVL51:
 673              	.L59:
 172:Middlewares/Third_Party/LwIP/src/core/timeouts.c **** 
 674              		.loc 1 172 1 view .LVU194
 675              		.align	2
 676              	.L58:
 677 0014 00000000 		.word	cyclic_timer
 678              		.cfi_endproc
 679              	.LFE167:
 681              		.section	.text.sys_untimeout,"ax",%progbits
ARM GAS  C:\Users\Nina\AppData\Local\Temp\cc9Cbd1F.s 			page 23


 682              		.align	1
 683              		.global	sys_untimeout
 684              		.syntax unified
 685              		.thumb
 686              		.thumb_func
 687              		.fpu fpv5-sp-d16
 689              	sys_untimeout:
 690              	.LVL52:
 691              	.LFB170:
 274:Middlewares/Third_Party/LwIP/src/core/timeouts.c ****   struct sys_timeo *prev_t, *t;
 692              		.loc 1 274 1 is_stmt 1 view -0
 693              		.cfi_startproc
 694              		@ args = 0, pretend = 0, frame = 0
 695              		@ frame_needed = 0, uses_anonymous_args = 0
 274:Middlewares/Third_Party/LwIP/src/core/timeouts.c ****   struct sys_timeo *prev_t, *t;
 696              		.loc 1 274 1 is_stmt 0 view .LVU196
 697 0000 10B5     		push	{r4, lr}
 698              	.LCFI7:
 699              		.cfi_def_cfa_offset 8
 700              		.cfi_offset 4, -8
 701              		.cfi_offset 14, -4
 702 0002 0C46     		mov	r4, r1
 275:Middlewares/Third_Party/LwIP/src/core/timeouts.c **** 
 703              		.loc 1 275 3 is_stmt 1 view .LVU197
 277:Middlewares/Third_Party/LwIP/src/core/timeouts.c ****     return;
 704              		.loc 1 277 3 view .LVU198
 277:Middlewares/Third_Party/LwIP/src/core/timeouts.c ****     return;
 705              		.loc 1 277 20 is_stmt 0 view .LVU199
 706 0004 0F4B     		ldr	r3, .L70
 707 0006 1968     		ldr	r1, [r3]
 708              	.LVL53:
 277:Middlewares/Third_Party/LwIP/src/core/timeouts.c ****     return;
 709              		.loc 1 277 6 view .LVU200
 710 0008 D9B1     		cbz	r1, .L60
 281:Middlewares/Third_Party/LwIP/src/core/timeouts.c ****     if ((t->h == handler) && (t->arg == arg)) {
 711              		.loc 1 281 33 view .LVU201
 712 000a 0022     		movs	r2, #0
 713 000c 05E0     		b	.L62
 714              	.LVL54:
 715              	.L69:
 286:Middlewares/Third_Party/LwIP/src/core/timeouts.c ****       } else {
 716              		.loc 1 286 9 is_stmt 1 view .LVU202
 286:Middlewares/Third_Party/LwIP/src/core/timeouts.c ****       } else {
 717              		.loc 1 286 25 is_stmt 0 view .LVU203
 718 000e 0A68     		ldr	r2, [r1]
 719              	.LVL55:
 286:Middlewares/Third_Party/LwIP/src/core/timeouts.c ****       } else {
 720              		.loc 1 286 22 view .LVU204
 721 0010 0C4B     		ldr	r3, .L70
 722 0012 1A60     		str	r2, [r3]
 723 0014 0CE0     		b	.L65
 724              	.LVL56:
 725              	.L63:
 281:Middlewares/Third_Party/LwIP/src/core/timeouts.c ****     if ((t->h == handler) && (t->arg == arg)) {
 726              		.loc 1 281 52 is_stmt 1 discriminator 2 view .LVU205
 281:Middlewares/Third_Party/LwIP/src/core/timeouts.c ****     if ((t->h == handler) && (t->arg == arg)) {
 727              		.loc 1 281 59 is_stmt 0 discriminator 2 view .LVU206
ARM GAS  C:\Users\Nina\AppData\Local\Temp\cc9Cbd1F.s 			page 24


 728 0016 0A46     		mov	r2, r1
 281:Middlewares/Third_Party/LwIP/src/core/timeouts.c ****     if ((t->h == handler) && (t->arg == arg)) {
 729              		.loc 1 281 66 discriminator 2 view .LVU207
 730 0018 0968     		ldr	r1, [r1]
 731              	.LVL57:
 732              	.L62:
 281:Middlewares/Third_Party/LwIP/src/core/timeouts.c ****     if ((t->h == handler) && (t->arg == arg)) {
 733              		.loc 1 281 41 is_stmt 1 discriminator 1 view .LVU208
 281:Middlewares/Third_Party/LwIP/src/core/timeouts.c ****     if ((t->h == handler) && (t->arg == arg)) {
 734              		.loc 1 281 3 is_stmt 0 discriminator 1 view .LVU209
 735 001a 91B1     		cbz	r1, .L60
 282:Middlewares/Third_Party/LwIP/src/core/timeouts.c ****       /* We have a match */
 736              		.loc 1 282 5 is_stmt 1 view .LVU210
 282:Middlewares/Third_Party/LwIP/src/core/timeouts.c ****       /* We have a match */
 737              		.loc 1 282 11 is_stmt 0 view .LVU211
 738 001c 8B68     		ldr	r3, [r1, #8]
 282:Middlewares/Third_Party/LwIP/src/core/timeouts.c ****       /* We have a match */
 739              		.loc 1 282 8 view .LVU212
 740 001e 8342     		cmp	r3, r0
 741 0020 F9D1     		bne	.L63
 282:Middlewares/Third_Party/LwIP/src/core/timeouts.c ****       /* We have a match */
 742              		.loc 1 282 32 discriminator 1 view .LVU213
 743 0022 CB68     		ldr	r3, [r1, #12]
 282:Middlewares/Third_Party/LwIP/src/core/timeouts.c ****       /* We have a match */
 744              		.loc 1 282 27 discriminator 1 view .LVU214
 745 0024 A342     		cmp	r3, r4
 746 0026 F6D1     		bne	.L63
 285:Middlewares/Third_Party/LwIP/src/core/timeouts.c ****         next_timeout = t->next;
 747              		.loc 1 285 7 is_stmt 1 view .LVU215
 285:Middlewares/Third_Party/LwIP/src/core/timeouts.c ****         next_timeout = t->next;
 748              		.loc 1 285 10 is_stmt 0 view .LVU216
 749 0028 002A     		cmp	r2, #0
 750 002a F0D0     		beq	.L69
 288:Middlewares/Third_Party/LwIP/src/core/timeouts.c ****       }
 751              		.loc 1 288 9 is_stmt 1 view .LVU217
 288:Middlewares/Third_Party/LwIP/src/core/timeouts.c ****       }
 752              		.loc 1 288 25 is_stmt 0 view .LVU218
 753 002c 0B68     		ldr	r3, [r1]
 288:Middlewares/Third_Party/LwIP/src/core/timeouts.c ****       }
 754              		.loc 1 288 22 view .LVU219
 755 002e 1360     		str	r3, [r2]
 756              	.LVL58:
 757              	.L65:
 291:Middlewares/Third_Party/LwIP/src/core/timeouts.c ****         t->next->time += t->time;
 758              		.loc 1 291 7 is_stmt 1 view .LVU220
 291:Middlewares/Third_Party/LwIP/src/core/timeouts.c ****         t->next->time += t->time;
 759              		.loc 1 291 12 is_stmt 0 view .LVU221
 760 0030 0B68     		ldr	r3, [r1]
 291:Middlewares/Third_Party/LwIP/src/core/timeouts.c ****         t->next->time += t->time;
 761              		.loc 1 291 10 view .LVU222
 762 0032 1BB1     		cbz	r3, .L66
 292:Middlewares/Third_Party/LwIP/src/core/timeouts.c ****       }
 763              		.loc 1 292 9 is_stmt 1 view .LVU223
 292:Middlewares/Third_Party/LwIP/src/core/timeouts.c ****       }
 764              		.loc 1 292 27 is_stmt 0 view .LVU224
 765 0034 4868     		ldr	r0, [r1, #4]
 766              	.LVL59:
ARM GAS  C:\Users\Nina\AppData\Local\Temp\cc9Cbd1F.s 			page 25


 292:Middlewares/Third_Party/LwIP/src/core/timeouts.c ****       }
 767              		.loc 1 292 23 view .LVU225
 768 0036 5A68     		ldr	r2, [r3, #4]
 769 0038 0244     		add	r2, r2, r0
 770 003a 5A60     		str	r2, [r3, #4]
 771              	.L66:
 294:Middlewares/Third_Party/LwIP/src/core/timeouts.c ****       return;
 772              		.loc 1 294 7 is_stmt 1 view .LVU226
 773 003c 0A20     		movs	r0, #10
 774 003e FFF7FEFF 		bl	memp_free
 775              	.LVL60:
 295:Middlewares/Third_Party/LwIP/src/core/timeouts.c ****     }
 776              		.loc 1 295 7 view .LVU227
 777              	.L60:
 299:Middlewares/Third_Party/LwIP/src/core/timeouts.c **** 
 778              		.loc 1 299 1 is_stmt 0 view .LVU228
 779 0042 10BD     		pop	{r4, pc}
 780              	.LVL61:
 781              	.L71:
 299:Middlewares/Third_Party/LwIP/src/core/timeouts.c **** 
 782              		.loc 1 299 1 view .LVU229
 783              		.align	2
 784              	.L70:
 785 0044 00000000 		.word	.LANCHOR0
 786              		.cfi_endproc
 787              	.LFE170:
 789              		.section	.text.sys_restart_timeouts,"ax",%progbits
 790              		.align	1
 791              		.global	sys_restart_timeouts
 792              		.syntax unified
 793              		.thumb
 794              		.thumb_func
 795              		.fpu fpv5-sp-d16
 797              	sys_restart_timeouts:
 798              	.LFB172:
 370:Middlewares/Third_Party/LwIP/src/core/timeouts.c ****   timeouts_last_time = sys_now();
 799              		.loc 1 370 1 is_stmt 1 view -0
 800              		.cfi_startproc
 801              		@ args = 0, pretend = 0, frame = 0
 802              		@ frame_needed = 0, uses_anonymous_args = 0
 803 0000 08B5     		push	{r3, lr}
 804              	.LCFI8:
 805              		.cfi_def_cfa_offset 8
 806              		.cfi_offset 3, -8
 807              		.cfi_offset 14, -4
 371:Middlewares/Third_Party/LwIP/src/core/timeouts.c **** }
 808              		.loc 1 371 3 view .LVU231
 371:Middlewares/Third_Party/LwIP/src/core/timeouts.c **** }
 809              		.loc 1 371 24 is_stmt 0 view .LVU232
 810 0002 FFF7FEFF 		bl	sys_now
 811              	.LVL62:
 371:Middlewares/Third_Party/LwIP/src/core/timeouts.c **** }
 812              		.loc 1 371 22 view .LVU233
 813 0006 014B     		ldr	r3, .L74
 814 0008 1860     		str	r0, [r3]
 372:Middlewares/Third_Party/LwIP/src/core/timeouts.c **** 
 815              		.loc 1 372 1 view .LVU234
ARM GAS  C:\Users\Nina\AppData\Local\Temp\cc9Cbd1F.s 			page 26


 816 000a 08BD     		pop	{r3, pc}
 817              	.L75:
 818              		.align	2
 819              	.L74:
 820 000c 00000000 		.word	.LANCHOR1
 821              		.cfi_endproc
 822              	.LFE172:
 824              		.section	.text.sys_timeouts_mbox_fetch,"ax",%progbits
 825              		.align	1
 826              		.global	sys_timeouts_mbox_fetch
 827              		.syntax unified
 828              		.thumb
 829              		.thumb_func
 830              		.fpu fpv5-sp-d16
 832              	sys_timeouts_mbox_fetch:
 833              	.LVL63:
 834              	.LFB174:
 394:Middlewares/Third_Party/LwIP/src/core/timeouts.c **** 
 395:Middlewares/Third_Party/LwIP/src/core/timeouts.c **** #if !NO_SYS
 396:Middlewares/Third_Party/LwIP/src/core/timeouts.c **** 
 397:Middlewares/Third_Party/LwIP/src/core/timeouts.c **** /**
 398:Middlewares/Third_Party/LwIP/src/core/timeouts.c ****  * Wait (forever) for a message to arrive in an mbox.
 399:Middlewares/Third_Party/LwIP/src/core/timeouts.c ****  * While waiting, timeouts are processed.
 400:Middlewares/Third_Party/LwIP/src/core/timeouts.c ****  *
 401:Middlewares/Third_Party/LwIP/src/core/timeouts.c ****  * @param mbox the mbox to fetch the message from
 402:Middlewares/Third_Party/LwIP/src/core/timeouts.c ****  * @param msg the place to store the message
 403:Middlewares/Third_Party/LwIP/src/core/timeouts.c ****  */
 404:Middlewares/Third_Party/LwIP/src/core/timeouts.c **** void
 405:Middlewares/Third_Party/LwIP/src/core/timeouts.c **** sys_timeouts_mbox_fetch(sys_mbox_t *mbox, void **msg)
 406:Middlewares/Third_Party/LwIP/src/core/timeouts.c **** {
 835              		.loc 1 406 1 is_stmt 1 view -0
 836              		.cfi_startproc
 837              		@ args = 0, pretend = 0, frame = 0
 838              		@ frame_needed = 0, uses_anonymous_args = 0
 839              		.loc 1 406 1 is_stmt 0 view .LVU236
 840 0000 38B5     		push	{r3, r4, r5, lr}
 841              	.LCFI9:
 842              		.cfi_def_cfa_offset 16
 843              		.cfi_offset 3, -16
 844              		.cfi_offset 4, -12
 845              		.cfi_offset 5, -8
 846              		.cfi_offset 14, -4
 847 0002 0446     		mov	r4, r0
 848 0004 0D46     		mov	r5, r1
 849 0006 07E0     		b	.L77
 850              	.LVL64:
 851              	.L82:
 407:Middlewares/Third_Party/LwIP/src/core/timeouts.c ****   u32_t sleeptime;
 408:Middlewares/Third_Party/LwIP/src/core/timeouts.c **** 
 409:Middlewares/Third_Party/LwIP/src/core/timeouts.c **** again:
 410:Middlewares/Third_Party/LwIP/src/core/timeouts.c ****   if (!next_timeout) {
 411:Middlewares/Third_Party/LwIP/src/core/timeouts.c ****     sys_arch_mbox_fetch(mbox, msg, 0);
 852              		.loc 1 411 5 is_stmt 1 view .LVU237
 853 0008 0022     		movs	r2, #0
 854 000a 2946     		mov	r1, r5
 855 000c 2046     		mov	r0, r4
 856 000e FFF7FEFF 		bl	sys_arch_mbox_fetch
ARM GAS  C:\Users\Nina\AppData\Local\Temp\cc9Cbd1F.s 			page 27


 857              	.LVL65:
 412:Middlewares/Third_Party/LwIP/src/core/timeouts.c ****     return;
 858              		.loc 1 412 5 view .LVU238
 859              	.L76:
 413:Middlewares/Third_Party/LwIP/src/core/timeouts.c ****   }
 414:Middlewares/Third_Party/LwIP/src/core/timeouts.c **** 
 415:Middlewares/Third_Party/LwIP/src/core/timeouts.c ****   sleeptime = sys_timeouts_sleeptime();
 416:Middlewares/Third_Party/LwIP/src/core/timeouts.c ****   if (sleeptime == 0 || sys_arch_mbox_fetch(mbox, msg, sleeptime) == SYS_ARCH_TIMEOUT) {
 417:Middlewares/Third_Party/LwIP/src/core/timeouts.c ****     /* If a SYS_ARCH_TIMEOUT value is returned, a timeout occurred
 418:Middlewares/Third_Party/LwIP/src/core/timeouts.c ****        before a message could be fetched. */
 419:Middlewares/Third_Party/LwIP/src/core/timeouts.c ****     sys_check_timeouts();
 420:Middlewares/Third_Party/LwIP/src/core/timeouts.c ****     /* We try again to fetch a message from the mbox. */
 421:Middlewares/Third_Party/LwIP/src/core/timeouts.c ****     goto again;
 422:Middlewares/Third_Party/LwIP/src/core/timeouts.c ****   }
 423:Middlewares/Third_Party/LwIP/src/core/timeouts.c **** }
 860              		.loc 1 423 1 is_stmt 0 view .LVU239
 861 0012 38BD     		pop	{r3, r4, r5, pc}
 862              	.LVL66:
 863              	.L80:
 419:Middlewares/Third_Party/LwIP/src/core/timeouts.c ****     /* We try again to fetch a message from the mbox. */
 864              		.loc 1 419 5 is_stmt 1 view .LVU240
 865 0014 FFF7FEFF 		bl	sys_check_timeouts
 866              	.LVL67:
 421:Middlewares/Third_Party/LwIP/src/core/timeouts.c ****   }
 867              		.loc 1 421 5 view .LVU241
 868              	.L77:
 407:Middlewares/Third_Party/LwIP/src/core/timeouts.c **** 
 869              		.loc 1 407 3 view .LVU242
 410:Middlewares/Third_Party/LwIP/src/core/timeouts.c ****     sys_arch_mbox_fetch(mbox, msg, 0);
 870              		.loc 1 410 3 view .LVU243
 410:Middlewares/Third_Party/LwIP/src/core/timeouts.c ****     sys_arch_mbox_fetch(mbox, msg, 0);
 871              		.loc 1 410 7 is_stmt 0 view .LVU244
 872 0018 084B     		ldr	r3, .L83
 873 001a 1B68     		ldr	r3, [r3]
 410:Middlewares/Third_Party/LwIP/src/core/timeouts.c ****     sys_arch_mbox_fetch(mbox, msg, 0);
 874              		.loc 1 410 6 view .LVU245
 875 001c 002B     		cmp	r3, #0
 876 001e F3D0     		beq	.L82
 415:Middlewares/Third_Party/LwIP/src/core/timeouts.c ****   if (sleeptime == 0 || sys_arch_mbox_fetch(mbox, msg, sleeptime) == SYS_ARCH_TIMEOUT) {
 877              		.loc 1 415 3 is_stmt 1 view .LVU246
 415:Middlewares/Third_Party/LwIP/src/core/timeouts.c ****   if (sleeptime == 0 || sys_arch_mbox_fetch(mbox, msg, sleeptime) == SYS_ARCH_TIMEOUT) {
 878              		.loc 1 415 15 is_stmt 0 view .LVU247
 879 0020 FFF7FEFF 		bl	sys_timeouts_sleeptime
 880              	.LVL68:
 416:Middlewares/Third_Party/LwIP/src/core/timeouts.c ****     /* If a SYS_ARCH_TIMEOUT value is returned, a timeout occurred
 881              		.loc 1 416 3 is_stmt 1 view .LVU248
 416:Middlewares/Third_Party/LwIP/src/core/timeouts.c ****     /* If a SYS_ARCH_TIMEOUT value is returned, a timeout occurred
 882              		.loc 1 416 6 is_stmt 0 view .LVU249
 883 0024 0246     		mov	r2, r0
 884 0026 0028     		cmp	r0, #0
 885 0028 F4D0     		beq	.L80
 416:Middlewares/Third_Party/LwIP/src/core/timeouts.c ****     /* If a SYS_ARCH_TIMEOUT value is returned, a timeout occurred
 886              		.loc 1 416 25 discriminator 1 view .LVU250
 887 002a 2946     		mov	r1, r5
 888 002c 2046     		mov	r0, r4
 889              	.LVL69:
 416:Middlewares/Third_Party/LwIP/src/core/timeouts.c ****     /* If a SYS_ARCH_TIMEOUT value is returned, a timeout occurred
ARM GAS  C:\Users\Nina\AppData\Local\Temp\cc9Cbd1F.s 			page 28


 890              		.loc 1 416 25 discriminator 1 view .LVU251
 891 002e FFF7FEFF 		bl	sys_arch_mbox_fetch
 892              	.LVL70:
 416:Middlewares/Third_Party/LwIP/src/core/timeouts.c ****     /* If a SYS_ARCH_TIMEOUT value is returned, a timeout occurred
 893              		.loc 1 416 22 discriminator 1 view .LVU252
 894 0032 B0F1FF3F 		cmp	r0, #-1
 895 0036 EDD0     		beq	.L80
 896 0038 EBE7     		b	.L76
 897              	.L84:
 898 003a 00BF     		.align	2
 899              	.L83:
 900 003c 00000000 		.word	.LANCHOR0
 901              		.cfi_endproc
 902              	.LFE174:
 904              		.global	lwip_cyclic_timers
 905              		.section	.bss.next_timeout,"aw",%nobits
 906              		.align	2
 907              		.set	.LANCHOR0,. + 0
 910              	next_timeout:
 911 0000 00000000 		.space	4
 912              		.section	.bss.tcpip_tcp_timer_active,"aw",%nobits
 913              		.align	2
 914              		.set	.LANCHOR2,. + 0
 917              	tcpip_tcp_timer_active:
 918 0000 00000000 		.space	4
 919              		.section	.bss.timeouts_last_time,"aw",%nobits
 920              		.align	2
 921              		.set	.LANCHOR1,. + 0
 924              	timeouts_last_time:
 925 0000 00000000 		.space	4
 926              		.section	.rodata.lwip_cyclic_timers,"a"
 927              		.align	2
 928              		.set	.LANCHOR3,. + 0
 931              	lwip_cyclic_timers:
 932 0000 FA000000 		.word	250
 933 0004 00000000 		.word	tcp_tmr
 934 0008 E8030000 		.word	1000
 935 000c 00000000 		.word	ip_reass_tmr
 936 0010 E8030000 		.word	1000
 937 0014 00000000 		.word	etharp_tmr
 938 0018 60EA0000 		.word	60000
 939 001c 00000000 		.word	dhcp_coarse_tmr
 940 0020 F4010000 		.word	500
 941 0024 00000000 		.word	dhcp_fine_tmr
 942 0028 E8030000 		.word	1000
 943 002c 00000000 		.word	dns_tmr
 944              		.text
 945              	.Letext0:
 946              		.file 2 "c:\\program files (x86)\\gnu tools arm embedded\\9 2019-q4-major\\arm-none-eabi\\include\
 947              		.file 3 "c:\\program files (x86)\\gnu tools arm embedded\\9 2019-q4-major\\arm-none-eabi\\include\
 948              		.file 4 "Drivers/CMSIS/Include/core_cm7.h"
 949              		.file 5 "Drivers/CMSIS/Device/ST/STM32F7xx/Include/system_stm32f7xx.h"
 950              		.file 6 "c:\\program files (x86)\\gnu tools arm embedded\\9 2019-q4-major\\lib\\gcc\\arm-none-eabi
 951              		.file 7 "c:\\program files (x86)\\gnu tools arm embedded\\9 2019-q4-major\\arm-none-eabi\\include\
 952              		.file 8 "c:\\program files (x86)\\gnu tools arm embedded\\9 2019-q4-major\\arm-none-eabi\\include\
 953              		.file 9 "c:\\program files (x86)\\gnu tools arm embedded\\9 2019-q4-major\\arm-none-eabi\\include\
 954              		.file 10 "c:\\program files (x86)\\gnu tools arm embedded\\9 2019-q4-major\\arm-none-eabi\\include
ARM GAS  C:\Users\Nina\AppData\Local\Temp\cc9Cbd1F.s 			page 29


 955              		.file 11 "c:\\program files (x86)\\gnu tools arm embedded\\9 2019-q4-major\\arm-none-eabi\\include
 956              		.file 12 "Middlewares/Third_Party/LwIP/src/include/lwip/arch.h"
 957              		.file 13 "Middlewares/Third_Party/LwIP/src/include/lwip/err.h"
 958              		.file 14 "Middlewares/Third_Party/FreeRTOS/Source/include/queue.h"
 959              		.file 15 "Middlewares/Third_Party/FreeRTOS/Source/include/semphr.h"
 960              		.file 16 "Middlewares/Third_Party/FreeRTOS/Source/CMSIS_RTOS/cmsis_os.h"
 961              		.file 17 "Middlewares/Third_Party/LwIP/system/arch/sys_arch.h"
 962              		.file 18 "Middlewares/Third_Party/LwIP/src/include/lwip/timeouts.h"
 963              		.file 19 "Middlewares/Third_Party/LwIP/src/include/lwip/pbuf.h"
 964              		.file 20 "Middlewares/Third_Party/LwIP/src/include/lwip/ip4_addr.h"
 965              		.file 21 "Middlewares/Third_Party/LwIP/src/include/lwip/ip_addr.h"
 966              		.file 22 "Middlewares/Third_Party/LwIP/src/include/lwip/priv/memp_priv.h"
 967              		.file 23 "Middlewares/Third_Party/LwIP/src/include/lwip/memp.h"
 968              		.file 24 "Middlewares/Third_Party/LwIP/src/include/lwip/netif.h"
 969              		.file 25 "Middlewares/Third_Party/LwIP/src/include/lwip/prot/ip4.h"
 970              		.file 26 "Middlewares/Third_Party/LwIP/src/include/lwip/ip.h"
 971              		.file 27 "Middlewares/Third_Party/LwIP/src/include/lwip/tcp.h"
 972              		.file 28 "Middlewares/Third_Party/LwIP/src/include/lwip/priv/tcp_priv.h"
 973              		.file 29 "Middlewares/Third_Party/LwIP/src/include/lwip/prot/tcp.h"
 974              		.file 30 "Middlewares/Third_Party/LwIP/src/include/lwip/tcpip.h"
 975              		.file 31 "Middlewares/Third_Party/LwIP/src/include/lwip/udp.h"
 976              		.file 32 "Middlewares/Third_Party/LwIP/src/include/lwip/dns.h"
 977              		.file 33 "Middlewares/Third_Party/LwIP/src/include/lwip/sys.h"
 978              		.file 34 "c:\\program files (x86)\\gnu tools arm embedded\\9 2019-q4-major\\arm-none-eabi\\include
ARM GAS  C:\Users\Nina\AppData\Local\Temp\cc9Cbd1F.s 			page 30

