ARM GAS  C:\Users\Nina\AppData\Local\Temp\ccjD0KBj.s 			page 1


   1              		.cpu cortex-m7
   2              		.eabi_attribute 27, 1
   3              		.eabi_attribute 28, 1
   4              		.eabi_attribute 20, 1
   5              		.eabi_attribute 21, 1
   6              		.eabi_attribute 23, 3
   7              		.eabi_attribute 24, 1
   8              		.eabi_attribute 25, 1
   9              		.eabi_attribute 26, 1
  10              		.eabi_attribute 30, 1
  11              		.eabi_attribute 34, 1
  12              		.eabi_attribute 18, 4
  13              		.file	"usbh_core.c"
  14              		.section	.rodata.str1.4,"aMS",%progbits,1
  15              		.align	2
  16              	.LC1:
  17 0000 55534248 		.ascii	"USBH_Thread\000"
  17      5F546872 
  17      65616400 
  18              		.text
  19              	.Ltext0:
  20              		.cfi_sections	.debug_frame
  21              		.section	.text.DeInitStateMachine,"ax",%progbits
  22              		.align	1
  23              		.arch armv7e-m
  24              		.syntax unified
  25              		.thumb
  26              		.thumb_func
  27              		.fpu fpv5-sp-d16
  29              	DeInitStateMachine:
  30              	.LVL0:
  31              	.LFB145:
  32              		.file 1 "Middlewares/ST/STM32_USB_Host_Library/Core/Src/usbh_core.c"
   1:Middlewares/ST/STM32_USB_Host_Library/Core/Src/usbh_core.c **** /**
   2:Middlewares/ST/STM32_USB_Host_Library/Core/Src/usbh_core.c ****   ******************************************************************************
   3:Middlewares/ST/STM32_USB_Host_Library/Core/Src/usbh_core.c ****   * @file    usbh_core.c
   4:Middlewares/ST/STM32_USB_Host_Library/Core/Src/usbh_core.c ****   * @author  MCD Application Team
   5:Middlewares/ST/STM32_USB_Host_Library/Core/Src/usbh_core.c ****   * @brief   This file implements the functions for the core state machine process
   6:Middlewares/ST/STM32_USB_Host_Library/Core/Src/usbh_core.c ****   *          the enumeration and the control transfer process
   7:Middlewares/ST/STM32_USB_Host_Library/Core/Src/usbh_core.c ****   ******************************************************************************
   8:Middlewares/ST/STM32_USB_Host_Library/Core/Src/usbh_core.c ****   * @attention
   9:Middlewares/ST/STM32_USB_Host_Library/Core/Src/usbh_core.c ****   *
  10:Middlewares/ST/STM32_USB_Host_Library/Core/Src/usbh_core.c ****   * <h2><center>&copy; Copyright (c) 2017 STMicroelectronics International N.V.
  11:Middlewares/ST/STM32_USB_Host_Library/Core/Src/usbh_core.c ****   * All rights reserved.</center></h2>
  12:Middlewares/ST/STM32_USB_Host_Library/Core/Src/usbh_core.c ****   *
  13:Middlewares/ST/STM32_USB_Host_Library/Core/Src/usbh_core.c ****   * Redistribution and use in source and binary forms, with or without
  14:Middlewares/ST/STM32_USB_Host_Library/Core/Src/usbh_core.c ****   * modification, are permitted, provided that the following conditions are met:
  15:Middlewares/ST/STM32_USB_Host_Library/Core/Src/usbh_core.c ****   *
  16:Middlewares/ST/STM32_USB_Host_Library/Core/Src/usbh_core.c ****   * 1. Redistribution of source code must retain the above copyright notice,
  17:Middlewares/ST/STM32_USB_Host_Library/Core/Src/usbh_core.c ****   *    this list of conditions and the following disclaimer.
  18:Middlewares/ST/STM32_USB_Host_Library/Core/Src/usbh_core.c ****   * 2. Redistributions in binary form must reproduce the above copyright notice,
  19:Middlewares/ST/STM32_USB_Host_Library/Core/Src/usbh_core.c ****   *    this list of conditions and the following disclaimer in the documentation
  20:Middlewares/ST/STM32_USB_Host_Library/Core/Src/usbh_core.c ****   *    and/or other materials provided with the distribution.
  21:Middlewares/ST/STM32_USB_Host_Library/Core/Src/usbh_core.c ****   * 3. Neither the name of STMicroelectronics nor the names of other
  22:Middlewares/ST/STM32_USB_Host_Library/Core/Src/usbh_core.c ****   *    contributors to this software may be used to endorse or promote products
  23:Middlewares/ST/STM32_USB_Host_Library/Core/Src/usbh_core.c ****   *    derived from this software without specific written permission.
  24:Middlewares/ST/STM32_USB_Host_Library/Core/Src/usbh_core.c ****   * 4. This software, including modifications and/or derivative works of this
ARM GAS  C:\Users\Nina\AppData\Local\Temp\ccjD0KBj.s 			page 2


  25:Middlewares/ST/STM32_USB_Host_Library/Core/Src/usbh_core.c ****   *    software, must execute solely and exclusively on microcontroller or
  26:Middlewares/ST/STM32_USB_Host_Library/Core/Src/usbh_core.c ****   *    microprocessor devices manufactured by or for STMicroelectronics.
  27:Middlewares/ST/STM32_USB_Host_Library/Core/Src/usbh_core.c ****   * 5. Redistribution and use of this software other than as permitted under
  28:Middlewares/ST/STM32_USB_Host_Library/Core/Src/usbh_core.c ****   *    this license is void and will automatically terminate your rights under
  29:Middlewares/ST/STM32_USB_Host_Library/Core/Src/usbh_core.c ****   *    this license.
  30:Middlewares/ST/STM32_USB_Host_Library/Core/Src/usbh_core.c ****   *
  31:Middlewares/ST/STM32_USB_Host_Library/Core/Src/usbh_core.c ****   * THIS SOFTWARE IS PROVIDED BY STMICROELECTRONICS AND CONTRIBUTORS "AS IS"
  32:Middlewares/ST/STM32_USB_Host_Library/Core/Src/usbh_core.c ****   * AND ANY EXPRESS, IMPLIED OR STATUTORY WARRANTIES, INCLUDING, BUT NOT
  33:Middlewares/ST/STM32_USB_Host_Library/Core/Src/usbh_core.c ****   * LIMITED TO, THE IMPLIED WARRANTIES OF MERCHANTABILITY, FITNESS FOR A
  34:Middlewares/ST/STM32_USB_Host_Library/Core/Src/usbh_core.c ****   * PARTICULAR PURPOSE AND NON-INFRINGEMENT OF THIRD PARTY INTELLECTUAL PROPERTY
  35:Middlewares/ST/STM32_USB_Host_Library/Core/Src/usbh_core.c ****   * RIGHTS ARE DISCLAIMED TO THE FULLEST EXTENT PERMITTED BY LAW. IN NO EVENT
  36:Middlewares/ST/STM32_USB_Host_Library/Core/Src/usbh_core.c ****   * SHALL STMICROELECTRONICS OR CONTRIBUTORS BE LIABLE FOR ANY DIRECT, INDIRECT,
  37:Middlewares/ST/STM32_USB_Host_Library/Core/Src/usbh_core.c ****   * INCIDENTAL, SPECIAL, EXEMPLARY, OR CONSEQUENTIAL DAMAGES (INCLUDING, BUT NOT
  38:Middlewares/ST/STM32_USB_Host_Library/Core/Src/usbh_core.c ****   * LIMITED TO, PROCUREMENT OF SUBSTITUTE GOODS OR SERVICES; LOSS OF USE, DATA,
  39:Middlewares/ST/STM32_USB_Host_Library/Core/Src/usbh_core.c ****   * OR PROFITS; OR BUSINESS INTERRUPTION) HOWEVER CAUSED AND ON ANY THEORY OF
  40:Middlewares/ST/STM32_USB_Host_Library/Core/Src/usbh_core.c ****   * LIABILITY, WHETHER IN CONTRACT, STRICT LIABILITY, OR TORT (INCLUDING
  41:Middlewares/ST/STM32_USB_Host_Library/Core/Src/usbh_core.c ****   * NEGLIGENCE OR OTHERWISE) ARISING IN ANY WAY OUT OF THE USE OF THIS SOFTWARE,
  42:Middlewares/ST/STM32_USB_Host_Library/Core/Src/usbh_core.c ****   * EVEN IF ADVISED OF THE POSSIBILITY OF SUCH DAMAGE.
  43:Middlewares/ST/STM32_USB_Host_Library/Core/Src/usbh_core.c ****   *
  44:Middlewares/ST/STM32_USB_Host_Library/Core/Src/usbh_core.c ****   ******************************************************************************
  45:Middlewares/ST/STM32_USB_Host_Library/Core/Src/usbh_core.c ****   */
  46:Middlewares/ST/STM32_USB_Host_Library/Core/Src/usbh_core.c **** /* Includes ------------------------------------------------------------------*/
  47:Middlewares/ST/STM32_USB_Host_Library/Core/Src/usbh_core.c **** 
  48:Middlewares/ST/STM32_USB_Host_Library/Core/Src/usbh_core.c **** #include "usbh_core.h"
  49:Middlewares/ST/STM32_USB_Host_Library/Core/Src/usbh_core.c **** 
  50:Middlewares/ST/STM32_USB_Host_Library/Core/Src/usbh_core.c **** 
  51:Middlewares/ST/STM32_USB_Host_Library/Core/Src/usbh_core.c **** /** @addtogroup USBH_LIB
  52:Middlewares/ST/STM32_USB_Host_Library/Core/Src/usbh_core.c ****   * @{
  53:Middlewares/ST/STM32_USB_Host_Library/Core/Src/usbh_core.c ****   */
  54:Middlewares/ST/STM32_USB_Host_Library/Core/Src/usbh_core.c **** 
  55:Middlewares/ST/STM32_USB_Host_Library/Core/Src/usbh_core.c **** /** @addtogroup USBH_LIB_CORE
  56:Middlewares/ST/STM32_USB_Host_Library/Core/Src/usbh_core.c ****   * @{
  57:Middlewares/ST/STM32_USB_Host_Library/Core/Src/usbh_core.c ****   */
  58:Middlewares/ST/STM32_USB_Host_Library/Core/Src/usbh_core.c **** 
  59:Middlewares/ST/STM32_USB_Host_Library/Core/Src/usbh_core.c **** /** @defgroup USBH_CORE
  60:Middlewares/ST/STM32_USB_Host_Library/Core/Src/usbh_core.c ****   * @brief This file handles the basic enumeration when a device is connected
  61:Middlewares/ST/STM32_USB_Host_Library/Core/Src/usbh_core.c ****   *          to the host.
  62:Middlewares/ST/STM32_USB_Host_Library/Core/Src/usbh_core.c ****   * @{
  63:Middlewares/ST/STM32_USB_Host_Library/Core/Src/usbh_core.c ****   */
  64:Middlewares/ST/STM32_USB_Host_Library/Core/Src/usbh_core.c **** 
  65:Middlewares/ST/STM32_USB_Host_Library/Core/Src/usbh_core.c **** 
  66:Middlewares/ST/STM32_USB_Host_Library/Core/Src/usbh_core.c **** /** @defgroup USBH_CORE_Private_Defines
  67:Middlewares/ST/STM32_USB_Host_Library/Core/Src/usbh_core.c ****   * @{
  68:Middlewares/ST/STM32_USB_Host_Library/Core/Src/usbh_core.c ****   */
  69:Middlewares/ST/STM32_USB_Host_Library/Core/Src/usbh_core.c **** #define USBH_ADDRESS_DEFAULT                     0x00U
  70:Middlewares/ST/STM32_USB_Host_Library/Core/Src/usbh_core.c **** #define USBH_ADDRESS_ASSIGNED                    0x01U
  71:Middlewares/ST/STM32_USB_Host_Library/Core/Src/usbh_core.c **** #define USBH_MPS_DEFAULT                         0x40U
  72:Middlewares/ST/STM32_USB_Host_Library/Core/Src/usbh_core.c **** /**
  73:Middlewares/ST/STM32_USB_Host_Library/Core/Src/usbh_core.c ****   * @}
  74:Middlewares/ST/STM32_USB_Host_Library/Core/Src/usbh_core.c ****   */
  75:Middlewares/ST/STM32_USB_Host_Library/Core/Src/usbh_core.c **** 
  76:Middlewares/ST/STM32_USB_Host_Library/Core/Src/usbh_core.c **** /** @defgroup USBH_CORE_Private_Macros
  77:Middlewares/ST/STM32_USB_Host_Library/Core/Src/usbh_core.c ****   * @{
  78:Middlewares/ST/STM32_USB_Host_Library/Core/Src/usbh_core.c ****   */
  79:Middlewares/ST/STM32_USB_Host_Library/Core/Src/usbh_core.c **** /**
  80:Middlewares/ST/STM32_USB_Host_Library/Core/Src/usbh_core.c ****   * @}
  81:Middlewares/ST/STM32_USB_Host_Library/Core/Src/usbh_core.c ****   */
ARM GAS  C:\Users\Nina\AppData\Local\Temp\ccjD0KBj.s 			page 3


  82:Middlewares/ST/STM32_USB_Host_Library/Core/Src/usbh_core.c **** 
  83:Middlewares/ST/STM32_USB_Host_Library/Core/Src/usbh_core.c **** 
  84:Middlewares/ST/STM32_USB_Host_Library/Core/Src/usbh_core.c **** /** @defgroup USBH_CORE_Private_Variables
  85:Middlewares/ST/STM32_USB_Host_Library/Core/Src/usbh_core.c ****   * @{
  86:Middlewares/ST/STM32_USB_Host_Library/Core/Src/usbh_core.c ****   */
  87:Middlewares/ST/STM32_USB_Host_Library/Core/Src/usbh_core.c **** /**
  88:Middlewares/ST/STM32_USB_Host_Library/Core/Src/usbh_core.c ****   * @}
  89:Middlewares/ST/STM32_USB_Host_Library/Core/Src/usbh_core.c ****   */
  90:Middlewares/ST/STM32_USB_Host_Library/Core/Src/usbh_core.c **** 
  91:Middlewares/ST/STM32_USB_Host_Library/Core/Src/usbh_core.c **** 
  92:Middlewares/ST/STM32_USB_Host_Library/Core/Src/usbh_core.c **** /** @defgroup USBH_CORE_Private_Functions
  93:Middlewares/ST/STM32_USB_Host_Library/Core/Src/usbh_core.c ****   * @{
  94:Middlewares/ST/STM32_USB_Host_Library/Core/Src/usbh_core.c ****   */
  95:Middlewares/ST/STM32_USB_Host_Library/Core/Src/usbh_core.c **** static USBH_StatusTypeDef  USBH_HandleEnum    (USBH_HandleTypeDef *phost);
  96:Middlewares/ST/STM32_USB_Host_Library/Core/Src/usbh_core.c **** static void                USBH_HandleSof     (USBH_HandleTypeDef *phost);
  97:Middlewares/ST/STM32_USB_Host_Library/Core/Src/usbh_core.c **** static USBH_StatusTypeDef  DeInitStateMachine(USBH_HandleTypeDef *phost);
  98:Middlewares/ST/STM32_USB_Host_Library/Core/Src/usbh_core.c **** 
  99:Middlewares/ST/STM32_USB_Host_Library/Core/Src/usbh_core.c **** #if (USBH_USE_OS == 1U)
 100:Middlewares/ST/STM32_USB_Host_Library/Core/Src/usbh_core.c **** static void USBH_Process_OS(void const * argument);
 101:Middlewares/ST/STM32_USB_Host_Library/Core/Src/usbh_core.c **** #endif
 102:Middlewares/ST/STM32_USB_Host_Library/Core/Src/usbh_core.c **** 
 103:Middlewares/ST/STM32_USB_Host_Library/Core/Src/usbh_core.c **** /**
 104:Middlewares/ST/STM32_USB_Host_Library/Core/Src/usbh_core.c ****   * @brief  HCD_Init
 105:Middlewares/ST/STM32_USB_Host_Library/Core/Src/usbh_core.c ****   *         Initialize the HOST Core.
 106:Middlewares/ST/STM32_USB_Host_Library/Core/Src/usbh_core.c ****   * @param  phost: Host Handle
 107:Middlewares/ST/STM32_USB_Host_Library/Core/Src/usbh_core.c ****   * @param  pUsrFunc: User Callback
 108:Middlewares/ST/STM32_USB_Host_Library/Core/Src/usbh_core.c ****   * @retval USBH Status
 109:Middlewares/ST/STM32_USB_Host_Library/Core/Src/usbh_core.c ****   */
 110:Middlewares/ST/STM32_USB_Host_Library/Core/Src/usbh_core.c **** USBH_StatusTypeDef  USBH_Init(USBH_HandleTypeDef *phost, void (*pUsrFunc)(USBH_HandleTypeDef *phost
 111:Middlewares/ST/STM32_USB_Host_Library/Core/Src/usbh_core.c **** {
 112:Middlewares/ST/STM32_USB_Host_Library/Core/Src/usbh_core.c ****   /* Check whether the USB Host handle is valid */
 113:Middlewares/ST/STM32_USB_Host_Library/Core/Src/usbh_core.c ****   if(phost == NULL)
 114:Middlewares/ST/STM32_USB_Host_Library/Core/Src/usbh_core.c ****   {
 115:Middlewares/ST/STM32_USB_Host_Library/Core/Src/usbh_core.c ****     USBH_ErrLog("Invalid Host handle");
 116:Middlewares/ST/STM32_USB_Host_Library/Core/Src/usbh_core.c ****     return USBH_FAIL;
 117:Middlewares/ST/STM32_USB_Host_Library/Core/Src/usbh_core.c ****   }
 118:Middlewares/ST/STM32_USB_Host_Library/Core/Src/usbh_core.c **** 
 119:Middlewares/ST/STM32_USB_Host_Library/Core/Src/usbh_core.c ****   /* Set DRiver ID */
 120:Middlewares/ST/STM32_USB_Host_Library/Core/Src/usbh_core.c ****   phost->id = id;
 121:Middlewares/ST/STM32_USB_Host_Library/Core/Src/usbh_core.c **** 
 122:Middlewares/ST/STM32_USB_Host_Library/Core/Src/usbh_core.c ****   /* Unlink class*/
 123:Middlewares/ST/STM32_USB_Host_Library/Core/Src/usbh_core.c ****   phost->pActiveClass = NULL;
 124:Middlewares/ST/STM32_USB_Host_Library/Core/Src/usbh_core.c ****   phost->ClassNumber = 0U;
 125:Middlewares/ST/STM32_USB_Host_Library/Core/Src/usbh_core.c **** 
 126:Middlewares/ST/STM32_USB_Host_Library/Core/Src/usbh_core.c ****   /* Restore default states and prepare EP0 */
 127:Middlewares/ST/STM32_USB_Host_Library/Core/Src/usbh_core.c ****   DeInitStateMachine(phost);
 128:Middlewares/ST/STM32_USB_Host_Library/Core/Src/usbh_core.c **** 
 129:Middlewares/ST/STM32_USB_Host_Library/Core/Src/usbh_core.c ****   /* Assign User process */
 130:Middlewares/ST/STM32_USB_Host_Library/Core/Src/usbh_core.c ****   if(pUsrFunc != NULL)
 131:Middlewares/ST/STM32_USB_Host_Library/Core/Src/usbh_core.c ****   {
 132:Middlewares/ST/STM32_USB_Host_Library/Core/Src/usbh_core.c ****     phost->pUser = pUsrFunc;
 133:Middlewares/ST/STM32_USB_Host_Library/Core/Src/usbh_core.c ****   }
 134:Middlewares/ST/STM32_USB_Host_Library/Core/Src/usbh_core.c **** 
 135:Middlewares/ST/STM32_USB_Host_Library/Core/Src/usbh_core.c **** #if (USBH_USE_OS == 1U)
 136:Middlewares/ST/STM32_USB_Host_Library/Core/Src/usbh_core.c **** 
 137:Middlewares/ST/STM32_USB_Host_Library/Core/Src/usbh_core.c ****   /* Create USB Host Queue */
 138:Middlewares/ST/STM32_USB_Host_Library/Core/Src/usbh_core.c ****   osMessageQDef(USBH_Queue, 10, uint16_t);
ARM GAS  C:\Users\Nina\AppData\Local\Temp\ccjD0KBj.s 			page 4


 139:Middlewares/ST/STM32_USB_Host_Library/Core/Src/usbh_core.c ****   phost->os_event = osMessageCreate (osMessageQ(USBH_Queue), NULL);
 140:Middlewares/ST/STM32_USB_Host_Library/Core/Src/usbh_core.c **** 
 141:Middlewares/ST/STM32_USB_Host_Library/Core/Src/usbh_core.c ****   /*Create USB Host Task */
 142:Middlewares/ST/STM32_USB_Host_Library/Core/Src/usbh_core.c **** #if defined (USBH_PROCESS_STACK_SIZE)
 143:Middlewares/ST/STM32_USB_Host_Library/Core/Src/usbh_core.c ****   osThreadDef(USBH_Thread, USBH_Process_OS, USBH_PROCESS_PRIO, 0, USBH_PROCESS_STACK_SIZE);
 144:Middlewares/ST/STM32_USB_Host_Library/Core/Src/usbh_core.c **** #else
 145:Middlewares/ST/STM32_USB_Host_Library/Core/Src/usbh_core.c ****   osThreadDef(USBH_Thread, USBH_Process_OS, USBH_PROCESS_PRIO, 0, 8 * configMINIMAL_STACK_SIZE);
 146:Middlewares/ST/STM32_USB_Host_Library/Core/Src/usbh_core.c **** #endif
 147:Middlewares/ST/STM32_USB_Host_Library/Core/Src/usbh_core.c ****   phost->thread = osThreadCreate (osThread(USBH_Thread), phost);
 148:Middlewares/ST/STM32_USB_Host_Library/Core/Src/usbh_core.c **** #endif
 149:Middlewares/ST/STM32_USB_Host_Library/Core/Src/usbh_core.c **** 
 150:Middlewares/ST/STM32_USB_Host_Library/Core/Src/usbh_core.c ****   /* Initialize low level driver */
 151:Middlewares/ST/STM32_USB_Host_Library/Core/Src/usbh_core.c ****   USBH_LL_Init(phost);
 152:Middlewares/ST/STM32_USB_Host_Library/Core/Src/usbh_core.c ****   return USBH_OK;
 153:Middlewares/ST/STM32_USB_Host_Library/Core/Src/usbh_core.c **** }
 154:Middlewares/ST/STM32_USB_Host_Library/Core/Src/usbh_core.c **** 
 155:Middlewares/ST/STM32_USB_Host_Library/Core/Src/usbh_core.c **** /**
 156:Middlewares/ST/STM32_USB_Host_Library/Core/Src/usbh_core.c ****   * @brief  HCD_Init
 157:Middlewares/ST/STM32_USB_Host_Library/Core/Src/usbh_core.c ****   *         De-Initialize the Host portion of the driver.
 158:Middlewares/ST/STM32_USB_Host_Library/Core/Src/usbh_core.c ****   * @param  phost: Host Handle
 159:Middlewares/ST/STM32_USB_Host_Library/Core/Src/usbh_core.c ****   * @retval USBH Status
 160:Middlewares/ST/STM32_USB_Host_Library/Core/Src/usbh_core.c ****   */
 161:Middlewares/ST/STM32_USB_Host_Library/Core/Src/usbh_core.c **** USBH_StatusTypeDef  USBH_DeInit(USBH_HandleTypeDef *phost)
 162:Middlewares/ST/STM32_USB_Host_Library/Core/Src/usbh_core.c **** {
 163:Middlewares/ST/STM32_USB_Host_Library/Core/Src/usbh_core.c ****   DeInitStateMachine(phost);
 164:Middlewares/ST/STM32_USB_Host_Library/Core/Src/usbh_core.c **** 
 165:Middlewares/ST/STM32_USB_Host_Library/Core/Src/usbh_core.c ****   if(phost->pData != NULL)
 166:Middlewares/ST/STM32_USB_Host_Library/Core/Src/usbh_core.c ****   {
 167:Middlewares/ST/STM32_USB_Host_Library/Core/Src/usbh_core.c ****     USBH_free (phost->pActiveClass->pData);
 168:Middlewares/ST/STM32_USB_Host_Library/Core/Src/usbh_core.c ****     phost->pActiveClass->pData = NULL;
 169:Middlewares/ST/STM32_USB_Host_Library/Core/Src/usbh_core.c ****     USBH_LL_Stop(phost);
 170:Middlewares/ST/STM32_USB_Host_Library/Core/Src/usbh_core.c ****   }
 171:Middlewares/ST/STM32_USB_Host_Library/Core/Src/usbh_core.c **** 
 172:Middlewares/ST/STM32_USB_Host_Library/Core/Src/usbh_core.c ****   return USBH_OK;
 173:Middlewares/ST/STM32_USB_Host_Library/Core/Src/usbh_core.c **** }
 174:Middlewares/ST/STM32_USB_Host_Library/Core/Src/usbh_core.c **** 
 175:Middlewares/ST/STM32_USB_Host_Library/Core/Src/usbh_core.c **** /**
 176:Middlewares/ST/STM32_USB_Host_Library/Core/Src/usbh_core.c ****   * @brief  DeInitStateMachine
 177:Middlewares/ST/STM32_USB_Host_Library/Core/Src/usbh_core.c ****   *         De-Initialize the Host state machine.
 178:Middlewares/ST/STM32_USB_Host_Library/Core/Src/usbh_core.c ****   * @param  phost: Host Handle
 179:Middlewares/ST/STM32_USB_Host_Library/Core/Src/usbh_core.c ****   * @retval USBH Status
 180:Middlewares/ST/STM32_USB_Host_Library/Core/Src/usbh_core.c ****   */
 181:Middlewares/ST/STM32_USB_Host_Library/Core/Src/usbh_core.c **** static USBH_StatusTypeDef  DeInitStateMachine(USBH_HandleTypeDef *phost)
 182:Middlewares/ST/STM32_USB_Host_Library/Core/Src/usbh_core.c **** {
  33              		.loc 1 182 1 view -0
  34              		.cfi_startproc
  35              		@ args = 0, pretend = 0, frame = 0
  36              		@ frame_needed = 0, uses_anonymous_args = 0
  37              		@ link register save eliminated.
  38              		.loc 1 182 1 is_stmt 0 view .LVU1
  39 0000 10B4     		push	{r4}
  40              	.LCFI0:
  41              		.cfi_def_cfa_offset 4
  42              		.cfi_offset 4, -4
  43 0002 0446     		mov	r4, r0
 183:Middlewares/ST/STM32_USB_Host_Library/Core/Src/usbh_core.c ****   uint32_t i = 0U;
  44              		.loc 1 183 3 is_stmt 1 view .LVU2
ARM GAS  C:\Users\Nina\AppData\Local\Temp\ccjD0KBj.s 			page 5


  45              	.LVL1:
 184:Middlewares/ST/STM32_USB_Host_Library/Core/Src/usbh_core.c **** 
 185:Middlewares/ST/STM32_USB_Host_Library/Core/Src/usbh_core.c ****   /* Clear Pipes flags*/
 186:Middlewares/ST/STM32_USB_Host_Library/Core/Src/usbh_core.c ****   for ( ; i < USBH_MAX_PIPES_NBR; i++)
  46              		.loc 1 186 3 view .LVU3
 183:Middlewares/ST/STM32_USB_Host_Library/Core/Src/usbh_core.c ****   uint32_t i = 0U;
  47              		.loc 1 183 12 is_stmt 0 view .LVU4
  48 0004 0023     		movs	r3, #0
  49              		.loc 1 186 3 view .LVU5
  50 0006 05E0     		b	.L2
  51              	.LVL2:
  52              	.L3:
 187:Middlewares/ST/STM32_USB_Host_Library/Core/Src/usbh_core.c ****   {
 188:Middlewares/ST/STM32_USB_Host_Library/Core/Src/usbh_core.c ****     phost->Pipes[i] = 0U;
  53              		.loc 1 188 5 is_stmt 1 discriminator 2 view .LVU6
  54              		.loc 1 188 21 is_stmt 0 discriminator 2 view .LVU7
  55 0008 03F1E002 		add	r2, r3, #224
  56 000c 0021     		movs	r1, #0
  57 000e 44F82210 		str	r1, [r4, r2, lsl #2]
 186:Middlewares/ST/STM32_USB_Host_Library/Core/Src/usbh_core.c ****   {
  58              		.loc 1 186 35 is_stmt 1 discriminator 2 view .LVU8
 186:Middlewares/ST/STM32_USB_Host_Library/Core/Src/usbh_core.c ****   {
  59              		.loc 1 186 36 is_stmt 0 discriminator 2 view .LVU9
  60 0012 0133     		adds	r3, r3, #1
  61              	.LVL3:
  62              	.L2:
 186:Middlewares/ST/STM32_USB_Host_Library/Core/Src/usbh_core.c ****   {
  63              		.loc 1 186 11 is_stmt 1 discriminator 1 view .LVU10
 186:Middlewares/ST/STM32_USB_Host_Library/Core/Src/usbh_core.c ****   {
  64              		.loc 1 186 3 is_stmt 0 discriminator 1 view .LVU11
  65 0014 0E2B     		cmp	r3, #14
  66 0016 F7D9     		bls	.L3
 189:Middlewares/ST/STM32_USB_Host_Library/Core/Src/usbh_core.c ****   }
 190:Middlewares/ST/STM32_USB_Host_Library/Core/Src/usbh_core.c **** 
 191:Middlewares/ST/STM32_USB_Host_Library/Core/Src/usbh_core.c ****   for(i = 0U; i< USBH_MAX_DATA_BUFFER; i++)
  67              		.loc 1 191 9 view .LVU12
  68 0018 0023     		movs	r3, #0
  69              	.LVL4:
  70              	.L4:
  71              		.loc 1 191 15 is_stmt 1 discriminator 1 view .LVU13
  72              		.loc 1 191 3 is_stmt 0 discriminator 1 view .LVU14
  73 001a B3F5007F 		cmp	r3, #512
  74 001e 05D2     		bcs	.L7
 192:Middlewares/ST/STM32_USB_Host_Library/Core/Src/usbh_core.c ****   {
 193:Middlewares/ST/STM32_USB_Host_Library/Core/Src/usbh_core.c ****     phost->device.Data[i] = 0U;
  75              		.loc 1 193 5 is_stmt 1 discriminator 3 view .LVU15
  76              		.loc 1 193 27 is_stmt 0 discriminator 3 view .LVU16
  77 0020 E218     		adds	r2, r4, r3
  78 0022 0021     		movs	r1, #0
  79 0024 82F81C11 		strb	r1, [r2, #284]
 191:Middlewares/ST/STM32_USB_Host_Library/Core/Src/usbh_core.c ****   {
  80              		.loc 1 191 40 is_stmt 1 discriminator 3 view .LVU17
 191:Middlewares/ST/STM32_USB_Host_Library/Core/Src/usbh_core.c ****   {
  81              		.loc 1 191 41 is_stmt 0 discriminator 3 view .LVU18
  82 0028 0133     		adds	r3, r3, #1
  83              	.LVL5:
 191:Middlewares/ST/STM32_USB_Host_Library/Core/Src/usbh_core.c ****   {
ARM GAS  C:\Users\Nina\AppData\Local\Temp\ccjD0KBj.s 			page 6


  84              		.loc 1 191 41 discriminator 3 view .LVU19
  85 002a F6E7     		b	.L4
  86              	.L7:
 194:Middlewares/ST/STM32_USB_Host_Library/Core/Src/usbh_core.c ****   }
 195:Middlewares/ST/STM32_USB_Host_Library/Core/Src/usbh_core.c **** 
 196:Middlewares/ST/STM32_USB_Host_Library/Core/Src/usbh_core.c ****   phost->gState = HOST_IDLE;
  87              		.loc 1 196 3 is_stmt 1 view .LVU20
  88              		.loc 1 196 17 is_stmt 0 view .LVU21
  89 002c 0020     		movs	r0, #0
  90              	.LVL6:
  91              		.loc 1 196 17 view .LVU22
  92 002e 2070     		strb	r0, [r4]
 197:Middlewares/ST/STM32_USB_Host_Library/Core/Src/usbh_core.c ****   phost->EnumState = ENUM_IDLE;
  93              		.loc 1 197 3 is_stmt 1 view .LVU23
  94              		.loc 1 197 20 is_stmt 0 view .LVU24
  95 0030 6070     		strb	r0, [r4, #1]
 198:Middlewares/ST/STM32_USB_Host_Library/Core/Src/usbh_core.c ****   phost->RequestState = CMD_SEND;
  96              		.loc 1 198 3 is_stmt 1 view .LVU25
  97              		.loc 1 198 23 is_stmt 0 view .LVU26
  98 0032 0123     		movs	r3, #1
  99              	.LVL7:
 100              		.loc 1 198 23 view .LVU27
 101 0034 A370     		strb	r3, [r4, #2]
 199:Middlewares/ST/STM32_USB_Host_Library/Core/Src/usbh_core.c ****   phost->Timer = 0U;
 102              		.loc 1 199 3 is_stmt 1 view .LVU28
 103              		.loc 1 199 16 is_stmt 0 view .LVU29
 104 0036 C4F8BC03 		str	r0, [r4, #956]
 200:Middlewares/ST/STM32_USB_Host_Library/Core/Src/usbh_core.c **** 
 201:Middlewares/ST/STM32_USB_Host_Library/Core/Src/usbh_core.c ****   phost->Control.state = CTRL_SETUP;
 105              		.loc 1 201 3 is_stmt 1 view .LVU30
 106              		.loc 1 201 24 is_stmt 0 view .LVU31
 107 003a 2376     		strb	r3, [r4, #24]
 202:Middlewares/ST/STM32_USB_Host_Library/Core/Src/usbh_core.c ****   phost->Control.pipe_size = USBH_MPS_DEFAULT;
 108              		.loc 1 202 3 is_stmt 1 view .LVU32
 109              		.loc 1 202 28 is_stmt 0 view .LVU33
 110 003c 4022     		movs	r2, #64
 111 003e A271     		strb	r2, [r4, #6]
 203:Middlewares/ST/STM32_USB_Host_Library/Core/Src/usbh_core.c ****   phost->Control.errorcount = 0U;
 112              		.loc 1 203 3 is_stmt 1 view .LVU34
 113              		.loc 1 203 29 is_stmt 0 view .LVU35
 114 0040 6076     		strb	r0, [r4, #25]
 204:Middlewares/ST/STM32_USB_Host_Library/Core/Src/usbh_core.c **** 
 205:Middlewares/ST/STM32_USB_Host_Library/Core/Src/usbh_core.c ****   phost->device.address = USBH_ADDRESS_DEFAULT;
 115              		.loc 1 205 3 is_stmt 1 view .LVU36
 116              		.loc 1 205 25 is_stmt 0 view .LVU37
 117 0042 84F81C03 		strb	r0, [r4, #796]
 206:Middlewares/ST/STM32_USB_Host_Library/Core/Src/usbh_core.c ****   phost->device.speed   = USBH_SPEED_FULL;
 118              		.loc 1 206 3 is_stmt 1 view .LVU38
 119              		.loc 1 206 25 is_stmt 0 view .LVU39
 120 0046 84F81D33 		strb	r3, [r4, #797]
 207:Middlewares/ST/STM32_USB_Host_Library/Core/Src/usbh_core.c **** 
 208:Middlewares/ST/STM32_USB_Host_Library/Core/Src/usbh_core.c ****   return USBH_OK;
 121              		.loc 1 208 3 is_stmt 1 view .LVU40
 209:Middlewares/ST/STM32_USB_Host_Library/Core/Src/usbh_core.c **** }
 122              		.loc 1 209 1 is_stmt 0 view .LVU41
 123 004a 5DF8044B 		ldr	r4, [sp], #4
 124              	.LCFI1:
ARM GAS  C:\Users\Nina\AppData\Local\Temp\ccjD0KBj.s 			page 7


 125              		.cfi_restore 4
 126              		.cfi_def_cfa_offset 0
 127              	.LVL8:
 128              		.loc 1 209 1 view .LVU42
 129 004e 7047     		bx	lr
 130              		.cfi_endproc
 131              	.LFE145:
 133              		.section	.text.USBH_HandleSof,"ax",%progbits
 134              		.align	1
 135              		.syntax unified
 136              		.thumb
 137              		.thumb_func
 138              		.fpu fpv5-sp-d16
 140              	USBH_HandleSof:
 141              	.LVL9:
 142              	.LFB158:
 210:Middlewares/ST/STM32_USB_Host_Library/Core/Src/usbh_core.c **** 
 211:Middlewares/ST/STM32_USB_Host_Library/Core/Src/usbh_core.c **** /**
 212:Middlewares/ST/STM32_USB_Host_Library/Core/Src/usbh_core.c ****   * @brief  USBH_RegisterClass
 213:Middlewares/ST/STM32_USB_Host_Library/Core/Src/usbh_core.c ****   *         Link class driver to Host Core.
 214:Middlewares/ST/STM32_USB_Host_Library/Core/Src/usbh_core.c ****   * @param  phost : Host Handle
 215:Middlewares/ST/STM32_USB_Host_Library/Core/Src/usbh_core.c ****   * @param  pclass: Class handle
 216:Middlewares/ST/STM32_USB_Host_Library/Core/Src/usbh_core.c ****   * @retval USBH Status
 217:Middlewares/ST/STM32_USB_Host_Library/Core/Src/usbh_core.c ****   */
 218:Middlewares/ST/STM32_USB_Host_Library/Core/Src/usbh_core.c **** USBH_StatusTypeDef  USBH_RegisterClass(USBH_HandleTypeDef *phost, USBH_ClassTypeDef *pclass)
 219:Middlewares/ST/STM32_USB_Host_Library/Core/Src/usbh_core.c **** {
 220:Middlewares/ST/STM32_USB_Host_Library/Core/Src/usbh_core.c ****   USBH_StatusTypeDef   status = USBH_OK;
 221:Middlewares/ST/STM32_USB_Host_Library/Core/Src/usbh_core.c **** 
 222:Middlewares/ST/STM32_USB_Host_Library/Core/Src/usbh_core.c ****   if(pclass != 0)
 223:Middlewares/ST/STM32_USB_Host_Library/Core/Src/usbh_core.c ****   {
 224:Middlewares/ST/STM32_USB_Host_Library/Core/Src/usbh_core.c ****     if(phost->ClassNumber < USBH_MAX_NUM_SUPPORTED_CLASS)
 225:Middlewares/ST/STM32_USB_Host_Library/Core/Src/usbh_core.c ****     {
 226:Middlewares/ST/STM32_USB_Host_Library/Core/Src/usbh_core.c ****       /* link the class to the USB Host handle */
 227:Middlewares/ST/STM32_USB_Host_Library/Core/Src/usbh_core.c ****       phost->pClass[phost->ClassNumber++] = pclass;
 228:Middlewares/ST/STM32_USB_Host_Library/Core/Src/usbh_core.c ****       status = USBH_OK;
 229:Middlewares/ST/STM32_USB_Host_Library/Core/Src/usbh_core.c ****     }
 230:Middlewares/ST/STM32_USB_Host_Library/Core/Src/usbh_core.c ****     else
 231:Middlewares/ST/STM32_USB_Host_Library/Core/Src/usbh_core.c ****     {
 232:Middlewares/ST/STM32_USB_Host_Library/Core/Src/usbh_core.c ****       USBH_ErrLog("Max Class Number reached");
 233:Middlewares/ST/STM32_USB_Host_Library/Core/Src/usbh_core.c ****       status = USBH_FAIL;
 234:Middlewares/ST/STM32_USB_Host_Library/Core/Src/usbh_core.c ****     }
 235:Middlewares/ST/STM32_USB_Host_Library/Core/Src/usbh_core.c ****   }
 236:Middlewares/ST/STM32_USB_Host_Library/Core/Src/usbh_core.c ****   else
 237:Middlewares/ST/STM32_USB_Host_Library/Core/Src/usbh_core.c ****   {
 238:Middlewares/ST/STM32_USB_Host_Library/Core/Src/usbh_core.c ****     USBH_ErrLog("Invalid Class handle");
 239:Middlewares/ST/STM32_USB_Host_Library/Core/Src/usbh_core.c ****     status = USBH_FAIL;
 240:Middlewares/ST/STM32_USB_Host_Library/Core/Src/usbh_core.c ****   }
 241:Middlewares/ST/STM32_USB_Host_Library/Core/Src/usbh_core.c **** 
 242:Middlewares/ST/STM32_USB_Host_Library/Core/Src/usbh_core.c ****   return status;
 243:Middlewares/ST/STM32_USB_Host_Library/Core/Src/usbh_core.c **** }
 244:Middlewares/ST/STM32_USB_Host_Library/Core/Src/usbh_core.c **** 
 245:Middlewares/ST/STM32_USB_Host_Library/Core/Src/usbh_core.c **** /**
 246:Middlewares/ST/STM32_USB_Host_Library/Core/Src/usbh_core.c ****   * @brief  USBH_SelectInterface
 247:Middlewares/ST/STM32_USB_Host_Library/Core/Src/usbh_core.c ****   *         Select current interface.
 248:Middlewares/ST/STM32_USB_Host_Library/Core/Src/usbh_core.c ****   * @param  phost: Host Handle
 249:Middlewares/ST/STM32_USB_Host_Library/Core/Src/usbh_core.c ****   * @param  interface: Interface number
 250:Middlewares/ST/STM32_USB_Host_Library/Core/Src/usbh_core.c ****   * @retval USBH Status
ARM GAS  C:\Users\Nina\AppData\Local\Temp\ccjD0KBj.s 			page 8


 251:Middlewares/ST/STM32_USB_Host_Library/Core/Src/usbh_core.c ****   */
 252:Middlewares/ST/STM32_USB_Host_Library/Core/Src/usbh_core.c **** USBH_StatusTypeDef USBH_SelectInterface(USBH_HandleTypeDef *phost, uint8_t interface)
 253:Middlewares/ST/STM32_USB_Host_Library/Core/Src/usbh_core.c **** {
 254:Middlewares/ST/STM32_USB_Host_Library/Core/Src/usbh_core.c ****   USBH_StatusTypeDef   status = USBH_OK;
 255:Middlewares/ST/STM32_USB_Host_Library/Core/Src/usbh_core.c **** 
 256:Middlewares/ST/STM32_USB_Host_Library/Core/Src/usbh_core.c ****   if(interface < phost->device.CfgDesc.bNumInterfaces)
 257:Middlewares/ST/STM32_USB_Host_Library/Core/Src/usbh_core.c ****   {
 258:Middlewares/ST/STM32_USB_Host_Library/Core/Src/usbh_core.c ****     phost->device.current_interface = interface;
 259:Middlewares/ST/STM32_USB_Host_Library/Core/Src/usbh_core.c ****     USBH_UsrLog ("Switching to Interface (#%d)", interface);
 260:Middlewares/ST/STM32_USB_Host_Library/Core/Src/usbh_core.c ****     USBH_UsrLog ("Class    : %xh", phost->device.CfgDesc.Itf_Desc[interface].bInterfaceClass );
 261:Middlewares/ST/STM32_USB_Host_Library/Core/Src/usbh_core.c ****     USBH_UsrLog ("SubClass : %xh", phost->device.CfgDesc.Itf_Desc[interface].bInterfaceSubClass );
 262:Middlewares/ST/STM32_USB_Host_Library/Core/Src/usbh_core.c ****     USBH_UsrLog ("Protocol : %xh", phost->device.CfgDesc.Itf_Desc[interface].bInterfaceProtocol );
 263:Middlewares/ST/STM32_USB_Host_Library/Core/Src/usbh_core.c ****   }
 264:Middlewares/ST/STM32_USB_Host_Library/Core/Src/usbh_core.c ****   else
 265:Middlewares/ST/STM32_USB_Host_Library/Core/Src/usbh_core.c ****   {
 266:Middlewares/ST/STM32_USB_Host_Library/Core/Src/usbh_core.c ****     USBH_ErrLog ("Cannot Select This Interface.");
 267:Middlewares/ST/STM32_USB_Host_Library/Core/Src/usbh_core.c ****     status = USBH_FAIL;
 268:Middlewares/ST/STM32_USB_Host_Library/Core/Src/usbh_core.c ****   }
 269:Middlewares/ST/STM32_USB_Host_Library/Core/Src/usbh_core.c ****   return status;
 270:Middlewares/ST/STM32_USB_Host_Library/Core/Src/usbh_core.c **** }
 271:Middlewares/ST/STM32_USB_Host_Library/Core/Src/usbh_core.c **** 
 272:Middlewares/ST/STM32_USB_Host_Library/Core/Src/usbh_core.c **** /**
 273:Middlewares/ST/STM32_USB_Host_Library/Core/Src/usbh_core.c ****   * @brief  USBH_GetActiveClass
 274:Middlewares/ST/STM32_USB_Host_Library/Core/Src/usbh_core.c ****   *         Return Device Class.
 275:Middlewares/ST/STM32_USB_Host_Library/Core/Src/usbh_core.c ****   * @param  phost: Host Handle
 276:Middlewares/ST/STM32_USB_Host_Library/Core/Src/usbh_core.c ****   * @param  interface: Interface index
 277:Middlewares/ST/STM32_USB_Host_Library/Core/Src/usbh_core.c ****   * @retval Class Code
 278:Middlewares/ST/STM32_USB_Host_Library/Core/Src/usbh_core.c ****   */
 279:Middlewares/ST/STM32_USB_Host_Library/Core/Src/usbh_core.c **** uint8_t USBH_GetActiveClass(USBH_HandleTypeDef *phost)
 280:Middlewares/ST/STM32_USB_Host_Library/Core/Src/usbh_core.c **** {
 281:Middlewares/ST/STM32_USB_Host_Library/Core/Src/usbh_core.c ****    return (phost->device.CfgDesc.Itf_Desc[0].bInterfaceClass);
 282:Middlewares/ST/STM32_USB_Host_Library/Core/Src/usbh_core.c **** }
 283:Middlewares/ST/STM32_USB_Host_Library/Core/Src/usbh_core.c **** /**
 284:Middlewares/ST/STM32_USB_Host_Library/Core/Src/usbh_core.c ****   * @brief  USBH_FindInterface
 285:Middlewares/ST/STM32_USB_Host_Library/Core/Src/usbh_core.c ****   *         Find the interface index for a specific class.
 286:Middlewares/ST/STM32_USB_Host_Library/Core/Src/usbh_core.c ****   * @param  phost: Host Handle
 287:Middlewares/ST/STM32_USB_Host_Library/Core/Src/usbh_core.c ****   * @param  Class: Class code
 288:Middlewares/ST/STM32_USB_Host_Library/Core/Src/usbh_core.c ****   * @param  SubClass: SubClass code
 289:Middlewares/ST/STM32_USB_Host_Library/Core/Src/usbh_core.c ****   * @param  Protocol: Protocol code
 290:Middlewares/ST/STM32_USB_Host_Library/Core/Src/usbh_core.c ****   * @retval interface index in the configuration structure
 291:Middlewares/ST/STM32_USB_Host_Library/Core/Src/usbh_core.c ****   * @note : (1)interface index 0xFF means interface index not found
 292:Middlewares/ST/STM32_USB_Host_Library/Core/Src/usbh_core.c ****   */
 293:Middlewares/ST/STM32_USB_Host_Library/Core/Src/usbh_core.c **** uint8_t  USBH_FindInterface(USBH_HandleTypeDef *phost, uint8_t Class, uint8_t SubClass, uint8_t Pro
 294:Middlewares/ST/STM32_USB_Host_Library/Core/Src/usbh_core.c **** {
 295:Middlewares/ST/STM32_USB_Host_Library/Core/Src/usbh_core.c ****   USBH_InterfaceDescTypeDef    *pif ;
 296:Middlewares/ST/STM32_USB_Host_Library/Core/Src/usbh_core.c ****   USBH_CfgDescTypeDef          *pcfg ;
 297:Middlewares/ST/STM32_USB_Host_Library/Core/Src/usbh_core.c ****   uint8_t                        if_ix = 0U;
 298:Middlewares/ST/STM32_USB_Host_Library/Core/Src/usbh_core.c **** 
 299:Middlewares/ST/STM32_USB_Host_Library/Core/Src/usbh_core.c ****   pif = (USBH_InterfaceDescTypeDef *)0;
 300:Middlewares/ST/STM32_USB_Host_Library/Core/Src/usbh_core.c ****   pcfg = &phost->device.CfgDesc;
 301:Middlewares/ST/STM32_USB_Host_Library/Core/Src/usbh_core.c **** 
 302:Middlewares/ST/STM32_USB_Host_Library/Core/Src/usbh_core.c ****   while (if_ix < USBH_MAX_NUM_INTERFACES)
 303:Middlewares/ST/STM32_USB_Host_Library/Core/Src/usbh_core.c ****   {
 304:Middlewares/ST/STM32_USB_Host_Library/Core/Src/usbh_core.c ****     pif = &pcfg->Itf_Desc[if_ix];
 305:Middlewares/ST/STM32_USB_Host_Library/Core/Src/usbh_core.c ****     if(((pif->bInterfaceClass == Class) || (Class == 0xFFU))&&
 306:Middlewares/ST/STM32_USB_Host_Library/Core/Src/usbh_core.c ****        ((pif->bInterfaceSubClass == SubClass) || (SubClass == 0xFFU))&&
 307:Middlewares/ST/STM32_USB_Host_Library/Core/Src/usbh_core.c ****          ((pif->bInterfaceProtocol == Protocol) || (Protocol == 0xFFU)))
ARM GAS  C:\Users\Nina\AppData\Local\Temp\ccjD0KBj.s 			page 9


 308:Middlewares/ST/STM32_USB_Host_Library/Core/Src/usbh_core.c ****     {
 309:Middlewares/ST/STM32_USB_Host_Library/Core/Src/usbh_core.c ****       return  if_ix;
 310:Middlewares/ST/STM32_USB_Host_Library/Core/Src/usbh_core.c ****     }
 311:Middlewares/ST/STM32_USB_Host_Library/Core/Src/usbh_core.c ****     if_ix++;
 312:Middlewares/ST/STM32_USB_Host_Library/Core/Src/usbh_core.c ****   }
 313:Middlewares/ST/STM32_USB_Host_Library/Core/Src/usbh_core.c ****   return 0xFFU;
 314:Middlewares/ST/STM32_USB_Host_Library/Core/Src/usbh_core.c **** }
 315:Middlewares/ST/STM32_USB_Host_Library/Core/Src/usbh_core.c **** 
 316:Middlewares/ST/STM32_USB_Host_Library/Core/Src/usbh_core.c **** /**
 317:Middlewares/ST/STM32_USB_Host_Library/Core/Src/usbh_core.c ****   * @brief  USBH_FindInterfaceIndex
 318:Middlewares/ST/STM32_USB_Host_Library/Core/Src/usbh_core.c ****   *         Find the interface index for a specific class interface and alternate setting number.
 319:Middlewares/ST/STM32_USB_Host_Library/Core/Src/usbh_core.c ****   * @param  phost: Host Handle
 320:Middlewares/ST/STM32_USB_Host_Library/Core/Src/usbh_core.c ****   * @param  interface_number: interface number
 321:Middlewares/ST/STM32_USB_Host_Library/Core/Src/usbh_core.c ****   * @param  alt_settings    : alternate setting number
 322:Middlewares/ST/STM32_USB_Host_Library/Core/Src/usbh_core.c ****   * @retval interface index in the configuration structure
 323:Middlewares/ST/STM32_USB_Host_Library/Core/Src/usbh_core.c ****   * @note : (1)interface index 0xFF means interface index not found
 324:Middlewares/ST/STM32_USB_Host_Library/Core/Src/usbh_core.c ****   */
 325:Middlewares/ST/STM32_USB_Host_Library/Core/Src/usbh_core.c **** uint8_t  USBH_FindInterfaceIndex(USBH_HandleTypeDef *phost, uint8_t interface_number, uint8_t alt_s
 326:Middlewares/ST/STM32_USB_Host_Library/Core/Src/usbh_core.c **** {
 327:Middlewares/ST/STM32_USB_Host_Library/Core/Src/usbh_core.c ****   USBH_InterfaceDescTypeDef    *pif ;
 328:Middlewares/ST/STM32_USB_Host_Library/Core/Src/usbh_core.c ****   USBH_CfgDescTypeDef          *pcfg ;
 329:Middlewares/ST/STM32_USB_Host_Library/Core/Src/usbh_core.c ****   uint8_t                        if_ix = 0U;
 330:Middlewares/ST/STM32_USB_Host_Library/Core/Src/usbh_core.c **** 
 331:Middlewares/ST/STM32_USB_Host_Library/Core/Src/usbh_core.c ****   pif = (USBH_InterfaceDescTypeDef *)0;
 332:Middlewares/ST/STM32_USB_Host_Library/Core/Src/usbh_core.c ****   pcfg = &phost->device.CfgDesc;
 333:Middlewares/ST/STM32_USB_Host_Library/Core/Src/usbh_core.c **** 
 334:Middlewares/ST/STM32_USB_Host_Library/Core/Src/usbh_core.c ****   while (if_ix < USBH_MAX_NUM_INTERFACES)
 335:Middlewares/ST/STM32_USB_Host_Library/Core/Src/usbh_core.c ****   {
 336:Middlewares/ST/STM32_USB_Host_Library/Core/Src/usbh_core.c ****     pif = &pcfg->Itf_Desc[if_ix];
 337:Middlewares/ST/STM32_USB_Host_Library/Core/Src/usbh_core.c ****     if((pif->bInterfaceNumber == interface_number) && (pif->bAlternateSetting == alt_settings))
 338:Middlewares/ST/STM32_USB_Host_Library/Core/Src/usbh_core.c ****     {
 339:Middlewares/ST/STM32_USB_Host_Library/Core/Src/usbh_core.c ****       return  if_ix;
 340:Middlewares/ST/STM32_USB_Host_Library/Core/Src/usbh_core.c ****     }
 341:Middlewares/ST/STM32_USB_Host_Library/Core/Src/usbh_core.c ****     if_ix++;
 342:Middlewares/ST/STM32_USB_Host_Library/Core/Src/usbh_core.c ****   }
 343:Middlewares/ST/STM32_USB_Host_Library/Core/Src/usbh_core.c ****   return 0xFFU;
 344:Middlewares/ST/STM32_USB_Host_Library/Core/Src/usbh_core.c **** }
 345:Middlewares/ST/STM32_USB_Host_Library/Core/Src/usbh_core.c **** 
 346:Middlewares/ST/STM32_USB_Host_Library/Core/Src/usbh_core.c **** /**
 347:Middlewares/ST/STM32_USB_Host_Library/Core/Src/usbh_core.c ****   * @brief  USBH_Start
 348:Middlewares/ST/STM32_USB_Host_Library/Core/Src/usbh_core.c ****   *         Start the USB Host Core.
 349:Middlewares/ST/STM32_USB_Host_Library/Core/Src/usbh_core.c ****   * @param  phost: Host Handle
 350:Middlewares/ST/STM32_USB_Host_Library/Core/Src/usbh_core.c ****   * @retval USBH Status
 351:Middlewares/ST/STM32_USB_Host_Library/Core/Src/usbh_core.c ****   */
 352:Middlewares/ST/STM32_USB_Host_Library/Core/Src/usbh_core.c **** USBH_StatusTypeDef  USBH_Start  (USBH_HandleTypeDef *phost)
 353:Middlewares/ST/STM32_USB_Host_Library/Core/Src/usbh_core.c **** {
 354:Middlewares/ST/STM32_USB_Host_Library/Core/Src/usbh_core.c ****   /* Start the low level driver  */
 355:Middlewares/ST/STM32_USB_Host_Library/Core/Src/usbh_core.c ****   USBH_LL_Start(phost);
 356:Middlewares/ST/STM32_USB_Host_Library/Core/Src/usbh_core.c **** 
 357:Middlewares/ST/STM32_USB_Host_Library/Core/Src/usbh_core.c ****   /* Activate VBUS on the port */
 358:Middlewares/ST/STM32_USB_Host_Library/Core/Src/usbh_core.c ****   USBH_LL_DriverVBUS (phost, TRUE);
 359:Middlewares/ST/STM32_USB_Host_Library/Core/Src/usbh_core.c **** 
 360:Middlewares/ST/STM32_USB_Host_Library/Core/Src/usbh_core.c ****   return USBH_OK;
 361:Middlewares/ST/STM32_USB_Host_Library/Core/Src/usbh_core.c **** }
 362:Middlewares/ST/STM32_USB_Host_Library/Core/Src/usbh_core.c **** 
 363:Middlewares/ST/STM32_USB_Host_Library/Core/Src/usbh_core.c **** /**
 364:Middlewares/ST/STM32_USB_Host_Library/Core/Src/usbh_core.c ****   * @brief  USBH_Stop
ARM GAS  C:\Users\Nina\AppData\Local\Temp\ccjD0KBj.s 			page 10


 365:Middlewares/ST/STM32_USB_Host_Library/Core/Src/usbh_core.c ****   *         Stop the USB Host Core.
 366:Middlewares/ST/STM32_USB_Host_Library/Core/Src/usbh_core.c ****   * @param  phost: Host Handle
 367:Middlewares/ST/STM32_USB_Host_Library/Core/Src/usbh_core.c ****   * @retval USBH Status
 368:Middlewares/ST/STM32_USB_Host_Library/Core/Src/usbh_core.c ****   */
 369:Middlewares/ST/STM32_USB_Host_Library/Core/Src/usbh_core.c **** USBH_StatusTypeDef  USBH_Stop   (USBH_HandleTypeDef *phost)
 370:Middlewares/ST/STM32_USB_Host_Library/Core/Src/usbh_core.c **** {
 371:Middlewares/ST/STM32_USB_Host_Library/Core/Src/usbh_core.c ****   /* Stop and cleanup the low level driver  */
 372:Middlewares/ST/STM32_USB_Host_Library/Core/Src/usbh_core.c ****   USBH_LL_Stop(phost);
 373:Middlewares/ST/STM32_USB_Host_Library/Core/Src/usbh_core.c **** 
 374:Middlewares/ST/STM32_USB_Host_Library/Core/Src/usbh_core.c ****   /* DeActivate VBUS on the port */
 375:Middlewares/ST/STM32_USB_Host_Library/Core/Src/usbh_core.c ****   USBH_LL_DriverVBUS (phost, FALSE);
 376:Middlewares/ST/STM32_USB_Host_Library/Core/Src/usbh_core.c **** 
 377:Middlewares/ST/STM32_USB_Host_Library/Core/Src/usbh_core.c ****   /* FRee Control Pipes */
 378:Middlewares/ST/STM32_USB_Host_Library/Core/Src/usbh_core.c ****   USBH_FreePipe  (phost, phost->Control.pipe_in);
 379:Middlewares/ST/STM32_USB_Host_Library/Core/Src/usbh_core.c ****   USBH_FreePipe  (phost, phost->Control.pipe_out);
 380:Middlewares/ST/STM32_USB_Host_Library/Core/Src/usbh_core.c **** 
 381:Middlewares/ST/STM32_USB_Host_Library/Core/Src/usbh_core.c ****   return USBH_OK;
 382:Middlewares/ST/STM32_USB_Host_Library/Core/Src/usbh_core.c **** }
 383:Middlewares/ST/STM32_USB_Host_Library/Core/Src/usbh_core.c **** 
 384:Middlewares/ST/STM32_USB_Host_Library/Core/Src/usbh_core.c **** /**
 385:Middlewares/ST/STM32_USB_Host_Library/Core/Src/usbh_core.c ****   * @brief  HCD_ReEnumerate
 386:Middlewares/ST/STM32_USB_Host_Library/Core/Src/usbh_core.c ****   *         Perform a new Enumeration phase.
 387:Middlewares/ST/STM32_USB_Host_Library/Core/Src/usbh_core.c ****   * @param  phost: Host Handle
 388:Middlewares/ST/STM32_USB_Host_Library/Core/Src/usbh_core.c ****   * @retval USBH Status
 389:Middlewares/ST/STM32_USB_Host_Library/Core/Src/usbh_core.c ****   */
 390:Middlewares/ST/STM32_USB_Host_Library/Core/Src/usbh_core.c **** USBH_StatusTypeDef  USBH_ReEnumerate   (USBH_HandleTypeDef *phost)
 391:Middlewares/ST/STM32_USB_Host_Library/Core/Src/usbh_core.c **** {
 392:Middlewares/ST/STM32_USB_Host_Library/Core/Src/usbh_core.c ****   /*Stop Host */
 393:Middlewares/ST/STM32_USB_Host_Library/Core/Src/usbh_core.c ****   USBH_Stop(phost);
 394:Middlewares/ST/STM32_USB_Host_Library/Core/Src/usbh_core.c **** 
 395:Middlewares/ST/STM32_USB_Host_Library/Core/Src/usbh_core.c ****   /*Device has disconnected, so wait for 200 ms */
 396:Middlewares/ST/STM32_USB_Host_Library/Core/Src/usbh_core.c ****   USBH_Delay(200U);
 397:Middlewares/ST/STM32_USB_Host_Library/Core/Src/usbh_core.c **** 
 398:Middlewares/ST/STM32_USB_Host_Library/Core/Src/usbh_core.c ****   /* Set State machines in default state */
 399:Middlewares/ST/STM32_USB_Host_Library/Core/Src/usbh_core.c ****   DeInitStateMachine(phost);
 400:Middlewares/ST/STM32_USB_Host_Library/Core/Src/usbh_core.c **** 
 401:Middlewares/ST/STM32_USB_Host_Library/Core/Src/usbh_core.c ****   /* Start again the host */
 402:Middlewares/ST/STM32_USB_Host_Library/Core/Src/usbh_core.c ****   USBH_Start(phost);
 403:Middlewares/ST/STM32_USB_Host_Library/Core/Src/usbh_core.c **** 
 404:Middlewares/ST/STM32_USB_Host_Library/Core/Src/usbh_core.c **** #if (USBH_USE_OS == 1U)
 405:Middlewares/ST/STM32_USB_Host_Library/Core/Src/usbh_core.c ****       osMessagePut ( phost->os_event, USBH_PORT_EVENT, 0);
 406:Middlewares/ST/STM32_USB_Host_Library/Core/Src/usbh_core.c **** #endif
 407:Middlewares/ST/STM32_USB_Host_Library/Core/Src/usbh_core.c ****   return USBH_OK;
 408:Middlewares/ST/STM32_USB_Host_Library/Core/Src/usbh_core.c **** }
 409:Middlewares/ST/STM32_USB_Host_Library/Core/Src/usbh_core.c **** 
 410:Middlewares/ST/STM32_USB_Host_Library/Core/Src/usbh_core.c **** /**
 411:Middlewares/ST/STM32_USB_Host_Library/Core/Src/usbh_core.c ****   * @brief  USBH_Process
 412:Middlewares/ST/STM32_USB_Host_Library/Core/Src/usbh_core.c ****   *         Background process of the USB Core.
 413:Middlewares/ST/STM32_USB_Host_Library/Core/Src/usbh_core.c ****   * @param  phost: Host Handle
 414:Middlewares/ST/STM32_USB_Host_Library/Core/Src/usbh_core.c ****   * @retval USBH Status
 415:Middlewares/ST/STM32_USB_Host_Library/Core/Src/usbh_core.c ****   */
 416:Middlewares/ST/STM32_USB_Host_Library/Core/Src/usbh_core.c **** USBH_StatusTypeDef  USBH_Process(USBH_HandleTypeDef *phost)
 417:Middlewares/ST/STM32_USB_Host_Library/Core/Src/usbh_core.c **** {
 418:Middlewares/ST/STM32_USB_Host_Library/Core/Src/usbh_core.c ****   __IO USBH_StatusTypeDef status = USBH_FAIL;
 419:Middlewares/ST/STM32_USB_Host_Library/Core/Src/usbh_core.c ****   uint8_t idx = 0U;
 420:Middlewares/ST/STM32_USB_Host_Library/Core/Src/usbh_core.c **** 
 421:Middlewares/ST/STM32_USB_Host_Library/Core/Src/usbh_core.c ****   /* check for Host port events */
ARM GAS  C:\Users\Nina\AppData\Local\Temp\ccjD0KBj.s 			page 11


 422:Middlewares/ST/STM32_USB_Host_Library/Core/Src/usbh_core.c ****   if (((USBH_IsPortEnabled(phost) == 0U)) && (phost->gState != HOST_IDLE))
 423:Middlewares/ST/STM32_USB_Host_Library/Core/Src/usbh_core.c ****   {
 424:Middlewares/ST/STM32_USB_Host_Library/Core/Src/usbh_core.c ****     if(phost->gState != HOST_DEV_DISCONNECTED)
 425:Middlewares/ST/STM32_USB_Host_Library/Core/Src/usbh_core.c ****     {
 426:Middlewares/ST/STM32_USB_Host_Library/Core/Src/usbh_core.c ****       phost->gState = HOST_DEV_DISCONNECTED;
 427:Middlewares/ST/STM32_USB_Host_Library/Core/Src/usbh_core.c ****     }
 428:Middlewares/ST/STM32_USB_Host_Library/Core/Src/usbh_core.c ****   }
 429:Middlewares/ST/STM32_USB_Host_Library/Core/Src/usbh_core.c **** 
 430:Middlewares/ST/STM32_USB_Host_Library/Core/Src/usbh_core.c ****   switch (phost->gState)
 431:Middlewares/ST/STM32_USB_Host_Library/Core/Src/usbh_core.c ****   {
 432:Middlewares/ST/STM32_USB_Host_Library/Core/Src/usbh_core.c ****   case HOST_IDLE :
 433:Middlewares/ST/STM32_USB_Host_Library/Core/Src/usbh_core.c **** 
 434:Middlewares/ST/STM32_USB_Host_Library/Core/Src/usbh_core.c ****     if (phost->device.is_connected)
 435:Middlewares/ST/STM32_USB_Host_Library/Core/Src/usbh_core.c ****     {
 436:Middlewares/ST/STM32_USB_Host_Library/Core/Src/usbh_core.c ****       /* Wait for 200 ms after connection */
 437:Middlewares/ST/STM32_USB_Host_Library/Core/Src/usbh_core.c ****       phost->gState = HOST_DEV_WAIT_FOR_ATTACHMENT;
 438:Middlewares/ST/STM32_USB_Host_Library/Core/Src/usbh_core.c ****       USBH_Delay(200U);
 439:Middlewares/ST/STM32_USB_Host_Library/Core/Src/usbh_core.c ****       USBH_LL_ResetPort(phost);
 440:Middlewares/ST/STM32_USB_Host_Library/Core/Src/usbh_core.c **** #if (USBH_USE_OS == 1U)
 441:Middlewares/ST/STM32_USB_Host_Library/Core/Src/usbh_core.c ****       osMessagePut ( phost->os_event, USBH_PORT_EVENT, 0);
 442:Middlewares/ST/STM32_USB_Host_Library/Core/Src/usbh_core.c **** #endif
 443:Middlewares/ST/STM32_USB_Host_Library/Core/Src/usbh_core.c ****     }
 444:Middlewares/ST/STM32_USB_Host_Library/Core/Src/usbh_core.c ****     break;
 445:Middlewares/ST/STM32_USB_Host_Library/Core/Src/usbh_core.c **** 
 446:Middlewares/ST/STM32_USB_Host_Library/Core/Src/usbh_core.c ****   case HOST_DEV_WAIT_FOR_ATTACHMENT: /* Wait for Port Eabled */
 447:Middlewares/ST/STM32_USB_Host_Library/Core/Src/usbh_core.c **** 
 448:Middlewares/ST/STM32_USB_Host_Library/Core/Src/usbh_core.c ****     if (phost->device.PortEnabled == 1U)
 449:Middlewares/ST/STM32_USB_Host_Library/Core/Src/usbh_core.c ****     {
 450:Middlewares/ST/STM32_USB_Host_Library/Core/Src/usbh_core.c ****       phost->gState = HOST_DEV_ATTACHED;
 451:Middlewares/ST/STM32_USB_Host_Library/Core/Src/usbh_core.c ****     }
 452:Middlewares/ST/STM32_USB_Host_Library/Core/Src/usbh_core.c ****     break;
 453:Middlewares/ST/STM32_USB_Host_Library/Core/Src/usbh_core.c **** 
 454:Middlewares/ST/STM32_USB_Host_Library/Core/Src/usbh_core.c ****   case HOST_DEV_ATTACHED :
 455:Middlewares/ST/STM32_USB_Host_Library/Core/Src/usbh_core.c **** 
 456:Middlewares/ST/STM32_USB_Host_Library/Core/Src/usbh_core.c ****     USBH_UsrLog("USB Device Attached");
 457:Middlewares/ST/STM32_USB_Host_Library/Core/Src/usbh_core.c **** 
 458:Middlewares/ST/STM32_USB_Host_Library/Core/Src/usbh_core.c ****     /* Wait for 100 ms after Reset */
 459:Middlewares/ST/STM32_USB_Host_Library/Core/Src/usbh_core.c ****     USBH_Delay(100U);
 460:Middlewares/ST/STM32_USB_Host_Library/Core/Src/usbh_core.c **** 
 461:Middlewares/ST/STM32_USB_Host_Library/Core/Src/usbh_core.c ****     phost->device.speed = USBH_LL_GetSpeed(phost);
 462:Middlewares/ST/STM32_USB_Host_Library/Core/Src/usbh_core.c **** 
 463:Middlewares/ST/STM32_USB_Host_Library/Core/Src/usbh_core.c ****     phost->gState = HOST_ENUMERATION;
 464:Middlewares/ST/STM32_USB_Host_Library/Core/Src/usbh_core.c **** 
 465:Middlewares/ST/STM32_USB_Host_Library/Core/Src/usbh_core.c ****     phost->Control.pipe_out = USBH_AllocPipe (phost, 0x00U);
 466:Middlewares/ST/STM32_USB_Host_Library/Core/Src/usbh_core.c ****     phost->Control.pipe_in  = USBH_AllocPipe (phost, 0x80U);
 467:Middlewares/ST/STM32_USB_Host_Library/Core/Src/usbh_core.c **** 
 468:Middlewares/ST/STM32_USB_Host_Library/Core/Src/usbh_core.c **** 
 469:Middlewares/ST/STM32_USB_Host_Library/Core/Src/usbh_core.c ****     /* Open Control pipes */
 470:Middlewares/ST/STM32_USB_Host_Library/Core/Src/usbh_core.c ****     USBH_OpenPipe (phost,
 471:Middlewares/ST/STM32_USB_Host_Library/Core/Src/usbh_core.c ****                    phost->Control.pipe_in,
 472:Middlewares/ST/STM32_USB_Host_Library/Core/Src/usbh_core.c ****                    0x80U,
 473:Middlewares/ST/STM32_USB_Host_Library/Core/Src/usbh_core.c ****                    phost->device.address,
 474:Middlewares/ST/STM32_USB_Host_Library/Core/Src/usbh_core.c ****                    phost->device.speed,
 475:Middlewares/ST/STM32_USB_Host_Library/Core/Src/usbh_core.c ****                    USBH_EP_CONTROL,
 476:Middlewares/ST/STM32_USB_Host_Library/Core/Src/usbh_core.c ****                    (uint16_t)phost->Control.pipe_size);
 477:Middlewares/ST/STM32_USB_Host_Library/Core/Src/usbh_core.c **** 
 478:Middlewares/ST/STM32_USB_Host_Library/Core/Src/usbh_core.c ****     /* Open Control pipes */
ARM GAS  C:\Users\Nina\AppData\Local\Temp\ccjD0KBj.s 			page 12


 479:Middlewares/ST/STM32_USB_Host_Library/Core/Src/usbh_core.c ****     USBH_OpenPipe (phost,
 480:Middlewares/ST/STM32_USB_Host_Library/Core/Src/usbh_core.c ****                    phost->Control.pipe_out,
 481:Middlewares/ST/STM32_USB_Host_Library/Core/Src/usbh_core.c ****                    0x00U,
 482:Middlewares/ST/STM32_USB_Host_Library/Core/Src/usbh_core.c ****                    phost->device.address,
 483:Middlewares/ST/STM32_USB_Host_Library/Core/Src/usbh_core.c ****                    phost->device.speed,
 484:Middlewares/ST/STM32_USB_Host_Library/Core/Src/usbh_core.c ****                    USBH_EP_CONTROL,
 485:Middlewares/ST/STM32_USB_Host_Library/Core/Src/usbh_core.c ****                    (uint16_t)phost->Control.pipe_size);
 486:Middlewares/ST/STM32_USB_Host_Library/Core/Src/usbh_core.c **** 
 487:Middlewares/ST/STM32_USB_Host_Library/Core/Src/usbh_core.c **** #if (USBH_USE_OS == 1U)
 488:Middlewares/ST/STM32_USB_Host_Library/Core/Src/usbh_core.c ****     osMessagePut ( phost->os_event, USBH_PORT_EVENT, 0);
 489:Middlewares/ST/STM32_USB_Host_Library/Core/Src/usbh_core.c **** #endif
 490:Middlewares/ST/STM32_USB_Host_Library/Core/Src/usbh_core.c **** 
 491:Middlewares/ST/STM32_USB_Host_Library/Core/Src/usbh_core.c ****     break;
 492:Middlewares/ST/STM32_USB_Host_Library/Core/Src/usbh_core.c **** 
 493:Middlewares/ST/STM32_USB_Host_Library/Core/Src/usbh_core.c ****   case HOST_ENUMERATION:
 494:Middlewares/ST/STM32_USB_Host_Library/Core/Src/usbh_core.c ****     /* Check for enumeration status */
 495:Middlewares/ST/STM32_USB_Host_Library/Core/Src/usbh_core.c ****     if ( USBH_HandleEnum(phost) == USBH_OK)
 496:Middlewares/ST/STM32_USB_Host_Library/Core/Src/usbh_core.c ****     {
 497:Middlewares/ST/STM32_USB_Host_Library/Core/Src/usbh_core.c ****       /* The function shall return USBH_OK when full enumeration is complete */
 498:Middlewares/ST/STM32_USB_Host_Library/Core/Src/usbh_core.c ****       USBH_UsrLog ("Enumeration done.");
 499:Middlewares/ST/STM32_USB_Host_Library/Core/Src/usbh_core.c ****       phost->device.current_interface = 0U;
 500:Middlewares/ST/STM32_USB_Host_Library/Core/Src/usbh_core.c ****       if(phost->device.DevDesc.bNumConfigurations == 1U)
 501:Middlewares/ST/STM32_USB_Host_Library/Core/Src/usbh_core.c ****       {
 502:Middlewares/ST/STM32_USB_Host_Library/Core/Src/usbh_core.c ****         USBH_UsrLog ("This device has only 1 configuration.");
 503:Middlewares/ST/STM32_USB_Host_Library/Core/Src/usbh_core.c ****         phost->gState  = HOST_SET_CONFIGURATION;
 504:Middlewares/ST/STM32_USB_Host_Library/Core/Src/usbh_core.c **** 
 505:Middlewares/ST/STM32_USB_Host_Library/Core/Src/usbh_core.c ****       }
 506:Middlewares/ST/STM32_USB_Host_Library/Core/Src/usbh_core.c ****       else
 507:Middlewares/ST/STM32_USB_Host_Library/Core/Src/usbh_core.c ****       {
 508:Middlewares/ST/STM32_USB_Host_Library/Core/Src/usbh_core.c ****         phost->gState  = HOST_INPUT;
 509:Middlewares/ST/STM32_USB_Host_Library/Core/Src/usbh_core.c ****       }
 510:Middlewares/ST/STM32_USB_Host_Library/Core/Src/usbh_core.c **** 
 511:Middlewares/ST/STM32_USB_Host_Library/Core/Src/usbh_core.c ****     }
 512:Middlewares/ST/STM32_USB_Host_Library/Core/Src/usbh_core.c ****     break;
 513:Middlewares/ST/STM32_USB_Host_Library/Core/Src/usbh_core.c **** 
 514:Middlewares/ST/STM32_USB_Host_Library/Core/Src/usbh_core.c ****   case HOST_INPUT:
 515:Middlewares/ST/STM32_USB_Host_Library/Core/Src/usbh_core.c ****     {
 516:Middlewares/ST/STM32_USB_Host_Library/Core/Src/usbh_core.c ****       /* user callback for end of device basic enumeration */
 517:Middlewares/ST/STM32_USB_Host_Library/Core/Src/usbh_core.c ****       if(phost->pUser != NULL)
 518:Middlewares/ST/STM32_USB_Host_Library/Core/Src/usbh_core.c ****       {
 519:Middlewares/ST/STM32_USB_Host_Library/Core/Src/usbh_core.c ****         phost->pUser(phost, HOST_USER_SELECT_CONFIGURATION);
 520:Middlewares/ST/STM32_USB_Host_Library/Core/Src/usbh_core.c ****         phost->gState = HOST_SET_CONFIGURATION;
 521:Middlewares/ST/STM32_USB_Host_Library/Core/Src/usbh_core.c **** 
 522:Middlewares/ST/STM32_USB_Host_Library/Core/Src/usbh_core.c **** #if (USBH_USE_OS == 1U)
 523:Middlewares/ST/STM32_USB_Host_Library/Core/Src/usbh_core.c ****         osMessagePut ( phost->os_event, USBH_STATE_CHANGED_EVENT, 0);
 524:Middlewares/ST/STM32_USB_Host_Library/Core/Src/usbh_core.c **** #endif
 525:Middlewares/ST/STM32_USB_Host_Library/Core/Src/usbh_core.c ****       }
 526:Middlewares/ST/STM32_USB_Host_Library/Core/Src/usbh_core.c ****     }
 527:Middlewares/ST/STM32_USB_Host_Library/Core/Src/usbh_core.c ****     break;
 528:Middlewares/ST/STM32_USB_Host_Library/Core/Src/usbh_core.c **** 
 529:Middlewares/ST/STM32_USB_Host_Library/Core/Src/usbh_core.c ****   case HOST_SET_CONFIGURATION:
 530:Middlewares/ST/STM32_USB_Host_Library/Core/Src/usbh_core.c ****     /* set configuration */
 531:Middlewares/ST/STM32_USB_Host_Library/Core/Src/usbh_core.c ****     if (USBH_SetCfg(phost, (uint16_t)phost->device.CfgDesc.bConfigurationValue) == USBH_OK)
 532:Middlewares/ST/STM32_USB_Host_Library/Core/Src/usbh_core.c ****     {
 533:Middlewares/ST/STM32_USB_Host_Library/Core/Src/usbh_core.c ****       phost->gState  = HOST_SET_WAKEUP_FEATURE;
 534:Middlewares/ST/STM32_USB_Host_Library/Core/Src/usbh_core.c ****       USBH_UsrLog ("Default configuration set.");
 535:Middlewares/ST/STM32_USB_Host_Library/Core/Src/usbh_core.c ****     }
ARM GAS  C:\Users\Nina\AppData\Local\Temp\ccjD0KBj.s 			page 13


 536:Middlewares/ST/STM32_USB_Host_Library/Core/Src/usbh_core.c **** 
 537:Middlewares/ST/STM32_USB_Host_Library/Core/Src/usbh_core.c **** #if (USBH_USE_OS == 1U)
 538:Middlewares/ST/STM32_USB_Host_Library/Core/Src/usbh_core.c ****     osMessagePut ( phost->os_event, USBH_PORT_EVENT, 0U);
 539:Middlewares/ST/STM32_USB_Host_Library/Core/Src/usbh_core.c **** #endif
 540:Middlewares/ST/STM32_USB_Host_Library/Core/Src/usbh_core.c ****     break;
 541:Middlewares/ST/STM32_USB_Host_Library/Core/Src/usbh_core.c **** 
 542:Middlewares/ST/STM32_USB_Host_Library/Core/Src/usbh_core.c ****   case  HOST_SET_WAKEUP_FEATURE:
 543:Middlewares/ST/STM32_USB_Host_Library/Core/Src/usbh_core.c **** 
 544:Middlewares/ST/STM32_USB_Host_Library/Core/Src/usbh_core.c ****     if ((phost->device.CfgDesc.bmAttributes) & (1U << 5))
 545:Middlewares/ST/STM32_USB_Host_Library/Core/Src/usbh_core.c ****     {
 546:Middlewares/ST/STM32_USB_Host_Library/Core/Src/usbh_core.c ****       if (USBH_SetFeature(phost, FEATURE_SELECTOR_REMOTEWAKEUP) == USBH_OK)
 547:Middlewares/ST/STM32_USB_Host_Library/Core/Src/usbh_core.c ****       {
 548:Middlewares/ST/STM32_USB_Host_Library/Core/Src/usbh_core.c ****         USBH_UsrLog ("Device remote wakeup enabled");
 549:Middlewares/ST/STM32_USB_Host_Library/Core/Src/usbh_core.c ****         phost->gState  = HOST_CHECK_CLASS;
 550:Middlewares/ST/STM32_USB_Host_Library/Core/Src/usbh_core.c ****       }
 551:Middlewares/ST/STM32_USB_Host_Library/Core/Src/usbh_core.c ****     }
 552:Middlewares/ST/STM32_USB_Host_Library/Core/Src/usbh_core.c ****     else
 553:Middlewares/ST/STM32_USB_Host_Library/Core/Src/usbh_core.c ****     {
 554:Middlewares/ST/STM32_USB_Host_Library/Core/Src/usbh_core.c ****       phost->gState  = HOST_CHECK_CLASS;
 555:Middlewares/ST/STM32_USB_Host_Library/Core/Src/usbh_core.c ****     }
 556:Middlewares/ST/STM32_USB_Host_Library/Core/Src/usbh_core.c **** 
 557:Middlewares/ST/STM32_USB_Host_Library/Core/Src/usbh_core.c **** #if (USBH_USE_OS == 1U)
 558:Middlewares/ST/STM32_USB_Host_Library/Core/Src/usbh_core.c ****     osMessagePut ( phost->os_event, USBH_PORT_EVENT, 0U);
 559:Middlewares/ST/STM32_USB_Host_Library/Core/Src/usbh_core.c **** #endif
 560:Middlewares/ST/STM32_USB_Host_Library/Core/Src/usbh_core.c ****     break;
 561:Middlewares/ST/STM32_USB_Host_Library/Core/Src/usbh_core.c **** 
 562:Middlewares/ST/STM32_USB_Host_Library/Core/Src/usbh_core.c ****   case HOST_CHECK_CLASS:
 563:Middlewares/ST/STM32_USB_Host_Library/Core/Src/usbh_core.c **** 
 564:Middlewares/ST/STM32_USB_Host_Library/Core/Src/usbh_core.c ****     if(phost->ClassNumber == 0U)
 565:Middlewares/ST/STM32_USB_Host_Library/Core/Src/usbh_core.c ****     {
 566:Middlewares/ST/STM32_USB_Host_Library/Core/Src/usbh_core.c ****       USBH_UsrLog ("No Class has been registered.");
 567:Middlewares/ST/STM32_USB_Host_Library/Core/Src/usbh_core.c ****     }
 568:Middlewares/ST/STM32_USB_Host_Library/Core/Src/usbh_core.c ****     else
 569:Middlewares/ST/STM32_USB_Host_Library/Core/Src/usbh_core.c ****     {
 570:Middlewares/ST/STM32_USB_Host_Library/Core/Src/usbh_core.c ****       phost->pActiveClass = NULL;
 571:Middlewares/ST/STM32_USB_Host_Library/Core/Src/usbh_core.c **** 
 572:Middlewares/ST/STM32_USB_Host_Library/Core/Src/usbh_core.c ****       for (idx = 0U; idx < USBH_MAX_NUM_SUPPORTED_CLASS; idx++)
 573:Middlewares/ST/STM32_USB_Host_Library/Core/Src/usbh_core.c ****       {
 574:Middlewares/ST/STM32_USB_Host_Library/Core/Src/usbh_core.c ****         if(phost->pClass[idx]->ClassCode == phost->device.CfgDesc.Itf_Desc[0].bInterfaceClass)
 575:Middlewares/ST/STM32_USB_Host_Library/Core/Src/usbh_core.c ****         {
 576:Middlewares/ST/STM32_USB_Host_Library/Core/Src/usbh_core.c ****           phost->pActiveClass = phost->pClass[idx];
 577:Middlewares/ST/STM32_USB_Host_Library/Core/Src/usbh_core.c ****         }
 578:Middlewares/ST/STM32_USB_Host_Library/Core/Src/usbh_core.c ****       }
 579:Middlewares/ST/STM32_USB_Host_Library/Core/Src/usbh_core.c **** 
 580:Middlewares/ST/STM32_USB_Host_Library/Core/Src/usbh_core.c ****       if(phost->pActiveClass != NULL)
 581:Middlewares/ST/STM32_USB_Host_Library/Core/Src/usbh_core.c ****       {
 582:Middlewares/ST/STM32_USB_Host_Library/Core/Src/usbh_core.c ****         if(phost->pActiveClass->Init(phost)== USBH_OK)
 583:Middlewares/ST/STM32_USB_Host_Library/Core/Src/usbh_core.c ****         {
 584:Middlewares/ST/STM32_USB_Host_Library/Core/Src/usbh_core.c ****           phost->gState  = HOST_CLASS_REQUEST;
 585:Middlewares/ST/STM32_USB_Host_Library/Core/Src/usbh_core.c ****           USBH_UsrLog ("%s class started.", phost->pActiveClass->Name);
 586:Middlewares/ST/STM32_USB_Host_Library/Core/Src/usbh_core.c **** 
 587:Middlewares/ST/STM32_USB_Host_Library/Core/Src/usbh_core.c ****           /* Inform user that a class has been activated */
 588:Middlewares/ST/STM32_USB_Host_Library/Core/Src/usbh_core.c ****           phost->pUser(phost, HOST_USER_CLASS_SELECTED);
 589:Middlewares/ST/STM32_USB_Host_Library/Core/Src/usbh_core.c ****         }
 590:Middlewares/ST/STM32_USB_Host_Library/Core/Src/usbh_core.c ****         else
 591:Middlewares/ST/STM32_USB_Host_Library/Core/Src/usbh_core.c ****         {
 592:Middlewares/ST/STM32_USB_Host_Library/Core/Src/usbh_core.c ****           phost->gState  = HOST_ABORT_STATE;
ARM GAS  C:\Users\Nina\AppData\Local\Temp\ccjD0KBj.s 			page 14


 593:Middlewares/ST/STM32_USB_Host_Library/Core/Src/usbh_core.c ****           USBH_UsrLog ("Device not supporting %s class.", phost->pActiveClass->Name);
 594:Middlewares/ST/STM32_USB_Host_Library/Core/Src/usbh_core.c ****         }
 595:Middlewares/ST/STM32_USB_Host_Library/Core/Src/usbh_core.c ****       }
 596:Middlewares/ST/STM32_USB_Host_Library/Core/Src/usbh_core.c ****       else
 597:Middlewares/ST/STM32_USB_Host_Library/Core/Src/usbh_core.c ****       {
 598:Middlewares/ST/STM32_USB_Host_Library/Core/Src/usbh_core.c ****         phost->gState  = HOST_ABORT_STATE;
 599:Middlewares/ST/STM32_USB_Host_Library/Core/Src/usbh_core.c ****         USBH_UsrLog ("No registered class for this device.");
 600:Middlewares/ST/STM32_USB_Host_Library/Core/Src/usbh_core.c ****       }
 601:Middlewares/ST/STM32_USB_Host_Library/Core/Src/usbh_core.c ****     }
 602:Middlewares/ST/STM32_USB_Host_Library/Core/Src/usbh_core.c **** 
 603:Middlewares/ST/STM32_USB_Host_Library/Core/Src/usbh_core.c **** #if (USBH_USE_OS == 1U)
 604:Middlewares/ST/STM32_USB_Host_Library/Core/Src/usbh_core.c ****     osMessagePut ( phost->os_event, USBH_STATE_CHANGED_EVENT, 0);
 605:Middlewares/ST/STM32_USB_Host_Library/Core/Src/usbh_core.c **** #endif
 606:Middlewares/ST/STM32_USB_Host_Library/Core/Src/usbh_core.c ****     break;
 607:Middlewares/ST/STM32_USB_Host_Library/Core/Src/usbh_core.c **** 
 608:Middlewares/ST/STM32_USB_Host_Library/Core/Src/usbh_core.c ****   case HOST_CLASS_REQUEST:
 609:Middlewares/ST/STM32_USB_Host_Library/Core/Src/usbh_core.c ****     /* process class standard control requests state machine */
 610:Middlewares/ST/STM32_USB_Host_Library/Core/Src/usbh_core.c ****     if(phost->pActiveClass != NULL)
 611:Middlewares/ST/STM32_USB_Host_Library/Core/Src/usbh_core.c ****     {
 612:Middlewares/ST/STM32_USB_Host_Library/Core/Src/usbh_core.c ****       status = phost->pActiveClass->Requests(phost);
 613:Middlewares/ST/STM32_USB_Host_Library/Core/Src/usbh_core.c **** 
 614:Middlewares/ST/STM32_USB_Host_Library/Core/Src/usbh_core.c ****       if(status == USBH_OK)
 615:Middlewares/ST/STM32_USB_Host_Library/Core/Src/usbh_core.c ****       {
 616:Middlewares/ST/STM32_USB_Host_Library/Core/Src/usbh_core.c ****         phost->gState  = HOST_CLASS;
 617:Middlewares/ST/STM32_USB_Host_Library/Core/Src/usbh_core.c ****       }
 618:Middlewares/ST/STM32_USB_Host_Library/Core/Src/usbh_core.c ****     }
 619:Middlewares/ST/STM32_USB_Host_Library/Core/Src/usbh_core.c ****     else
 620:Middlewares/ST/STM32_USB_Host_Library/Core/Src/usbh_core.c ****     {
 621:Middlewares/ST/STM32_USB_Host_Library/Core/Src/usbh_core.c ****       phost->gState  = HOST_ABORT_STATE;
 622:Middlewares/ST/STM32_USB_Host_Library/Core/Src/usbh_core.c ****       USBH_ErrLog ("Invalid Class Driver.");
 623:Middlewares/ST/STM32_USB_Host_Library/Core/Src/usbh_core.c **** 
 624:Middlewares/ST/STM32_USB_Host_Library/Core/Src/usbh_core.c **** #if (USBH_USE_OS == 1U)
 625:Middlewares/ST/STM32_USB_Host_Library/Core/Src/usbh_core.c ****     osMessagePut ( phost->os_event, USBH_STATE_CHANGED_EVENT, 0);
 626:Middlewares/ST/STM32_USB_Host_Library/Core/Src/usbh_core.c **** #endif
 627:Middlewares/ST/STM32_USB_Host_Library/Core/Src/usbh_core.c ****     }
 628:Middlewares/ST/STM32_USB_Host_Library/Core/Src/usbh_core.c **** 
 629:Middlewares/ST/STM32_USB_Host_Library/Core/Src/usbh_core.c ****     break;
 630:Middlewares/ST/STM32_USB_Host_Library/Core/Src/usbh_core.c ****   case HOST_CLASS:
 631:Middlewares/ST/STM32_USB_Host_Library/Core/Src/usbh_core.c ****     /* process class state machine */
 632:Middlewares/ST/STM32_USB_Host_Library/Core/Src/usbh_core.c ****     if(phost->pActiveClass != NULL)
 633:Middlewares/ST/STM32_USB_Host_Library/Core/Src/usbh_core.c ****     {
 634:Middlewares/ST/STM32_USB_Host_Library/Core/Src/usbh_core.c ****       phost->pActiveClass->BgndProcess(phost);
 635:Middlewares/ST/STM32_USB_Host_Library/Core/Src/usbh_core.c ****     }
 636:Middlewares/ST/STM32_USB_Host_Library/Core/Src/usbh_core.c ****     break;
 637:Middlewares/ST/STM32_USB_Host_Library/Core/Src/usbh_core.c **** 
 638:Middlewares/ST/STM32_USB_Host_Library/Core/Src/usbh_core.c ****   case HOST_DEV_DISCONNECTED :
 639:Middlewares/ST/STM32_USB_Host_Library/Core/Src/usbh_core.c **** 
 640:Middlewares/ST/STM32_USB_Host_Library/Core/Src/usbh_core.c ****     DeInitStateMachine(phost);
 641:Middlewares/ST/STM32_USB_Host_Library/Core/Src/usbh_core.c **** 
 642:Middlewares/ST/STM32_USB_Host_Library/Core/Src/usbh_core.c ****     /* Re-Initilaize Host for new Enumeration */
 643:Middlewares/ST/STM32_USB_Host_Library/Core/Src/usbh_core.c ****     if(phost->pActiveClass != NULL)
 644:Middlewares/ST/STM32_USB_Host_Library/Core/Src/usbh_core.c ****     {
 645:Middlewares/ST/STM32_USB_Host_Library/Core/Src/usbh_core.c ****       phost->pActiveClass->DeInit(phost);
 646:Middlewares/ST/STM32_USB_Host_Library/Core/Src/usbh_core.c ****       phost->pActiveClass = NULL;
 647:Middlewares/ST/STM32_USB_Host_Library/Core/Src/usbh_core.c ****     }
 648:Middlewares/ST/STM32_USB_Host_Library/Core/Src/usbh_core.c ****     break;
 649:Middlewares/ST/STM32_USB_Host_Library/Core/Src/usbh_core.c **** 
ARM GAS  C:\Users\Nina\AppData\Local\Temp\ccjD0KBj.s 			page 15


 650:Middlewares/ST/STM32_USB_Host_Library/Core/Src/usbh_core.c ****   case HOST_ABORT_STATE:
 651:Middlewares/ST/STM32_USB_Host_Library/Core/Src/usbh_core.c ****   default :
 652:Middlewares/ST/STM32_USB_Host_Library/Core/Src/usbh_core.c ****     break;
 653:Middlewares/ST/STM32_USB_Host_Library/Core/Src/usbh_core.c ****   }
 654:Middlewares/ST/STM32_USB_Host_Library/Core/Src/usbh_core.c ****  return USBH_OK;
 655:Middlewares/ST/STM32_USB_Host_Library/Core/Src/usbh_core.c **** }
 656:Middlewares/ST/STM32_USB_Host_Library/Core/Src/usbh_core.c **** 
 657:Middlewares/ST/STM32_USB_Host_Library/Core/Src/usbh_core.c **** 
 658:Middlewares/ST/STM32_USB_Host_Library/Core/Src/usbh_core.c **** /**
 659:Middlewares/ST/STM32_USB_Host_Library/Core/Src/usbh_core.c ****   * @brief  USBH_HandleEnum
 660:Middlewares/ST/STM32_USB_Host_Library/Core/Src/usbh_core.c ****   *         This function includes the complete enumeration process
 661:Middlewares/ST/STM32_USB_Host_Library/Core/Src/usbh_core.c ****   * @param  phost: Host Handle
 662:Middlewares/ST/STM32_USB_Host_Library/Core/Src/usbh_core.c ****   * @retval USBH_Status
 663:Middlewares/ST/STM32_USB_Host_Library/Core/Src/usbh_core.c ****   */
 664:Middlewares/ST/STM32_USB_Host_Library/Core/Src/usbh_core.c **** static USBH_StatusTypeDef USBH_HandleEnum (USBH_HandleTypeDef *phost)
 665:Middlewares/ST/STM32_USB_Host_Library/Core/Src/usbh_core.c **** {
 666:Middlewares/ST/STM32_USB_Host_Library/Core/Src/usbh_core.c ****   USBH_StatusTypeDef Status = USBH_BUSY;
 667:Middlewares/ST/STM32_USB_Host_Library/Core/Src/usbh_core.c **** 
 668:Middlewares/ST/STM32_USB_Host_Library/Core/Src/usbh_core.c ****   switch (phost->EnumState)
 669:Middlewares/ST/STM32_USB_Host_Library/Core/Src/usbh_core.c ****   {
 670:Middlewares/ST/STM32_USB_Host_Library/Core/Src/usbh_core.c ****   case ENUM_IDLE:
 671:Middlewares/ST/STM32_USB_Host_Library/Core/Src/usbh_core.c ****     /* Get Device Desc for only 1st 8 bytes : To get EP0 MaxPacketSize */
 672:Middlewares/ST/STM32_USB_Host_Library/Core/Src/usbh_core.c ****     if ( USBH_Get_DevDesc(phost, 8U) == USBH_OK)
 673:Middlewares/ST/STM32_USB_Host_Library/Core/Src/usbh_core.c ****     {
 674:Middlewares/ST/STM32_USB_Host_Library/Core/Src/usbh_core.c ****       phost->Control.pipe_size = phost->device.DevDesc.bMaxPacketSize;
 675:Middlewares/ST/STM32_USB_Host_Library/Core/Src/usbh_core.c **** 
 676:Middlewares/ST/STM32_USB_Host_Library/Core/Src/usbh_core.c ****       phost->EnumState = ENUM_GET_FULL_DEV_DESC;
 677:Middlewares/ST/STM32_USB_Host_Library/Core/Src/usbh_core.c **** 
 678:Middlewares/ST/STM32_USB_Host_Library/Core/Src/usbh_core.c ****       /* modify control channels configuration for MaxPacket size */
 679:Middlewares/ST/STM32_USB_Host_Library/Core/Src/usbh_core.c ****       USBH_OpenPipe (phost,
 680:Middlewares/ST/STM32_USB_Host_Library/Core/Src/usbh_core.c ****                            phost->Control.pipe_in,
 681:Middlewares/ST/STM32_USB_Host_Library/Core/Src/usbh_core.c ****                            0x80U,
 682:Middlewares/ST/STM32_USB_Host_Library/Core/Src/usbh_core.c ****                            phost->device.address,
 683:Middlewares/ST/STM32_USB_Host_Library/Core/Src/usbh_core.c ****                            phost->device.speed,
 684:Middlewares/ST/STM32_USB_Host_Library/Core/Src/usbh_core.c ****                            USBH_EP_CONTROL,
 685:Middlewares/ST/STM32_USB_Host_Library/Core/Src/usbh_core.c ****                            (uint16_t)phost->Control.pipe_size);
 686:Middlewares/ST/STM32_USB_Host_Library/Core/Src/usbh_core.c **** 
 687:Middlewares/ST/STM32_USB_Host_Library/Core/Src/usbh_core.c ****       /* Open Control pipes */
 688:Middlewares/ST/STM32_USB_Host_Library/Core/Src/usbh_core.c ****       USBH_OpenPipe (phost,
 689:Middlewares/ST/STM32_USB_Host_Library/Core/Src/usbh_core.c ****                            phost->Control.pipe_out,
 690:Middlewares/ST/STM32_USB_Host_Library/Core/Src/usbh_core.c ****                            0x00U,
 691:Middlewares/ST/STM32_USB_Host_Library/Core/Src/usbh_core.c ****                            phost->device.address,
 692:Middlewares/ST/STM32_USB_Host_Library/Core/Src/usbh_core.c ****                            phost->device.speed,
 693:Middlewares/ST/STM32_USB_Host_Library/Core/Src/usbh_core.c ****                            USBH_EP_CONTROL,
 694:Middlewares/ST/STM32_USB_Host_Library/Core/Src/usbh_core.c ****                            (uint16_t)phost->Control.pipe_size);
 695:Middlewares/ST/STM32_USB_Host_Library/Core/Src/usbh_core.c **** 
 696:Middlewares/ST/STM32_USB_Host_Library/Core/Src/usbh_core.c ****     }
 697:Middlewares/ST/STM32_USB_Host_Library/Core/Src/usbh_core.c ****     break;
 698:Middlewares/ST/STM32_USB_Host_Library/Core/Src/usbh_core.c **** 
 699:Middlewares/ST/STM32_USB_Host_Library/Core/Src/usbh_core.c ****   case ENUM_GET_FULL_DEV_DESC:
 700:Middlewares/ST/STM32_USB_Host_Library/Core/Src/usbh_core.c ****     /* Get FULL Device Desc  */
 701:Middlewares/ST/STM32_USB_Host_Library/Core/Src/usbh_core.c ****     if ( USBH_Get_DevDesc(phost, USB_DEVICE_DESC_SIZE)== USBH_OK)
 702:Middlewares/ST/STM32_USB_Host_Library/Core/Src/usbh_core.c ****     {
 703:Middlewares/ST/STM32_USB_Host_Library/Core/Src/usbh_core.c ****       USBH_UsrLog("PID: %xh", phost->device.DevDesc.idProduct );
 704:Middlewares/ST/STM32_USB_Host_Library/Core/Src/usbh_core.c ****       USBH_UsrLog("VID: %xh", phost->device.DevDesc.idVendor );
 705:Middlewares/ST/STM32_USB_Host_Library/Core/Src/usbh_core.c **** 
 706:Middlewares/ST/STM32_USB_Host_Library/Core/Src/usbh_core.c ****       phost->EnumState = ENUM_SET_ADDR;
ARM GAS  C:\Users\Nina\AppData\Local\Temp\ccjD0KBj.s 			page 16


 707:Middlewares/ST/STM32_USB_Host_Library/Core/Src/usbh_core.c **** 
 708:Middlewares/ST/STM32_USB_Host_Library/Core/Src/usbh_core.c ****     }
 709:Middlewares/ST/STM32_USB_Host_Library/Core/Src/usbh_core.c ****     break;
 710:Middlewares/ST/STM32_USB_Host_Library/Core/Src/usbh_core.c **** 
 711:Middlewares/ST/STM32_USB_Host_Library/Core/Src/usbh_core.c ****   case ENUM_SET_ADDR:
 712:Middlewares/ST/STM32_USB_Host_Library/Core/Src/usbh_core.c ****     /* set address */
 713:Middlewares/ST/STM32_USB_Host_Library/Core/Src/usbh_core.c ****     if ( USBH_SetAddress(phost, USBH_DEVICE_ADDRESS) == USBH_OK)
 714:Middlewares/ST/STM32_USB_Host_Library/Core/Src/usbh_core.c ****     {
 715:Middlewares/ST/STM32_USB_Host_Library/Core/Src/usbh_core.c ****       USBH_Delay(2U);
 716:Middlewares/ST/STM32_USB_Host_Library/Core/Src/usbh_core.c ****       phost->device.address = USBH_DEVICE_ADDRESS;
 717:Middlewares/ST/STM32_USB_Host_Library/Core/Src/usbh_core.c **** 
 718:Middlewares/ST/STM32_USB_Host_Library/Core/Src/usbh_core.c ****       /* user callback for device address assigned */
 719:Middlewares/ST/STM32_USB_Host_Library/Core/Src/usbh_core.c ****       USBH_UsrLog("Address (#%d) assigned.", phost->device.address);
 720:Middlewares/ST/STM32_USB_Host_Library/Core/Src/usbh_core.c ****       phost->EnumState = ENUM_GET_CFG_DESC;
 721:Middlewares/ST/STM32_USB_Host_Library/Core/Src/usbh_core.c **** 
 722:Middlewares/ST/STM32_USB_Host_Library/Core/Src/usbh_core.c ****       /* modify control channels to update device address */
 723:Middlewares/ST/STM32_USB_Host_Library/Core/Src/usbh_core.c ****       USBH_OpenPipe (phost,
 724:Middlewares/ST/STM32_USB_Host_Library/Core/Src/usbh_core.c ****                            phost->Control.pipe_in,
 725:Middlewares/ST/STM32_USB_Host_Library/Core/Src/usbh_core.c ****                            0x80U,
 726:Middlewares/ST/STM32_USB_Host_Library/Core/Src/usbh_core.c ****                            phost->device.address,
 727:Middlewares/ST/STM32_USB_Host_Library/Core/Src/usbh_core.c ****                            phost->device.speed,
 728:Middlewares/ST/STM32_USB_Host_Library/Core/Src/usbh_core.c ****                            USBH_EP_CONTROL,
 729:Middlewares/ST/STM32_USB_Host_Library/Core/Src/usbh_core.c ****                            (uint16_t)phost->Control.pipe_size);
 730:Middlewares/ST/STM32_USB_Host_Library/Core/Src/usbh_core.c **** 
 731:Middlewares/ST/STM32_USB_Host_Library/Core/Src/usbh_core.c ****       /* Open Control pipes */
 732:Middlewares/ST/STM32_USB_Host_Library/Core/Src/usbh_core.c ****       USBH_OpenPipe (phost,
 733:Middlewares/ST/STM32_USB_Host_Library/Core/Src/usbh_core.c ****                            phost->Control.pipe_out,
 734:Middlewares/ST/STM32_USB_Host_Library/Core/Src/usbh_core.c ****                            0x00U,
 735:Middlewares/ST/STM32_USB_Host_Library/Core/Src/usbh_core.c ****                            phost->device.address,
 736:Middlewares/ST/STM32_USB_Host_Library/Core/Src/usbh_core.c ****                            phost->device.speed,
 737:Middlewares/ST/STM32_USB_Host_Library/Core/Src/usbh_core.c ****                            USBH_EP_CONTROL,
 738:Middlewares/ST/STM32_USB_Host_Library/Core/Src/usbh_core.c ****                            (uint16_t)phost->Control.pipe_size);
 739:Middlewares/ST/STM32_USB_Host_Library/Core/Src/usbh_core.c ****     }
 740:Middlewares/ST/STM32_USB_Host_Library/Core/Src/usbh_core.c ****     break;
 741:Middlewares/ST/STM32_USB_Host_Library/Core/Src/usbh_core.c **** 
 742:Middlewares/ST/STM32_USB_Host_Library/Core/Src/usbh_core.c ****   case ENUM_GET_CFG_DESC:
 743:Middlewares/ST/STM32_USB_Host_Library/Core/Src/usbh_core.c ****     /* get standard configuration descriptor */
 744:Middlewares/ST/STM32_USB_Host_Library/Core/Src/usbh_core.c ****     if ( USBH_Get_CfgDesc(phost,
 745:Middlewares/ST/STM32_USB_Host_Library/Core/Src/usbh_core.c ****                           USB_CONFIGURATION_DESC_SIZE) == USBH_OK)
 746:Middlewares/ST/STM32_USB_Host_Library/Core/Src/usbh_core.c ****     {
 747:Middlewares/ST/STM32_USB_Host_Library/Core/Src/usbh_core.c ****       phost->EnumState = ENUM_GET_FULL_CFG_DESC;
 748:Middlewares/ST/STM32_USB_Host_Library/Core/Src/usbh_core.c ****     }
 749:Middlewares/ST/STM32_USB_Host_Library/Core/Src/usbh_core.c ****     break;
 750:Middlewares/ST/STM32_USB_Host_Library/Core/Src/usbh_core.c **** 
 751:Middlewares/ST/STM32_USB_Host_Library/Core/Src/usbh_core.c ****   case ENUM_GET_FULL_CFG_DESC:
 752:Middlewares/ST/STM32_USB_Host_Library/Core/Src/usbh_core.c ****     /* get FULL config descriptor (config, interface, endpoints) */
 753:Middlewares/ST/STM32_USB_Host_Library/Core/Src/usbh_core.c ****     if (USBH_Get_CfgDesc(phost,
 754:Middlewares/ST/STM32_USB_Host_Library/Core/Src/usbh_core.c ****                          phost->device.CfgDesc.wTotalLength) == USBH_OK)
 755:Middlewares/ST/STM32_USB_Host_Library/Core/Src/usbh_core.c ****     {
 756:Middlewares/ST/STM32_USB_Host_Library/Core/Src/usbh_core.c ****       phost->EnumState = ENUM_GET_MFC_STRING_DESC;
 757:Middlewares/ST/STM32_USB_Host_Library/Core/Src/usbh_core.c ****     }
 758:Middlewares/ST/STM32_USB_Host_Library/Core/Src/usbh_core.c ****     break;
 759:Middlewares/ST/STM32_USB_Host_Library/Core/Src/usbh_core.c **** 
 760:Middlewares/ST/STM32_USB_Host_Library/Core/Src/usbh_core.c ****   case ENUM_GET_MFC_STRING_DESC:
 761:Middlewares/ST/STM32_USB_Host_Library/Core/Src/usbh_core.c ****     if (phost->device.DevDesc.iManufacturer != 0U)
 762:Middlewares/ST/STM32_USB_Host_Library/Core/Src/usbh_core.c ****     { /* Check that Manufacturer String is available */
 763:Middlewares/ST/STM32_USB_Host_Library/Core/Src/usbh_core.c **** 
ARM GAS  C:\Users\Nina\AppData\Local\Temp\ccjD0KBj.s 			page 17


 764:Middlewares/ST/STM32_USB_Host_Library/Core/Src/usbh_core.c ****       if ( USBH_Get_StringDesc(phost,
 765:Middlewares/ST/STM32_USB_Host_Library/Core/Src/usbh_core.c ****                                phost->device.DevDesc.iManufacturer,
 766:Middlewares/ST/STM32_USB_Host_Library/Core/Src/usbh_core.c ****                                phost->device.Data,
 767:Middlewares/ST/STM32_USB_Host_Library/Core/Src/usbh_core.c ****                                0xFFU) == USBH_OK)
 768:Middlewares/ST/STM32_USB_Host_Library/Core/Src/usbh_core.c ****       {
 769:Middlewares/ST/STM32_USB_Host_Library/Core/Src/usbh_core.c ****         /* User callback for Manufacturing string */
 770:Middlewares/ST/STM32_USB_Host_Library/Core/Src/usbh_core.c ****         USBH_UsrLog("Manufacturer : %s",  (char *)(void*)phost->device.Data);
 771:Middlewares/ST/STM32_USB_Host_Library/Core/Src/usbh_core.c ****         phost->EnumState = ENUM_GET_PRODUCT_STRING_DESC;
 772:Middlewares/ST/STM32_USB_Host_Library/Core/Src/usbh_core.c **** 
 773:Middlewares/ST/STM32_USB_Host_Library/Core/Src/usbh_core.c **** #if (USBH_USE_OS == 1U)
 774:Middlewares/ST/STM32_USB_Host_Library/Core/Src/usbh_core.c ****     osMessagePut ( phost->os_event, USBH_STATE_CHANGED_EVENT, 0);
 775:Middlewares/ST/STM32_USB_Host_Library/Core/Src/usbh_core.c **** #endif
 776:Middlewares/ST/STM32_USB_Host_Library/Core/Src/usbh_core.c ****       }
 777:Middlewares/ST/STM32_USB_Host_Library/Core/Src/usbh_core.c ****     }
 778:Middlewares/ST/STM32_USB_Host_Library/Core/Src/usbh_core.c ****     else
 779:Middlewares/ST/STM32_USB_Host_Library/Core/Src/usbh_core.c ****     {
 780:Middlewares/ST/STM32_USB_Host_Library/Core/Src/usbh_core.c ****      USBH_UsrLog("Manufacturer : N/A");
 781:Middlewares/ST/STM32_USB_Host_Library/Core/Src/usbh_core.c ****      phost->EnumState = ENUM_GET_PRODUCT_STRING_DESC;
 782:Middlewares/ST/STM32_USB_Host_Library/Core/Src/usbh_core.c **** #if (USBH_USE_OS == 1U)
 783:Middlewares/ST/STM32_USB_Host_Library/Core/Src/usbh_core.c ****     osMessagePut ( phost->os_event, USBH_STATE_CHANGED_EVENT, 0);
 784:Middlewares/ST/STM32_USB_Host_Library/Core/Src/usbh_core.c **** #endif
 785:Middlewares/ST/STM32_USB_Host_Library/Core/Src/usbh_core.c ****     }
 786:Middlewares/ST/STM32_USB_Host_Library/Core/Src/usbh_core.c ****     break;
 787:Middlewares/ST/STM32_USB_Host_Library/Core/Src/usbh_core.c **** 
 788:Middlewares/ST/STM32_USB_Host_Library/Core/Src/usbh_core.c ****   case ENUM_GET_PRODUCT_STRING_DESC:
 789:Middlewares/ST/STM32_USB_Host_Library/Core/Src/usbh_core.c ****     if (phost->device.DevDesc.iProduct != 0U)
 790:Middlewares/ST/STM32_USB_Host_Library/Core/Src/usbh_core.c ****     { /* Check that Product string is available */
 791:Middlewares/ST/STM32_USB_Host_Library/Core/Src/usbh_core.c ****       if ( USBH_Get_StringDesc(phost,
 792:Middlewares/ST/STM32_USB_Host_Library/Core/Src/usbh_core.c ****                                phost->device.DevDesc.iProduct,
 793:Middlewares/ST/STM32_USB_Host_Library/Core/Src/usbh_core.c ****                                phost->device.Data,
 794:Middlewares/ST/STM32_USB_Host_Library/Core/Src/usbh_core.c ****                                0xFFU) == USBH_OK)
 795:Middlewares/ST/STM32_USB_Host_Library/Core/Src/usbh_core.c ****       {
 796:Middlewares/ST/STM32_USB_Host_Library/Core/Src/usbh_core.c ****         /* User callback for Product string */
 797:Middlewares/ST/STM32_USB_Host_Library/Core/Src/usbh_core.c ****         USBH_UsrLog("Product : %s",  (char *)(void *)phost->device.Data);
 798:Middlewares/ST/STM32_USB_Host_Library/Core/Src/usbh_core.c ****         phost->EnumState = ENUM_GET_SERIALNUM_STRING_DESC;
 799:Middlewares/ST/STM32_USB_Host_Library/Core/Src/usbh_core.c ****       }
 800:Middlewares/ST/STM32_USB_Host_Library/Core/Src/usbh_core.c ****     }
 801:Middlewares/ST/STM32_USB_Host_Library/Core/Src/usbh_core.c ****     else
 802:Middlewares/ST/STM32_USB_Host_Library/Core/Src/usbh_core.c ****     {
 803:Middlewares/ST/STM32_USB_Host_Library/Core/Src/usbh_core.c ****       USBH_UsrLog("Product : N/A");
 804:Middlewares/ST/STM32_USB_Host_Library/Core/Src/usbh_core.c ****       phost->EnumState = ENUM_GET_SERIALNUM_STRING_DESC;
 805:Middlewares/ST/STM32_USB_Host_Library/Core/Src/usbh_core.c **** #if (USBH_USE_OS == 1U)
 806:Middlewares/ST/STM32_USB_Host_Library/Core/Src/usbh_core.c ****     osMessagePut ( phost->os_event, USBH_STATE_CHANGED_EVENT, 0);
 807:Middlewares/ST/STM32_USB_Host_Library/Core/Src/usbh_core.c **** #endif
 808:Middlewares/ST/STM32_USB_Host_Library/Core/Src/usbh_core.c ****     }
 809:Middlewares/ST/STM32_USB_Host_Library/Core/Src/usbh_core.c ****     break;
 810:Middlewares/ST/STM32_USB_Host_Library/Core/Src/usbh_core.c **** 
 811:Middlewares/ST/STM32_USB_Host_Library/Core/Src/usbh_core.c ****   case ENUM_GET_SERIALNUM_STRING_DESC:
 812:Middlewares/ST/STM32_USB_Host_Library/Core/Src/usbh_core.c ****     if (phost->device.DevDesc.iSerialNumber != 0U)
 813:Middlewares/ST/STM32_USB_Host_Library/Core/Src/usbh_core.c ****     { /* Check that Serial number string is available */
 814:Middlewares/ST/STM32_USB_Host_Library/Core/Src/usbh_core.c ****       if ( USBH_Get_StringDesc(phost,
 815:Middlewares/ST/STM32_USB_Host_Library/Core/Src/usbh_core.c ****                                phost->device.DevDesc.iSerialNumber,
 816:Middlewares/ST/STM32_USB_Host_Library/Core/Src/usbh_core.c ****                                phost->device.Data,
 817:Middlewares/ST/STM32_USB_Host_Library/Core/Src/usbh_core.c ****                                0xFFU) == USBH_OK)
 818:Middlewares/ST/STM32_USB_Host_Library/Core/Src/usbh_core.c ****       {
 819:Middlewares/ST/STM32_USB_Host_Library/Core/Src/usbh_core.c ****         /* User callback for Serial number string */
 820:Middlewares/ST/STM32_USB_Host_Library/Core/Src/usbh_core.c ****          USBH_UsrLog("Serial Number : %s",  (char *)(void*)phost->device.Data);
ARM GAS  C:\Users\Nina\AppData\Local\Temp\ccjD0KBj.s 			page 18


 821:Middlewares/ST/STM32_USB_Host_Library/Core/Src/usbh_core.c ****         Status = USBH_OK;
 822:Middlewares/ST/STM32_USB_Host_Library/Core/Src/usbh_core.c ****       }
 823:Middlewares/ST/STM32_USB_Host_Library/Core/Src/usbh_core.c ****     }
 824:Middlewares/ST/STM32_USB_Host_Library/Core/Src/usbh_core.c ****     else
 825:Middlewares/ST/STM32_USB_Host_Library/Core/Src/usbh_core.c ****     {
 826:Middlewares/ST/STM32_USB_Host_Library/Core/Src/usbh_core.c ****       USBH_UsrLog("Serial Number : N/A");
 827:Middlewares/ST/STM32_USB_Host_Library/Core/Src/usbh_core.c ****       Status = USBH_OK;
 828:Middlewares/ST/STM32_USB_Host_Library/Core/Src/usbh_core.c **** #if (USBH_USE_OS == 1U)
 829:Middlewares/ST/STM32_USB_Host_Library/Core/Src/usbh_core.c ****     osMessagePut ( phost->os_event, USBH_STATE_CHANGED_EVENT, 0);
 830:Middlewares/ST/STM32_USB_Host_Library/Core/Src/usbh_core.c **** #endif
 831:Middlewares/ST/STM32_USB_Host_Library/Core/Src/usbh_core.c ****     }
 832:Middlewares/ST/STM32_USB_Host_Library/Core/Src/usbh_core.c ****     break;
 833:Middlewares/ST/STM32_USB_Host_Library/Core/Src/usbh_core.c **** 
 834:Middlewares/ST/STM32_USB_Host_Library/Core/Src/usbh_core.c ****   default:
 835:Middlewares/ST/STM32_USB_Host_Library/Core/Src/usbh_core.c ****     break;
 836:Middlewares/ST/STM32_USB_Host_Library/Core/Src/usbh_core.c ****   }
 837:Middlewares/ST/STM32_USB_Host_Library/Core/Src/usbh_core.c ****   return Status;
 838:Middlewares/ST/STM32_USB_Host_Library/Core/Src/usbh_core.c **** }
 839:Middlewares/ST/STM32_USB_Host_Library/Core/Src/usbh_core.c **** 
 840:Middlewares/ST/STM32_USB_Host_Library/Core/Src/usbh_core.c **** /**
 841:Middlewares/ST/STM32_USB_Host_Library/Core/Src/usbh_core.c ****   * @brief  USBH_LL_SetTimer
 842:Middlewares/ST/STM32_USB_Host_Library/Core/Src/usbh_core.c ****   *         Set the initial Host Timer tick
 843:Middlewares/ST/STM32_USB_Host_Library/Core/Src/usbh_core.c ****   * @param  phost: Host Handle
 844:Middlewares/ST/STM32_USB_Host_Library/Core/Src/usbh_core.c ****   * @retval None
 845:Middlewares/ST/STM32_USB_Host_Library/Core/Src/usbh_core.c ****   */
 846:Middlewares/ST/STM32_USB_Host_Library/Core/Src/usbh_core.c **** void  USBH_LL_SetTimer  (USBH_HandleTypeDef *phost, uint32_t time)
 847:Middlewares/ST/STM32_USB_Host_Library/Core/Src/usbh_core.c **** {
 848:Middlewares/ST/STM32_USB_Host_Library/Core/Src/usbh_core.c ****   phost->Timer = time;
 849:Middlewares/ST/STM32_USB_Host_Library/Core/Src/usbh_core.c **** }
 850:Middlewares/ST/STM32_USB_Host_Library/Core/Src/usbh_core.c **** /**
 851:Middlewares/ST/STM32_USB_Host_Library/Core/Src/usbh_core.c ****   * @brief  USBH_LL_IncTimer
 852:Middlewares/ST/STM32_USB_Host_Library/Core/Src/usbh_core.c ****   *         Increment Host Timer tick
 853:Middlewares/ST/STM32_USB_Host_Library/Core/Src/usbh_core.c ****   * @param  phost: Host Handle
 854:Middlewares/ST/STM32_USB_Host_Library/Core/Src/usbh_core.c ****   * @retval None
 855:Middlewares/ST/STM32_USB_Host_Library/Core/Src/usbh_core.c ****   */
 856:Middlewares/ST/STM32_USB_Host_Library/Core/Src/usbh_core.c **** void  USBH_LL_IncTimer  (USBH_HandleTypeDef *phost)
 857:Middlewares/ST/STM32_USB_Host_Library/Core/Src/usbh_core.c **** {
 858:Middlewares/ST/STM32_USB_Host_Library/Core/Src/usbh_core.c ****   phost->Timer ++;
 859:Middlewares/ST/STM32_USB_Host_Library/Core/Src/usbh_core.c ****   USBH_HandleSof(phost);
 860:Middlewares/ST/STM32_USB_Host_Library/Core/Src/usbh_core.c **** }
 861:Middlewares/ST/STM32_USB_Host_Library/Core/Src/usbh_core.c **** 
 862:Middlewares/ST/STM32_USB_Host_Library/Core/Src/usbh_core.c **** /**
 863:Middlewares/ST/STM32_USB_Host_Library/Core/Src/usbh_core.c ****   * @brief  USBH_HandleSof
 864:Middlewares/ST/STM32_USB_Host_Library/Core/Src/usbh_core.c ****   *         Call SOF process
 865:Middlewares/ST/STM32_USB_Host_Library/Core/Src/usbh_core.c ****   * @param  phost: Host Handle
 866:Middlewares/ST/STM32_USB_Host_Library/Core/Src/usbh_core.c ****   * @retval None
 867:Middlewares/ST/STM32_USB_Host_Library/Core/Src/usbh_core.c ****   */
 868:Middlewares/ST/STM32_USB_Host_Library/Core/Src/usbh_core.c **** static void  USBH_HandleSof  (USBH_HandleTypeDef *phost)
 869:Middlewares/ST/STM32_USB_Host_Library/Core/Src/usbh_core.c **** {
 143              		.loc 1 869 1 is_stmt 1 view -0
 144              		.cfi_startproc
 145              		@ args = 0, pretend = 0, frame = 0
 146              		@ frame_needed = 0, uses_anonymous_args = 0
 147              		.loc 1 869 1 is_stmt 0 view .LVU44
 148 0000 08B5     		push	{r3, lr}
 149              	.LCFI2:
 150              		.cfi_def_cfa_offset 8
ARM GAS  C:\Users\Nina\AppData\Local\Temp\ccjD0KBj.s 			page 19


 151              		.cfi_offset 3, -8
 152              		.cfi_offset 14, -4
 870:Middlewares/ST/STM32_USB_Host_Library/Core/Src/usbh_core.c ****   if((phost->gState == HOST_CLASS)&&(phost->pActiveClass != NULL))
 153              		.loc 1 870 3 is_stmt 1 view .LVU45
 154              		.loc 1 870 12 is_stmt 0 view .LVU46
 155 0002 0378     		ldrb	r3, [r0]	@ zero_extendqisi2
 156 0004 DBB2     		uxtb	r3, r3
 157              		.loc 1 870 5 view .LVU47
 158 0006 0B2B     		cmp	r3, #11
 159 0008 00D0     		beq	.L11
 160              	.LVL10:
 161              	.L8:
 871:Middlewares/ST/STM32_USB_Host_Library/Core/Src/usbh_core.c ****   {
 872:Middlewares/ST/STM32_USB_Host_Library/Core/Src/usbh_core.c ****     phost->pActiveClass->SOFProcess(phost);
 873:Middlewares/ST/STM32_USB_Host_Library/Core/Src/usbh_core.c ****   }
 874:Middlewares/ST/STM32_USB_Host_Library/Core/Src/usbh_core.c **** }
 162              		.loc 1 874 1 view .LVU48
 163 000a 08BD     		pop	{r3, pc}
 164              	.LVL11:
 165              	.L11:
 870:Middlewares/ST/STM32_USB_Host_Library/Core/Src/usbh_core.c ****   if((phost->gState == HOST_CLASS)&&(phost->pActiveClass != NULL))
 166              		.loc 1 870 43 discriminator 1 view .LVU49
 167 000c D0F87833 		ldr	r3, [r0, #888]
 870:Middlewares/ST/STM32_USB_Host_Library/Core/Src/usbh_core.c ****   if((phost->gState == HOST_CLASS)&&(phost->pActiveClass != NULL))
 168              		.loc 1 870 35 discriminator 1 view .LVU50
 169 0010 002B     		cmp	r3, #0
 170 0012 FAD0     		beq	.L8
 872:Middlewares/ST/STM32_USB_Host_Library/Core/Src/usbh_core.c ****   }
 171              		.loc 1 872 5 is_stmt 1 view .LVU51
 872:Middlewares/ST/STM32_USB_Host_Library/Core/Src/usbh_core.c ****   }
 172              		.loc 1 872 24 is_stmt 0 view .LVU52
 173 0014 9B69     		ldr	r3, [r3, #24]
 872:Middlewares/ST/STM32_USB_Host_Library/Core/Src/usbh_core.c ****   }
 174              		.loc 1 872 5 view .LVU53
 175 0016 9847     		blx	r3
 176              	.LVL12:
 177              		.loc 1 874 1 view .LVU54
 178 0018 F7E7     		b	.L8
 179              		.cfi_endproc
 180              	.LFE158:
 182              		.section	.rodata.USBH_HandleEnum.str1.4,"aMS",%progbits,1
 183              		.align	2
 184              	.LC3:
 185 0000 5049443A 		.ascii	"PID: %xh\000"
 185      20257868 
 185      00
 186 0009 000000   		.align	2
 187              	.LC4:
 188 000c 5649443A 		.ascii	"VID: %xh\000"
 188      20257868 
 188      00
 189 0015 000000   		.align	2
 190              	.LC5:
 191 0018 41646472 		.ascii	"Address (#%d) assigned.\000"
 191      65737320 
 191      28232564 
 191      29206173 
ARM GAS  C:\Users\Nina\AppData\Local\Temp\ccjD0KBj.s 			page 20


 191      7369676E 
 192              		.align	2
 193              	.LC6:
 194 0030 4D616E75 		.ascii	"Manufacturer : %s\000"
 194      66616374 
 194      75726572 
 194      203A2025 
 194      7300
 195 0042 0000     		.align	2
 196              	.LC7:
 197 0044 4D616E75 		.ascii	"Manufacturer : N/A\000"
 197      66616374 
 197      75726572 
 197      203A204E 
 197      2F4100
 198 0057 00       		.align	2
 199              	.LC8:
 200 0058 50726F64 		.ascii	"Product : %s\000"
 200      75637420 
 200      3A202573 
 200      00
 201 0065 000000   		.align	2
 202              	.LC9:
 203 0068 50726F64 		.ascii	"Product : N/A\000"
 203      75637420 
 203      3A204E2F 
 203      4100
 204 0076 0000     		.align	2
 205              	.LC10:
 206 0078 53657269 		.ascii	"Serial Number : %s\000"
 206      616C204E 
 206      756D6265 
 206      72203A20 
 206      257300
 207 008b 00       		.align	2
 208              	.LC11:
 209 008c 53657269 		.ascii	"Serial Number : N/A\000"
 209      616C204E 
 209      756D6265 
 209      72203A20 
 209      4E2F4100 
 210              		.section	.text.USBH_HandleEnum,"ax",%progbits
 211              		.align	1
 212              		.syntax unified
 213              		.thumb
 214              		.thumb_func
 215              		.fpu fpv5-sp-d16
 217              	USBH_HandleEnum:
 218              	.LVL13:
 219              	.LFB155:
 665:Middlewares/ST/STM32_USB_Host_Library/Core/Src/usbh_core.c ****   USBH_StatusTypeDef Status = USBH_BUSY;
 220              		.loc 1 665 1 is_stmt 1 view -0
 221              		.cfi_startproc
 222              		@ args = 0, pretend = 0, frame = 0
 223              		@ frame_needed = 0, uses_anonymous_args = 0
 665:Middlewares/ST/STM32_USB_Host_Library/Core/Src/usbh_core.c ****   USBH_StatusTypeDef Status = USBH_BUSY;
 224              		.loc 1 665 1 is_stmt 0 view .LVU56
ARM GAS  C:\Users\Nina\AppData\Local\Temp\ccjD0KBj.s 			page 21


 225 0000 70B5     		push	{r4, r5, r6, lr}
 226              	.LCFI3:
 227              		.cfi_def_cfa_offset 16
 228              		.cfi_offset 4, -16
 229              		.cfi_offset 5, -12
 230              		.cfi_offset 6, -8
 231              		.cfi_offset 14, -4
 232 0002 84B0     		sub	sp, sp, #16
 233              	.LCFI4:
 234              		.cfi_def_cfa_offset 32
 235 0004 0446     		mov	r4, r0
 666:Middlewares/ST/STM32_USB_Host_Library/Core/Src/usbh_core.c **** 
 236              		.loc 1 666 3 is_stmt 1 view .LVU57
 237              	.LVL14:
 668:Middlewares/ST/STM32_USB_Host_Library/Core/Src/usbh_core.c ****   {
 238              		.loc 1 668 3 view .LVU58
 668:Middlewares/ST/STM32_USB_Host_Library/Core/Src/usbh_core.c ****   {
 239              		.loc 1 668 16 is_stmt 0 view .LVU59
 240 0006 4578     		ldrb	r5, [r0, #1]	@ zero_extendqisi2
 241 0008 072D     		cmp	r5, #7
 242 000a 00F20281 		bhi	.L26
 243 000e DFE805F0 		tbb	[pc, r5]
 244              	.L15:
 245 0012 04       		.byte	(.L22-.L15)/2
 246 0013 2A       		.byte	(.L21-.L15)/2
 247 0014 44       		.byte	(.L20-.L15)/2
 248 0015 75       		.byte	(.L19-.L15)/2
 249 0016 7F       		.byte	(.L18-.L15)/2
 250 0017 89       		.byte	(.L17-.L15)/2
 251 0018 B6       		.byte	(.L16-.L15)/2
 252 0019 DD       		.byte	(.L14-.L15)/2
 253              		.p2align 1
 254              	.L22:
 672:Middlewares/ST/STM32_USB_Host_Library/Core/Src/usbh_core.c ****     {
 255              		.loc 1 672 5 is_stmt 1 view .LVU60
 672:Middlewares/ST/STM32_USB_Host_Library/Core/Src/usbh_core.c ****     {
 256              		.loc 1 672 10 is_stmt 0 view .LVU61
 257 001a 0821     		movs	r1, #8
 258 001c FFF7FEFF 		bl	USBH_Get_DevDesc
 259              	.LVL15:
 672:Middlewares/ST/STM32_USB_Host_Library/Core/Src/usbh_core.c ****     {
 260              		.loc 1 672 8 view .LVU62
 261 0020 08B1     		cbz	r0, .L35
 666:Middlewares/ST/STM32_USB_Host_Library/Core/Src/usbh_core.c **** 
 262              		.loc 1 666 22 view .LVU63
 263 0022 0125     		movs	r5, #1
 264 0024 23E0     		b	.L13
 265              	.L35:
 674:Middlewares/ST/STM32_USB_Host_Library/Core/Src/usbh_core.c **** 
 266              		.loc 1 674 7 is_stmt 1 view .LVU64
 674:Middlewares/ST/STM32_USB_Host_Library/Core/Src/usbh_core.c **** 
 267              		.loc 1 674 55 is_stmt 0 view .LVU65
 268 0026 94F82933 		ldrb	r3, [r4, #809]	@ zero_extendqisi2
 674:Middlewares/ST/STM32_USB_Host_Library/Core/Src/usbh_core.c **** 
 269              		.loc 1 674 32 view .LVU66
 270 002a A371     		strb	r3, [r4, #6]
 676:Middlewares/ST/STM32_USB_Host_Library/Core/Src/usbh_core.c **** 
ARM GAS  C:\Users\Nina\AppData\Local\Temp\ccjD0KBj.s 			page 22


 271              		.loc 1 676 7 is_stmt 1 view .LVU67
 676:Middlewares/ST/STM32_USB_Host_Library/Core/Src/usbh_core.c **** 
 272              		.loc 1 676 24 is_stmt 0 view .LVU68
 273 002c 0125     		movs	r5, #1
 274 002e 6570     		strb	r5, [r4, #1]
 679:Middlewares/ST/STM32_USB_Host_Library/Core/Src/usbh_core.c ****                            phost->Control.pipe_in,
 275              		.loc 1 679 7 is_stmt 1 view .LVU69
 276 0030 0293     		str	r3, [sp, #8]
 277 0032 0026     		movs	r6, #0
 278 0034 0196     		str	r6, [sp, #4]
 279 0036 94F81D33 		ldrb	r3, [r4, #797]	@ zero_extendqisi2
 280 003a 0093     		str	r3, [sp]
 281 003c 94F81C33 		ldrb	r3, [r4, #796]	@ zero_extendqisi2
 282 0040 8022     		movs	r2, #128
 283 0042 2179     		ldrb	r1, [r4, #4]	@ zero_extendqisi2
 284 0044 2046     		mov	r0, r4
 285 0046 FFF7FEFF 		bl	USBH_OpenPipe
 286              	.LVL16:
 688:Middlewares/ST/STM32_USB_Host_Library/Core/Src/usbh_core.c ****                            phost->Control.pipe_out,
 287              		.loc 1 688 7 view .LVU70
 288 004a A379     		ldrb	r3, [r4, #6]	@ zero_extendqisi2
 289 004c 0293     		str	r3, [sp, #8]
 290 004e 0196     		str	r6, [sp, #4]
 291 0050 94F81D33 		ldrb	r3, [r4, #797]	@ zero_extendqisi2
 292 0054 0093     		str	r3, [sp]
 293 0056 94F81C33 		ldrb	r3, [r4, #796]	@ zero_extendqisi2
 294 005a 3246     		mov	r2, r6
 295 005c 6179     		ldrb	r1, [r4, #5]	@ zero_extendqisi2
 296 005e 2046     		mov	r0, r4
 297 0060 FFF7FEFF 		bl	USBH_OpenPipe
 298              	.LVL17:
 299 0064 03E0     		b	.L13
 300              	.LVL18:
 301              	.L21:
 701:Middlewares/ST/STM32_USB_Host_Library/Core/Src/usbh_core.c ****     {
 302              		.loc 1 701 5 view .LVU71
 701:Middlewares/ST/STM32_USB_Host_Library/Core/Src/usbh_core.c ****     {
 303              		.loc 1 701 10 is_stmt 0 view .LVU72
 304 0066 1221     		movs	r1, #18
 305 0068 FFF7FEFF 		bl	USBH_Get_DevDesc
 306              	.LVL19:
 701:Middlewares/ST/STM32_USB_Host_Library/Core/Src/usbh_core.c ****     {
 307              		.loc 1 701 8 view .LVU73
 308 006c 10B1     		cbz	r0, .L36
 309              	.LVL20:
 310              	.L13:
 837:Middlewares/ST/STM32_USB_Host_Library/Core/Src/usbh_core.c **** }
 311              		.loc 1 837 3 is_stmt 1 view .LVU74
 838:Middlewares/ST/STM32_USB_Host_Library/Core/Src/usbh_core.c **** 
 312              		.loc 1 838 1 is_stmt 0 view .LVU75
 313 006e 2846     		mov	r0, r5
 314 0070 04B0     		add	sp, sp, #16
 315              	.LCFI5:
 316              		.cfi_remember_state
 317              		.cfi_def_cfa_offset 16
 318              		@ sp needed
 319 0072 70BD     		pop	{r4, r5, r6, pc}
ARM GAS  C:\Users\Nina\AppData\Local\Temp\ccjD0KBj.s 			page 23


 320              	.LVL21:
 321              	.L36:
 322              	.LCFI6:
 323              		.cfi_restore_state
 703:Middlewares/ST/STM32_USB_Host_Library/Core/Src/usbh_core.c ****       USBH_UsrLog("VID: %xh", phost->device.DevDesc.idVendor );
 324              		.loc 1 703 7 is_stmt 1 view .LVU76
 325 0074 B4F82C13 		ldrh	r1, [r4, #812]
 326 0078 6948     		ldr	r0, .L41
 327 007a FFF7FEFF 		bl	printf
 328              	.LVL22:
 703:Middlewares/ST/STM32_USB_Host_Library/Core/Src/usbh_core.c ****       USBH_UsrLog("VID: %xh", phost->device.DevDesc.idVendor );
 329              		.loc 1 703 7 view .LVU77
 330 007e 0A20     		movs	r0, #10
 331 0080 FFF7FEFF 		bl	putchar
 332              	.LVL23:
 703:Middlewares/ST/STM32_USB_Host_Library/Core/Src/usbh_core.c ****       USBH_UsrLog("VID: %xh", phost->device.DevDesc.idVendor );
 333              		.loc 1 703 64 view .LVU78
 704:Middlewares/ST/STM32_USB_Host_Library/Core/Src/usbh_core.c **** 
 334              		.loc 1 704 7 view .LVU79
 335 0084 B4F82A13 		ldrh	r1, [r4, #810]
 336 0088 6648     		ldr	r0, .L41+4
 337 008a FFF7FEFF 		bl	printf
 338              	.LVL24:
 704:Middlewares/ST/STM32_USB_Host_Library/Core/Src/usbh_core.c **** 
 339              		.loc 1 704 7 view .LVU80
 340 008e 0A20     		movs	r0, #10
 341 0090 FFF7FEFF 		bl	putchar
 342              	.LVL25:
 704:Middlewares/ST/STM32_USB_Host_Library/Core/Src/usbh_core.c **** 
 343              		.loc 1 704 63 view .LVU81
 706:Middlewares/ST/STM32_USB_Host_Library/Core/Src/usbh_core.c **** 
 344              		.loc 1 706 7 view .LVU82
 706:Middlewares/ST/STM32_USB_Host_Library/Core/Src/usbh_core.c **** 
 345              		.loc 1 706 24 is_stmt 0 view .LVU83
 346 0094 0223     		movs	r3, #2
 347 0096 6370     		strb	r3, [r4, #1]
 348 0098 E9E7     		b	.L13
 349              	.LVL26:
 350              	.L20:
 713:Middlewares/ST/STM32_USB_Host_Library/Core/Src/usbh_core.c ****     {
 351              		.loc 1 713 5 is_stmt 1 view .LVU84
 713:Middlewares/ST/STM32_USB_Host_Library/Core/Src/usbh_core.c ****     {
 352              		.loc 1 713 10 is_stmt 0 view .LVU85
 353 009a 0121     		movs	r1, #1
 354 009c FFF7FEFF 		bl	USBH_SetAddress
 355              	.LVL27:
 713:Middlewares/ST/STM32_USB_Host_Library/Core/Src/usbh_core.c ****     {
 356              		.loc 1 713 8 view .LVU86
 357 00a0 08B1     		cbz	r0, .L37
 666:Middlewares/ST/STM32_USB_Host_Library/Core/Src/usbh_core.c **** 
 358              		.loc 1 666 22 view .LVU87
 359 00a2 0125     		movs	r5, #1
 360 00a4 E3E7     		b	.L13
 361              	.L37:
 715:Middlewares/ST/STM32_USB_Host_Library/Core/Src/usbh_core.c ****       phost->device.address = USBH_DEVICE_ADDRESS;
 362              		.loc 1 715 7 is_stmt 1 view .LVU88
 363 00a6 0220     		movs	r0, #2
ARM GAS  C:\Users\Nina\AppData\Local\Temp\ccjD0KBj.s 			page 24


 364 00a8 FFF7FEFF 		bl	USBH_Delay
 365              	.LVL28:
 716:Middlewares/ST/STM32_USB_Host_Library/Core/Src/usbh_core.c **** 
 366              		.loc 1 716 7 view .LVU89
 716:Middlewares/ST/STM32_USB_Host_Library/Core/Src/usbh_core.c **** 
 367              		.loc 1 716 29 is_stmt 0 view .LVU90
 368 00ac 0125     		movs	r5, #1
 369 00ae 84F81C53 		strb	r5, [r4, #796]
 719:Middlewares/ST/STM32_USB_Host_Library/Core/Src/usbh_core.c ****       phost->EnumState = ENUM_GET_CFG_DESC;
 370              		.loc 1 719 7 is_stmt 1 view .LVU91
 371 00b2 2946     		mov	r1, r5
 372 00b4 5C48     		ldr	r0, .L41+8
 373 00b6 FFF7FEFF 		bl	printf
 374              	.LVL29:
 719:Middlewares/ST/STM32_USB_Host_Library/Core/Src/usbh_core.c ****       phost->EnumState = ENUM_GET_CFG_DESC;
 375              		.loc 1 719 7 view .LVU92
 376 00ba 0A20     		movs	r0, #10
 377 00bc FFF7FEFF 		bl	putchar
 378              	.LVL30:
 719:Middlewares/ST/STM32_USB_Host_Library/Core/Src/usbh_core.c ****       phost->EnumState = ENUM_GET_CFG_DESC;
 379              		.loc 1 719 68 view .LVU93
 720:Middlewares/ST/STM32_USB_Host_Library/Core/Src/usbh_core.c **** 
 380              		.loc 1 720 7 view .LVU94
 720:Middlewares/ST/STM32_USB_Host_Library/Core/Src/usbh_core.c **** 
 381              		.loc 1 720 24 is_stmt 0 view .LVU95
 382 00c0 0323     		movs	r3, #3
 383 00c2 6370     		strb	r3, [r4, #1]
 723:Middlewares/ST/STM32_USB_Host_Library/Core/Src/usbh_core.c ****                            phost->Control.pipe_in,
 384              		.loc 1 723 7 is_stmt 1 view .LVU96
 385 00c4 A379     		ldrb	r3, [r4, #6]	@ zero_extendqisi2
 386 00c6 0293     		str	r3, [sp, #8]
 387 00c8 0026     		movs	r6, #0
 388 00ca 0196     		str	r6, [sp, #4]
 389 00cc 94F81D33 		ldrb	r3, [r4, #797]	@ zero_extendqisi2
 390 00d0 0093     		str	r3, [sp]
 391 00d2 94F81C33 		ldrb	r3, [r4, #796]	@ zero_extendqisi2
 392 00d6 8022     		movs	r2, #128
 393 00d8 2179     		ldrb	r1, [r4, #4]	@ zero_extendqisi2
 394 00da 2046     		mov	r0, r4
 395 00dc FFF7FEFF 		bl	USBH_OpenPipe
 396              	.LVL31:
 732:Middlewares/ST/STM32_USB_Host_Library/Core/Src/usbh_core.c ****                            phost->Control.pipe_out,
 397              		.loc 1 732 7 view .LVU97
 398 00e0 A379     		ldrb	r3, [r4, #6]	@ zero_extendqisi2
 399 00e2 0293     		str	r3, [sp, #8]
 400 00e4 0196     		str	r6, [sp, #4]
 401 00e6 94F81D33 		ldrb	r3, [r4, #797]	@ zero_extendqisi2
 402 00ea 0093     		str	r3, [sp]
 403 00ec 94F81C33 		ldrb	r3, [r4, #796]	@ zero_extendqisi2
 404 00f0 3246     		mov	r2, r6
 405 00f2 6179     		ldrb	r1, [r4, #5]	@ zero_extendqisi2
 406 00f4 2046     		mov	r0, r4
 407 00f6 FFF7FEFF 		bl	USBH_OpenPipe
 408              	.LVL32:
 409 00fa B8E7     		b	.L13
 410              	.LVL33:
 411              	.L19:
ARM GAS  C:\Users\Nina\AppData\Local\Temp\ccjD0KBj.s 			page 25


 744:Middlewares/ST/STM32_USB_Host_Library/Core/Src/usbh_core.c ****                           USB_CONFIGURATION_DESC_SIZE) == USBH_OK)
 412              		.loc 1 744 5 view .LVU98
 744:Middlewares/ST/STM32_USB_Host_Library/Core/Src/usbh_core.c ****                           USB_CONFIGURATION_DESC_SIZE) == USBH_OK)
 413              		.loc 1 744 10 is_stmt 0 view .LVU99
 414 00fc 0921     		movs	r1, #9
 415 00fe FFF7FEFF 		bl	USBH_Get_CfgDesc
 416              	.LVL34:
 744:Middlewares/ST/STM32_USB_Host_Library/Core/Src/usbh_core.c ****                           USB_CONFIGURATION_DESC_SIZE) == USBH_OK)
 417              		.loc 1 744 8 view .LVU100
 418 0102 0028     		cmp	r0, #0
 419 0104 40F08780 		bne	.L29
 747:Middlewares/ST/STM32_USB_Host_Library/Core/Src/usbh_core.c ****     }
 420              		.loc 1 747 7 is_stmt 1 view .LVU101
 747:Middlewares/ST/STM32_USB_Host_Library/Core/Src/usbh_core.c ****     }
 421              		.loc 1 747 24 is_stmt 0 view .LVU102
 422 0108 0423     		movs	r3, #4
 423 010a 6370     		strb	r3, [r4, #1]
 666:Middlewares/ST/STM32_USB_Host_Library/Core/Src/usbh_core.c **** 
 424              		.loc 1 666 22 view .LVU103
 425 010c 0125     		movs	r5, #1
 426 010e AEE7     		b	.L13
 427              	.LVL35:
 428              	.L18:
 753:Middlewares/ST/STM32_USB_Host_Library/Core/Src/usbh_core.c ****                          phost->device.CfgDesc.wTotalLength) == USBH_OK)
 429              		.loc 1 753 5 is_stmt 1 view .LVU104
 753:Middlewares/ST/STM32_USB_Host_Library/Core/Src/usbh_core.c ****                          phost->device.CfgDesc.wTotalLength) == USBH_OK)
 430              		.loc 1 753 9 is_stmt 0 view .LVU105
 431 0110 B0F83613 		ldrh	r1, [r0, #822]
 432 0114 FFF7FEFF 		bl	USBH_Get_CfgDesc
 433              	.LVL36:
 753:Middlewares/ST/STM32_USB_Host_Library/Core/Src/usbh_core.c ****                          phost->device.CfgDesc.wTotalLength) == USBH_OK)
 434              		.loc 1 753 8 view .LVU106
 435 0118 0028     		cmp	r0, #0
 436 011a 7ED1     		bne	.L30
 756:Middlewares/ST/STM32_USB_Host_Library/Core/Src/usbh_core.c ****     }
 437              		.loc 1 756 7 is_stmt 1 view .LVU107
 756:Middlewares/ST/STM32_USB_Host_Library/Core/Src/usbh_core.c ****     }
 438              		.loc 1 756 24 is_stmt 0 view .LVU108
 439 011c 0523     		movs	r3, #5
 440 011e 6370     		strb	r3, [r4, #1]
 666:Middlewares/ST/STM32_USB_Host_Library/Core/Src/usbh_core.c **** 
 441              		.loc 1 666 22 view .LVU109
 442 0120 0125     		movs	r5, #1
 443 0122 A4E7     		b	.L13
 444              	.LVL37:
 445              	.L17:
 761:Middlewares/ST/STM32_USB_Host_Library/Core/Src/usbh_core.c ****     { /* Check that Manufacturer String is available */
 446              		.loc 1 761 5 is_stmt 1 view .LVU110
 761:Middlewares/ST/STM32_USB_Host_Library/Core/Src/usbh_core.c ****     { /* Check that Manufacturer String is available */
 447              		.loc 1 761 30 is_stmt 0 view .LVU111
 448 0124 90F83013 		ldrb	r1, [r0, #816]	@ zero_extendqisi2
 761:Middlewares/ST/STM32_USB_Host_Library/Core/Src/usbh_core.c ****     { /* Check that Manufacturer String is available */
 449              		.loc 1 761 8 view .LVU112
 450 0128 C9B1     		cbz	r1, .L23
 764:Middlewares/ST/STM32_USB_Host_Library/Core/Src/usbh_core.c ****                                phost->device.DevDesc.iManufacturer,
 451              		.loc 1 764 7 is_stmt 1 view .LVU113
 766:Middlewares/ST/STM32_USB_Host_Library/Core/Src/usbh_core.c ****                                0xFFU) == USBH_OK)
ARM GAS  C:\Users\Nina\AppData\Local\Temp\ccjD0KBj.s 			page 26


 452              		.loc 1 766 45 is_stmt 0 view .LVU114
 453 012a 00F58E75 		add	r5, r0, #284
 764:Middlewares/ST/STM32_USB_Host_Library/Core/Src/usbh_core.c ****                                phost->device.DevDesc.iManufacturer,
 454              		.loc 1 764 12 view .LVU115
 455 012e FF23     		movs	r3, #255
 456 0130 2A46     		mov	r2, r5
 457 0132 FFF7FEFF 		bl	USBH_Get_StringDesc
 458              	.LVL38:
 764:Middlewares/ST/STM32_USB_Host_Library/Core/Src/usbh_core.c ****                                phost->device.DevDesc.iManufacturer,
 459              		.loc 1 764 10 view .LVU116
 460 0136 08B1     		cbz	r0, .L38
 666:Middlewares/ST/STM32_USB_Host_Library/Core/Src/usbh_core.c **** 
 461              		.loc 1 666 22 view .LVU117
 462 0138 0125     		movs	r5, #1
 463 013a 98E7     		b	.L13
 464              	.L38:
 770:Middlewares/ST/STM32_USB_Host_Library/Core/Src/usbh_core.c ****         phost->EnumState = ENUM_GET_PRODUCT_STRING_DESC;
 465              		.loc 1 770 9 is_stmt 1 view .LVU118
 466 013c 2946     		mov	r1, r5
 467 013e 3B48     		ldr	r0, .L41+12
 468 0140 FFF7FEFF 		bl	printf
 469              	.LVL39:
 770:Middlewares/ST/STM32_USB_Host_Library/Core/Src/usbh_core.c ****         phost->EnumState = ENUM_GET_PRODUCT_STRING_DESC;
 470              		.loc 1 770 9 view .LVU119
 471 0144 0A20     		movs	r0, #10
 472 0146 FFF7FEFF 		bl	putchar
 473              	.LVL40:
 770:Middlewares/ST/STM32_USB_Host_Library/Core/Src/usbh_core.c ****         phost->EnumState = ENUM_GET_PRODUCT_STRING_DESC;
 474              		.loc 1 770 77 view .LVU120
 771:Middlewares/ST/STM32_USB_Host_Library/Core/Src/usbh_core.c **** 
 475              		.loc 1 771 9 view .LVU121
 771:Middlewares/ST/STM32_USB_Host_Library/Core/Src/usbh_core.c **** 
 476              		.loc 1 771 26 is_stmt 0 view .LVU122
 477 014a 0623     		movs	r3, #6
 478 014c 6370     		strb	r3, [r4, #1]
 774:Middlewares/ST/STM32_USB_Host_Library/Core/Src/usbh_core.c **** #endif
 479              		.loc 1 774 5 is_stmt 1 view .LVU123
 480 014e 0022     		movs	r2, #0
 481 0150 0521     		movs	r1, #5
 482 0152 D4F8CC03 		ldr	r0, [r4, #972]
 483 0156 FFF7FEFF 		bl	osMessagePut
 484              	.LVL41:
 666:Middlewares/ST/STM32_USB_Host_Library/Core/Src/usbh_core.c **** 
 485              		.loc 1 666 22 is_stmt 0 view .LVU124
 486 015a 0125     		movs	r5, #1
 487 015c 87E7     		b	.L13
 488              	.LVL42:
 489              	.L23:
 780:Middlewares/ST/STM32_USB_Host_Library/Core/Src/usbh_core.c ****      phost->EnumState = ENUM_GET_PRODUCT_STRING_DESC;
 490              		.loc 1 780 6 is_stmt 1 view .LVU125
 491 015e 3448     		ldr	r0, .L41+16
 492              	.LVL43:
 780:Middlewares/ST/STM32_USB_Host_Library/Core/Src/usbh_core.c ****      phost->EnumState = ENUM_GET_PRODUCT_STRING_DESC;
 493              		.loc 1 780 6 is_stmt 0 view .LVU126
 494 0160 FFF7FEFF 		bl	printf
 495              	.LVL44:
 780:Middlewares/ST/STM32_USB_Host_Library/Core/Src/usbh_core.c ****      phost->EnumState = ENUM_GET_PRODUCT_STRING_DESC;
ARM GAS  C:\Users\Nina\AppData\Local\Temp\ccjD0KBj.s 			page 27


 496              		.loc 1 780 6 is_stmt 1 view .LVU127
 497 0164 0A20     		movs	r0, #10
 498 0166 FFF7FEFF 		bl	putchar
 499              	.LVL45:
 780:Middlewares/ST/STM32_USB_Host_Library/Core/Src/usbh_core.c ****      phost->EnumState = ENUM_GET_PRODUCT_STRING_DESC;
 500              		.loc 1 780 39 view .LVU128
 781:Middlewares/ST/STM32_USB_Host_Library/Core/Src/usbh_core.c **** #if (USBH_USE_OS == 1U)
 501              		.loc 1 781 6 view .LVU129
 781:Middlewares/ST/STM32_USB_Host_Library/Core/Src/usbh_core.c **** #if (USBH_USE_OS == 1U)
 502              		.loc 1 781 23 is_stmt 0 view .LVU130
 503 016a 0623     		movs	r3, #6
 504 016c 6370     		strb	r3, [r4, #1]
 783:Middlewares/ST/STM32_USB_Host_Library/Core/Src/usbh_core.c **** #endif
 505              		.loc 1 783 5 is_stmt 1 view .LVU131
 506 016e 0022     		movs	r2, #0
 507 0170 0521     		movs	r1, #5
 508 0172 D4F8CC03 		ldr	r0, [r4, #972]
 509 0176 FFF7FEFF 		bl	osMessagePut
 510              	.LVL46:
 666:Middlewares/ST/STM32_USB_Host_Library/Core/Src/usbh_core.c **** 
 511              		.loc 1 666 22 is_stmt 0 view .LVU132
 512 017a 0125     		movs	r5, #1
 513 017c 77E7     		b	.L13
 514              	.LVL47:
 515              	.L16:
 789:Middlewares/ST/STM32_USB_Host_Library/Core/Src/usbh_core.c ****     { /* Check that Product string is available */
 516              		.loc 1 789 5 is_stmt 1 view .LVU133
 789:Middlewares/ST/STM32_USB_Host_Library/Core/Src/usbh_core.c ****     { /* Check that Product string is available */
 517              		.loc 1 789 30 is_stmt 0 view .LVU134
 518 017e 90F83113 		ldrb	r1, [r0, #817]	@ zero_extendqisi2
 789:Middlewares/ST/STM32_USB_Host_Library/Core/Src/usbh_core.c ****     { /* Check that Product string is available */
 519              		.loc 1 789 8 view .LVU135
 520 0182 99B1     		cbz	r1, .L24
 791:Middlewares/ST/STM32_USB_Host_Library/Core/Src/usbh_core.c ****                                phost->device.DevDesc.iProduct,
 521              		.loc 1 791 7 is_stmt 1 view .LVU136
 793:Middlewares/ST/STM32_USB_Host_Library/Core/Src/usbh_core.c ****                                0xFFU) == USBH_OK)
 522              		.loc 1 793 45 is_stmt 0 view .LVU137
 523 0184 00F58E75 		add	r5, r0, #284
 791:Middlewares/ST/STM32_USB_Host_Library/Core/Src/usbh_core.c ****                                phost->device.DevDesc.iProduct,
 524              		.loc 1 791 12 view .LVU138
 525 0188 FF23     		movs	r3, #255
 526 018a 2A46     		mov	r2, r5
 527 018c FFF7FEFF 		bl	USBH_Get_StringDesc
 528              	.LVL48:
 791:Middlewares/ST/STM32_USB_Host_Library/Core/Src/usbh_core.c ****                                phost->device.DevDesc.iProduct,
 529              		.loc 1 791 10 view .LVU139
 530 0190 08B1     		cbz	r0, .L39
 666:Middlewares/ST/STM32_USB_Host_Library/Core/Src/usbh_core.c **** 
 531              		.loc 1 666 22 view .LVU140
 532 0192 0125     		movs	r5, #1
 533 0194 6BE7     		b	.L13
 534              	.L39:
 797:Middlewares/ST/STM32_USB_Host_Library/Core/Src/usbh_core.c ****         phost->EnumState = ENUM_GET_SERIALNUM_STRING_DESC;
 535              		.loc 1 797 9 is_stmt 1 view .LVU141
 536 0196 2946     		mov	r1, r5
 537 0198 2648     		ldr	r0, .L41+20
 538 019a FFF7FEFF 		bl	printf
ARM GAS  C:\Users\Nina\AppData\Local\Temp\ccjD0KBj.s 			page 28


 539              	.LVL49:
 797:Middlewares/ST/STM32_USB_Host_Library/Core/Src/usbh_core.c ****         phost->EnumState = ENUM_GET_SERIALNUM_STRING_DESC;
 540              		.loc 1 797 9 view .LVU142
 541 019e 0A20     		movs	r0, #10
 542 01a0 FFF7FEFF 		bl	putchar
 543              	.LVL50:
 797:Middlewares/ST/STM32_USB_Host_Library/Core/Src/usbh_core.c ****         phost->EnumState = ENUM_GET_SERIALNUM_STRING_DESC;
 544              		.loc 1 797 73 view .LVU143
 798:Middlewares/ST/STM32_USB_Host_Library/Core/Src/usbh_core.c ****       }
 545              		.loc 1 798 9 view .LVU144
 798:Middlewares/ST/STM32_USB_Host_Library/Core/Src/usbh_core.c ****       }
 546              		.loc 1 798 26 is_stmt 0 view .LVU145
 547 01a4 0723     		movs	r3, #7
 548 01a6 6370     		strb	r3, [r4, #1]
 666:Middlewares/ST/STM32_USB_Host_Library/Core/Src/usbh_core.c **** 
 549              		.loc 1 666 22 view .LVU146
 550 01a8 0125     		movs	r5, #1
 551 01aa 60E7     		b	.L13
 552              	.LVL51:
 553              	.L24:
 803:Middlewares/ST/STM32_USB_Host_Library/Core/Src/usbh_core.c ****       phost->EnumState = ENUM_GET_SERIALNUM_STRING_DESC;
 554              		.loc 1 803 7 is_stmt 1 view .LVU147
 555 01ac 2248     		ldr	r0, .L41+24
 556              	.LVL52:
 803:Middlewares/ST/STM32_USB_Host_Library/Core/Src/usbh_core.c ****       phost->EnumState = ENUM_GET_SERIALNUM_STRING_DESC;
 557              		.loc 1 803 7 is_stmt 0 view .LVU148
 558 01ae FFF7FEFF 		bl	printf
 559              	.LVL53:
 803:Middlewares/ST/STM32_USB_Host_Library/Core/Src/usbh_core.c ****       phost->EnumState = ENUM_GET_SERIALNUM_STRING_DESC;
 560              		.loc 1 803 7 is_stmt 1 view .LVU149
 561 01b2 0A20     		movs	r0, #10
 562 01b4 FFF7FEFF 		bl	putchar
 563              	.LVL54:
 803:Middlewares/ST/STM32_USB_Host_Library/Core/Src/usbh_core.c ****       phost->EnumState = ENUM_GET_SERIALNUM_STRING_DESC;
 564              		.loc 1 803 35 view .LVU150
 804:Middlewares/ST/STM32_USB_Host_Library/Core/Src/usbh_core.c **** #if (USBH_USE_OS == 1U)
 565              		.loc 1 804 7 view .LVU151
 804:Middlewares/ST/STM32_USB_Host_Library/Core/Src/usbh_core.c **** #if (USBH_USE_OS == 1U)
 566              		.loc 1 804 24 is_stmt 0 view .LVU152
 567 01b8 0723     		movs	r3, #7
 568 01ba 6370     		strb	r3, [r4, #1]
 806:Middlewares/ST/STM32_USB_Host_Library/Core/Src/usbh_core.c **** #endif
 569              		.loc 1 806 5 is_stmt 1 view .LVU153
 570 01bc 0022     		movs	r2, #0
 571 01be 0521     		movs	r1, #5
 572 01c0 D4F8CC03 		ldr	r0, [r4, #972]
 573 01c4 FFF7FEFF 		bl	osMessagePut
 574              	.LVL55:
 666:Middlewares/ST/STM32_USB_Host_Library/Core/Src/usbh_core.c **** 
 575              		.loc 1 666 22 is_stmt 0 view .LVU154
 576 01c8 0125     		movs	r5, #1
 577 01ca 50E7     		b	.L13
 578              	.LVL56:
 579              	.L14:
 812:Middlewares/ST/STM32_USB_Host_Library/Core/Src/usbh_core.c ****     { /* Check that Serial number string is available */
 580              		.loc 1 812 5 is_stmt 1 view .LVU155
 812:Middlewares/ST/STM32_USB_Host_Library/Core/Src/usbh_core.c ****     { /* Check that Serial number string is available */
ARM GAS  C:\Users\Nina\AppData\Local\Temp\ccjD0KBj.s 			page 29


 581              		.loc 1 812 30 is_stmt 0 view .LVU156
 582 01cc 90F83253 		ldrb	r5, [r0, #818]	@ zero_extendqisi2
 812:Middlewares/ST/STM32_USB_Host_Library/Core/Src/usbh_core.c ****     { /* Check that Serial number string is available */
 583              		.loc 1 812 8 view .LVU157
 584 01d0 95B1     		cbz	r5, .L25
 814:Middlewares/ST/STM32_USB_Host_Library/Core/Src/usbh_core.c ****                                phost->device.DevDesc.iSerialNumber,
 585              		.loc 1 814 7 is_stmt 1 view .LVU158
 816:Middlewares/ST/STM32_USB_Host_Library/Core/Src/usbh_core.c ****                                0xFFU) == USBH_OK)
 586              		.loc 1 816 45 is_stmt 0 view .LVU159
 587 01d2 00F58E76 		add	r6, r0, #284
 814:Middlewares/ST/STM32_USB_Host_Library/Core/Src/usbh_core.c ****                                phost->device.DevDesc.iSerialNumber,
 588              		.loc 1 814 12 view .LVU160
 589 01d6 FF23     		movs	r3, #255
 590 01d8 3246     		mov	r2, r6
 591 01da 2946     		mov	r1, r5
 592 01dc FFF7FEFF 		bl	USBH_Get_StringDesc
 593              	.LVL57:
 814:Middlewares/ST/STM32_USB_Host_Library/Core/Src/usbh_core.c ****                                phost->device.DevDesc.iSerialNumber,
 594              		.loc 1 814 10 view .LVU161
 595 01e0 0546     		mov	r5, r0
 596 01e2 08B1     		cbz	r0, .L40
 666:Middlewares/ST/STM32_USB_Host_Library/Core/Src/usbh_core.c **** 
 597              		.loc 1 666 22 view .LVU162
 598 01e4 0125     		movs	r5, #1
 599 01e6 42E7     		b	.L13
 600              	.L40:
 820:Middlewares/ST/STM32_USB_Host_Library/Core/Src/usbh_core.c ****         Status = USBH_OK;
 601              		.loc 1 820 10 is_stmt 1 view .LVU163
 602 01e8 3146     		mov	r1, r6
 603 01ea 1448     		ldr	r0, .L41+28
 604 01ec FFF7FEFF 		bl	printf
 605              	.LVL58:
 820:Middlewares/ST/STM32_USB_Host_Library/Core/Src/usbh_core.c ****         Status = USBH_OK;
 606              		.loc 1 820 10 view .LVU164
 607 01f0 0A20     		movs	r0, #10
 608 01f2 FFF7FEFF 		bl	putchar
 609              	.LVL59:
 820:Middlewares/ST/STM32_USB_Host_Library/Core/Src/usbh_core.c ****         Status = USBH_OK;
 610              		.loc 1 820 79 view .LVU165
 821:Middlewares/ST/STM32_USB_Host_Library/Core/Src/usbh_core.c ****       }
 611              		.loc 1 821 9 view .LVU166
 821:Middlewares/ST/STM32_USB_Host_Library/Core/Src/usbh_core.c ****       }
 612              		.loc 1 821 9 is_stmt 0 view .LVU167
 613 01f6 3AE7     		b	.L13
 614              	.LVL60:
 615              	.L25:
 826:Middlewares/ST/STM32_USB_Host_Library/Core/Src/usbh_core.c ****       Status = USBH_OK;
 616              		.loc 1 826 7 is_stmt 1 view .LVU168
 617 01f8 1148     		ldr	r0, .L41+32
 618              	.LVL61:
 826:Middlewares/ST/STM32_USB_Host_Library/Core/Src/usbh_core.c ****       Status = USBH_OK;
 619              		.loc 1 826 7 is_stmt 0 view .LVU169
 620 01fa FFF7FEFF 		bl	printf
 621              	.LVL62:
 826:Middlewares/ST/STM32_USB_Host_Library/Core/Src/usbh_core.c ****       Status = USBH_OK;
 622              		.loc 1 826 7 is_stmt 1 view .LVU170
 623 01fe 0A20     		movs	r0, #10
ARM GAS  C:\Users\Nina\AppData\Local\Temp\ccjD0KBj.s 			page 30


 624 0200 FFF7FEFF 		bl	putchar
 625              	.LVL63:
 826:Middlewares/ST/STM32_USB_Host_Library/Core/Src/usbh_core.c ****       Status = USBH_OK;
 626              		.loc 1 826 41 view .LVU171
 827:Middlewares/ST/STM32_USB_Host_Library/Core/Src/usbh_core.c **** #if (USBH_USE_OS == 1U)
 627              		.loc 1 827 7 view .LVU172
 829:Middlewares/ST/STM32_USB_Host_Library/Core/Src/usbh_core.c **** #endif
 628              		.loc 1 829 5 view .LVU173
 629 0204 0022     		movs	r2, #0
 630 0206 0521     		movs	r1, #5
 631 0208 D4F8CC03 		ldr	r0, [r4, #972]
 632 020c FFF7FEFF 		bl	osMessagePut
 633              	.LVL64:
 634 0210 2DE7     		b	.L13
 635              	.LVL65:
 636              	.L26:
 668:Middlewares/ST/STM32_USB_Host_Library/Core/Src/usbh_core.c ****   {
 637              		.loc 1 668 16 is_stmt 0 view .LVU174
 638 0212 0125     		movs	r5, #1
 639 0214 2BE7     		b	.L13
 640              	.LVL66:
 641              	.L29:
 666:Middlewares/ST/STM32_USB_Host_Library/Core/Src/usbh_core.c **** 
 642              		.loc 1 666 22 view .LVU175
 643 0216 0125     		movs	r5, #1
 644 0218 29E7     		b	.L13
 645              	.L30:
 666:Middlewares/ST/STM32_USB_Host_Library/Core/Src/usbh_core.c **** 
 646              		.loc 1 666 22 view .LVU176
 647 021a 0125     		movs	r5, #1
 648 021c 27E7     		b	.L13
 649              	.L42:
 650 021e 00BF     		.align	2
 651              	.L41:
 652 0220 00000000 		.word	.LC3
 653 0224 0C000000 		.word	.LC4
 654 0228 18000000 		.word	.LC5
 655 022c 30000000 		.word	.LC6
 656 0230 44000000 		.word	.LC7
 657 0234 58000000 		.word	.LC8
 658 0238 68000000 		.word	.LC9
 659 023c 78000000 		.word	.LC10
 660 0240 8C000000 		.word	.LC11
 661              		.cfi_endproc
 662              	.LFE155:
 664              		.section	.rodata.USBH_Init.str1.4,"aMS",%progbits,1
 665              		.align	2
 666              	.LC12:
 667 0000 4552524F 		.ascii	"ERROR: \000"
 667      523A2000 
 668              		.align	2
 669              	.LC13:
 670 0008 496E7661 		.ascii	"Invalid Host handle\000"
 670      6C696420 
 670      486F7374 
 670      2068616E 
 670      646C6500 
ARM GAS  C:\Users\Nina\AppData\Local\Temp\ccjD0KBj.s 			page 31


 671              		.section	.text.USBH_Init,"ax",%progbits
 672              		.align	1
 673              		.global	USBH_Init
 674              		.syntax unified
 675              		.thumb
 676              		.thumb_func
 677              		.fpu fpv5-sp-d16
 679              	USBH_Init:
 680              	.LVL67:
 681              	.LFB143:
 111:Middlewares/ST/STM32_USB_Host_Library/Core/Src/usbh_core.c ****   /* Check whether the USB Host handle is valid */
 682              		.loc 1 111 1 is_stmt 1 view -0
 683              		.cfi_startproc
 684              		@ args = 0, pretend = 0, frame = 32
 685              		@ frame_needed = 0, uses_anonymous_args = 0
 111:Middlewares/ST/STM32_USB_Host_Library/Core/Src/usbh_core.c ****   /* Check whether the USB Host handle is valid */
 686              		.loc 1 111 1 is_stmt 0 view .LVU178
 687 0000 70B5     		push	{r4, r5, r6, lr}
 688              	.LCFI7:
 689              		.cfi_def_cfa_offset 16
 690              		.cfi_offset 4, -16
 691              		.cfi_offset 5, -12
 692              		.cfi_offset 6, -8
 693              		.cfi_offset 14, -4
 694 0002 88B0     		sub	sp, sp, #32
 695              	.LCFI8:
 696              		.cfi_def_cfa_offset 48
 113:Middlewares/ST/STM32_USB_Host_Library/Core/Src/usbh_core.c ****   {
 697              		.loc 1 113 3 is_stmt 1 view .LVU179
 113:Middlewares/ST/STM32_USB_Host_Library/Core/Src/usbh_core.c ****   {
 698              		.loc 1 113 5 is_stmt 0 view .LVU180
 699 0004 58B3     		cbz	r0, .L48
 700 0006 0C46     		mov	r4, r1
 701 0008 0546     		mov	r5, r0
 120:Middlewares/ST/STM32_USB_Host_Library/Core/Src/usbh_core.c **** 
 702              		.loc 1 120 3 is_stmt 1 view .LVU181
 120:Middlewares/ST/STM32_USB_Host_Library/Core/Src/usbh_core.c **** 
 703              		.loc 1 120 13 is_stmt 0 view .LVU182
 704 000a 80F8C023 		strb	r2, [r0, #960]
 123:Middlewares/ST/STM32_USB_Host_Library/Core/Src/usbh_core.c ****   phost->ClassNumber = 0U;
 705              		.loc 1 123 3 is_stmt 1 view .LVU183
 123:Middlewares/ST/STM32_USB_Host_Library/Core/Src/usbh_core.c ****   phost->ClassNumber = 0U;
 706              		.loc 1 123 23 is_stmt 0 view .LVU184
 707 000e 0023     		movs	r3, #0
 708 0010 C0F87833 		str	r3, [r0, #888]
 124:Middlewares/ST/STM32_USB_Host_Library/Core/Src/usbh_core.c **** 
 709              		.loc 1 124 3 is_stmt 1 view .LVU185
 124:Middlewares/ST/STM32_USB_Host_Library/Core/Src/usbh_core.c **** 
 710              		.loc 1 124 22 is_stmt 0 view .LVU186
 711 0014 C0F87C33 		str	r3, [r0, #892]
 127:Middlewares/ST/STM32_USB_Host_Library/Core/Src/usbh_core.c **** 
 712              		.loc 1 127 3 is_stmt 1 view .LVU187
 713 0018 FFF7FEFF 		bl	DeInitStateMachine
 714              	.LVL68:
 130:Middlewares/ST/STM32_USB_Host_Library/Core/Src/usbh_core.c ****   {
 715              		.loc 1 130 3 view .LVU188
 130:Middlewares/ST/STM32_USB_Host_Library/Core/Src/usbh_core.c ****   {
ARM GAS  C:\Users\Nina\AppData\Local\Temp\ccjD0KBj.s 			page 32


 716              		.loc 1 130 5 is_stmt 0 view .LVU189
 717 001c 0CB1     		cbz	r4, .L46
 132:Middlewares/ST/STM32_USB_Host_Library/Core/Src/usbh_core.c ****   }
 718              		.loc 1 132 5 is_stmt 1 view .LVU190
 132:Middlewares/ST/STM32_USB_Host_Library/Core/Src/usbh_core.c ****   }
 719              		.loc 1 132 18 is_stmt 0 view .LVU191
 720 001e C5F8C843 		str	r4, [r5, #968]
 721              	.L46:
 138:Middlewares/ST/STM32_USB_Host_Library/Core/Src/usbh_core.c ****   phost->os_event = osMessageCreate (osMessageQ(USBH_Queue), NULL);
 722              		.loc 1 138 3 is_stmt 1 view .LVU192
 723 0022 144C     		ldr	r4, .L49
 724              	.LVL69:
 138:Middlewares/ST/STM32_USB_Host_Library/Core/Src/usbh_core.c ****   phost->os_event = osMessageCreate (osMessageQ(USBH_Queue), NULL);
 725              		.loc 1 138 3 is_stmt 0 view .LVU193
 726 0024 06AB     		add	r3, sp, #24
 727 0026 94E80300 		ldm	r4, {r0, r1}
 728 002a 83E80300 		stm	r3, {r0, r1}
 139:Middlewares/ST/STM32_USB_Host_Library/Core/Src/usbh_core.c **** 
 729              		.loc 1 139 3 is_stmt 1 view .LVU194
 139:Middlewares/ST/STM32_USB_Host_Library/Core/Src/usbh_core.c **** 
 730              		.loc 1 139 21 is_stmt 0 view .LVU195
 731 002e 0021     		movs	r1, #0
 732 0030 1846     		mov	r0, r3
 733 0032 FFF7FEFF 		bl	osMessageCreate
 734              	.LVL70:
 139:Middlewares/ST/STM32_USB_Host_Library/Core/Src/usbh_core.c **** 
 735              		.loc 1 139 19 view .LVU196
 736 0036 C5F8CC03 		str	r0, [r5, #972]
 143:Middlewares/ST/STM32_USB_Host_Library/Core/Src/usbh_core.c **** #else
 737              		.loc 1 143 3 is_stmt 1 view .LVU197
 738 003a 01AE     		add	r6, sp, #4
 739 003c 0834     		adds	r4, r4, #8
 740 003e 0FCC     		ldmia	r4!, {r0, r1, r2, r3}
 741 0040 0FC6     		stmia	r6!, {r0, r1, r2, r3}
 742 0042 2368     		ldr	r3, [r4]
 743 0044 3360     		str	r3, [r6]
 147:Middlewares/ST/STM32_USB_Host_Library/Core/Src/usbh_core.c **** #endif
 744              		.loc 1 147 3 view .LVU198
 147:Middlewares/ST/STM32_USB_Host_Library/Core/Src/usbh_core.c **** #endif
 745              		.loc 1 147 19 is_stmt 0 view .LVU199
 746 0046 2946     		mov	r1, r5
 747 0048 01A8     		add	r0, sp, #4
 748 004a FFF7FEFF 		bl	osThreadCreate
 749              	.LVL71:
 147:Middlewares/ST/STM32_USB_Host_Library/Core/Src/usbh_core.c **** #endif
 750              		.loc 1 147 17 view .LVU200
 751 004e C5F8D003 		str	r0, [r5, #976]
 151:Middlewares/ST/STM32_USB_Host_Library/Core/Src/usbh_core.c ****   return USBH_OK;
 752              		.loc 1 151 3 is_stmt 1 view .LVU201
 753 0052 2846     		mov	r0, r5
 754 0054 FFF7FEFF 		bl	USBH_LL_Init
 755              	.LVL72:
 152:Middlewares/ST/STM32_USB_Host_Library/Core/Src/usbh_core.c **** }
 756              		.loc 1 152 3 view .LVU202
 152:Middlewares/ST/STM32_USB_Host_Library/Core/Src/usbh_core.c **** }
 757              		.loc 1 152 10 is_stmt 0 view .LVU203
 758 0058 0020     		movs	r0, #0
ARM GAS  C:\Users\Nina\AppData\Local\Temp\ccjD0KBj.s 			page 33


 759              	.LVL73:
 760              	.L45:
 153:Middlewares/ST/STM32_USB_Host_Library/Core/Src/usbh_core.c **** 
 761              		.loc 1 153 1 view .LVU204
 762 005a 08B0     		add	sp, sp, #32
 763              	.LCFI9:
 764              		.cfi_remember_state
 765              		.cfi_def_cfa_offset 16
 766              		@ sp needed
 767 005c 70BD     		pop	{r4, r5, r6, pc}
 768              	.LVL74:
 769              	.L48:
 770              	.LCFI10:
 771              		.cfi_restore_state
 115:Middlewares/ST/STM32_USB_Host_Library/Core/Src/usbh_core.c ****     return USBH_FAIL;
 772              		.loc 1 115 5 is_stmt 1 view .LVU205
 773 005e 0648     		ldr	r0, .L49+4
 774              	.LVL75:
 115:Middlewares/ST/STM32_USB_Host_Library/Core/Src/usbh_core.c ****     return USBH_FAIL;
 775              		.loc 1 115 5 is_stmt 0 view .LVU206
 776 0060 FFF7FEFF 		bl	printf
 777              	.LVL76:
 115:Middlewares/ST/STM32_USB_Host_Library/Core/Src/usbh_core.c ****     return USBH_FAIL;
 778              		.loc 1 115 5 is_stmt 1 view .LVU207
 779 0064 0548     		ldr	r0, .L49+8
 780 0066 FFF7FEFF 		bl	printf
 781              	.LVL77:
 115:Middlewares/ST/STM32_USB_Host_Library/Core/Src/usbh_core.c ****     return USBH_FAIL;
 782              		.loc 1 115 5 view .LVU208
 783 006a 0A20     		movs	r0, #10
 784 006c FFF7FEFF 		bl	putchar
 785              	.LVL78:
 115:Middlewares/ST/STM32_USB_Host_Library/Core/Src/usbh_core.c ****     return USBH_FAIL;
 786              		.loc 1 115 39 view .LVU209
 116:Middlewares/ST/STM32_USB_Host_Library/Core/Src/usbh_core.c ****   }
 787              		.loc 1 116 5 view .LVU210
 116:Middlewares/ST/STM32_USB_Host_Library/Core/Src/usbh_core.c ****   }
 788              		.loc 1 116 12 is_stmt 0 view .LVU211
 789 0070 0220     		movs	r0, #2
 790 0072 F2E7     		b	.L45
 791              	.L50:
 792              		.align	2
 793              	.L49:
 794 0074 00000000 		.word	.LANCHOR0
 795 0078 00000000 		.word	.LC12
 796 007c 08000000 		.word	.LC13
 797              		.cfi_endproc
 798              	.LFE143:
 800              		.section	.text.USBH_DeInit,"ax",%progbits
 801              		.align	1
 802              		.global	USBH_DeInit
 803              		.syntax unified
 804              		.thumb
 805              		.thumb_func
 806              		.fpu fpv5-sp-d16
 808              	USBH_DeInit:
 809              	.LVL79:
ARM GAS  C:\Users\Nina\AppData\Local\Temp\ccjD0KBj.s 			page 34


 810              	.LFB144:
 162:Middlewares/ST/STM32_USB_Host_Library/Core/Src/usbh_core.c ****   DeInitStateMachine(phost);
 811              		.loc 1 162 1 is_stmt 1 view -0
 812              		.cfi_startproc
 813              		@ args = 0, pretend = 0, frame = 0
 814              		@ frame_needed = 0, uses_anonymous_args = 0
 162:Middlewares/ST/STM32_USB_Host_Library/Core/Src/usbh_core.c ****   DeInitStateMachine(phost);
 815              		.loc 1 162 1 is_stmt 0 view .LVU213
 816 0000 10B5     		push	{r4, lr}
 817              	.LCFI11:
 818              		.cfi_def_cfa_offset 8
 819              		.cfi_offset 4, -8
 820              		.cfi_offset 14, -4
 821 0002 0446     		mov	r4, r0
 163:Middlewares/ST/STM32_USB_Host_Library/Core/Src/usbh_core.c **** 
 822              		.loc 1 163 3 is_stmt 1 view .LVU214
 823 0004 FFF7FEFF 		bl	DeInitStateMachine
 824              	.LVL80:
 165:Middlewares/ST/STM32_USB_Host_Library/Core/Src/usbh_core.c ****   {
 825              		.loc 1 165 3 view .LVU215
 165:Middlewares/ST/STM32_USB_Host_Library/Core/Src/usbh_core.c ****   {
 826              		.loc 1 165 11 is_stmt 0 view .LVU216
 827 0008 D4F8C433 		ldr	r3, [r4, #964]
 165:Middlewares/ST/STM32_USB_Host_Library/Core/Src/usbh_core.c ****   {
 828              		.loc 1 165 5 view .LVU217
 829 000c 5BB1     		cbz	r3, .L52
 167:Middlewares/ST/STM32_USB_Host_Library/Core/Src/usbh_core.c ****     phost->pActiveClass->pData = NULL;
 830              		.loc 1 167 5 is_stmt 1 view .LVU218
 167:Middlewares/ST/STM32_USB_Host_Library/Core/Src/usbh_core.c ****     phost->pActiveClass->pData = NULL;
 831              		.loc 1 167 21 is_stmt 0 view .LVU219
 832 000e D4F87833 		ldr	r3, [r4, #888]
 167:Middlewares/ST/STM32_USB_Host_Library/Core/Src/usbh_core.c ****     phost->pActiveClass->pData = NULL;
 833              		.loc 1 167 5 view .LVU220
 834 0012 D869     		ldr	r0, [r3, #28]
 835 0014 FFF7FEFF 		bl	free
 836              	.LVL81:
 168:Middlewares/ST/STM32_USB_Host_Library/Core/Src/usbh_core.c ****     USBH_LL_Stop(phost);
 837              		.loc 1 168 5 is_stmt 1 view .LVU221
 168:Middlewares/ST/STM32_USB_Host_Library/Core/Src/usbh_core.c ****     USBH_LL_Stop(phost);
 838              		.loc 1 168 10 is_stmt 0 view .LVU222
 839 0018 D4F87833 		ldr	r3, [r4, #888]
 168:Middlewares/ST/STM32_USB_Host_Library/Core/Src/usbh_core.c ****     USBH_LL_Stop(phost);
 840              		.loc 1 168 32 view .LVU223
 841 001c 0022     		movs	r2, #0
 842 001e DA61     		str	r2, [r3, #28]
 169:Middlewares/ST/STM32_USB_Host_Library/Core/Src/usbh_core.c ****   }
 843              		.loc 1 169 5 is_stmt 1 view .LVU224
 844 0020 2046     		mov	r0, r4
 845 0022 FFF7FEFF 		bl	USBH_LL_Stop
 846              	.LVL82:
 847              	.L52:
 172:Middlewares/ST/STM32_USB_Host_Library/Core/Src/usbh_core.c **** }
 848              		.loc 1 172 3 view .LVU225
 173:Middlewares/ST/STM32_USB_Host_Library/Core/Src/usbh_core.c **** 
 849              		.loc 1 173 1 is_stmt 0 view .LVU226
 850 0026 0020     		movs	r0, #0
 851 0028 10BD     		pop	{r4, pc}
ARM GAS  C:\Users\Nina\AppData\Local\Temp\ccjD0KBj.s 			page 35


 173:Middlewares/ST/STM32_USB_Host_Library/Core/Src/usbh_core.c **** 
 852              		.loc 1 173 1 view .LVU227
 853              		.cfi_endproc
 854              	.LFE144:
 856              		.section	.rodata.USBH_RegisterClass.str1.4,"aMS",%progbits,1
 857              		.align	2
 858              	.LC15:
 859 0000 4D617820 		.ascii	"Max Class Number reached\000"
 859      436C6173 
 859      73204E75 
 859      6D626572 
 859      20726561 
 860 0019 000000   		.align	2
 861              	.LC16:
 862 001c 496E7661 		.ascii	"Invalid Class handle\000"
 862      6C696420 
 862      436C6173 
 862      73206861 
 862      6E646C65 
 863              		.section	.text.USBH_RegisterClass,"ax",%progbits
 864              		.align	1
 865              		.global	USBH_RegisterClass
 866              		.syntax unified
 867              		.thumb
 868              		.thumb_func
 869              		.fpu fpv5-sp-d16
 871              	USBH_RegisterClass:
 872              	.LVL83:
 873              	.LFB146:
 219:Middlewares/ST/STM32_USB_Host_Library/Core/Src/usbh_core.c ****   USBH_StatusTypeDef   status = USBH_OK;
 874              		.loc 1 219 1 is_stmt 1 view -0
 875              		.cfi_startproc
 876              		@ args = 0, pretend = 0, frame = 0
 877              		@ frame_needed = 0, uses_anonymous_args = 0
 219:Middlewares/ST/STM32_USB_Host_Library/Core/Src/usbh_core.c ****   USBH_StatusTypeDef   status = USBH_OK;
 878              		.loc 1 219 1 is_stmt 0 view .LVU229
 879 0000 08B5     		push	{r3, lr}
 880              	.LCFI12:
 881              		.cfi_def_cfa_offset 8
 882              		.cfi_offset 3, -8
 883              		.cfi_offset 14, -4
 220:Middlewares/ST/STM32_USB_Host_Library/Core/Src/usbh_core.c **** 
 884              		.loc 1 220 3 is_stmt 1 view .LVU230
 885              	.LVL84:
 222:Middlewares/ST/STM32_USB_Host_Library/Core/Src/usbh_core.c ****   {
 886              		.loc 1 222 3 view .LVU231
 222:Middlewares/ST/STM32_USB_Host_Library/Core/Src/usbh_core.c ****   {
 887              		.loc 1 222 5 is_stmt 0 view .LVU232
 888 0002 B9B1     		cbz	r1, .L55
 889 0004 0A46     		mov	r2, r1
 224:Middlewares/ST/STM32_USB_Host_Library/Core/Src/usbh_core.c ****     {
 890              		.loc 1 224 5 is_stmt 1 view .LVU233
 224:Middlewares/ST/STM32_USB_Host_Library/Core/Src/usbh_core.c ****     {
 891              		.loc 1 224 13 is_stmt 0 view .LVU234
 892 0006 D0F87C33 		ldr	r3, [r0, #892]
 224:Middlewares/ST/STM32_USB_Host_Library/Core/Src/usbh_core.c ****     {
 893              		.loc 1 224 7 view .LVU235
ARM GAS  C:\Users\Nina\AppData\Local\Temp\ccjD0KBj.s 			page 36


 894 000a 43B9     		cbnz	r3, .L56
 227:Middlewares/ST/STM32_USB_Host_Library/Core/Src/usbh_core.c ****       status = USBH_OK;
 895              		.loc 1 227 7 is_stmt 1 view .LVU236
 227:Middlewares/ST/STM32_USB_Host_Library/Core/Src/usbh_core.c ****       status = USBH_OK;
 896              		.loc 1 227 39 is_stmt 0 view .LVU237
 897 000c 591C     		adds	r1, r3, #1
 898              	.LVL85:
 227:Middlewares/ST/STM32_USB_Host_Library/Core/Src/usbh_core.c ****       status = USBH_OK;
 899              		.loc 1 227 39 view .LVU238
 900 000e C0F87C13 		str	r1, [r0, #892]
 227:Middlewares/ST/STM32_USB_Host_Library/Core/Src/usbh_core.c ****       status = USBH_OK;
 901              		.loc 1 227 43 view .LVU239
 902 0012 DC33     		adds	r3, r3, #220
 903 0014 00EB8300 		add	r0, r0, r3, lsl #2
 904              	.LVL86:
 227:Middlewares/ST/STM32_USB_Host_Library/Core/Src/usbh_core.c ****       status = USBH_OK;
 905              		.loc 1 227 43 view .LVU240
 906 0018 4260     		str	r2, [r0, #4]
 228:Middlewares/ST/STM32_USB_Host_Library/Core/Src/usbh_core.c ****     }
 907              		.loc 1 228 7 is_stmt 1 view .LVU241
 228:Middlewares/ST/STM32_USB_Host_Library/Core/Src/usbh_core.c ****     }
 908              		.loc 1 228 14 is_stmt 0 view .LVU242
 909 001a 0020     		movs	r0, #0
 910              	.LVL87:
 911              	.L57:
 242:Middlewares/ST/STM32_USB_Host_Library/Core/Src/usbh_core.c **** }
 912              		.loc 1 242 3 is_stmt 1 view .LVU243
 243:Middlewares/ST/STM32_USB_Host_Library/Core/Src/usbh_core.c **** 
 913              		.loc 1 243 1 is_stmt 0 view .LVU244
 914 001c 08BD     		pop	{r3, pc}
 915              	.LVL88:
 916              	.L56:
 232:Middlewares/ST/STM32_USB_Host_Library/Core/Src/usbh_core.c ****       status = USBH_FAIL;
 917              		.loc 1 232 7 is_stmt 1 view .LVU245
 918 001e 0B48     		ldr	r0, .L59
 919              	.LVL89:
 232:Middlewares/ST/STM32_USB_Host_Library/Core/Src/usbh_core.c ****       status = USBH_FAIL;
 920              		.loc 1 232 7 is_stmt 0 view .LVU246
 921 0020 FFF7FEFF 		bl	printf
 922              	.LVL90:
 232:Middlewares/ST/STM32_USB_Host_Library/Core/Src/usbh_core.c ****       status = USBH_FAIL;
 923              		.loc 1 232 7 is_stmt 1 view .LVU247
 924 0024 0A48     		ldr	r0, .L59+4
 925 0026 FFF7FEFF 		bl	printf
 926              	.LVL91:
 232:Middlewares/ST/STM32_USB_Host_Library/Core/Src/usbh_core.c ****       status = USBH_FAIL;
 927              		.loc 1 232 7 view .LVU248
 928 002a 0A20     		movs	r0, #10
 929 002c FFF7FEFF 		bl	putchar
 930              	.LVL92:
 232:Middlewares/ST/STM32_USB_Host_Library/Core/Src/usbh_core.c ****       status = USBH_FAIL;
 931              		.loc 1 232 46 view .LVU249
 233:Middlewares/ST/STM32_USB_Host_Library/Core/Src/usbh_core.c ****     }
 932              		.loc 1 233 7 view .LVU250
 233:Middlewares/ST/STM32_USB_Host_Library/Core/Src/usbh_core.c ****     }
 933              		.loc 1 233 14 is_stmt 0 view .LVU251
 934 0030 0220     		movs	r0, #2
ARM GAS  C:\Users\Nina\AppData\Local\Temp\ccjD0KBj.s 			page 37


 935 0032 F3E7     		b	.L57
 936              	.LVL93:
 937              	.L55:
 238:Middlewares/ST/STM32_USB_Host_Library/Core/Src/usbh_core.c ****     status = USBH_FAIL;
 938              		.loc 1 238 5 is_stmt 1 view .LVU252
 939 0034 0548     		ldr	r0, .L59
 940              	.LVL94:
 238:Middlewares/ST/STM32_USB_Host_Library/Core/Src/usbh_core.c ****     status = USBH_FAIL;
 941              		.loc 1 238 5 is_stmt 0 view .LVU253
 942 0036 FFF7FEFF 		bl	printf
 943              	.LVL95:
 238:Middlewares/ST/STM32_USB_Host_Library/Core/Src/usbh_core.c ****     status = USBH_FAIL;
 944              		.loc 1 238 5 is_stmt 1 view .LVU254
 945 003a 0648     		ldr	r0, .L59+8
 946 003c FFF7FEFF 		bl	printf
 947              	.LVL96:
 238:Middlewares/ST/STM32_USB_Host_Library/Core/Src/usbh_core.c ****     status = USBH_FAIL;
 948              		.loc 1 238 5 view .LVU255
 949 0040 0A20     		movs	r0, #10
 950 0042 FFF7FEFF 		bl	putchar
 951              	.LVL97:
 238:Middlewares/ST/STM32_USB_Host_Library/Core/Src/usbh_core.c ****     status = USBH_FAIL;
 952              		.loc 1 238 40 view .LVU256
 239:Middlewares/ST/STM32_USB_Host_Library/Core/Src/usbh_core.c ****   }
 953              		.loc 1 239 5 view .LVU257
 239:Middlewares/ST/STM32_USB_Host_Library/Core/Src/usbh_core.c ****   }
 954              		.loc 1 239 12 is_stmt 0 view .LVU258
 955 0046 0220     		movs	r0, #2
 956 0048 E8E7     		b	.L57
 957              	.L60:
 958 004a 00BF     		.align	2
 959              	.L59:
 960 004c 00000000 		.word	.LC12
 961 0050 00000000 		.word	.LC15
 962 0054 1C000000 		.word	.LC16
 963              		.cfi_endproc
 964              	.LFE146:
 966              		.section	.rodata.USBH_SelectInterface.str1.4,"aMS",%progbits,1
 967              		.align	2
 968              	.LC17:
 969 0000 53776974 		.ascii	"Switching to Interface (#%d)\000"
 969      6368696E 
 969      6720746F 
 969      20496E74 
 969      65726661 
 970 001d 000000   		.align	2
 971              	.LC18:
 972 0020 436C6173 		.ascii	"Class    : %xh\000"
 972      73202020 
 972      203A2025 
 972      786800
 973 002f 00       		.align	2
 974              	.LC19:
 975 0030 53756243 		.ascii	"SubClass : %xh\000"
 975      6C617373 
 975      203A2025 
 975      786800
ARM GAS  C:\Users\Nina\AppData\Local\Temp\ccjD0KBj.s 			page 38


 976 003f 00       		.align	2
 977              	.LC20:
 978 0040 50726F74 		.ascii	"Protocol : %xh\000"
 978      6F636F6C 
 978      203A2025 
 978      786800
 979 004f 00       		.align	2
 980              	.LC21:
 981 0050 43616E6E 		.ascii	"Cannot Select This Interface.\000"
 981      6F742053 
 981      656C6563 
 981      74205468 
 981      69732049 
 982              		.section	.text.USBH_SelectInterface,"ax",%progbits
 983              		.align	1
 984              		.global	USBH_SelectInterface
 985              		.syntax unified
 986              		.thumb
 987              		.thumb_func
 988              		.fpu fpv5-sp-d16
 990              	USBH_SelectInterface:
 991              	.LVL98:
 992              	.LFB147:
 253:Middlewares/ST/STM32_USB_Host_Library/Core/Src/usbh_core.c ****   USBH_StatusTypeDef   status = USBH_OK;
 993              		.loc 1 253 1 is_stmt 1 view -0
 994              		.cfi_startproc
 995              		@ args = 0, pretend = 0, frame = 0
 996              		@ frame_needed = 0, uses_anonymous_args = 0
 253:Middlewares/ST/STM32_USB_Host_Library/Core/Src/usbh_core.c ****   USBH_StatusTypeDef   status = USBH_OK;
 997              		.loc 1 253 1 is_stmt 0 view .LVU260
 998 0000 38B5     		push	{r3, r4, r5, lr}
 999              	.LCFI13:
 1000              		.cfi_def_cfa_offset 16
 1001              		.cfi_offset 3, -16
 1002              		.cfi_offset 4, -12
 1003              		.cfi_offset 5, -8
 1004              		.cfi_offset 14, -4
 254:Middlewares/ST/STM32_USB_Host_Library/Core/Src/usbh_core.c **** 
 1005              		.loc 1 254 3 is_stmt 1 view .LVU261
 1006              	.LVL99:
 256:Middlewares/ST/STM32_USB_Host_Library/Core/Src/usbh_core.c ****   {
 1007              		.loc 1 256 3 view .LVU262
 256:Middlewares/ST/STM32_USB_Host_Library/Core/Src/usbh_core.c ****   {
 1008              		.loc 1 256 39 is_stmt 0 view .LVU263
 1009 0002 90F83833 		ldrb	r3, [r0, #824]	@ zero_extendqisi2
 256:Middlewares/ST/STM32_USB_Host_Library/Core/Src/usbh_core.c ****   {
 1010              		.loc 1 256 5 view .LVU264
 1011 0006 8B42     		cmp	r3, r1
 1012 0008 26D9     		bls	.L62
 1013 000a 0546     		mov	r5, r0
 1014 000c 0C46     		mov	r4, r1
 258:Middlewares/ST/STM32_USB_Host_Library/Core/Src/usbh_core.c ****     USBH_UsrLog ("Switching to Interface (#%d)", interface);
 1015              		.loc 1 258 5 is_stmt 1 view .LVU265
 258:Middlewares/ST/STM32_USB_Host_Library/Core/Src/usbh_core.c ****     USBH_UsrLog ("Switching to Interface (#%d)", interface);
 1016              		.loc 1 258 37 is_stmt 0 view .LVU266
 1017 000e 80F82013 		strb	r1, [r0, #800]
 259:Middlewares/ST/STM32_USB_Host_Library/Core/Src/usbh_core.c ****     USBH_UsrLog ("Class    : %xh", phost->device.CfgDesc.Itf_Desc[interface].bInterfaceClass );
ARM GAS  C:\Users\Nina\AppData\Local\Temp\ccjD0KBj.s 			page 39


 1018              		.loc 1 259 5 is_stmt 1 view .LVU267
 1019 0012 1748     		ldr	r0, .L65
 1020              	.LVL100:
 259:Middlewares/ST/STM32_USB_Host_Library/Core/Src/usbh_core.c ****     USBH_UsrLog ("Class    : %xh", phost->device.CfgDesc.Itf_Desc[interface].bInterfaceClass );
 1021              		.loc 1 259 5 is_stmt 0 view .LVU268
 1022 0014 FFF7FEFF 		bl	printf
 1023              	.LVL101:
 259:Middlewares/ST/STM32_USB_Host_Library/Core/Src/usbh_core.c ****     USBH_UsrLog ("Class    : %xh", phost->device.CfgDesc.Itf_Desc[interface].bInterfaceClass );
 1024              		.loc 1 259 5 is_stmt 1 view .LVU269
 1025 0018 0A20     		movs	r0, #10
 1026 001a FFF7FEFF 		bl	putchar
 1027              	.LVL102:
 259:Middlewares/ST/STM32_USB_Host_Library/Core/Src/usbh_core.c ****     USBH_UsrLog ("Class    : %xh", phost->device.CfgDesc.Itf_Desc[interface].bInterfaceClass );
 1028              		.loc 1 259 60 view .LVU270
 260:Middlewares/ST/STM32_USB_Host_Library/Core/Src/usbh_core.c ****     USBH_UsrLog ("SubClass : %xh", phost->device.CfgDesc.Itf_Desc[interface].bInterfaceSubClass );
 1029              		.loc 1 260 5 view .LVU271
 1030 001e 1A21     		movs	r1, #26
 1031 0020 01FB0454 		mla	r4, r1, r4, r5
 1032 0024 94F84313 		ldrb	r1, [r4, #835]	@ zero_extendqisi2
 1033 0028 1248     		ldr	r0, .L65+4
 1034 002a FFF7FEFF 		bl	printf
 1035              	.LVL103:
 260:Middlewares/ST/STM32_USB_Host_Library/Core/Src/usbh_core.c ****     USBH_UsrLog ("SubClass : %xh", phost->device.CfgDesc.Itf_Desc[interface].bInterfaceSubClass );
 1036              		.loc 1 260 5 view .LVU272
 1037 002e 0A20     		movs	r0, #10
 1038 0030 FFF7FEFF 		bl	putchar
 1039              	.LVL104:
 260:Middlewares/ST/STM32_USB_Host_Library/Core/Src/usbh_core.c ****     USBH_UsrLog ("SubClass : %xh", phost->device.CfgDesc.Itf_Desc[interface].bInterfaceSubClass );
 1040              		.loc 1 260 95 view .LVU273
 261:Middlewares/ST/STM32_USB_Host_Library/Core/Src/usbh_core.c ****     USBH_UsrLog ("Protocol : %xh", phost->device.CfgDesc.Itf_Desc[interface].bInterfaceProtocol );
 1041              		.loc 1 261 5 view .LVU274
 1042 0034 94F84413 		ldrb	r1, [r4, #836]	@ zero_extendqisi2
 1043 0038 0F48     		ldr	r0, .L65+8
 1044 003a FFF7FEFF 		bl	printf
 1045              	.LVL105:
 261:Middlewares/ST/STM32_USB_Host_Library/Core/Src/usbh_core.c ****     USBH_UsrLog ("Protocol : %xh", phost->device.CfgDesc.Itf_Desc[interface].bInterfaceProtocol );
 1046              		.loc 1 261 5 view .LVU275
 1047 003e 0A20     		movs	r0, #10
 1048 0040 FFF7FEFF 		bl	putchar
 1049              	.LVL106:
 261:Middlewares/ST/STM32_USB_Host_Library/Core/Src/usbh_core.c ****     USBH_UsrLog ("Protocol : %xh", phost->device.CfgDesc.Itf_Desc[interface].bInterfaceProtocol );
 1050              		.loc 1 261 98 view .LVU276
 262:Middlewares/ST/STM32_USB_Host_Library/Core/Src/usbh_core.c ****   }
 1051              		.loc 1 262 5 view .LVU277
 1052 0044 94F84513 		ldrb	r1, [r4, #837]	@ zero_extendqisi2
 1053 0048 0C48     		ldr	r0, .L65+12
 1054 004a FFF7FEFF 		bl	printf
 1055              	.LVL107:
 262:Middlewares/ST/STM32_USB_Host_Library/Core/Src/usbh_core.c ****   }
 1056              		.loc 1 262 5 view .LVU278
 1057 004e 0A20     		movs	r0, #10
 1058 0050 FFF7FEFF 		bl	putchar
 1059              	.LVL108:
 262:Middlewares/ST/STM32_USB_Host_Library/Core/Src/usbh_core.c ****   }
 1060              		.loc 1 262 98 view .LVU279
 254:Middlewares/ST/STM32_USB_Host_Library/Core/Src/usbh_core.c **** 
 1061              		.loc 1 254 24 is_stmt 0 view .LVU280
ARM GAS  C:\Users\Nina\AppData\Local\Temp\ccjD0KBj.s 			page 40


 1062 0054 0020     		movs	r0, #0
 1063              	.LVL109:
 1064              	.L63:
 269:Middlewares/ST/STM32_USB_Host_Library/Core/Src/usbh_core.c **** }
 1065              		.loc 1 269 3 is_stmt 1 view .LVU281
 270:Middlewares/ST/STM32_USB_Host_Library/Core/Src/usbh_core.c **** 
 1066              		.loc 1 270 1 is_stmt 0 view .LVU282
 1067 0056 38BD     		pop	{r3, r4, r5, pc}
 1068              	.LVL110:
 1069              	.L62:
 266:Middlewares/ST/STM32_USB_Host_Library/Core/Src/usbh_core.c ****     status = USBH_FAIL;
 1070              		.loc 1 266 5 is_stmt 1 view .LVU283
 1071 0058 0948     		ldr	r0, .L65+16
 1072              	.LVL111:
 266:Middlewares/ST/STM32_USB_Host_Library/Core/Src/usbh_core.c ****     status = USBH_FAIL;
 1073              		.loc 1 266 5 is_stmt 0 view .LVU284
 1074 005a FFF7FEFF 		bl	printf
 1075              	.LVL112:
 266:Middlewares/ST/STM32_USB_Host_Library/Core/Src/usbh_core.c ****     status = USBH_FAIL;
 1076              		.loc 1 266 5 is_stmt 1 view .LVU285
 1077 005e 0948     		ldr	r0, .L65+20
 1078 0060 FFF7FEFF 		bl	printf
 1079              	.LVL113:
 266:Middlewares/ST/STM32_USB_Host_Library/Core/Src/usbh_core.c ****     status = USBH_FAIL;
 1080              		.loc 1 266 5 view .LVU286
 1081 0064 0A20     		movs	r0, #10
 1082 0066 FFF7FEFF 		bl	putchar
 1083              	.LVL114:
 266:Middlewares/ST/STM32_USB_Host_Library/Core/Src/usbh_core.c ****     status = USBH_FAIL;
 1084              		.loc 1 266 50 view .LVU287
 267:Middlewares/ST/STM32_USB_Host_Library/Core/Src/usbh_core.c ****   }
 1085              		.loc 1 267 5 view .LVU288
 267:Middlewares/ST/STM32_USB_Host_Library/Core/Src/usbh_core.c ****   }
 1086              		.loc 1 267 12 is_stmt 0 view .LVU289
 1087 006a 0220     		movs	r0, #2
 1088 006c F3E7     		b	.L63
 1089              	.L66:
 1090 006e 00BF     		.align	2
 1091              	.L65:
 1092 0070 00000000 		.word	.LC17
 1093 0074 20000000 		.word	.LC18
 1094 0078 30000000 		.word	.LC19
 1095 007c 40000000 		.word	.LC20
 1096 0080 00000000 		.word	.LC12
 1097 0084 50000000 		.word	.LC21
 1098              		.cfi_endproc
 1099              	.LFE147:
 1101              		.section	.text.USBH_GetActiveClass,"ax",%progbits
 1102              		.align	1
 1103              		.global	USBH_GetActiveClass
 1104              		.syntax unified
 1105              		.thumb
 1106              		.thumb_func
 1107              		.fpu fpv5-sp-d16
 1109              	USBH_GetActiveClass:
 1110              	.LVL115:
 1111              	.LFB148:
ARM GAS  C:\Users\Nina\AppData\Local\Temp\ccjD0KBj.s 			page 41


 280:Middlewares/ST/STM32_USB_Host_Library/Core/Src/usbh_core.c ****    return (phost->device.CfgDesc.Itf_Desc[0].bInterfaceClass);
 1112              		.loc 1 280 1 is_stmt 1 view -0
 1113              		.cfi_startproc
 1114              		@ args = 0, pretend = 0, frame = 0
 1115              		@ frame_needed = 0, uses_anonymous_args = 0
 1116              		@ link register save eliminated.
 281:Middlewares/ST/STM32_USB_Host_Library/Core/Src/usbh_core.c **** }
 1117              		.loc 1 281 4 view .LVU291
 282:Middlewares/ST/STM32_USB_Host_Library/Core/Src/usbh_core.c **** /**
 1118              		.loc 1 282 1 is_stmt 0 view .LVU292
 1119 0000 90F84303 		ldrb	r0, [r0, #835]	@ zero_extendqisi2
 1120              	.LVL116:
 282:Middlewares/ST/STM32_USB_Host_Library/Core/Src/usbh_core.c **** /**
 1121              		.loc 1 282 1 view .LVU293
 1122 0004 7047     		bx	lr
 1123              		.cfi_endproc
 1124              	.LFE148:
 1126              		.section	.text.USBH_FindInterface,"ax",%progbits
 1127              		.align	1
 1128              		.global	USBH_FindInterface
 1129              		.syntax unified
 1130              		.thumb
 1131              		.thumb_func
 1132              		.fpu fpv5-sp-d16
 1134              	USBH_FindInterface:
 1135              	.LVL117:
 1136              	.LFB149:
 294:Middlewares/ST/STM32_USB_Host_Library/Core/Src/usbh_core.c ****   USBH_InterfaceDescTypeDef    *pif ;
 1137              		.loc 1 294 1 is_stmt 1 view -0
 1138              		.cfi_startproc
 1139              		@ args = 0, pretend = 0, frame = 0
 1140              		@ frame_needed = 0, uses_anonymous_args = 0
 1141              		@ link register save eliminated.
 294:Middlewares/ST/STM32_USB_Host_Library/Core/Src/usbh_core.c ****   USBH_InterfaceDescTypeDef    *pif ;
 1142              		.loc 1 294 1 is_stmt 0 view .LVU295
 1143 0000 70B4     		push	{r4, r5, r6}
 1144              	.LCFI14:
 1145              		.cfi_def_cfa_offset 12
 1146              		.cfi_offset 4, -12
 1147              		.cfi_offset 5, -8
 1148              		.cfi_offset 6, -4
 1149 0002 0646     		mov	r6, r0
 295:Middlewares/ST/STM32_USB_Host_Library/Core/Src/usbh_core.c ****   USBH_CfgDescTypeDef          *pcfg ;
 1150              		.loc 1 295 3 is_stmt 1 view .LVU296
 296:Middlewares/ST/STM32_USB_Host_Library/Core/Src/usbh_core.c ****   uint8_t                        if_ix = 0U;
 1151              		.loc 1 296 3 view .LVU297
 297:Middlewares/ST/STM32_USB_Host_Library/Core/Src/usbh_core.c **** 
 1152              		.loc 1 297 3 view .LVU298
 1153              	.LVL118:
 299:Middlewares/ST/STM32_USB_Host_Library/Core/Src/usbh_core.c ****   pcfg = &phost->device.CfgDesc;
 1154              		.loc 1 299 3 view .LVU299
 300:Middlewares/ST/STM32_USB_Host_Library/Core/Src/usbh_core.c **** 
 1155              		.loc 1 300 3 view .LVU300
 302:Middlewares/ST/STM32_USB_Host_Library/Core/Src/usbh_core.c ****   {
 1156              		.loc 1 302 3 view .LVU301
 297:Middlewares/ST/STM32_USB_Host_Library/Core/Src/usbh_core.c **** 
 1157              		.loc 1 297 34 is_stmt 0 view .LVU302
ARM GAS  C:\Users\Nina\AppData\Local\Temp\ccjD0KBj.s 			page 42


 1158 0004 0020     		movs	r0, #0
 1159              	.LVL119:
 302:Middlewares/ST/STM32_USB_Host_Library/Core/Src/usbh_core.c ****   {
 1160              		.loc 1 302 9 view .LVU303
 1161 0006 0AE0     		b	.L69
 1162              	.LVL120:
 1163              	.L72:
 307:Middlewares/ST/STM32_USB_Host_Library/Core/Src/usbh_core.c ****     {
 1164              		.loc 1 307 15 discriminator 1 view .LVU304
 1165 0008 1A24     		movs	r4, #26
 1166 000a 04FB0565 		mla	r5, r4, r5, r6
 1167 000e 95F84543 		ldrb	r4, [r5, #837]	@ zero_extendqisi2
 306:Middlewares/ST/STM32_USB_Host_Library/Core/Src/usbh_core.c ****          ((pif->bInterfaceProtocol == Protocol) || (Protocol == 0xFFU)))
 1168              		.loc 1 306 70 discriminator 1 view .LVU305
 1169 0012 9C42     		cmp	r4, r3
 1170 0014 1AD0     		beq	.L73
 307:Middlewares/ST/STM32_USB_Host_Library/Core/Src/usbh_core.c ****     {
 1171              		.loc 1 307 49 view .LVU306
 1172 0016 FF2B     		cmp	r3, #255
 1173 0018 18D0     		beq	.L73
 1174              	.L71:
 311:Middlewares/ST/STM32_USB_Host_Library/Core/Src/usbh_core.c ****   }
 1175              		.loc 1 311 5 is_stmt 1 view .LVU307
 311:Middlewares/ST/STM32_USB_Host_Library/Core/Src/usbh_core.c ****   }
 1176              		.loc 1 311 10 is_stmt 0 view .LVU308
 1177 001a 0130     		adds	r0, r0, #1
 1178              	.LVL121:
 311:Middlewares/ST/STM32_USB_Host_Library/Core/Src/usbh_core.c ****   }
 1179              		.loc 1 311 10 view .LVU309
 1180 001c C0B2     		uxtb	r0, r0
 1181              	.LVL122:
 1182              	.L69:
 302:Middlewares/ST/STM32_USB_Host_Library/Core/Src/usbh_core.c ****   {
 1183              		.loc 1 302 9 is_stmt 1 view .LVU310
 1184 001e 0128     		cmp	r0, #1
 1185 0020 13D8     		bhi	.L76
 304:Middlewares/ST/STM32_USB_Host_Library/Core/Src/usbh_core.c ****     if(((pif->bInterfaceClass == Class) || (Class == 0xFFU))&&
 1186              		.loc 1 304 5 view .LVU311
 304:Middlewares/ST/STM32_USB_Host_Library/Core/Src/usbh_core.c ****     if(((pif->bInterfaceClass == Class) || (Class == 0xFFU))&&
 1187              		.loc 1 304 26 is_stmt 0 view .LVU312
 1188 0022 0546     		mov	r5, r0
 1189              	.LVL123:
 305:Middlewares/ST/STM32_USB_Host_Library/Core/Src/usbh_core.c ****        ((pif->bInterfaceSubClass == SubClass) || (SubClass == 0xFFU))&&
 1190              		.loc 1 305 5 is_stmt 1 view .LVU313
 305:Middlewares/ST/STM32_USB_Host_Library/Core/Src/usbh_core.c ****        ((pif->bInterfaceSubClass == SubClass) || (SubClass == 0xFFU))&&
 1191              		.loc 1 305 13 is_stmt 0 view .LVU314
 1192 0024 1A24     		movs	r4, #26
 1193 0026 04FB0064 		mla	r4, r4, r0, r6
 1194 002a 94F84343 		ldrb	r4, [r4, #835]	@ zero_extendqisi2
 305:Middlewares/ST/STM32_USB_Host_Library/Core/Src/usbh_core.c ****        ((pif->bInterfaceSubClass == SubClass) || (SubClass == 0xFFU))&&
 1195              		.loc 1 305 7 view .LVU315
 1196 002e 8C42     		cmp	r4, r1
 1197 0030 01D0     		beq	.L70
 305:Middlewares/ST/STM32_USB_Host_Library/Core/Src/usbh_core.c ****        ((pif->bInterfaceSubClass == SubClass) || (SubClass == 0xFFU))&&
 1198              		.loc 1 305 41 discriminator 2 view .LVU316
 1199 0032 FF29     		cmp	r1, #255
 1200 0034 F1D1     		bne	.L71
ARM GAS  C:\Users\Nina\AppData\Local\Temp\ccjD0KBj.s 			page 43


 1201              	.L70:
 306:Middlewares/ST/STM32_USB_Host_Library/Core/Src/usbh_core.c ****          ((pif->bInterfaceProtocol == Protocol) || (Protocol == 0xFFU)))
 1202              		.loc 1 306 13 discriminator 3 view .LVU317
 1203 0036 1A24     		movs	r4, #26
 1204 0038 04FB0564 		mla	r4, r4, r5, r6
 1205 003c 94F84443 		ldrb	r4, [r4, #836]	@ zero_extendqisi2
 305:Middlewares/ST/STM32_USB_Host_Library/Core/Src/usbh_core.c ****        ((pif->bInterfaceSubClass == SubClass) || (SubClass == 0xFFU))&&
 1206              		.loc 1 305 61 discriminator 3 view .LVU318
 1207 0040 9442     		cmp	r4, r2
 1208 0042 E1D0     		beq	.L72
 306:Middlewares/ST/STM32_USB_Host_Library/Core/Src/usbh_core.c ****          ((pif->bInterfaceProtocol == Protocol) || (Protocol == 0xFFU)))
 1209              		.loc 1 306 47 view .LVU319
 1210 0044 FF2A     		cmp	r2, #255
 1211 0046 E8D1     		bne	.L71
 1212 0048 DEE7     		b	.L72
 1213              	.LVL124:
 1214              	.L76:
 313:Middlewares/ST/STM32_USB_Host_Library/Core/Src/usbh_core.c **** }
 1215              		.loc 1 313 10 view .LVU320
 1216 004a FF20     		movs	r0, #255
 1217              	.LVL125:
 1218              	.L73:
 314:Middlewares/ST/STM32_USB_Host_Library/Core/Src/usbh_core.c **** 
 1219              		.loc 1 314 1 view .LVU321
 1220 004c 70BC     		pop	{r4, r5, r6}
 1221              	.LCFI15:
 1222              		.cfi_restore 6
 1223              		.cfi_restore 5
 1224              		.cfi_restore 4
 1225              		.cfi_def_cfa_offset 0
 1226              	.LVL126:
 314:Middlewares/ST/STM32_USB_Host_Library/Core/Src/usbh_core.c **** 
 1227              		.loc 1 314 1 view .LVU322
 1228 004e 7047     		bx	lr
 1229              		.cfi_endproc
 1230              	.LFE149:
 1232              		.section	.text.USBH_FindInterfaceIndex,"ax",%progbits
 1233              		.align	1
 1234              		.global	USBH_FindInterfaceIndex
 1235              		.syntax unified
 1236              		.thumb
 1237              		.thumb_func
 1238              		.fpu fpv5-sp-d16
 1240              	USBH_FindInterfaceIndex:
 1241              	.LVL127:
 1242              	.LFB150:
 326:Middlewares/ST/STM32_USB_Host_Library/Core/Src/usbh_core.c ****   USBH_InterfaceDescTypeDef    *pif ;
 1243              		.loc 1 326 1 is_stmt 1 view -0
 1244              		.cfi_startproc
 1245              		@ args = 0, pretend = 0, frame = 0
 1246              		@ frame_needed = 0, uses_anonymous_args = 0
 1247              		@ link register save eliminated.
 326:Middlewares/ST/STM32_USB_Host_Library/Core/Src/usbh_core.c ****   USBH_InterfaceDescTypeDef    *pif ;
 1248              		.loc 1 326 1 is_stmt 0 view .LVU324
 1249 0000 10B4     		push	{r4}
 1250              	.LCFI16:
 1251              		.cfi_def_cfa_offset 4
ARM GAS  C:\Users\Nina\AppData\Local\Temp\ccjD0KBj.s 			page 44


 1252              		.cfi_offset 4, -4
 1253 0002 0446     		mov	r4, r0
 327:Middlewares/ST/STM32_USB_Host_Library/Core/Src/usbh_core.c ****   USBH_CfgDescTypeDef          *pcfg ;
 1254              		.loc 1 327 3 is_stmt 1 view .LVU325
 328:Middlewares/ST/STM32_USB_Host_Library/Core/Src/usbh_core.c ****   uint8_t                        if_ix = 0U;
 1255              		.loc 1 328 3 view .LVU326
 329:Middlewares/ST/STM32_USB_Host_Library/Core/Src/usbh_core.c **** 
 1256              		.loc 1 329 3 view .LVU327
 1257              	.LVL128:
 331:Middlewares/ST/STM32_USB_Host_Library/Core/Src/usbh_core.c ****   pcfg = &phost->device.CfgDesc;
 1258              		.loc 1 331 3 view .LVU328
 332:Middlewares/ST/STM32_USB_Host_Library/Core/Src/usbh_core.c **** 
 1259              		.loc 1 332 3 view .LVU329
 334:Middlewares/ST/STM32_USB_Host_Library/Core/Src/usbh_core.c ****   {
 1260              		.loc 1 334 3 view .LVU330
 329:Middlewares/ST/STM32_USB_Host_Library/Core/Src/usbh_core.c **** 
 1261              		.loc 1 329 34 is_stmt 0 view .LVU331
 1262 0004 0020     		movs	r0, #0
 1263              	.LVL129:
 334:Middlewares/ST/STM32_USB_Host_Library/Core/Src/usbh_core.c ****   {
 1264              		.loc 1 334 9 view .LVU332
 1265 0006 01E0     		b	.L78
 1266              	.LVL130:
 1267              	.L79:
 341:Middlewares/ST/STM32_USB_Host_Library/Core/Src/usbh_core.c ****   }
 1268              		.loc 1 341 5 is_stmt 1 view .LVU333
 341:Middlewares/ST/STM32_USB_Host_Library/Core/Src/usbh_core.c ****   }
 1269              		.loc 1 341 10 is_stmt 0 view .LVU334
 1270 0008 0130     		adds	r0, r0, #1
 1271              	.LVL131:
 341:Middlewares/ST/STM32_USB_Host_Library/Core/Src/usbh_core.c ****   }
 1272              		.loc 1 341 10 view .LVU335
 1273 000a C0B2     		uxtb	r0, r0
 1274              	.LVL132:
 1275              	.L78:
 334:Middlewares/ST/STM32_USB_Host_Library/Core/Src/usbh_core.c ****   {
 1276              		.loc 1 334 9 is_stmt 1 view .LVU336
 1277 000c 0128     		cmp	r0, #1
 1278 000e 0ED8     		bhi	.L83
 336:Middlewares/ST/STM32_USB_Host_Library/Core/Src/usbh_core.c ****     if((pif->bInterfaceNumber == interface_number) && (pif->bAlternateSetting == alt_settings))
 1279              		.loc 1 336 5 view .LVU337
 1280              	.LVL133:
 337:Middlewares/ST/STM32_USB_Host_Library/Core/Src/usbh_core.c ****     {
 1281              		.loc 1 337 5 view .LVU338
 337:Middlewares/ST/STM32_USB_Host_Library/Core/Src/usbh_core.c ****     {
 1282              		.loc 1 337 12 is_stmt 0 view .LVU339
 1283 0010 1A23     		movs	r3, #26
 1284 0012 03FB0043 		mla	r3, r3, r0, r4
 1285 0016 93F84033 		ldrb	r3, [r3, #832]	@ zero_extendqisi2
 337:Middlewares/ST/STM32_USB_Host_Library/Core/Src/usbh_core.c ****     {
 1286              		.loc 1 337 7 view .LVU340
 1287 001a 8B42     		cmp	r3, r1
 1288 001c F4D1     		bne	.L79
 337:Middlewares/ST/STM32_USB_Host_Library/Core/Src/usbh_core.c ****     {
 1289              		.loc 1 337 59 discriminator 1 view .LVU341
 1290 001e 1A23     		movs	r3, #26
 1291 0020 03FB0043 		mla	r3, r3, r0, r4
ARM GAS  C:\Users\Nina\AppData\Local\Temp\ccjD0KBj.s 			page 45


 1292 0024 93F84133 		ldrb	r3, [r3, #833]	@ zero_extendqisi2
 337:Middlewares/ST/STM32_USB_Host_Library/Core/Src/usbh_core.c ****     {
 1293              		.loc 1 337 52 discriminator 1 view .LVU342
 1294 0028 9342     		cmp	r3, r2
 1295 002a EDD1     		bne	.L79
 1296 002c 00E0     		b	.L80
 1297              	.LVL134:
 1298              	.L83:
 343:Middlewares/ST/STM32_USB_Host_Library/Core/Src/usbh_core.c **** }
 1299              		.loc 1 343 10 view .LVU343
 1300 002e FF20     		movs	r0, #255
 1301              	.LVL135:
 1302              	.L80:
 344:Middlewares/ST/STM32_USB_Host_Library/Core/Src/usbh_core.c **** 
 1303              		.loc 1 344 1 view .LVU344
 1304 0030 5DF8044B 		ldr	r4, [sp], #4
 1305              	.LCFI17:
 1306              		.cfi_restore 4
 1307              		.cfi_def_cfa_offset 0
 1308              	.LVL136:
 344:Middlewares/ST/STM32_USB_Host_Library/Core/Src/usbh_core.c **** 
 1309              		.loc 1 344 1 view .LVU345
 1310 0034 7047     		bx	lr
 1311              		.cfi_endproc
 1312              	.LFE150:
 1314              		.section	.text.USBH_Start,"ax",%progbits
 1315              		.align	1
 1316              		.global	USBH_Start
 1317              		.syntax unified
 1318              		.thumb
 1319              		.thumb_func
 1320              		.fpu fpv5-sp-d16
 1322              	USBH_Start:
 1323              	.LVL137:
 1324              	.LFB151:
 353:Middlewares/ST/STM32_USB_Host_Library/Core/Src/usbh_core.c ****   /* Start the low level driver  */
 1325              		.loc 1 353 1 is_stmt 1 view -0
 1326              		.cfi_startproc
 1327              		@ args = 0, pretend = 0, frame = 0
 1328              		@ frame_needed = 0, uses_anonymous_args = 0
 353:Middlewares/ST/STM32_USB_Host_Library/Core/Src/usbh_core.c ****   /* Start the low level driver  */
 1329              		.loc 1 353 1 is_stmt 0 view .LVU347
 1330 0000 10B5     		push	{r4, lr}
 1331              	.LCFI18:
 1332              		.cfi_def_cfa_offset 8
 1333              		.cfi_offset 4, -8
 1334              		.cfi_offset 14, -4
 1335 0002 0446     		mov	r4, r0
 355:Middlewares/ST/STM32_USB_Host_Library/Core/Src/usbh_core.c **** 
 1336              		.loc 1 355 3 is_stmt 1 view .LVU348
 1337 0004 FFF7FEFF 		bl	USBH_LL_Start
 1338              	.LVL138:
 358:Middlewares/ST/STM32_USB_Host_Library/Core/Src/usbh_core.c **** 
 1339              		.loc 1 358 3 view .LVU349
 1340 0008 0121     		movs	r1, #1
 1341 000a 2046     		mov	r0, r4
 1342 000c FFF7FEFF 		bl	USBH_LL_DriverVBUS
ARM GAS  C:\Users\Nina\AppData\Local\Temp\ccjD0KBj.s 			page 46


 1343              	.LVL139:
 360:Middlewares/ST/STM32_USB_Host_Library/Core/Src/usbh_core.c **** }
 1344              		.loc 1 360 3 view .LVU350
 361:Middlewares/ST/STM32_USB_Host_Library/Core/Src/usbh_core.c **** 
 1345              		.loc 1 361 1 is_stmt 0 view .LVU351
 1346 0010 0020     		movs	r0, #0
 1347 0012 10BD     		pop	{r4, pc}
 361:Middlewares/ST/STM32_USB_Host_Library/Core/Src/usbh_core.c **** 
 1348              		.loc 1 361 1 view .LVU352
 1349              		.cfi_endproc
 1350              	.LFE151:
 1352              		.section	.text.USBH_Stop,"ax",%progbits
 1353              		.align	1
 1354              		.global	USBH_Stop
 1355              		.syntax unified
 1356              		.thumb
 1357              		.thumb_func
 1358              		.fpu fpv5-sp-d16
 1360              	USBH_Stop:
 1361              	.LVL140:
 1362              	.LFB152:
 370:Middlewares/ST/STM32_USB_Host_Library/Core/Src/usbh_core.c ****   /* Stop and cleanup the low level driver  */
 1363              		.loc 1 370 1 is_stmt 1 view -0
 1364              		.cfi_startproc
 1365              		@ args = 0, pretend = 0, frame = 0
 1366              		@ frame_needed = 0, uses_anonymous_args = 0
 370:Middlewares/ST/STM32_USB_Host_Library/Core/Src/usbh_core.c ****   /* Stop and cleanup the low level driver  */
 1367              		.loc 1 370 1 is_stmt 0 view .LVU354
 1368 0000 10B5     		push	{r4, lr}
 1369              	.LCFI19:
 1370              		.cfi_def_cfa_offset 8
 1371              		.cfi_offset 4, -8
 1372              		.cfi_offset 14, -4
 1373 0002 0446     		mov	r4, r0
 372:Middlewares/ST/STM32_USB_Host_Library/Core/Src/usbh_core.c **** 
 1374              		.loc 1 372 3 is_stmt 1 view .LVU355
 1375 0004 FFF7FEFF 		bl	USBH_LL_Stop
 1376              	.LVL141:
 375:Middlewares/ST/STM32_USB_Host_Library/Core/Src/usbh_core.c **** 
 1377              		.loc 1 375 3 view .LVU356
 1378 0008 0021     		movs	r1, #0
 1379 000a 2046     		mov	r0, r4
 1380 000c FFF7FEFF 		bl	USBH_LL_DriverVBUS
 1381              	.LVL142:
 378:Middlewares/ST/STM32_USB_Host_Library/Core/Src/usbh_core.c ****   USBH_FreePipe  (phost, phost->Control.pipe_out);
 1382              		.loc 1 378 3 view .LVU357
 1383 0010 2179     		ldrb	r1, [r4, #4]	@ zero_extendqisi2
 1384 0012 2046     		mov	r0, r4
 1385 0014 FFF7FEFF 		bl	USBH_FreePipe
 1386              	.LVL143:
 379:Middlewares/ST/STM32_USB_Host_Library/Core/Src/usbh_core.c **** 
 1387              		.loc 1 379 3 view .LVU358
 1388 0018 6179     		ldrb	r1, [r4, #5]	@ zero_extendqisi2
 1389 001a 2046     		mov	r0, r4
 1390 001c FFF7FEFF 		bl	USBH_FreePipe
 1391              	.LVL144:
 381:Middlewares/ST/STM32_USB_Host_Library/Core/Src/usbh_core.c **** }
ARM GAS  C:\Users\Nina\AppData\Local\Temp\ccjD0KBj.s 			page 47


 1392              		.loc 1 381 3 view .LVU359
 382:Middlewares/ST/STM32_USB_Host_Library/Core/Src/usbh_core.c **** 
 1393              		.loc 1 382 1 is_stmt 0 view .LVU360
 1394 0020 0020     		movs	r0, #0
 1395 0022 10BD     		pop	{r4, pc}
 382:Middlewares/ST/STM32_USB_Host_Library/Core/Src/usbh_core.c **** 
 1396              		.loc 1 382 1 view .LVU361
 1397              		.cfi_endproc
 1398              	.LFE152:
 1400              		.section	.text.USBH_ReEnumerate,"ax",%progbits
 1401              		.align	1
 1402              		.global	USBH_ReEnumerate
 1403              		.syntax unified
 1404              		.thumb
 1405              		.thumb_func
 1406              		.fpu fpv5-sp-d16
 1408              	USBH_ReEnumerate:
 1409              	.LVL145:
 1410              	.LFB153:
 391:Middlewares/ST/STM32_USB_Host_Library/Core/Src/usbh_core.c ****   /*Stop Host */
 1411              		.loc 1 391 1 is_stmt 1 view -0
 1412              		.cfi_startproc
 1413              		@ args = 0, pretend = 0, frame = 0
 1414              		@ frame_needed = 0, uses_anonymous_args = 0
 391:Middlewares/ST/STM32_USB_Host_Library/Core/Src/usbh_core.c ****   /*Stop Host */
 1415              		.loc 1 391 1 is_stmt 0 view .LVU363
 1416 0000 10B5     		push	{r4, lr}
 1417              	.LCFI20:
 1418              		.cfi_def_cfa_offset 8
 1419              		.cfi_offset 4, -8
 1420              		.cfi_offset 14, -4
 1421 0002 0446     		mov	r4, r0
 393:Middlewares/ST/STM32_USB_Host_Library/Core/Src/usbh_core.c **** 
 1422              		.loc 1 393 3 is_stmt 1 view .LVU364
 1423 0004 FFF7FEFF 		bl	USBH_Stop
 1424              	.LVL146:
 396:Middlewares/ST/STM32_USB_Host_Library/Core/Src/usbh_core.c **** 
 1425              		.loc 1 396 3 view .LVU365
 1426 0008 C820     		movs	r0, #200
 1427 000a FFF7FEFF 		bl	USBH_Delay
 1428              	.LVL147:
 399:Middlewares/ST/STM32_USB_Host_Library/Core/Src/usbh_core.c **** 
 1429              		.loc 1 399 3 view .LVU366
 1430 000e 2046     		mov	r0, r4
 1431 0010 FFF7FEFF 		bl	DeInitStateMachine
 1432              	.LVL148:
 402:Middlewares/ST/STM32_USB_Host_Library/Core/Src/usbh_core.c **** 
 1433              		.loc 1 402 3 view .LVU367
 1434 0014 2046     		mov	r0, r4
 1435 0016 FFF7FEFF 		bl	USBH_Start
 1436              	.LVL149:
 405:Middlewares/ST/STM32_USB_Host_Library/Core/Src/usbh_core.c **** #endif
 1437              		.loc 1 405 7 view .LVU368
 1438 001a 0022     		movs	r2, #0
 1439 001c 0121     		movs	r1, #1
 1440 001e D4F8CC03 		ldr	r0, [r4, #972]
 1441 0022 FFF7FEFF 		bl	osMessagePut
ARM GAS  C:\Users\Nina\AppData\Local\Temp\ccjD0KBj.s 			page 48


 1442              	.LVL150:
 407:Middlewares/ST/STM32_USB_Host_Library/Core/Src/usbh_core.c **** }
 1443              		.loc 1 407 3 view .LVU369
 408:Middlewares/ST/STM32_USB_Host_Library/Core/Src/usbh_core.c **** 
 1444              		.loc 1 408 1 is_stmt 0 view .LVU370
 1445 0026 0020     		movs	r0, #0
 1446 0028 10BD     		pop	{r4, pc}
 408:Middlewares/ST/STM32_USB_Host_Library/Core/Src/usbh_core.c **** 
 1447              		.loc 1 408 1 view .LVU371
 1448              		.cfi_endproc
 1449              	.LFE153:
 1451              		.section	.text.USBH_LL_SetTimer,"ax",%progbits
 1452              		.align	1
 1453              		.global	USBH_LL_SetTimer
 1454              		.syntax unified
 1455              		.thumb
 1456              		.thumb_func
 1457              		.fpu fpv5-sp-d16
 1459              	USBH_LL_SetTimer:
 1460              	.LVL151:
 1461              	.LFB156:
 847:Middlewares/ST/STM32_USB_Host_Library/Core/Src/usbh_core.c ****   phost->Timer = time;
 1462              		.loc 1 847 1 is_stmt 1 view -0
 1463              		.cfi_startproc
 1464              		@ args = 0, pretend = 0, frame = 0
 1465              		@ frame_needed = 0, uses_anonymous_args = 0
 1466              		@ link register save eliminated.
 848:Middlewares/ST/STM32_USB_Host_Library/Core/Src/usbh_core.c **** }
 1467              		.loc 1 848 3 view .LVU373
 848:Middlewares/ST/STM32_USB_Host_Library/Core/Src/usbh_core.c **** }
 1468              		.loc 1 848 16 is_stmt 0 view .LVU374
 1469 0000 C0F8BC13 		str	r1, [r0, #956]
 849:Middlewares/ST/STM32_USB_Host_Library/Core/Src/usbh_core.c **** /**
 1470              		.loc 1 849 1 view .LVU375
 1471 0004 7047     		bx	lr
 1472              		.cfi_endproc
 1473              	.LFE156:
 1475              		.section	.text.USBH_LL_IncTimer,"ax",%progbits
 1476              		.align	1
 1477              		.global	USBH_LL_IncTimer
 1478              		.syntax unified
 1479              		.thumb
 1480              		.thumb_func
 1481              		.fpu fpv5-sp-d16
 1483              	USBH_LL_IncTimer:
 1484              	.LVL152:
 1485              	.LFB157:
 857:Middlewares/ST/STM32_USB_Host_Library/Core/Src/usbh_core.c ****   phost->Timer ++;
 1486              		.loc 1 857 1 is_stmt 1 view -0
 1487              		.cfi_startproc
 1488              		@ args = 0, pretend = 0, frame = 0
 1489              		@ frame_needed = 0, uses_anonymous_args = 0
 857:Middlewares/ST/STM32_USB_Host_Library/Core/Src/usbh_core.c ****   phost->Timer ++;
 1490              		.loc 1 857 1 is_stmt 0 view .LVU377
 1491 0000 08B5     		push	{r3, lr}
 1492              	.LCFI21:
 1493              		.cfi_def_cfa_offset 8
ARM GAS  C:\Users\Nina\AppData\Local\Temp\ccjD0KBj.s 			page 49


 1494              		.cfi_offset 3, -8
 1495              		.cfi_offset 14, -4
 858:Middlewares/ST/STM32_USB_Host_Library/Core/Src/usbh_core.c ****   USBH_HandleSof(phost);
 1496              		.loc 1 858 3 is_stmt 1 view .LVU378
 858:Middlewares/ST/STM32_USB_Host_Library/Core/Src/usbh_core.c ****   USBH_HandleSof(phost);
 1497              		.loc 1 858 8 is_stmt 0 view .LVU379
 1498 0002 D0F8BC23 		ldr	r2, [r0, #956]
 858:Middlewares/ST/STM32_USB_Host_Library/Core/Src/usbh_core.c ****   USBH_HandleSof(phost);
 1499              		.loc 1 858 16 view .LVU380
 1500 0006 0132     		adds	r2, r2, #1
 1501 0008 C0F8BC23 		str	r2, [r0, #956]
 859:Middlewares/ST/STM32_USB_Host_Library/Core/Src/usbh_core.c **** }
 1502              		.loc 1 859 3 is_stmt 1 view .LVU381
 1503 000c FFF7FEFF 		bl	USBH_HandleSof
 1504              	.LVL153:
 860:Middlewares/ST/STM32_USB_Host_Library/Core/Src/usbh_core.c **** 
 1505              		.loc 1 860 1 is_stmt 0 view .LVU382
 1506 0010 08BD     		pop	{r3, pc}
 1507              		.cfi_endproc
 1508              	.LFE157:
 1510              		.section	.text.USBH_LL_PortEnabled,"ax",%progbits
 1511              		.align	1
 1512              		.global	USBH_LL_PortEnabled
 1513              		.syntax unified
 1514              		.thumb
 1515              		.thumb_func
 1516              		.fpu fpv5-sp-d16
 1518              	USBH_LL_PortEnabled:
 1519              	.LVL154:
 1520              	.LFB159:
 875:Middlewares/ST/STM32_USB_Host_Library/Core/Src/usbh_core.c **** 
 876:Middlewares/ST/STM32_USB_Host_Library/Core/Src/usbh_core.c **** /**
 877:Middlewares/ST/STM32_USB_Host_Library/Core/Src/usbh_core.c ****   * @brief  USBH_PortEnabled
 878:Middlewares/ST/STM32_USB_Host_Library/Core/Src/usbh_core.c ****   *         Port Enabled
 879:Middlewares/ST/STM32_USB_Host_Library/Core/Src/usbh_core.c ****   * @param  phost: Host Handle
 880:Middlewares/ST/STM32_USB_Host_Library/Core/Src/usbh_core.c ****   * @retval None
 881:Middlewares/ST/STM32_USB_Host_Library/Core/Src/usbh_core.c ****   */
 882:Middlewares/ST/STM32_USB_Host_Library/Core/Src/usbh_core.c **** void USBH_LL_PortEnabled (USBH_HandleTypeDef *phost)
 883:Middlewares/ST/STM32_USB_Host_Library/Core/Src/usbh_core.c **** {
 1521              		.loc 1 883 1 is_stmt 1 view -0
 1522              		.cfi_startproc
 1523              		@ args = 0, pretend = 0, frame = 0
 1524              		@ frame_needed = 0, uses_anonymous_args = 0
 1525              		@ link register save eliminated.
 884:Middlewares/ST/STM32_USB_Host_Library/Core/Src/usbh_core.c ****   phost->device.PortEnabled = 1U;
 1526              		.loc 1 884 3 view .LVU384
 1527              		.loc 1 884 29 is_stmt 0 view .LVU385
 1528 0000 0123     		movs	r3, #1
 1529 0002 80F81F33 		strb	r3, [r0, #799]
 885:Middlewares/ST/STM32_USB_Host_Library/Core/Src/usbh_core.c **** 
 886:Middlewares/ST/STM32_USB_Host_Library/Core/Src/usbh_core.c ****   return;
 1530              		.loc 1 886 3 is_stmt 1 view .LVU386
 887:Middlewares/ST/STM32_USB_Host_Library/Core/Src/usbh_core.c **** }
 1531              		.loc 1 887 1 is_stmt 0 view .LVU387
 1532 0006 7047     		bx	lr
 1533              		.cfi_endproc
 1534              	.LFE159:
ARM GAS  C:\Users\Nina\AppData\Local\Temp\ccjD0KBj.s 			page 50


 1536              		.section	.text.USBH_LL_PortDisabled,"ax",%progbits
 1537              		.align	1
 1538              		.global	USBH_LL_PortDisabled
 1539              		.syntax unified
 1540              		.thumb
 1541              		.thumb_func
 1542              		.fpu fpv5-sp-d16
 1544              	USBH_LL_PortDisabled:
 1545              	.LVL155:
 1546              	.LFB160:
 888:Middlewares/ST/STM32_USB_Host_Library/Core/Src/usbh_core.c **** 
 889:Middlewares/ST/STM32_USB_Host_Library/Core/Src/usbh_core.c **** /**
 890:Middlewares/ST/STM32_USB_Host_Library/Core/Src/usbh_core.c ****   * @brief  USBH_LL_PortDisabled
 891:Middlewares/ST/STM32_USB_Host_Library/Core/Src/usbh_core.c ****   *         Port Disabled
 892:Middlewares/ST/STM32_USB_Host_Library/Core/Src/usbh_core.c ****   * @param  phost: Host Handle
 893:Middlewares/ST/STM32_USB_Host_Library/Core/Src/usbh_core.c ****   * @retval None
 894:Middlewares/ST/STM32_USB_Host_Library/Core/Src/usbh_core.c ****   */
 895:Middlewares/ST/STM32_USB_Host_Library/Core/Src/usbh_core.c **** void USBH_LL_PortDisabled (USBH_HandleTypeDef *phost)
 896:Middlewares/ST/STM32_USB_Host_Library/Core/Src/usbh_core.c **** {
 1547              		.loc 1 896 1 is_stmt 1 view -0
 1548              		.cfi_startproc
 1549              		@ args = 0, pretend = 0, frame = 0
 1550              		@ frame_needed = 0, uses_anonymous_args = 0
 1551              		@ link register save eliminated.
 897:Middlewares/ST/STM32_USB_Host_Library/Core/Src/usbh_core.c ****   phost->device.PortEnabled = 0U;
 1552              		.loc 1 897 3 view .LVU389
 1553              		.loc 1 897 29 is_stmt 0 view .LVU390
 1554 0000 0023     		movs	r3, #0
 1555 0002 80F81F33 		strb	r3, [r0, #799]
 898:Middlewares/ST/STM32_USB_Host_Library/Core/Src/usbh_core.c **** 
 899:Middlewares/ST/STM32_USB_Host_Library/Core/Src/usbh_core.c ****   return;
 1556              		.loc 1 899 3 is_stmt 1 view .LVU391
 900:Middlewares/ST/STM32_USB_Host_Library/Core/Src/usbh_core.c **** }
 1557              		.loc 1 900 1 is_stmt 0 view .LVU392
 1558 0006 7047     		bx	lr
 1559              		.cfi_endproc
 1560              	.LFE160:
 1562              		.section	.text.USBH_IsPortEnabled,"ax",%progbits
 1563              		.align	1
 1564              		.global	USBH_IsPortEnabled
 1565              		.syntax unified
 1566              		.thumb
 1567              		.thumb_func
 1568              		.fpu fpv5-sp-d16
 1570              	USBH_IsPortEnabled:
 1571              	.LVL156:
 1572              	.LFB161:
 901:Middlewares/ST/STM32_USB_Host_Library/Core/Src/usbh_core.c **** 
 902:Middlewares/ST/STM32_USB_Host_Library/Core/Src/usbh_core.c **** /**
 903:Middlewares/ST/STM32_USB_Host_Library/Core/Src/usbh_core.c ****   * @brief  HCD_IsPortEnabled
 904:Middlewares/ST/STM32_USB_Host_Library/Core/Src/usbh_core.c ****   *         Is Port Enabled
 905:Middlewares/ST/STM32_USB_Host_Library/Core/Src/usbh_core.c ****   * @param  phost: Host Handle
 906:Middlewares/ST/STM32_USB_Host_Library/Core/Src/usbh_core.c ****   * @retval None
 907:Middlewares/ST/STM32_USB_Host_Library/Core/Src/usbh_core.c ****   */
 908:Middlewares/ST/STM32_USB_Host_Library/Core/Src/usbh_core.c **** uint8_t USBH_IsPortEnabled(USBH_HandleTypeDef *phost)
 909:Middlewares/ST/STM32_USB_Host_Library/Core/Src/usbh_core.c **** {
 1573              		.loc 1 909 1 is_stmt 1 view -0
ARM GAS  C:\Users\Nina\AppData\Local\Temp\ccjD0KBj.s 			page 51


 1574              		.cfi_startproc
 1575              		@ args = 0, pretend = 0, frame = 0
 1576              		@ frame_needed = 0, uses_anonymous_args = 0
 1577              		@ link register save eliminated.
 910:Middlewares/ST/STM32_USB_Host_Library/Core/Src/usbh_core.c ****   return(phost->device.PortEnabled);
 1578              		.loc 1 910 3 view .LVU394
 911:Middlewares/ST/STM32_USB_Host_Library/Core/Src/usbh_core.c **** }
 1579              		.loc 1 911 1 is_stmt 0 view .LVU395
 1580 0000 90F81F03 		ldrb	r0, [r0, #799]	@ zero_extendqisi2
 1581              	.LVL157:
 1582              		.loc 1 911 1 view .LVU396
 1583 0004 7047     		bx	lr
 1584              		.cfi_endproc
 1585              	.LFE161:
 1587              		.section	.rodata.USBH_Process.str1.4,"aMS",%progbits,1
 1588              		.align	2
 1589              	.LC22:
 1590 0000 55534220 		.ascii	"USB Device Attached\000"
 1590      44657669 
 1590      63652041 
 1590      74746163 
 1590      68656400 
 1591              		.align	2
 1592              	.LC23:
 1593 0014 456E756D 		.ascii	"Enumeration done.\000"
 1593      65726174 
 1593      696F6E20 
 1593      646F6E65 
 1593      2E00
 1594 0026 0000     		.align	2
 1595              	.LC24:
 1596 0028 54686973 		.ascii	"This device has only 1 configuration.\000"
 1596      20646576 
 1596      69636520 
 1596      68617320 
 1596      6F6E6C79 
 1597 004e 0000     		.align	2
 1598              	.LC25:
 1599 0050 44656661 		.ascii	"Default configuration set.\000"
 1599      756C7420 
 1599      636F6E66 
 1599      69677572 
 1599      6174696F 
 1600 006b 00       		.align	2
 1601              	.LC26:
 1602 006c 44657669 		.ascii	"Device remote wakeup enabled\000"
 1602      63652072 
 1602      656D6F74 
 1602      65207761 
 1602      6B657570 
 1603 0089 000000   		.align	2
 1604              	.LC27:
 1605 008c 4E6F2043 		.ascii	"No Class has been registered.\000"
 1605      6C617373 
 1605      20686173 
 1605      20626565 
 1605      6E207265 
ARM GAS  C:\Users\Nina\AppData\Local\Temp\ccjD0KBj.s 			page 52


 1606 00aa 0000     		.align	2
 1607              	.LC28:
 1608 00ac 25732063 		.ascii	"%s class started.\000"
 1608      6C617373 
 1608      20737461 
 1608      72746564 
 1608      2E00
 1609 00be 0000     		.align	2
 1610              	.LC29:
 1611 00c0 44657669 		.ascii	"Device not supporting %s class.\000"
 1611      6365206E 
 1611      6F742073 
 1611      7570706F 
 1611      7274696E 
 1612              		.align	2
 1613              	.LC30:
 1614 00e0 4E6F2072 		.ascii	"No registered class for this device.\000"
 1614      65676973 
 1614      74657265 
 1614      6420636C 
 1614      61737320 
 1615 0105 000000   		.align	2
 1616              	.LC31:
 1617 0108 496E7661 		.ascii	"Invalid Class Driver.\000"
 1617      6C696420 
 1617      436C6173 
 1617      73204472 
 1617      69766572 
 1618              		.section	.text.USBH_Process,"ax",%progbits
 1619              		.align	1
 1620              		.global	USBH_Process
 1621              		.syntax unified
 1622              		.thumb
 1623              		.thumb_func
 1624              		.fpu fpv5-sp-d16
 1626              	USBH_Process:
 1627              	.LVL158:
 1628              	.LFB154:
 417:Middlewares/ST/STM32_USB_Host_Library/Core/Src/usbh_core.c ****   __IO USBH_StatusTypeDef status = USBH_FAIL;
 1629              		.loc 1 417 1 is_stmt 1 view -0
 1630              		.cfi_startproc
 1631              		@ args = 0, pretend = 0, frame = 8
 1632              		@ frame_needed = 0, uses_anonymous_args = 0
 417:Middlewares/ST/STM32_USB_Host_Library/Core/Src/usbh_core.c ****   __IO USBH_StatusTypeDef status = USBH_FAIL;
 1633              		.loc 1 417 1 is_stmt 0 view .LVU398
 1634 0000 30B5     		push	{r4, r5, lr}
 1635              	.LCFI22:
 1636              		.cfi_def_cfa_offset 12
 1637              		.cfi_offset 4, -12
 1638              		.cfi_offset 5, -8
 1639              		.cfi_offset 14, -4
 1640 0002 87B0     		sub	sp, sp, #28
 1641              	.LCFI23:
 1642              		.cfi_def_cfa_offset 40
 1643 0004 0446     		mov	r4, r0
 418:Middlewares/ST/STM32_USB_Host_Library/Core/Src/usbh_core.c ****   uint8_t idx = 0U;
 1644              		.loc 1 418 3 is_stmt 1 view .LVU399
ARM GAS  C:\Users\Nina\AppData\Local\Temp\ccjD0KBj.s 			page 53


 418:Middlewares/ST/STM32_USB_Host_Library/Core/Src/usbh_core.c ****   uint8_t idx = 0U;
 1645              		.loc 1 418 27 is_stmt 0 view .LVU400
 1646 0006 0223     		movs	r3, #2
 1647 0008 8DF81730 		strb	r3, [sp, #23]
 419:Middlewares/ST/STM32_USB_Host_Library/Core/Src/usbh_core.c **** 
 1648              		.loc 1 419 3 is_stmt 1 view .LVU401
 1649              	.LVL159:
 422:Middlewares/ST/STM32_USB_Host_Library/Core/Src/usbh_core.c ****   {
 1650              		.loc 1 422 3 view .LVU402
 422:Middlewares/ST/STM32_USB_Host_Library/Core/Src/usbh_core.c ****   {
 1651              		.loc 1 422 9 is_stmt 0 view .LVU403
 1652 000c FFF7FEFF 		bl	USBH_IsPortEnabled
 1653              	.LVL160:
 422:Middlewares/ST/STM32_USB_Host_Library/Core/Src/usbh_core.c ****   {
 1654              		.loc 1 422 6 view .LVU404
 1655 0010 38B9     		cbnz	r0, .L97
 422:Middlewares/ST/STM32_USB_Host_Library/Core/Src/usbh_core.c ****   {
 1656              		.loc 1 422 52 discriminator 1 view .LVU405
 1657 0012 2378     		ldrb	r3, [r4]	@ zero_extendqisi2
 422:Middlewares/ST/STM32_USB_Host_Library/Core/Src/usbh_core.c ****   {
 1658              		.loc 1 422 43 discriminator 1 view .LVU406
 1659 0014 2BB1     		cbz	r3, .L97
 424:Middlewares/ST/STM32_USB_Host_Library/Core/Src/usbh_core.c ****     {
 1660              		.loc 1 424 5 is_stmt 1 view .LVU407
 424:Middlewares/ST/STM32_USB_Host_Library/Core/Src/usbh_core.c ****     {
 1661              		.loc 1 424 13 is_stmt 0 view .LVU408
 1662 0016 2378     		ldrb	r3, [r4]	@ zero_extendqisi2
 1663 0018 DBB2     		uxtb	r3, r3
 424:Middlewares/ST/STM32_USB_Host_Library/Core/Src/usbh_core.c ****     {
 1664              		.loc 1 424 7 view .LVU409
 1665 001a 032B     		cmp	r3, #3
 1666 001c 01D0     		beq	.L97
 426:Middlewares/ST/STM32_USB_Host_Library/Core/Src/usbh_core.c ****     }
 1667              		.loc 1 426 7 is_stmt 1 view .LVU410
 426:Middlewares/ST/STM32_USB_Host_Library/Core/Src/usbh_core.c ****     }
 1668              		.loc 1 426 21 is_stmt 0 view .LVU411
 1669 001e 0323     		movs	r3, #3
 1670 0020 2370     		strb	r3, [r4]
 1671              	.L97:
 430:Middlewares/ST/STM32_USB_Host_Library/Core/Src/usbh_core.c ****   {
 1672              		.loc 1 430 3 is_stmt 1 view .LVU412
 430:Middlewares/ST/STM32_USB_Host_Library/Core/Src/usbh_core.c ****   {
 1673              		.loc 1 430 16 is_stmt 0 view .LVU413
 1674 0022 2378     		ldrb	r3, [r4]	@ zero_extendqisi2
 1675 0024 DBB2     		uxtb	r3, r3
 1676 0026 0B2B     		cmp	r3, #11
 1677 0028 62D8     		bhi	.L98
 1678 002a DFE813F0 		tbh	[pc, r3, lsl #1]
 1679              	.L100:
 1680 002e 0C00     		.2byte	(.L110-.L100)/2
 1681 0030 1F00     		.2byte	(.L109-.L100)/2
 1682 0032 2600     		.2byte	(.L108-.L100)/2
 1683 0034 4701     		.2byte	(.L107-.L100)/2
 1684 0036 6100     		.2byte	(.L98-.L100)/2
 1685 0038 6400     		.2byte	(.L106-.L100)/2
 1686 003a 1C01     		.2byte	(.L105-.L100)/2
 1687 003c 8200     		.2byte	(.L104-.L100)/2
ARM GAS  C:\Users\Nina\AppData\Local\Temp\ccjD0KBj.s 			page 54


 1688 003e 9200     		.2byte	(.L103-.L100)/2
 1689 0040 A800     		.2byte	(.L102-.L100)/2
 1690 0042 C500     		.2byte	(.L101-.L100)/2
 1691 0044 3E01     		.2byte	(.L99-.L100)/2
 1692              		.p2align 1
 1693              	.L110:
 434:Middlewares/ST/STM32_USB_Host_Library/Core/Src/usbh_core.c ****     {
 1694              		.loc 1 434 5 is_stmt 1 view .LVU414
 434:Middlewares/ST/STM32_USB_Host_Library/Core/Src/usbh_core.c ****     {
 1695              		.loc 1 434 22 is_stmt 0 view .LVU415
 1696 0046 94F81E33 		ldrb	r3, [r4, #798]	@ zero_extendqisi2
 434:Middlewares/ST/STM32_USB_Host_Library/Core/Src/usbh_core.c ****     {
 1697              		.loc 1 434 8 view .LVU416
 1698 004a 002B     		cmp	r3, #0
 1699 004c 50D0     		beq	.L98
 437:Middlewares/ST/STM32_USB_Host_Library/Core/Src/usbh_core.c ****       USBH_Delay(200U);
 1700              		.loc 1 437 7 is_stmt 1 view .LVU417
 437:Middlewares/ST/STM32_USB_Host_Library/Core/Src/usbh_core.c ****       USBH_Delay(200U);
 1701              		.loc 1 437 21 is_stmt 0 view .LVU418
 1702 004e 0125     		movs	r5, #1
 1703 0050 2570     		strb	r5, [r4]
 438:Middlewares/ST/STM32_USB_Host_Library/Core/Src/usbh_core.c ****       USBH_LL_ResetPort(phost);
 1704              		.loc 1 438 7 is_stmt 1 view .LVU419
 1705 0052 C820     		movs	r0, #200
 1706 0054 FFF7FEFF 		bl	USBH_Delay
 1707              	.LVL161:
 439:Middlewares/ST/STM32_USB_Host_Library/Core/Src/usbh_core.c **** #if (USBH_USE_OS == 1U)
 1708              		.loc 1 439 7 view .LVU420
 1709 0058 2046     		mov	r0, r4
 1710 005a FFF7FEFF 		bl	USBH_LL_ResetPort
 1711              	.LVL162:
 441:Middlewares/ST/STM32_USB_Host_Library/Core/Src/usbh_core.c **** #endif
 1712              		.loc 1 441 7 view .LVU421
 1713 005e 0022     		movs	r2, #0
 1714 0060 2946     		mov	r1, r5
 1715 0062 D4F8CC03 		ldr	r0, [r4, #972]
 1716 0066 FFF7FEFF 		bl	osMessagePut
 1717              	.LVL163:
 1718 006a 41E0     		b	.L98
 1719              	.L109:
 448:Middlewares/ST/STM32_USB_Host_Library/Core/Src/usbh_core.c ****     {
 1720              		.loc 1 448 5 view .LVU422
 448:Middlewares/ST/STM32_USB_Host_Library/Core/Src/usbh_core.c ****     {
 1721              		.loc 1 448 22 is_stmt 0 view .LVU423
 1722 006c 94F81F33 		ldrb	r3, [r4, #799]	@ zero_extendqisi2
 448:Middlewares/ST/STM32_USB_Host_Library/Core/Src/usbh_core.c ****     {
 1723              		.loc 1 448 8 view .LVU424
 1724 0070 012B     		cmp	r3, #1
 1725 0072 3DD1     		bne	.L98
 450:Middlewares/ST/STM32_USB_Host_Library/Core/Src/usbh_core.c ****     }
 1726              		.loc 1 450 7 is_stmt 1 view .LVU425
 450:Middlewares/ST/STM32_USB_Host_Library/Core/Src/usbh_core.c ****     }
 1727              		.loc 1 450 21 is_stmt 0 view .LVU426
 1728 0074 0223     		movs	r3, #2
 1729 0076 2370     		strb	r3, [r4]
 1730 0078 3AE0     		b	.L98
 1731              	.L108:
ARM GAS  C:\Users\Nina\AppData\Local\Temp\ccjD0KBj.s 			page 55


 456:Middlewares/ST/STM32_USB_Host_Library/Core/Src/usbh_core.c **** 
 1732              		.loc 1 456 5 is_stmt 1 view .LVU427
 1733 007a 9848     		ldr	r0, .L129
 1734 007c FFF7FEFF 		bl	printf
 1735              	.LVL164:
 456:Middlewares/ST/STM32_USB_Host_Library/Core/Src/usbh_core.c **** 
 1736              		.loc 1 456 5 view .LVU428
 1737 0080 0A20     		movs	r0, #10
 1738 0082 FFF7FEFF 		bl	putchar
 1739              	.LVL165:
 456:Middlewares/ST/STM32_USB_Host_Library/Core/Src/usbh_core.c **** 
 1740              		.loc 1 456 39 view .LVU429
 459:Middlewares/ST/STM32_USB_Host_Library/Core/Src/usbh_core.c **** 
 1741              		.loc 1 459 5 view .LVU430
 1742 0086 6420     		movs	r0, #100
 1743 0088 FFF7FEFF 		bl	USBH_Delay
 1744              	.LVL166:
 461:Middlewares/ST/STM32_USB_Host_Library/Core/Src/usbh_core.c **** 
 1745              		.loc 1 461 5 view .LVU431
 461:Middlewares/ST/STM32_USB_Host_Library/Core/Src/usbh_core.c **** 
 1746              		.loc 1 461 27 is_stmt 0 view .LVU432
 1747 008c 2046     		mov	r0, r4
 1748 008e FFF7FEFF 		bl	USBH_LL_GetSpeed
 1749              	.LVL167:
 461:Middlewares/ST/STM32_USB_Host_Library/Core/Src/usbh_core.c **** 
 1750              		.loc 1 461 25 view .LVU433
 1751 0092 84F81D03 		strb	r0, [r4, #797]
 463:Middlewares/ST/STM32_USB_Host_Library/Core/Src/usbh_core.c **** 
 1752              		.loc 1 463 5 is_stmt 1 view .LVU434
 463:Middlewares/ST/STM32_USB_Host_Library/Core/Src/usbh_core.c **** 
 1753              		.loc 1 463 19 is_stmt 0 view .LVU435
 1754 0096 0523     		movs	r3, #5
 1755 0098 2370     		strb	r3, [r4]
 465:Middlewares/ST/STM32_USB_Host_Library/Core/Src/usbh_core.c ****     phost->Control.pipe_in  = USBH_AllocPipe (phost, 0x80U);
 1756              		.loc 1 465 5 is_stmt 1 view .LVU436
 465:Middlewares/ST/STM32_USB_Host_Library/Core/Src/usbh_core.c ****     phost->Control.pipe_in  = USBH_AllocPipe (phost, 0x80U);
 1757              		.loc 1 465 31 is_stmt 0 view .LVU437
 1758 009a 0021     		movs	r1, #0
 1759 009c 2046     		mov	r0, r4
 1760 009e FFF7FEFF 		bl	USBH_AllocPipe
 1761              	.LVL168:
 465:Middlewares/ST/STM32_USB_Host_Library/Core/Src/usbh_core.c ****     phost->Control.pipe_in  = USBH_AllocPipe (phost, 0x80U);
 1762              		.loc 1 465 29 view .LVU438
 1763 00a2 6071     		strb	r0, [r4, #5]
 466:Middlewares/ST/STM32_USB_Host_Library/Core/Src/usbh_core.c **** 
 1764              		.loc 1 466 5 is_stmt 1 view .LVU439
 466:Middlewares/ST/STM32_USB_Host_Library/Core/Src/usbh_core.c **** 
 1765              		.loc 1 466 31 is_stmt 0 view .LVU440
 1766 00a4 8021     		movs	r1, #128
 1767 00a6 2046     		mov	r0, r4
 1768 00a8 FFF7FEFF 		bl	USBH_AllocPipe
 1769              	.LVL169:
 1770 00ac 0146     		mov	r1, r0
 466:Middlewares/ST/STM32_USB_Host_Library/Core/Src/usbh_core.c **** 
 1771              		.loc 1 466 29 view .LVU441
 1772 00ae 2071     		strb	r0, [r4, #4]
 470:Middlewares/ST/STM32_USB_Host_Library/Core/Src/usbh_core.c ****                    phost->Control.pipe_in,
ARM GAS  C:\Users\Nina\AppData\Local\Temp\ccjD0KBj.s 			page 56


 1773              		.loc 1 470 5 is_stmt 1 view .LVU442
 1774 00b0 A379     		ldrb	r3, [r4, #6]	@ zero_extendqisi2
 1775 00b2 0293     		str	r3, [sp, #8]
 1776 00b4 0025     		movs	r5, #0
 1777 00b6 0195     		str	r5, [sp, #4]
 1778 00b8 94F81D33 		ldrb	r3, [r4, #797]	@ zero_extendqisi2
 1779 00bc 0093     		str	r3, [sp]
 1780 00be 94F81C33 		ldrb	r3, [r4, #796]	@ zero_extendqisi2
 1781 00c2 8022     		movs	r2, #128
 1782 00c4 2046     		mov	r0, r4
 1783 00c6 FFF7FEFF 		bl	USBH_OpenPipe
 1784              	.LVL170:
 479:Middlewares/ST/STM32_USB_Host_Library/Core/Src/usbh_core.c ****                    phost->Control.pipe_out,
 1785              		.loc 1 479 5 view .LVU443
 1786 00ca A379     		ldrb	r3, [r4, #6]	@ zero_extendqisi2
 1787 00cc 0293     		str	r3, [sp, #8]
 1788 00ce 0195     		str	r5, [sp, #4]
 1789 00d0 94F81D33 		ldrb	r3, [r4, #797]	@ zero_extendqisi2
 1790 00d4 0093     		str	r3, [sp]
 1791 00d6 94F81C33 		ldrb	r3, [r4, #796]	@ zero_extendqisi2
 1792 00da 2A46     		mov	r2, r5
 1793 00dc 6179     		ldrb	r1, [r4, #5]	@ zero_extendqisi2
 1794 00de 2046     		mov	r0, r4
 1795 00e0 FFF7FEFF 		bl	USBH_OpenPipe
 1796              	.LVL171:
 488:Middlewares/ST/STM32_USB_Host_Library/Core/Src/usbh_core.c **** #endif
 1797              		.loc 1 488 5 view .LVU444
 1798 00e4 2A46     		mov	r2, r5
 1799 00e6 0121     		movs	r1, #1
 1800 00e8 D4F8CC03 		ldr	r0, [r4, #972]
 1801 00ec FFF7FEFF 		bl	osMessagePut
 1802              	.LVL172:
 491:Middlewares/ST/STM32_USB_Host_Library/Core/Src/usbh_core.c **** 
 1803              		.loc 1 491 5 view .LVU445
 1804              	.L98:
 654:Middlewares/ST/STM32_USB_Host_Library/Core/Src/usbh_core.c **** }
 1805              		.loc 1 654 2 view .LVU446
 655:Middlewares/ST/STM32_USB_Host_Library/Core/Src/usbh_core.c **** 
 1806              		.loc 1 655 1 is_stmt 0 view .LVU447
 1807 00f0 0020     		movs	r0, #0
 1808 00f2 07B0     		add	sp, sp, #28
 1809              	.LCFI24:
 1810              		.cfi_remember_state
 1811              		.cfi_def_cfa_offset 12
 1812              		@ sp needed
 1813 00f4 30BD     		pop	{r4, r5, pc}
 1814              	.LVL173:
 1815              	.L106:
 1816              	.LCFI25:
 1817              		.cfi_restore_state
 495:Middlewares/ST/STM32_USB_Host_Library/Core/Src/usbh_core.c ****     {
 1818              		.loc 1 495 5 is_stmt 1 view .LVU448
 495:Middlewares/ST/STM32_USB_Host_Library/Core/Src/usbh_core.c ****     {
 1819              		.loc 1 495 10 is_stmt 0 view .LVU449
 1820 00f6 2046     		mov	r0, r4
 1821 00f8 FFF7FEFF 		bl	USBH_HandleEnum
 1822              	.LVL174:
ARM GAS  C:\Users\Nina\AppData\Local\Temp\ccjD0KBj.s 			page 57


 495:Middlewares/ST/STM32_USB_Host_Library/Core/Src/usbh_core.c ****     {
 1823              		.loc 1 495 8 view .LVU450
 1824 00fc 0028     		cmp	r0, #0
 1825 00fe F7D1     		bne	.L98
 498:Middlewares/ST/STM32_USB_Host_Library/Core/Src/usbh_core.c ****       phost->device.current_interface = 0U;
 1826              		.loc 1 498 7 is_stmt 1 view .LVU451
 1827 0100 7748     		ldr	r0, .L129+4
 1828 0102 FFF7FEFF 		bl	printf
 1829              	.LVL175:
 498:Middlewares/ST/STM32_USB_Host_Library/Core/Src/usbh_core.c ****       phost->device.current_interface = 0U;
 1830              		.loc 1 498 7 view .LVU452
 1831 0106 0A20     		movs	r0, #10
 1832 0108 FFF7FEFF 		bl	putchar
 1833              	.LVL176:
 498:Middlewares/ST/STM32_USB_Host_Library/Core/Src/usbh_core.c ****       phost->device.current_interface = 0U;
 1834              		.loc 1 498 40 view .LVU453
 499:Middlewares/ST/STM32_USB_Host_Library/Core/Src/usbh_core.c ****       if(phost->device.DevDesc.bNumConfigurations == 1U)
 1835              		.loc 1 499 7 view .LVU454
 499:Middlewares/ST/STM32_USB_Host_Library/Core/Src/usbh_core.c ****       if(phost->device.DevDesc.bNumConfigurations == 1U)
 1836              		.loc 1 499 39 is_stmt 0 view .LVU455
 1837 010c 0023     		movs	r3, #0
 1838 010e 84F82033 		strb	r3, [r4, #800]
 500:Middlewares/ST/STM32_USB_Host_Library/Core/Src/usbh_core.c ****       {
 1839              		.loc 1 500 7 is_stmt 1 view .LVU456
 500:Middlewares/ST/STM32_USB_Host_Library/Core/Src/usbh_core.c ****       {
 1840              		.loc 1 500 31 is_stmt 0 view .LVU457
 1841 0112 94F83333 		ldrb	r3, [r4, #819]	@ zero_extendqisi2
 500:Middlewares/ST/STM32_USB_Host_Library/Core/Src/usbh_core.c ****       {
 1842              		.loc 1 500 9 view .LVU458
 1843 0116 012B     		cmp	r3, #1
 1844 0118 02D0     		beq	.L124
 508:Middlewares/ST/STM32_USB_Host_Library/Core/Src/usbh_core.c ****       }
 1845              		.loc 1 508 9 is_stmt 1 view .LVU459
 508:Middlewares/ST/STM32_USB_Host_Library/Core/Src/usbh_core.c ****       }
 1846              		.loc 1 508 24 is_stmt 0 view .LVU460
 1847 011a 0723     		movs	r3, #7
 1848 011c 2370     		strb	r3, [r4]
 1849 011e E7E7     		b	.L98
 1850              	.L124:
 502:Middlewares/ST/STM32_USB_Host_Library/Core/Src/usbh_core.c ****         phost->gState  = HOST_SET_CONFIGURATION;
 1851              		.loc 1 502 9 is_stmt 1 view .LVU461
 1852 0120 7048     		ldr	r0, .L129+8
 1853 0122 FFF7FEFF 		bl	printf
 1854              	.LVL177:
 502:Middlewares/ST/STM32_USB_Host_Library/Core/Src/usbh_core.c ****         phost->gState  = HOST_SET_CONFIGURATION;
 1855              		.loc 1 502 9 view .LVU462
 1856 0126 0A20     		movs	r0, #10
 1857 0128 FFF7FEFF 		bl	putchar
 1858              	.LVL178:
 502:Middlewares/ST/STM32_USB_Host_Library/Core/Src/usbh_core.c ****         phost->gState  = HOST_SET_CONFIGURATION;
 1859              		.loc 1 502 62 view .LVU463
 503:Middlewares/ST/STM32_USB_Host_Library/Core/Src/usbh_core.c **** 
 1860              		.loc 1 503 9 view .LVU464
 503:Middlewares/ST/STM32_USB_Host_Library/Core/Src/usbh_core.c **** 
 1861              		.loc 1 503 24 is_stmt 0 view .LVU465
 1862 012c 0823     		movs	r3, #8
 1863 012e 2370     		strb	r3, [r4]
ARM GAS  C:\Users\Nina\AppData\Local\Temp\ccjD0KBj.s 			page 58


 1864 0130 DEE7     		b	.L98
 1865              	.L104:
 517:Middlewares/ST/STM32_USB_Host_Library/Core/Src/usbh_core.c ****       {
 1866              		.loc 1 517 7 is_stmt 1 view .LVU466
 517:Middlewares/ST/STM32_USB_Host_Library/Core/Src/usbh_core.c ****       {
 1867              		.loc 1 517 15 is_stmt 0 view .LVU467
 1868 0132 D4F8C833 		ldr	r3, [r4, #968]
 517:Middlewares/ST/STM32_USB_Host_Library/Core/Src/usbh_core.c ****       {
 1869              		.loc 1 517 9 view .LVU468
 1870 0136 002B     		cmp	r3, #0
 1871 0138 DAD0     		beq	.L98
 519:Middlewares/ST/STM32_USB_Host_Library/Core/Src/usbh_core.c ****         phost->gState = HOST_SET_CONFIGURATION;
 1872              		.loc 1 519 9 is_stmt 1 view .LVU469
 1873 013a 0121     		movs	r1, #1
 1874 013c 2046     		mov	r0, r4
 1875 013e 9847     		blx	r3
 1876              	.LVL179:
 520:Middlewares/ST/STM32_USB_Host_Library/Core/Src/usbh_core.c **** 
 1877              		.loc 1 520 9 view .LVU470
 520:Middlewares/ST/STM32_USB_Host_Library/Core/Src/usbh_core.c **** 
 1878              		.loc 1 520 23 is_stmt 0 view .LVU471
 1879 0140 0823     		movs	r3, #8
 1880 0142 2370     		strb	r3, [r4]
 523:Middlewares/ST/STM32_USB_Host_Library/Core/Src/usbh_core.c **** #endif
 1881              		.loc 1 523 9 is_stmt 1 view .LVU472
 1882 0144 0022     		movs	r2, #0
 1883 0146 0521     		movs	r1, #5
 1884 0148 D4F8CC03 		ldr	r0, [r4, #972]
 1885 014c FFF7FEFF 		bl	osMessagePut
 1886              	.LVL180:
 1887 0150 CEE7     		b	.L98
 1888              	.L103:
 531:Middlewares/ST/STM32_USB_Host_Library/Core/Src/usbh_core.c ****     {
 1889              		.loc 1 531 5 view .LVU473
 531:Middlewares/ST/STM32_USB_Host_Library/Core/Src/usbh_core.c ****     {
 1890              		.loc 1 531 9 is_stmt 0 view .LVU474
 1891 0152 94F83913 		ldrb	r1, [r4, #825]	@ zero_extendqisi2
 1892 0156 2046     		mov	r0, r4
 1893 0158 FFF7FEFF 		bl	USBH_SetCfg
 1894              	.LVL181:
 531:Middlewares/ST/STM32_USB_Host_Library/Core/Src/usbh_core.c ****     {
 1895              		.loc 1 531 8 view .LVU475
 1896 015c 30B1     		cbz	r0, .L125
 1897              	.L112:
 534:Middlewares/ST/STM32_USB_Host_Library/Core/Src/usbh_core.c ****     }
 1898              		.loc 1 534 49 is_stmt 1 discriminator 1 view .LVU476
 538:Middlewares/ST/STM32_USB_Host_Library/Core/Src/usbh_core.c **** #endif
 1899              		.loc 1 538 5 discriminator 1 view .LVU477
 1900 015e 0022     		movs	r2, #0
 1901 0160 0121     		movs	r1, #1
 1902 0162 D4F8CC03 		ldr	r0, [r4, #972]
 1903 0166 FFF7FEFF 		bl	osMessagePut
 1904              	.LVL182:
 540:Middlewares/ST/STM32_USB_Host_Library/Core/Src/usbh_core.c **** 
 1905              		.loc 1 540 5 discriminator 1 view .LVU478
 1906 016a C1E7     		b	.L98
 1907              	.L125:
ARM GAS  C:\Users\Nina\AppData\Local\Temp\ccjD0KBj.s 			page 59


 533:Middlewares/ST/STM32_USB_Host_Library/Core/Src/usbh_core.c ****       USBH_UsrLog ("Default configuration set.");
 1908              		.loc 1 533 7 view .LVU479
 533:Middlewares/ST/STM32_USB_Host_Library/Core/Src/usbh_core.c ****       USBH_UsrLog ("Default configuration set.");
 1909              		.loc 1 533 22 is_stmt 0 view .LVU480
 1910 016c 0923     		movs	r3, #9
 1911 016e 2370     		strb	r3, [r4]
 534:Middlewares/ST/STM32_USB_Host_Library/Core/Src/usbh_core.c ****     }
 1912              		.loc 1 534 7 is_stmt 1 view .LVU481
 1913 0170 5D48     		ldr	r0, .L129+12
 1914 0172 FFF7FEFF 		bl	printf
 1915              	.LVL183:
 534:Middlewares/ST/STM32_USB_Host_Library/Core/Src/usbh_core.c ****     }
 1916              		.loc 1 534 7 view .LVU482
 1917 0176 0A20     		movs	r0, #10
 1918 0178 FFF7FEFF 		bl	putchar
 1919              	.LVL184:
 1920 017c EFE7     		b	.L112
 1921              	.L102:
 544:Middlewares/ST/STM32_USB_Host_Library/Core/Src/usbh_core.c ****     {
 1922              		.loc 1 544 5 view .LVU483
 544:Middlewares/ST/STM32_USB_Host_Library/Core/Src/usbh_core.c ****     {
 1923              		.loc 1 544 31 is_stmt 0 view .LVU484
 1924 017e 94F83B33 		ldrb	r3, [r4, #827]	@ zero_extendqisi2
 544:Middlewares/ST/STM32_USB_Host_Library/Core/Src/usbh_core.c ****     {
 1925              		.loc 1 544 8 view .LVU485
 1926 0182 13F0200F 		tst	r3, #32
 1927 0186 08D1     		bne	.L126
 554:Middlewares/ST/STM32_USB_Host_Library/Core/Src/usbh_core.c ****     }
 1928              		.loc 1 554 7 is_stmt 1 view .LVU486
 554:Middlewares/ST/STM32_USB_Host_Library/Core/Src/usbh_core.c ****     }
 1929              		.loc 1 554 22 is_stmt 0 view .LVU487
 1930 0188 0A23     		movs	r3, #10
 1931 018a 2370     		strb	r3, [r4]
 1932              	.L114:
 558:Middlewares/ST/STM32_USB_Host_Library/Core/Src/usbh_core.c **** #endif
 1933              		.loc 1 558 5 is_stmt 1 view .LVU488
 1934 018c 0022     		movs	r2, #0
 1935 018e 0121     		movs	r1, #1
 1936 0190 D4F8CC03 		ldr	r0, [r4, #972]
 1937 0194 FFF7FEFF 		bl	osMessagePut
 1938              	.LVL185:
 560:Middlewares/ST/STM32_USB_Host_Library/Core/Src/usbh_core.c **** 
 1939              		.loc 1 560 5 view .LVU489
 1940 0198 AAE7     		b	.L98
 1941              	.L126:
 546:Middlewares/ST/STM32_USB_Host_Library/Core/Src/usbh_core.c ****       {
 1942              		.loc 1 546 7 view .LVU490
 546:Middlewares/ST/STM32_USB_Host_Library/Core/Src/usbh_core.c ****       {
 1943              		.loc 1 546 11 is_stmt 0 view .LVU491
 1944 019a 0121     		movs	r1, #1
 1945 019c 2046     		mov	r0, r4
 1946 019e FFF7FEFF 		bl	USBH_SetFeature
 1947              	.LVL186:
 546:Middlewares/ST/STM32_USB_Host_Library/Core/Src/usbh_core.c ****       {
 1948              		.loc 1 546 10 view .LVU492
 1949 01a2 0028     		cmp	r0, #0
 1950 01a4 F2D1     		bne	.L114
ARM GAS  C:\Users\Nina\AppData\Local\Temp\ccjD0KBj.s 			page 60


 548:Middlewares/ST/STM32_USB_Host_Library/Core/Src/usbh_core.c ****         phost->gState  = HOST_CHECK_CLASS;
 1951              		.loc 1 548 9 is_stmt 1 view .LVU493
 1952 01a6 5148     		ldr	r0, .L129+16
 1953 01a8 FFF7FEFF 		bl	printf
 1954              	.LVL187:
 548:Middlewares/ST/STM32_USB_Host_Library/Core/Src/usbh_core.c ****         phost->gState  = HOST_CHECK_CLASS;
 1955              		.loc 1 548 9 view .LVU494
 1956 01ac 0A20     		movs	r0, #10
 1957 01ae FFF7FEFF 		bl	putchar
 1958              	.LVL188:
 548:Middlewares/ST/STM32_USB_Host_Library/Core/Src/usbh_core.c ****         phost->gState  = HOST_CHECK_CLASS;
 1959              		.loc 1 548 53 view .LVU495
 549:Middlewares/ST/STM32_USB_Host_Library/Core/Src/usbh_core.c ****       }
 1960              		.loc 1 549 9 view .LVU496
 549:Middlewares/ST/STM32_USB_Host_Library/Core/Src/usbh_core.c ****       }
 1961              		.loc 1 549 24 is_stmt 0 view .LVU497
 1962 01b2 0A23     		movs	r3, #10
 1963 01b4 2370     		strb	r3, [r4]
 1964 01b6 E9E7     		b	.L114
 1965              	.L101:
 564:Middlewares/ST/STM32_USB_Host_Library/Core/Src/usbh_core.c ****     {
 1966              		.loc 1 564 5 is_stmt 1 view .LVU498
 564:Middlewares/ST/STM32_USB_Host_Library/Core/Src/usbh_core.c ****     {
 1967              		.loc 1 564 13 is_stmt 0 view .LVU499
 1968 01b8 D4F87C33 		ldr	r3, [r4, #892]
 564:Middlewares/ST/STM32_USB_Host_Library/Core/Src/usbh_core.c ****     {
 1969              		.loc 1 564 7 view .LVU500
 1970 01bc E3B1     		cbz	r3, .L127
 570:Middlewares/ST/STM32_USB_Host_Library/Core/Src/usbh_core.c **** 
 1971              		.loc 1 570 7 is_stmt 1 view .LVU501
 570:Middlewares/ST/STM32_USB_Host_Library/Core/Src/usbh_core.c **** 
 1972              		.loc 1 570 27 is_stmt 0 view .LVU502
 1973 01be 0023     		movs	r3, #0
 1974 01c0 C4F87833 		str	r3, [r4, #888]
 572:Middlewares/ST/STM32_USB_Host_Library/Core/Src/usbh_core.c ****       {
 1975              		.loc 1 572 7 is_stmt 1 view .LVU503
 1976              	.LVL189:
 1977              	.L117:
 572:Middlewares/ST/STM32_USB_Host_Library/Core/Src/usbh_core.c ****       {
 1978              		.loc 1 572 22 discriminator 1 view .LVU504
 572:Middlewares/ST/STM32_USB_Host_Library/Core/Src/usbh_core.c ****       {
 1979              		.loc 1 572 7 is_stmt 0 discriminator 1 view .LVU505
 1980 01c4 2BB3     		cbz	r3, .L119
 580:Middlewares/ST/STM32_USB_Host_Library/Core/Src/usbh_core.c ****       {
 1981              		.loc 1 580 7 is_stmt 1 view .LVU506
 580:Middlewares/ST/STM32_USB_Host_Library/Core/Src/usbh_core.c ****       {
 1982              		.loc 1 580 15 is_stmt 0 view .LVU507
 1983 01c6 D4F87833 		ldr	r3, [r4, #888]
 1984              	.LVL190:
 580:Middlewares/ST/STM32_USB_Host_Library/Core/Src/usbh_core.c ****       {
 1985              		.loc 1 580 9 view .LVU508
 1986 01ca 002B     		cmp	r3, #0
 1987 01cc 42D0     		beq	.L120
 582:Middlewares/ST/STM32_USB_Host_Library/Core/Src/usbh_core.c ****         {
 1988              		.loc 1 582 9 is_stmt 1 view .LVU509
 582:Middlewares/ST/STM32_USB_Host_Library/Core/Src/usbh_core.c ****         {
 1989              		.loc 1 582 31 is_stmt 0 view .LVU510
ARM GAS  C:\Users\Nina\AppData\Local\Temp\ccjD0KBj.s 			page 61


 1990 01ce 9B68     		ldr	r3, [r3, #8]
 582:Middlewares/ST/STM32_USB_Host_Library/Core/Src/usbh_core.c ****         {
 1991              		.loc 1 582 12 view .LVU511
 1992 01d0 2046     		mov	r0, r4
 1993 01d2 9847     		blx	r3
 1994              	.LVL191:
 582:Middlewares/ST/STM32_USB_Host_Library/Core/Src/usbh_core.c ****         {
 1995              		.loc 1 582 11 view .LVU512
 1996 01d4 90BB     		cbnz	r0, .L121
 584:Middlewares/ST/STM32_USB_Host_Library/Core/Src/usbh_core.c ****           USBH_UsrLog ("%s class started.", phost->pActiveClass->Name);
 1997              		.loc 1 584 11 is_stmt 1 view .LVU513
 584:Middlewares/ST/STM32_USB_Host_Library/Core/Src/usbh_core.c ****           USBH_UsrLog ("%s class started.", phost->pActiveClass->Name);
 1998              		.loc 1 584 26 is_stmt 0 view .LVU514
 1999 01d6 0623     		movs	r3, #6
 2000 01d8 2370     		strb	r3, [r4]
 585:Middlewares/ST/STM32_USB_Host_Library/Core/Src/usbh_core.c **** 
 2001              		.loc 1 585 11 is_stmt 1 view .LVU515
 2002 01da D4F87833 		ldr	r3, [r4, #888]
 2003 01de 1968     		ldr	r1, [r3]
 2004 01e0 4348     		ldr	r0, .L129+20
 2005 01e2 FFF7FEFF 		bl	printf
 2006              	.LVL192:
 585:Middlewares/ST/STM32_USB_Host_Library/Core/Src/usbh_core.c **** 
 2007              		.loc 1 585 11 view .LVU516
 2008 01e6 0A20     		movs	r0, #10
 2009 01e8 FFF7FEFF 		bl	putchar
 2010              	.LVL193:
 585:Middlewares/ST/STM32_USB_Host_Library/Core/Src/usbh_core.c **** 
 2011              		.loc 1 585 71 view .LVU517
 588:Middlewares/ST/STM32_USB_Host_Library/Core/Src/usbh_core.c ****         }
 2012              		.loc 1 588 11 view .LVU518
 588:Middlewares/ST/STM32_USB_Host_Library/Core/Src/usbh_core.c ****         }
 2013              		.loc 1 588 16 is_stmt 0 view .LVU519
 2014 01ec D4F8C833 		ldr	r3, [r4, #968]
 588:Middlewares/ST/STM32_USB_Host_Library/Core/Src/usbh_core.c ****         }
 2015              		.loc 1 588 11 view .LVU520
 2016 01f0 0321     		movs	r1, #3
 2017 01f2 2046     		mov	r0, r4
 2018 01f4 9847     		blx	r3
 2019              	.LVL194:
 2020 01f6 05E0     		b	.L116
 2021              	.LVL195:
 2022              	.L127:
 566:Middlewares/ST/STM32_USB_Host_Library/Core/Src/usbh_core.c ****     }
 2023              		.loc 1 566 7 is_stmt 1 view .LVU521
 2024 01f8 3E48     		ldr	r0, .L129+24
 2025 01fa FFF7FEFF 		bl	printf
 2026              	.LVL196:
 566:Middlewares/ST/STM32_USB_Host_Library/Core/Src/usbh_core.c ****     }
 2027              		.loc 1 566 7 view .LVU522
 2028 01fe 0A20     		movs	r0, #10
 2029 0200 FFF7FEFF 		bl	putchar
 2030              	.LVL197:
 566:Middlewares/ST/STM32_USB_Host_Library/Core/Src/usbh_core.c ****     }
 2031              		.loc 1 566 52 view .LVU523
 2032              	.L116:
 599:Middlewares/ST/STM32_USB_Host_Library/Core/Src/usbh_core.c ****       }
ARM GAS  C:\Users\Nina\AppData\Local\Temp\ccjD0KBj.s 			page 62


 2033              		.loc 1 599 61 discriminator 1 view .LVU524
 604:Middlewares/ST/STM32_USB_Host_Library/Core/Src/usbh_core.c **** #endif
 2034              		.loc 1 604 5 discriminator 1 view .LVU525
 2035 0204 0022     		movs	r2, #0
 2036 0206 0521     		movs	r1, #5
 2037 0208 D4F8CC03 		ldr	r0, [r4, #972]
 2038 020c FFF7FEFF 		bl	osMessagePut
 2039              	.LVL198:
 606:Middlewares/ST/STM32_USB_Host_Library/Core/Src/usbh_core.c **** 
 2040              		.loc 1 606 5 discriminator 1 view .LVU526
 2041 0210 6EE7     		b	.L98
 2042              	.LVL199:
 2043              	.L119:
 574:Middlewares/ST/STM32_USB_Host_Library/Core/Src/usbh_core.c ****         {
 2044              		.loc 1 574 9 view .LVU527
 574:Middlewares/ST/STM32_USB_Host_Library/Core/Src/usbh_core.c ****         {
 2045              		.loc 1 574 25 is_stmt 0 view .LVU528
 2046 0212 03F1DC02 		add	r2, r3, #220
 2047 0216 04EB8202 		add	r2, r4, r2, lsl #2
 2048 021a 5268     		ldr	r2, [r2, #4]
 574:Middlewares/ST/STM32_USB_Host_Library/Core/Src/usbh_core.c ****         {
 2049              		.loc 1 574 30 view .LVU529
 2050 021c 1179     		ldrb	r1, [r2, #4]	@ zero_extendqisi2
 574:Middlewares/ST/STM32_USB_Host_Library/Core/Src/usbh_core.c ****         {
 2051              		.loc 1 574 78 view .LVU530
 2052 021e 94F84323 		ldrb	r2, [r4, #835]	@ zero_extendqisi2
 574:Middlewares/ST/STM32_USB_Host_Library/Core/Src/usbh_core.c ****         {
 2053              		.loc 1 574 11 view .LVU531
 2054 0222 9142     		cmp	r1, r2
 2055 0224 02D0     		beq	.L128
 2056              	.L118:
 572:Middlewares/ST/STM32_USB_Host_Library/Core/Src/usbh_core.c ****       {
 2057              		.loc 1 572 58 is_stmt 1 discriminator 2 view .LVU532
 572:Middlewares/ST/STM32_USB_Host_Library/Core/Src/usbh_core.c ****       {
 2058              		.loc 1 572 61 is_stmt 0 discriminator 2 view .LVU533
 2059 0226 0133     		adds	r3, r3, #1
 2060              	.LVL200:
 572:Middlewares/ST/STM32_USB_Host_Library/Core/Src/usbh_core.c ****       {
 2061              		.loc 1 572 61 discriminator 2 view .LVU534
 2062 0228 DBB2     		uxtb	r3, r3
 2063              	.LVL201:
 572:Middlewares/ST/STM32_USB_Host_Library/Core/Src/usbh_core.c ****       {
 2064              		.loc 1 572 61 discriminator 2 view .LVU535
 2065 022a CBE7     		b	.L117
 2066              	.L128:
 576:Middlewares/ST/STM32_USB_Host_Library/Core/Src/usbh_core.c ****         }
 2067              		.loc 1 576 11 is_stmt 1 view .LVU536
 576:Middlewares/ST/STM32_USB_Host_Library/Core/Src/usbh_core.c ****         }
 2068              		.loc 1 576 46 is_stmt 0 view .LVU537
 2069 022c 03F1DC02 		add	r2, r3, #220
 2070 0230 04EB8202 		add	r2, r4, r2, lsl #2
 2071 0234 5268     		ldr	r2, [r2, #4]
 576:Middlewares/ST/STM32_USB_Host_Library/Core/Src/usbh_core.c ****         }
 2072              		.loc 1 576 31 view .LVU538
 2073 0236 C4F87823 		str	r2, [r4, #888]
 2074 023a F4E7     		b	.L118
 2075              	.LVL202:
ARM GAS  C:\Users\Nina\AppData\Local\Temp\ccjD0KBj.s 			page 63


 2076              	.L121:
 592:Middlewares/ST/STM32_USB_Host_Library/Core/Src/usbh_core.c ****           USBH_UsrLog ("Device not supporting %s class.", phost->pActiveClass->Name);
 2077              		.loc 1 592 11 is_stmt 1 view .LVU539
 592:Middlewares/ST/STM32_USB_Host_Library/Core/Src/usbh_core.c ****           USBH_UsrLog ("Device not supporting %s class.", phost->pActiveClass->Name);
 2078              		.loc 1 592 26 is_stmt 0 view .LVU540
 2079 023c 0D23     		movs	r3, #13
 2080 023e 2370     		strb	r3, [r4]
 593:Middlewares/ST/STM32_USB_Host_Library/Core/Src/usbh_core.c ****         }
 2081              		.loc 1 593 11 is_stmt 1 view .LVU541
 2082 0240 D4F87833 		ldr	r3, [r4, #888]
 2083 0244 1968     		ldr	r1, [r3]
 2084 0246 2C48     		ldr	r0, .L129+28
 2085 0248 FFF7FEFF 		bl	printf
 2086              	.LVL203:
 593:Middlewares/ST/STM32_USB_Host_Library/Core/Src/usbh_core.c ****         }
 2087              		.loc 1 593 11 view .LVU542
 2088 024c 0A20     		movs	r0, #10
 2089 024e FFF7FEFF 		bl	putchar
 2090              	.LVL204:
 2091 0252 D7E7     		b	.L116
 2092              	.L120:
 598:Middlewares/ST/STM32_USB_Host_Library/Core/Src/usbh_core.c ****         USBH_UsrLog ("No registered class for this device.");
 2093              		.loc 1 598 9 view .LVU543
 598:Middlewares/ST/STM32_USB_Host_Library/Core/Src/usbh_core.c ****         USBH_UsrLog ("No registered class for this device.");
 2094              		.loc 1 598 24 is_stmt 0 view .LVU544
 2095 0254 0D23     		movs	r3, #13
 2096 0256 2370     		strb	r3, [r4]
 599:Middlewares/ST/STM32_USB_Host_Library/Core/Src/usbh_core.c ****       }
 2097              		.loc 1 599 9 is_stmt 1 view .LVU545
 2098 0258 2848     		ldr	r0, .L129+32
 2099 025a FFF7FEFF 		bl	printf
 2100              	.LVL205:
 599:Middlewares/ST/STM32_USB_Host_Library/Core/Src/usbh_core.c ****       }
 2101              		.loc 1 599 9 view .LVU546
 2102 025e 0A20     		movs	r0, #10
 2103 0260 FFF7FEFF 		bl	putchar
 2104              	.LVL206:
 2105 0264 CEE7     		b	.L116
 2106              	.LVL207:
 2107              	.L105:
 610:Middlewares/ST/STM32_USB_Host_Library/Core/Src/usbh_core.c ****     {
 2108              		.loc 1 610 5 view .LVU547
 610:Middlewares/ST/STM32_USB_Host_Library/Core/Src/usbh_core.c ****     {
 2109              		.loc 1 610 13 is_stmt 0 view .LVU548
 2110 0266 D4F87833 		ldr	r3, [r4, #888]
 610:Middlewares/ST/STM32_USB_Host_Library/Core/Src/usbh_core.c ****     {
 2111              		.loc 1 610 7 view .LVU549
 2112 026a 63B1     		cbz	r3, .L122
 612:Middlewares/ST/STM32_USB_Host_Library/Core/Src/usbh_core.c **** 
 2113              		.loc 1 612 7 is_stmt 1 view .LVU550
 612:Middlewares/ST/STM32_USB_Host_Library/Core/Src/usbh_core.c **** 
 2114              		.loc 1 612 35 is_stmt 0 view .LVU551
 2115 026c 1B69     		ldr	r3, [r3, #16]
 612:Middlewares/ST/STM32_USB_Host_Library/Core/Src/usbh_core.c **** 
 2116              		.loc 1 612 16 view .LVU552
 2117 026e 2046     		mov	r0, r4
 2118 0270 9847     		blx	r3
ARM GAS  C:\Users\Nina\AppData\Local\Temp\ccjD0KBj.s 			page 64


 2119              	.LVL208:
 612:Middlewares/ST/STM32_USB_Host_Library/Core/Src/usbh_core.c **** 
 2120              		.loc 1 612 14 view .LVU553
 2121 0272 8DF81700 		strb	r0, [sp, #23]
 614:Middlewares/ST/STM32_USB_Host_Library/Core/Src/usbh_core.c ****       {
 2122              		.loc 1 614 7 is_stmt 1 view .LVU554
 614:Middlewares/ST/STM32_USB_Host_Library/Core/Src/usbh_core.c ****       {
 2123              		.loc 1 614 17 is_stmt 0 view .LVU555
 2124 0276 9DF81730 		ldrb	r3, [sp, #23]	@ zero_extendqisi2
 614:Middlewares/ST/STM32_USB_Host_Library/Core/Src/usbh_core.c ****       {
 2125              		.loc 1 614 9 view .LVU556
 2126 027a 002B     		cmp	r3, #0
 2127 027c 7FF438AF 		bne	.L98
 616:Middlewares/ST/STM32_USB_Host_Library/Core/Src/usbh_core.c ****       }
 2128              		.loc 1 616 9 is_stmt 1 view .LVU557
 616:Middlewares/ST/STM32_USB_Host_Library/Core/Src/usbh_core.c ****       }
 2129              		.loc 1 616 24 is_stmt 0 view .LVU558
 2130 0280 0B23     		movs	r3, #11
 2131 0282 2370     		strb	r3, [r4]
 2132 0284 34E7     		b	.L98
 2133              	.L122:
 621:Middlewares/ST/STM32_USB_Host_Library/Core/Src/usbh_core.c ****       USBH_ErrLog ("Invalid Class Driver.");
 2134              		.loc 1 621 7 is_stmt 1 view .LVU559
 621:Middlewares/ST/STM32_USB_Host_Library/Core/Src/usbh_core.c ****       USBH_ErrLog ("Invalid Class Driver.");
 2135              		.loc 1 621 22 is_stmt 0 view .LVU560
 2136 0286 0D23     		movs	r3, #13
 2137 0288 2370     		strb	r3, [r4]
 622:Middlewares/ST/STM32_USB_Host_Library/Core/Src/usbh_core.c **** 
 2138              		.loc 1 622 7 is_stmt 1 view .LVU561
 2139 028a 1D48     		ldr	r0, .L129+36
 2140 028c FFF7FEFF 		bl	printf
 2141              	.LVL209:
 622:Middlewares/ST/STM32_USB_Host_Library/Core/Src/usbh_core.c **** 
 2142              		.loc 1 622 7 view .LVU562
 2143 0290 1C48     		ldr	r0, .L129+40
 2144 0292 FFF7FEFF 		bl	printf
 2145              	.LVL210:
 622:Middlewares/ST/STM32_USB_Host_Library/Core/Src/usbh_core.c **** 
 2146              		.loc 1 622 7 view .LVU563
 2147 0296 0A20     		movs	r0, #10
 2148 0298 FFF7FEFF 		bl	putchar
 2149              	.LVL211:
 622:Middlewares/ST/STM32_USB_Host_Library/Core/Src/usbh_core.c **** 
 2150              		.loc 1 622 44 view .LVU564
 625:Middlewares/ST/STM32_USB_Host_Library/Core/Src/usbh_core.c **** #endif
 2151              		.loc 1 625 5 view .LVU565
 2152 029c 0022     		movs	r2, #0
 2153 029e 0521     		movs	r1, #5
 2154 02a0 D4F8CC03 		ldr	r0, [r4, #972]
 2155 02a4 FFF7FEFF 		bl	osMessagePut
 2156              	.LVL212:
 2157 02a8 22E7     		b	.L98
 2158              	.L99:
 632:Middlewares/ST/STM32_USB_Host_Library/Core/Src/usbh_core.c ****     {
 2159              		.loc 1 632 5 view .LVU566
 632:Middlewares/ST/STM32_USB_Host_Library/Core/Src/usbh_core.c ****     {
 2160              		.loc 1 632 13 is_stmt 0 view .LVU567
ARM GAS  C:\Users\Nina\AppData\Local\Temp\ccjD0KBj.s 			page 65


 2161 02aa D4F87833 		ldr	r3, [r4, #888]
 632:Middlewares/ST/STM32_USB_Host_Library/Core/Src/usbh_core.c ****     {
 2162              		.loc 1 632 7 view .LVU568
 2163 02ae 002B     		cmp	r3, #0
 2164 02b0 3FF41EAF 		beq	.L98
 634:Middlewares/ST/STM32_USB_Host_Library/Core/Src/usbh_core.c ****     }
 2165              		.loc 1 634 7 is_stmt 1 view .LVU569
 634:Middlewares/ST/STM32_USB_Host_Library/Core/Src/usbh_core.c ****     }
 2166              		.loc 1 634 26 is_stmt 0 view .LVU570
 2167 02b4 5B69     		ldr	r3, [r3, #20]
 634:Middlewares/ST/STM32_USB_Host_Library/Core/Src/usbh_core.c ****     }
 2168              		.loc 1 634 7 view .LVU571
 2169 02b6 2046     		mov	r0, r4
 2170 02b8 9847     		blx	r3
 2171              	.LVL213:
 2172 02ba 19E7     		b	.L98
 2173              	.L107:
 640:Middlewares/ST/STM32_USB_Host_Library/Core/Src/usbh_core.c **** 
 2174              		.loc 1 640 5 is_stmt 1 view .LVU572
 2175 02bc 2046     		mov	r0, r4
 2176 02be FFF7FEFF 		bl	DeInitStateMachine
 2177              	.LVL214:
 643:Middlewares/ST/STM32_USB_Host_Library/Core/Src/usbh_core.c ****     {
 2178              		.loc 1 643 5 view .LVU573
 643:Middlewares/ST/STM32_USB_Host_Library/Core/Src/usbh_core.c ****     {
 2179              		.loc 1 643 13 is_stmt 0 view .LVU574
 2180 02c2 D4F87833 		ldr	r3, [r4, #888]
 643:Middlewares/ST/STM32_USB_Host_Library/Core/Src/usbh_core.c ****     {
 2181              		.loc 1 643 7 view .LVU575
 2182 02c6 002B     		cmp	r3, #0
 2183 02c8 3FF412AF 		beq	.L98
 645:Middlewares/ST/STM32_USB_Host_Library/Core/Src/usbh_core.c ****       phost->pActiveClass = NULL;
 2184              		.loc 1 645 7 is_stmt 1 view .LVU576
 645:Middlewares/ST/STM32_USB_Host_Library/Core/Src/usbh_core.c ****       phost->pActiveClass = NULL;
 2185              		.loc 1 645 26 is_stmt 0 view .LVU577
 2186 02cc DB68     		ldr	r3, [r3, #12]
 645:Middlewares/ST/STM32_USB_Host_Library/Core/Src/usbh_core.c ****       phost->pActiveClass = NULL;
 2187              		.loc 1 645 7 view .LVU578
 2188 02ce 2046     		mov	r0, r4
 2189 02d0 9847     		blx	r3
 2190              	.LVL215:
 646:Middlewares/ST/STM32_USB_Host_Library/Core/Src/usbh_core.c ****     }
 2191              		.loc 1 646 7 is_stmt 1 view .LVU579
 646:Middlewares/ST/STM32_USB_Host_Library/Core/Src/usbh_core.c ****     }
 2192              		.loc 1 646 27 is_stmt 0 view .LVU580
 2193 02d2 0023     		movs	r3, #0
 2194 02d4 C4F87833 		str	r3, [r4, #888]
 2195 02d8 0AE7     		b	.L98
 2196              	.L130:
 2197 02da 00BF     		.align	2
 2198              	.L129:
 2199 02dc 00000000 		.word	.LC22
 2200 02e0 14000000 		.word	.LC23
 2201 02e4 28000000 		.word	.LC24
 2202 02e8 50000000 		.word	.LC25
 2203 02ec 6C000000 		.word	.LC26
 2204 02f0 AC000000 		.word	.LC28
ARM GAS  C:\Users\Nina\AppData\Local\Temp\ccjD0KBj.s 			page 66


 2205 02f4 8C000000 		.word	.LC27
 2206 02f8 C0000000 		.word	.LC29
 2207 02fc E0000000 		.word	.LC30
 2208 0300 00000000 		.word	.LC12
 2209 0304 08010000 		.word	.LC31
 2210              		.cfi_endproc
 2211              	.LFE154:
 2213              		.section	.text.USBH_Process_OS,"ax",%progbits
 2214              		.align	1
 2215              		.syntax unified
 2216              		.thumb
 2217              		.thumb_func
 2218              		.fpu fpv5-sp-d16
 2220              	USBH_Process_OS:
 2221              	.LVL216:
 2222              	.LFB164:
 912:Middlewares/ST/STM32_USB_Host_Library/Core/Src/usbh_core.c **** 
 913:Middlewares/ST/STM32_USB_Host_Library/Core/Src/usbh_core.c **** 
 914:Middlewares/ST/STM32_USB_Host_Library/Core/Src/usbh_core.c **** /**
 915:Middlewares/ST/STM32_USB_Host_Library/Core/Src/usbh_core.c ****   * @brief  USBH_LL_Connect
 916:Middlewares/ST/STM32_USB_Host_Library/Core/Src/usbh_core.c ****   *         Handle USB Host connexion event
 917:Middlewares/ST/STM32_USB_Host_Library/Core/Src/usbh_core.c ****   * @param  phost: Host Handle
 918:Middlewares/ST/STM32_USB_Host_Library/Core/Src/usbh_core.c ****   * @retval USBH_Status
 919:Middlewares/ST/STM32_USB_Host_Library/Core/Src/usbh_core.c ****   */
 920:Middlewares/ST/STM32_USB_Host_Library/Core/Src/usbh_core.c **** USBH_StatusTypeDef  USBH_LL_Connect (USBH_HandleTypeDef *phost)
 921:Middlewares/ST/STM32_USB_Host_Library/Core/Src/usbh_core.c **** {
 922:Middlewares/ST/STM32_USB_Host_Library/Core/Src/usbh_core.c ****   if(phost->gState == HOST_IDLE )
 923:Middlewares/ST/STM32_USB_Host_Library/Core/Src/usbh_core.c ****   {
 924:Middlewares/ST/STM32_USB_Host_Library/Core/Src/usbh_core.c ****     phost->device.is_connected = 1U;
 925:Middlewares/ST/STM32_USB_Host_Library/Core/Src/usbh_core.c **** 
 926:Middlewares/ST/STM32_USB_Host_Library/Core/Src/usbh_core.c ****     if(phost->pUser != NULL)
 927:Middlewares/ST/STM32_USB_Host_Library/Core/Src/usbh_core.c ****     {
 928:Middlewares/ST/STM32_USB_Host_Library/Core/Src/usbh_core.c ****       phost->pUser(phost, HOST_USER_CONNECTION);
 929:Middlewares/ST/STM32_USB_Host_Library/Core/Src/usbh_core.c ****     }
 930:Middlewares/ST/STM32_USB_Host_Library/Core/Src/usbh_core.c ****   }
 931:Middlewares/ST/STM32_USB_Host_Library/Core/Src/usbh_core.c ****   else
 932:Middlewares/ST/STM32_USB_Host_Library/Core/Src/usbh_core.c ****   {
 933:Middlewares/ST/STM32_USB_Host_Library/Core/Src/usbh_core.c ****     if (phost->device.PortEnabled == 1U)
 934:Middlewares/ST/STM32_USB_Host_Library/Core/Src/usbh_core.c ****     {
 935:Middlewares/ST/STM32_USB_Host_Library/Core/Src/usbh_core.c ****       phost->gState = HOST_DEV_ATTACHED;
 936:Middlewares/ST/STM32_USB_Host_Library/Core/Src/usbh_core.c ****     }
 937:Middlewares/ST/STM32_USB_Host_Library/Core/Src/usbh_core.c ****   }
 938:Middlewares/ST/STM32_USB_Host_Library/Core/Src/usbh_core.c **** #if (USBH_USE_OS == 1U)
 939:Middlewares/ST/STM32_USB_Host_Library/Core/Src/usbh_core.c ****   osMessagePut ( phost->os_event, USBH_PORT_EVENT, 0);
 940:Middlewares/ST/STM32_USB_Host_Library/Core/Src/usbh_core.c **** #endif
 941:Middlewares/ST/STM32_USB_Host_Library/Core/Src/usbh_core.c **** 
 942:Middlewares/ST/STM32_USB_Host_Library/Core/Src/usbh_core.c ****   return USBH_OK;
 943:Middlewares/ST/STM32_USB_Host_Library/Core/Src/usbh_core.c **** }
 944:Middlewares/ST/STM32_USB_Host_Library/Core/Src/usbh_core.c **** 
 945:Middlewares/ST/STM32_USB_Host_Library/Core/Src/usbh_core.c **** /**
 946:Middlewares/ST/STM32_USB_Host_Library/Core/Src/usbh_core.c ****   * @brief  USBH_LL_Disconnect
 947:Middlewares/ST/STM32_USB_Host_Library/Core/Src/usbh_core.c ****   *         Handle USB Host disconnection event
 948:Middlewares/ST/STM32_USB_Host_Library/Core/Src/usbh_core.c ****   * @param  phost: Host Handle
 949:Middlewares/ST/STM32_USB_Host_Library/Core/Src/usbh_core.c ****   * @retval USBH_Status
 950:Middlewares/ST/STM32_USB_Host_Library/Core/Src/usbh_core.c ****   */
 951:Middlewares/ST/STM32_USB_Host_Library/Core/Src/usbh_core.c **** USBH_StatusTypeDef  USBH_LL_Disconnect  (USBH_HandleTypeDef *phost)
 952:Middlewares/ST/STM32_USB_Host_Library/Core/Src/usbh_core.c **** {
ARM GAS  C:\Users\Nina\AppData\Local\Temp\ccjD0KBj.s 			page 67


 953:Middlewares/ST/STM32_USB_Host_Library/Core/Src/usbh_core.c ****   /*Stop Host */
 954:Middlewares/ST/STM32_USB_Host_Library/Core/Src/usbh_core.c ****   USBH_LL_Stop(phost);
 955:Middlewares/ST/STM32_USB_Host_Library/Core/Src/usbh_core.c **** 
 956:Middlewares/ST/STM32_USB_Host_Library/Core/Src/usbh_core.c ****   /* FRee Control Pipes */
 957:Middlewares/ST/STM32_USB_Host_Library/Core/Src/usbh_core.c ****   USBH_FreePipe  (phost, phost->Control.pipe_in);
 958:Middlewares/ST/STM32_USB_Host_Library/Core/Src/usbh_core.c ****   USBH_FreePipe  (phost, phost->Control.pipe_out);
 959:Middlewares/ST/STM32_USB_Host_Library/Core/Src/usbh_core.c **** 
 960:Middlewares/ST/STM32_USB_Host_Library/Core/Src/usbh_core.c ****   phost->device.is_connected = 0U;
 961:Middlewares/ST/STM32_USB_Host_Library/Core/Src/usbh_core.c **** 
 962:Middlewares/ST/STM32_USB_Host_Library/Core/Src/usbh_core.c ****   if(phost->pUser != NULL)
 963:Middlewares/ST/STM32_USB_Host_Library/Core/Src/usbh_core.c ****   {
 964:Middlewares/ST/STM32_USB_Host_Library/Core/Src/usbh_core.c ****     phost->pUser(phost, HOST_USER_DISCONNECTION);
 965:Middlewares/ST/STM32_USB_Host_Library/Core/Src/usbh_core.c ****   }
 966:Middlewares/ST/STM32_USB_Host_Library/Core/Src/usbh_core.c ****   USBH_UsrLog("USB Device disconnected");
 967:Middlewares/ST/STM32_USB_Host_Library/Core/Src/usbh_core.c **** 
 968:Middlewares/ST/STM32_USB_Host_Library/Core/Src/usbh_core.c ****   /* Start the low level driver  */
 969:Middlewares/ST/STM32_USB_Host_Library/Core/Src/usbh_core.c ****   USBH_LL_Start(phost);
 970:Middlewares/ST/STM32_USB_Host_Library/Core/Src/usbh_core.c **** 
 971:Middlewares/ST/STM32_USB_Host_Library/Core/Src/usbh_core.c ****   phost->gState = HOST_DEV_DISCONNECTED;
 972:Middlewares/ST/STM32_USB_Host_Library/Core/Src/usbh_core.c **** 
 973:Middlewares/ST/STM32_USB_Host_Library/Core/Src/usbh_core.c **** #if (USBH_USE_OS == 1U)
 974:Middlewares/ST/STM32_USB_Host_Library/Core/Src/usbh_core.c ****   osMessagePut ( phost->os_event, USBH_PORT_EVENT, 0);
 975:Middlewares/ST/STM32_USB_Host_Library/Core/Src/usbh_core.c **** #endif
 976:Middlewares/ST/STM32_USB_Host_Library/Core/Src/usbh_core.c **** 
 977:Middlewares/ST/STM32_USB_Host_Library/Core/Src/usbh_core.c ****   return USBH_OK;
 978:Middlewares/ST/STM32_USB_Host_Library/Core/Src/usbh_core.c **** }
 979:Middlewares/ST/STM32_USB_Host_Library/Core/Src/usbh_core.c **** 
 980:Middlewares/ST/STM32_USB_Host_Library/Core/Src/usbh_core.c **** 
 981:Middlewares/ST/STM32_USB_Host_Library/Core/Src/usbh_core.c **** #if (USBH_USE_OS == 1U)
 982:Middlewares/ST/STM32_USB_Host_Library/Core/Src/usbh_core.c **** /**
 983:Middlewares/ST/STM32_USB_Host_Library/Core/Src/usbh_core.c ****   * @brief  USB Host Thread task
 984:Middlewares/ST/STM32_USB_Host_Library/Core/Src/usbh_core.c ****   * @param  pvParameters not used
 985:Middlewares/ST/STM32_USB_Host_Library/Core/Src/usbh_core.c ****   * @retval None
 986:Middlewares/ST/STM32_USB_Host_Library/Core/Src/usbh_core.c ****   */
 987:Middlewares/ST/STM32_USB_Host_Library/Core/Src/usbh_core.c **** static void USBH_Process_OS(void const * argument)
 988:Middlewares/ST/STM32_USB_Host_Library/Core/Src/usbh_core.c **** {
 2223              		.loc 1 988 1 is_stmt 1 view -0
 2224              		.cfi_startproc
 2225              		@ Volatile: function does not return.
 2226              		@ args = 0, pretend = 0, frame = 16
 2227              		@ frame_needed = 0, uses_anonymous_args = 0
 2228              		.loc 1 988 1 is_stmt 0 view .LVU582
 2229 0000 00B5     		push	{lr}
 2230              	.LCFI26:
 2231              		.cfi_def_cfa_offset 4
 2232              		.cfi_offset 14, -4
 2233 0002 85B0     		sub	sp, sp, #20
 2234              	.LCFI27:
 2235              		.cfi_def_cfa_offset 24
 2236 0004 0446     		mov	r4, r0
 2237 0006 02E0     		b	.L132
 2238              	.LVL217:
 2239              	.L135:
 989:Middlewares/ST/STM32_USB_Host_Library/Core/Src/usbh_core.c ****   osEvent event;
 990:Middlewares/ST/STM32_USB_Host_Library/Core/Src/usbh_core.c **** 
 991:Middlewares/ST/STM32_USB_Host_Library/Core/Src/usbh_core.c ****   for(;;)
 992:Middlewares/ST/STM32_USB_Host_Library/Core/Src/usbh_core.c ****   {
ARM GAS  C:\Users\Nina\AppData\Local\Temp\ccjD0KBj.s 			page 68


 993:Middlewares/ST/STM32_USB_Host_Library/Core/Src/usbh_core.c ****     event = osMessageGet(((USBH_HandleTypeDef *)argument)->os_event, osWaitForever );
 994:Middlewares/ST/STM32_USB_Host_Library/Core/Src/usbh_core.c **** 
 995:Middlewares/ST/STM32_USB_Host_Library/Core/Src/usbh_core.c ****     if( event.status == osEventMessage )
 996:Middlewares/ST/STM32_USB_Host_Library/Core/Src/usbh_core.c ****     {
 997:Middlewares/ST/STM32_USB_Host_Library/Core/Src/usbh_core.c ****       USBH_Process((USBH_HandleTypeDef *)argument);
 2240              		.loc 1 997 7 is_stmt 1 view .LVU583
 2241 0008 2046     		mov	r0, r4
 2242 000a FFF7FEFF 		bl	USBH_Process
 2243              	.LVL218:
 2244              	.L132:
 989:Middlewares/ST/STM32_USB_Host_Library/Core/Src/usbh_core.c ****   osEvent event;
 2245              		.loc 1 989 3 view .LVU584
 991:Middlewares/ST/STM32_USB_Host_Library/Core/Src/usbh_core.c ****   {
 2246              		.loc 1 991 3 view .LVU585
 993:Middlewares/ST/STM32_USB_Host_Library/Core/Src/usbh_core.c **** 
 2247              		.loc 1 993 5 view .LVU586
 993:Middlewares/ST/STM32_USB_Host_Library/Core/Src/usbh_core.c **** 
 2248              		.loc 1 993 13 is_stmt 0 view .LVU587
 2249 000e 4FF0FF32 		mov	r2, #-1
 2250 0012 D4F8CC13 		ldr	r1, [r4, #972]
 2251 0016 01A8     		add	r0, sp, #4
 2252 0018 FFF7FEFF 		bl	osMessageGet
 2253              	.LVL219:
 995:Middlewares/ST/STM32_USB_Host_Library/Core/Src/usbh_core.c ****     {
 2254              		.loc 1 995 5 is_stmt 1 view .LVU588
 995:Middlewares/ST/STM32_USB_Host_Library/Core/Src/usbh_core.c ****     {
 2255              		.loc 1 995 14 is_stmt 0 view .LVU589
 2256 001c 019B     		ldr	r3, [sp, #4]
 995:Middlewares/ST/STM32_USB_Host_Library/Core/Src/usbh_core.c ****     {
 2257              		.loc 1 995 7 view .LVU590
 2258 001e 102B     		cmp	r3, #16
 2259 0020 F5D1     		bne	.L132
 2260 0022 F1E7     		b	.L135
 2261              		.cfi_endproc
 2262              	.LFE164:
 2264              		.section	.text.USBH_LL_Connect,"ax",%progbits
 2265              		.align	1
 2266              		.global	USBH_LL_Connect
 2267              		.syntax unified
 2268              		.thumb
 2269              		.thumb_func
 2270              		.fpu fpv5-sp-d16
 2272              	USBH_LL_Connect:
 2273              	.LVL220:
 2274              	.LFB162:
 921:Middlewares/ST/STM32_USB_Host_Library/Core/Src/usbh_core.c ****   if(phost->gState == HOST_IDLE )
 2275              		.loc 1 921 1 is_stmt 1 view -0
 2276              		.cfi_startproc
 2277              		@ args = 0, pretend = 0, frame = 0
 2278              		@ frame_needed = 0, uses_anonymous_args = 0
 921:Middlewares/ST/STM32_USB_Host_Library/Core/Src/usbh_core.c ****   if(phost->gState == HOST_IDLE )
 2279              		.loc 1 921 1 is_stmt 0 view .LVU592
 2280 0000 10B5     		push	{r4, lr}
 2281              	.LCFI28:
 2282              		.cfi_def_cfa_offset 8
 2283              		.cfi_offset 4, -8
 2284              		.cfi_offset 14, -4
ARM GAS  C:\Users\Nina\AppData\Local\Temp\ccjD0KBj.s 			page 69


 2285 0002 0446     		mov	r4, r0
 922:Middlewares/ST/STM32_USB_Host_Library/Core/Src/usbh_core.c ****   {
 2286              		.loc 1 922 3 is_stmt 1 view .LVU593
 922:Middlewares/ST/STM32_USB_Host_Library/Core/Src/usbh_core.c ****   {
 2287              		.loc 1 922 11 is_stmt 0 view .LVU594
 2288 0004 0378     		ldrb	r3, [r0]	@ zero_extendqisi2
 922:Middlewares/ST/STM32_USB_Host_Library/Core/Src/usbh_core.c ****   {
 2289              		.loc 1 922 5 view .LVU595
 2290 0006 7BB9     		cbnz	r3, .L137
 924:Middlewares/ST/STM32_USB_Host_Library/Core/Src/usbh_core.c **** 
 2291              		.loc 1 924 5 is_stmt 1 view .LVU596
 924:Middlewares/ST/STM32_USB_Host_Library/Core/Src/usbh_core.c **** 
 2292              		.loc 1 924 32 is_stmt 0 view .LVU597
 2293 0008 0123     		movs	r3, #1
 2294 000a 80F81E33 		strb	r3, [r0, #798]
 926:Middlewares/ST/STM32_USB_Host_Library/Core/Src/usbh_core.c ****     {
 2295              		.loc 1 926 5 is_stmt 1 view .LVU598
 926:Middlewares/ST/STM32_USB_Host_Library/Core/Src/usbh_core.c ****     {
 2296              		.loc 1 926 13 is_stmt 0 view .LVU599
 2297 000e D0F8C833 		ldr	r3, [r0, #968]
 926:Middlewares/ST/STM32_USB_Host_Library/Core/Src/usbh_core.c ****     {
 2298              		.loc 1 926 7 view .LVU600
 2299 0012 0BB1     		cbz	r3, .L138
 928:Middlewares/ST/STM32_USB_Host_Library/Core/Src/usbh_core.c ****     }
 2300              		.loc 1 928 7 is_stmt 1 view .LVU601
 2301 0014 0421     		movs	r1, #4
 2302 0016 9847     		blx	r3
 2303              	.LVL221:
 2304              	.L138:
 939:Middlewares/ST/STM32_USB_Host_Library/Core/Src/usbh_core.c **** #endif
 2305              		.loc 1 939 3 view .LVU602
 2306 0018 0022     		movs	r2, #0
 2307 001a 0121     		movs	r1, #1
 2308 001c D4F8CC03 		ldr	r0, [r4, #972]
 2309 0020 FFF7FEFF 		bl	osMessagePut
 2310              	.LVL222:
 942:Middlewares/ST/STM32_USB_Host_Library/Core/Src/usbh_core.c **** }
 2311              		.loc 1 942 3 view .LVU603
 943:Middlewares/ST/STM32_USB_Host_Library/Core/Src/usbh_core.c **** 
 2312              		.loc 1 943 1 is_stmt 0 view .LVU604
 2313 0024 0020     		movs	r0, #0
 2314 0026 10BD     		pop	{r4, pc}
 2315              	.LVL223:
 2316              	.L137:
 933:Middlewares/ST/STM32_USB_Host_Library/Core/Src/usbh_core.c ****     {
 2317              		.loc 1 933 5 is_stmt 1 view .LVU605
 933:Middlewares/ST/STM32_USB_Host_Library/Core/Src/usbh_core.c ****     {
 2318              		.loc 1 933 22 is_stmt 0 view .LVU606
 2319 0028 90F81F33 		ldrb	r3, [r0, #799]	@ zero_extendqisi2
 933:Middlewares/ST/STM32_USB_Host_Library/Core/Src/usbh_core.c ****     {
 2320              		.loc 1 933 8 view .LVU607
 2321 002c 012B     		cmp	r3, #1
 2322 002e F3D1     		bne	.L138
 935:Middlewares/ST/STM32_USB_Host_Library/Core/Src/usbh_core.c ****     }
 2323              		.loc 1 935 7 is_stmt 1 view .LVU608
 935:Middlewares/ST/STM32_USB_Host_Library/Core/Src/usbh_core.c ****     }
 2324              		.loc 1 935 21 is_stmt 0 view .LVU609
ARM GAS  C:\Users\Nina\AppData\Local\Temp\ccjD0KBj.s 			page 70


 2325 0030 0223     		movs	r3, #2
 2326 0032 0370     		strb	r3, [r0]
 2327 0034 F0E7     		b	.L138
 2328              		.cfi_endproc
 2329              	.LFE162:
 2331              		.section	.rodata.USBH_LL_Disconnect.str1.4,"aMS",%progbits,1
 2332              		.align	2
 2333              	.LC32:
 2334 0000 55534220 		.ascii	"USB Device disconnected\000"
 2334      44657669 
 2334      63652064 
 2334      6973636F 
 2334      6E6E6563 
 2335              		.section	.text.USBH_LL_Disconnect,"ax",%progbits
 2336              		.align	1
 2337              		.global	USBH_LL_Disconnect
 2338              		.syntax unified
 2339              		.thumb
 2340              		.thumb_func
 2341              		.fpu fpv5-sp-d16
 2343              	USBH_LL_Disconnect:
 2344              	.LVL224:
 2345              	.LFB163:
 952:Middlewares/ST/STM32_USB_Host_Library/Core/Src/usbh_core.c ****   /*Stop Host */
 2346              		.loc 1 952 1 is_stmt 1 view -0
 2347              		.cfi_startproc
 2348              		@ args = 0, pretend = 0, frame = 0
 2349              		@ frame_needed = 0, uses_anonymous_args = 0
 952:Middlewares/ST/STM32_USB_Host_Library/Core/Src/usbh_core.c ****   /*Stop Host */
 2350              		.loc 1 952 1 is_stmt 0 view .LVU611
 2351 0000 10B5     		push	{r4, lr}
 2352              	.LCFI29:
 2353              		.cfi_def_cfa_offset 8
 2354              		.cfi_offset 4, -8
 2355              		.cfi_offset 14, -4
 2356 0002 0446     		mov	r4, r0
 954:Middlewares/ST/STM32_USB_Host_Library/Core/Src/usbh_core.c **** 
 2357              		.loc 1 954 3 is_stmt 1 view .LVU612
 2358 0004 FFF7FEFF 		bl	USBH_LL_Stop
 2359              	.LVL225:
 957:Middlewares/ST/STM32_USB_Host_Library/Core/Src/usbh_core.c ****   USBH_FreePipe  (phost, phost->Control.pipe_out);
 2360              		.loc 1 957 3 view .LVU613
 2361 0008 2179     		ldrb	r1, [r4, #4]	@ zero_extendqisi2
 2362 000a 2046     		mov	r0, r4
 2363 000c FFF7FEFF 		bl	USBH_FreePipe
 2364              	.LVL226:
 958:Middlewares/ST/STM32_USB_Host_Library/Core/Src/usbh_core.c **** 
 2365              		.loc 1 958 3 view .LVU614
 2366 0010 6179     		ldrb	r1, [r4, #5]	@ zero_extendqisi2
 2367 0012 2046     		mov	r0, r4
 2368 0014 FFF7FEFF 		bl	USBH_FreePipe
 2369              	.LVL227:
 960:Middlewares/ST/STM32_USB_Host_Library/Core/Src/usbh_core.c **** 
 2370              		.loc 1 960 3 view .LVU615
 960:Middlewares/ST/STM32_USB_Host_Library/Core/Src/usbh_core.c **** 
 2371              		.loc 1 960 30 is_stmt 0 view .LVU616
 2372 0018 0023     		movs	r3, #0
ARM GAS  C:\Users\Nina\AppData\Local\Temp\ccjD0KBj.s 			page 71


 2373 001a 84F81E33 		strb	r3, [r4, #798]
 962:Middlewares/ST/STM32_USB_Host_Library/Core/Src/usbh_core.c ****   {
 2374              		.loc 1 962 3 is_stmt 1 view .LVU617
 962:Middlewares/ST/STM32_USB_Host_Library/Core/Src/usbh_core.c ****   {
 2375              		.loc 1 962 11 is_stmt 0 view .LVU618
 2376 001e D4F8C833 		ldr	r3, [r4, #968]
 962:Middlewares/ST/STM32_USB_Host_Library/Core/Src/usbh_core.c ****   {
 2377              		.loc 1 962 5 view .LVU619
 2378 0022 13B1     		cbz	r3, .L141
 964:Middlewares/ST/STM32_USB_Host_Library/Core/Src/usbh_core.c ****   }
 2379              		.loc 1 964 5 is_stmt 1 view .LVU620
 2380 0024 0521     		movs	r1, #5
 2381 0026 2046     		mov	r0, r4
 2382 0028 9847     		blx	r3
 2383              	.LVL228:
 2384              	.L141:
 966:Middlewares/ST/STM32_USB_Host_Library/Core/Src/usbh_core.c **** 
 2385              		.loc 1 966 3 view .LVU621
 2386 002a 0948     		ldr	r0, .L143
 2387 002c FFF7FEFF 		bl	printf
 2388              	.LVL229:
 966:Middlewares/ST/STM32_USB_Host_Library/Core/Src/usbh_core.c **** 
 2389              		.loc 1 966 3 view .LVU622
 2390 0030 0A20     		movs	r0, #10
 2391 0032 FFF7FEFF 		bl	putchar
 2392              	.LVL230:
 966:Middlewares/ST/STM32_USB_Host_Library/Core/Src/usbh_core.c **** 
 2393              		.loc 1 966 41 view .LVU623
 969:Middlewares/ST/STM32_USB_Host_Library/Core/Src/usbh_core.c **** 
 2394              		.loc 1 969 3 view .LVU624
 2395 0036 2046     		mov	r0, r4
 2396 0038 FFF7FEFF 		bl	USBH_LL_Start
 2397              	.LVL231:
 971:Middlewares/ST/STM32_USB_Host_Library/Core/Src/usbh_core.c **** 
 2398              		.loc 1 971 3 view .LVU625
 971:Middlewares/ST/STM32_USB_Host_Library/Core/Src/usbh_core.c **** 
 2399              		.loc 1 971 17 is_stmt 0 view .LVU626
 2400 003c 0323     		movs	r3, #3
 2401 003e 2370     		strb	r3, [r4]
 974:Middlewares/ST/STM32_USB_Host_Library/Core/Src/usbh_core.c **** #endif
 2402              		.loc 1 974 3 is_stmt 1 view .LVU627
 2403 0040 0022     		movs	r2, #0
 2404 0042 0121     		movs	r1, #1
 2405 0044 D4F8CC03 		ldr	r0, [r4, #972]
 2406 0048 FFF7FEFF 		bl	osMessagePut
 2407              	.LVL232:
 977:Middlewares/ST/STM32_USB_Host_Library/Core/Src/usbh_core.c **** }
 2408              		.loc 1 977 3 view .LVU628
 978:Middlewares/ST/STM32_USB_Host_Library/Core/Src/usbh_core.c **** 
 2409              		.loc 1 978 1 is_stmt 0 view .LVU629
 2410 004c 0020     		movs	r0, #0
 2411 004e 10BD     		pop	{r4, pc}
 2412              	.LVL233:
 2413              	.L144:
 978:Middlewares/ST/STM32_USB_Host_Library/Core/Src/usbh_core.c **** 
 2414              		.loc 1 978 1 view .LVU630
 2415              		.align	2
ARM GAS  C:\Users\Nina\AppData\Local\Temp\ccjD0KBj.s 			page 72


 2416              	.L143:
 2417 0050 00000000 		.word	.LC32
 2418              		.cfi_endproc
 2419              	.LFE163:
 2421              		.section	.text.USBH_LL_NotifyURBChange,"ax",%progbits
 2422              		.align	1
 2423              		.global	USBH_LL_NotifyURBChange
 2424              		.syntax unified
 2425              		.thumb
 2426              		.thumb_func
 2427              		.fpu fpv5-sp-d16
 2429              	USBH_LL_NotifyURBChange:
 2430              	.LVL234:
 2431              	.LFB165:
 998:Middlewares/ST/STM32_USB_Host_Library/Core/Src/usbh_core.c ****     }
 999:Middlewares/ST/STM32_USB_Host_Library/Core/Src/usbh_core.c ****    }
1000:Middlewares/ST/STM32_USB_Host_Library/Core/Src/usbh_core.c **** }
1001:Middlewares/ST/STM32_USB_Host_Library/Core/Src/usbh_core.c **** 
1002:Middlewares/ST/STM32_USB_Host_Library/Core/Src/usbh_core.c **** /**
1003:Middlewares/ST/STM32_USB_Host_Library/Core/Src/usbh_core.c **** * @brief  USBH_LL_NotifyURBChange
1004:Middlewares/ST/STM32_USB_Host_Library/Core/Src/usbh_core.c **** *         Notify URB state Change
1005:Middlewares/ST/STM32_USB_Host_Library/Core/Src/usbh_core.c **** * @param  phost: Host handle
1006:Middlewares/ST/STM32_USB_Host_Library/Core/Src/usbh_core.c **** * @retval USBH Status
1007:Middlewares/ST/STM32_USB_Host_Library/Core/Src/usbh_core.c **** */
