ARM GAS  C:\Users\Nina\AppData\Local\Temp\cclJmOHv.s 			page 1


   1              		.cpu cortex-m7
   2              		.eabi_attribute 27, 1
   3              		.eabi_attribute 28, 1
   4              		.eabi_attribute 20, 1
   5              		.eabi_attribute 21, 1
   6              		.eabi_attribute 23, 3
   7              		.eabi_attribute 24, 1
   8              		.eabi_attribute 25, 1
   9              		.eabi_attribute 26, 1
  10              		.eabi_attribute 30, 1
  11              		.eabi_attribute 34, 1
  12              		.eabi_attribute 18, 4
  13              		.file	"usbh_conf.c"
  14              		.text
  15              	.Ltext0:
  16              		.cfi_sections	.debug_frame
  17              		.section	.text.HAL_HCD_MspInit,"ax",%progbits
  18              		.align	1
  19              		.global	HAL_HCD_MspInit
  20              		.arch armv7e-m
  21              		.syntax unified
  22              		.thumb
  23              		.thumb_func
  24              		.fpu fpv5-sp-d16
  26              	HAL_HCD_MspInit:
  27              	.LVL0:
  28              	.LFB143:
  29              		.file 1 "Src/usbh_conf.c"
   1:Src/usbh_conf.c **** /**
   2:Src/usbh_conf.c ****   ******************************************************************************
   3:Src/usbh_conf.c ****   * @file           : usbh_conf.c
   4:Src/usbh_conf.c ****   * @version        : v1.0_Cube
   5:Src/usbh_conf.c ****   * @brief          : This file implements the board support package for the USB host library
   6:Src/usbh_conf.c ****   ******************************************************************************
   7:Src/usbh_conf.c ****   * This notice applies to any and all portions of this file
   8:Src/usbh_conf.c ****   * that are not between comment pairs USER CODE BEGIN and
   9:Src/usbh_conf.c ****   * USER CODE END. Other portions of this file, whether 
  10:Src/usbh_conf.c ****   * inserted by the user or by software development tools
  11:Src/usbh_conf.c ****   * are owned by their respective copyright owners.
  12:Src/usbh_conf.c ****   *
  13:Src/usbh_conf.c ****   * Copyright (c) 2018 STMicroelectronics International N.V. 
  14:Src/usbh_conf.c ****   * All rights reserved.
  15:Src/usbh_conf.c ****   *
  16:Src/usbh_conf.c ****   * Redistribution and use in source and binary forms, with or without 
  17:Src/usbh_conf.c ****   * modification, are permitted, provided that the following conditions are met:
  18:Src/usbh_conf.c ****   *
  19:Src/usbh_conf.c ****   * 1. Redistribution of source code must retain the above copyright notice, 
  20:Src/usbh_conf.c ****   *    this list of conditions and the following disclaimer.
  21:Src/usbh_conf.c ****   * 2. Redistributions in binary form must reproduce the above copyright notice,
  22:Src/usbh_conf.c ****   *    this list of conditions and the following disclaimer in the documentation
  23:Src/usbh_conf.c ****   *    and/or other materials provided with the distribution.
  24:Src/usbh_conf.c ****   * 3. Neither the name of STMicroelectronics nor the names of other 
  25:Src/usbh_conf.c ****   *    contributors to this software may be used to endorse or promote products 
  26:Src/usbh_conf.c ****   *    derived from this software without specific written permission.
  27:Src/usbh_conf.c ****   * 4. This software, including modifications and/or derivative works of this 
  28:Src/usbh_conf.c ****   *    software, must execute solely and exclusively on microcontroller or
  29:Src/usbh_conf.c ****   *    microprocessor devices manufactured by or for STMicroelectronics.
ARM GAS  C:\Users\Nina\AppData\Local\Temp\cclJmOHv.s 			page 2


  30:Src/usbh_conf.c ****   * 5. Redistribution and use of this software other than as permitted under 
  31:Src/usbh_conf.c ****   *    this license is void and will automatically terminate your rights under 
  32:Src/usbh_conf.c ****   *    this license. 
  33:Src/usbh_conf.c ****   *
  34:Src/usbh_conf.c ****   * THIS SOFTWARE IS PROVIDED BY STMICROELECTRONICS AND CONTRIBUTORS "AS IS" 
  35:Src/usbh_conf.c ****   * AND ANY EXPRESS, IMPLIED OR STATUTORY WARRANTIES, INCLUDING, BUT NOT 
  36:Src/usbh_conf.c ****   * LIMITED TO, THE IMPLIED WARRANTIES OF MERCHANTABILITY, FITNESS FOR A 
  37:Src/usbh_conf.c ****   * PARTICULAR PURPOSE AND NON-INFRINGEMENT OF THIRD PARTY INTELLECTUAL PROPERTY
  38:Src/usbh_conf.c ****   * RIGHTS ARE DISCLAIMED TO THE FULLEST EXTENT PERMITTED BY LAW. IN NO EVENT 
  39:Src/usbh_conf.c ****   * SHALL STMICROELECTRONICS OR CONTRIBUTORS BE LIABLE FOR ANY DIRECT, INDIRECT,
  40:Src/usbh_conf.c ****   * INCIDENTAL, SPECIAL, EXEMPLARY, OR CONSEQUENTIAL DAMAGES (INCLUDING, BUT NOT
  41:Src/usbh_conf.c ****   * LIMITED TO, PROCUREMENT OF SUBSTITUTE GOODS OR SERVICES; LOSS OF USE, DATA, 
  42:Src/usbh_conf.c ****   * OR PROFITS; OR BUSINESS INTERRUPTION) HOWEVER CAUSED AND ON ANY THEORY OF 
  43:Src/usbh_conf.c ****   * LIABILITY, WHETHER IN CONTRACT, STRICT LIABILITY, OR TORT (INCLUDING 
  44:Src/usbh_conf.c ****   * NEGLIGENCE OR OTHERWISE) ARISING IN ANY WAY OUT OF THE USE OF THIS SOFTWARE,
  45:Src/usbh_conf.c ****   * EVEN IF ADVISED OF THE POSSIBILITY OF SUCH DAMAGE.
  46:Src/usbh_conf.c ****   *
  47:Src/usbh_conf.c ****   ******************************************************************************
  48:Src/usbh_conf.c ****   */
  49:Src/usbh_conf.c **** 
  50:Src/usbh_conf.c **** /* Includes ------------------------------------------------------------------*/
  51:Src/usbh_conf.c **** #include "usbh_core.h"
  52:Src/usbh_conf.c **** #include "usbh_platform.h"
  53:Src/usbh_conf.c **** 
  54:Src/usbh_conf.c **** /* USER CODE BEGIN Includes */
  55:Src/usbh_conf.c **** 
  56:Src/usbh_conf.c **** /* USER CODE END Includes */
  57:Src/usbh_conf.c **** 
  58:Src/usbh_conf.c **** /* Private typedef -----------------------------------------------------------*/
  59:Src/usbh_conf.c **** /* Private define ------------------------------------------------------------*/
  60:Src/usbh_conf.c **** /* Private macro -------------------------------------------------------------*/
  61:Src/usbh_conf.c **** 
  62:Src/usbh_conf.c **** /* USER CODE BEGIN PV */
  63:Src/usbh_conf.c **** /* Private variables ---------------------------------------------------------*/
  64:Src/usbh_conf.c **** 
  65:Src/usbh_conf.c **** /* USER CODE END PV */
  66:Src/usbh_conf.c **** 
  67:Src/usbh_conf.c ****                 HCD_HandleTypeDef hhcd_USB_OTG_FS;
  68:Src/usbh_conf.c **** void _Error_Handler(char * file, int line);
  69:Src/usbh_conf.c **** 
  70:Src/usbh_conf.c **** /* USER CODE BEGIN 0 */
  71:Src/usbh_conf.c **** 
  72:Src/usbh_conf.c **** /* USER CODE END 0 */
  73:Src/usbh_conf.c **** 
  74:Src/usbh_conf.c **** /* USER CODE BEGIN PFP */
  75:Src/usbh_conf.c **** /* Private function prototypes -----------------------------------------------*/
  76:Src/usbh_conf.c **** 
  77:Src/usbh_conf.c **** /* USER CODE END PFP */
  78:Src/usbh_conf.c **** 
  79:Src/usbh_conf.c **** /* Private functions ---------------------------------------------------------*/
  80:Src/usbh_conf.c **** 
  81:Src/usbh_conf.c **** /* USER CODE BEGIN 1 */
  82:Src/usbh_conf.c **** 
  83:Src/usbh_conf.c **** /* USER CODE END 1 */
  84:Src/usbh_conf.c **** 
  85:Src/usbh_conf.c **** /*******************************************************************************
  86:Src/usbh_conf.c ****                        LL Driver Callbacks (HCD -> USB Host Library)
ARM GAS  C:\Users\Nina\AppData\Local\Temp\cclJmOHv.s 			page 3


  87:Src/usbh_conf.c **** *******************************************************************************/
  88:Src/usbh_conf.c **** /* MSP Init */
  89:Src/usbh_conf.c **** 
  90:Src/usbh_conf.c **** void HAL_HCD_MspInit(HCD_HandleTypeDef* hcdHandle)
  91:Src/usbh_conf.c **** {
  30              		.loc 1 91 1 view -0
  31              		.cfi_startproc
  32              		@ args = 0, pretend = 0, frame = 32
  33              		@ frame_needed = 0, uses_anonymous_args = 0
  92:Src/usbh_conf.c ****   GPIO_InitTypeDef GPIO_InitStruct;
  34              		.loc 1 92 3 view .LVU1
  93:Src/usbh_conf.c ****   if(hcdHandle->Instance==USB_OTG_FS)
  35              		.loc 1 93 3 view .LVU2
  36              		.loc 1 93 15 is_stmt 0 view .LVU3
  37 0000 0368     		ldr	r3, [r0]
  38              		.loc 1 93 5 view .LVU4
  39 0002 B3F1A04F 		cmp	r3, #1342177280
  40 0006 00D0     		beq	.L7
  41 0008 7047     		bx	lr
  42              	.L7:
  91:Src/usbh_conf.c ****   GPIO_InitTypeDef GPIO_InitStruct;
  43              		.loc 1 91 1 view .LVU5
  44 000a 10B5     		push	{r4, lr}
  45              	.LCFI0:
  46              		.cfi_def_cfa_offset 8
  47              		.cfi_offset 4, -8
  48              		.cfi_offset 14, -4
  49 000c 88B0     		sub	sp, sp, #32
  50              	.LCFI1:
  51              		.cfi_def_cfa_offset 40
  94:Src/usbh_conf.c ****   {
  95:Src/usbh_conf.c ****   /* USER CODE BEGIN USB_OTG_FS_MspInit 0 */
  96:Src/usbh_conf.c **** 
  97:Src/usbh_conf.c ****   /* USER CODE END USB_OTG_FS_MspInit 0 */
  98:Src/usbh_conf.c ****   
  99:Src/usbh_conf.c ****     /**USB_OTG_FS GPIO Configuration    
 100:Src/usbh_conf.c ****     PA12     ------> USB_OTG_FS_DP
 101:Src/usbh_conf.c ****     PA11     ------> USB_OTG_FS_DM
 102:Src/usbh_conf.c ****     PA10     ------> USB_OTG_FS_ID 
 103:Src/usbh_conf.c ****     */
 104:Src/usbh_conf.c ****     GPIO_InitStruct.Pin = OTG_FS_P_Pin|OTG_FS_N_Pin|OTG_FS_ID_Pin;
  52              		.loc 1 104 5 is_stmt 1 view .LVU6
  53              		.loc 1 104 25 is_stmt 0 view .LVU7
  54 000e 4FF4E053 		mov	r3, #7168
  55 0012 0393     		str	r3, [sp, #12]
 105:Src/usbh_conf.c ****     GPIO_InitStruct.Mode = GPIO_MODE_AF_PP;
  56              		.loc 1 105 5 is_stmt 1 view .LVU8
  57              		.loc 1 105 26 is_stmt 0 view .LVU9
  58 0014 0223     		movs	r3, #2
  59 0016 0493     		str	r3, [sp, #16]
 106:Src/usbh_conf.c ****     GPIO_InitStruct.Pull = GPIO_NOPULL;
  60              		.loc 1 106 5 is_stmt 1 view .LVU10
  61              		.loc 1 106 26 is_stmt 0 view .LVU11
  62 0018 0024     		movs	r4, #0
  63 001a 0594     		str	r4, [sp, #20]
 107:Src/usbh_conf.c ****     GPIO_InitStruct.Speed = GPIO_SPEED_FREQ_VERY_HIGH;
  64              		.loc 1 107 5 is_stmt 1 view .LVU12
ARM GAS  C:\Users\Nina\AppData\Local\Temp\cclJmOHv.s 			page 4


  65              		.loc 1 107 27 is_stmt 0 view .LVU13
  66 001c 0323     		movs	r3, #3
  67 001e 0693     		str	r3, [sp, #24]
 108:Src/usbh_conf.c ****     GPIO_InitStruct.Alternate = GPIO_AF10_OTG_FS;
  68              		.loc 1 108 5 is_stmt 1 view .LVU14
  69              		.loc 1 108 31 is_stmt 0 view .LVU15
  70 0020 0A23     		movs	r3, #10
  71 0022 0793     		str	r3, [sp, #28]
 109:Src/usbh_conf.c ****     HAL_GPIO_Init(GPIOA, &GPIO_InitStruct);
  72              		.loc 1 109 5 is_stmt 1 view .LVU16
  73 0024 03A9     		add	r1, sp, #12
  74 0026 1048     		ldr	r0, .L8
  75              	.LVL1:
  76              		.loc 1 109 5 is_stmt 0 view .LVU17
  77 0028 FFF7FEFF 		bl	HAL_GPIO_Init
  78              	.LVL2:
 110:Src/usbh_conf.c **** 
 111:Src/usbh_conf.c ****     /* Peripheral clock enable */
 112:Src/usbh_conf.c ****     __HAL_RCC_USB_OTG_FS_CLK_ENABLE();
  79              		.loc 1 112 5 is_stmt 1 view .LVU18
  80              	.LBB2:
  81              		.loc 1 112 5 view .LVU19
  82              		.loc 1 112 5 view .LVU20
  83 002c 0F4B     		ldr	r3, .L8+4
  84 002e 5A6B     		ldr	r2, [r3, #52]
  85 0030 42F08002 		orr	r2, r2, #128
  86 0034 5A63     		str	r2, [r3, #52]
  87              		.loc 1 112 5 view .LVU21
  88 0036 5A6B     		ldr	r2, [r3, #52]
  89 0038 02F08002 		and	r2, r2, #128
  90 003c 0192     		str	r2, [sp, #4]
  91              		.loc 1 112 5 view .LVU22
  92 003e 019A     		ldr	r2, [sp, #4]
  93              		.loc 1 112 5 view .LVU23
  94              	.LBB3:
  95              		.loc 1 112 5 view .LVU24
  96              		.loc 1 112 5 view .LVU25
  97 0040 5A6C     		ldr	r2, [r3, #68]
  98 0042 42F48042 		orr	r2, r2, #16384
  99 0046 5A64     		str	r2, [r3, #68]
 100              		.loc 1 112 5 view .LVU26
 101 0048 5B6C     		ldr	r3, [r3, #68]
 102 004a 03F48043 		and	r3, r3, #16384
 103 004e 0293     		str	r3, [sp, #8]
 104              		.loc 1 112 5 view .LVU27
 105 0050 029B     		ldr	r3, [sp, #8]
 106              	.LBE3:
 107              		.loc 1 112 5 view .LVU28
 108              	.LBE2:
 109              		.loc 1 112 5 view .LVU29
 113:Src/usbh_conf.c **** 
 114:Src/usbh_conf.c ****     /* Peripheral interrupt init */
 115:Src/usbh_conf.c ****     HAL_NVIC_SetPriority(OTG_FS_IRQn, 5, 0);
 110              		.loc 1 115 5 view .LVU30
 111 0052 2246     		mov	r2, r4
 112 0054 0521     		movs	r1, #5
 113 0056 4320     		movs	r0, #67
ARM GAS  C:\Users\Nina\AppData\Local\Temp\cclJmOHv.s 			page 5


 114 0058 FFF7FEFF 		bl	HAL_NVIC_SetPriority
 115              	.LVL3:
 116:Src/usbh_conf.c ****     HAL_NVIC_EnableIRQ(OTG_FS_IRQn);
 116              		.loc 1 116 5 view .LVU31
 117 005c 4320     		movs	r0, #67
 118 005e FFF7FEFF 		bl	HAL_NVIC_EnableIRQ
 119              	.LVL4:
 117:Src/usbh_conf.c ****   /* USER CODE BEGIN USB_OTG_FS_MspInit 1 */
 118:Src/usbh_conf.c **** 
 119:Src/usbh_conf.c ****   /* USER CODE END USB_OTG_FS_MspInit 1 */
 120:Src/usbh_conf.c ****   }
 121:Src/usbh_conf.c **** }
 120              		.loc 1 121 1 is_stmt 0 view .LVU32
 121 0062 08B0     		add	sp, sp, #32
 122              	.LCFI2:
 123              		.cfi_def_cfa_offset 8
 124              		@ sp needed
 125 0064 10BD     		pop	{r4, pc}
 126              	.L9:
 127 0066 00BF     		.align	2
 128              	.L8:
 129 0068 00000240 		.word	1073872896
 130 006c 00380240 		.word	1073887232
 131              		.cfi_endproc
 132              	.LFE143:
 134              		.section	.text.HAL_HCD_MspDeInit,"ax",%progbits
 135              		.align	1
 136              		.global	HAL_HCD_MspDeInit
 137              		.syntax unified
 138              		.thumb
 139              		.thumb_func
 140              		.fpu fpv5-sp-d16
 142              	HAL_HCD_MspDeInit:
 143              	.LVL5:
 144              	.LFB144:
 122:Src/usbh_conf.c **** 
 123:Src/usbh_conf.c **** void HAL_HCD_MspDeInit(HCD_HandleTypeDef* hcdHandle)
 124:Src/usbh_conf.c **** {
 145              		.loc 1 124 1 is_stmt 1 view -0
 146              		.cfi_startproc
 147              		@ args = 0, pretend = 0, frame = 0
 148              		@ frame_needed = 0, uses_anonymous_args = 0
 149              		.loc 1 124 1 is_stmt 0 view .LVU34
 150 0000 08B5     		push	{r3, lr}
 151              	.LCFI3:
 152              		.cfi_def_cfa_offset 8
 153              		.cfi_offset 3, -8
 154              		.cfi_offset 14, -4
 125:Src/usbh_conf.c ****   if(hcdHandle->Instance==USB_OTG_FS)
 155              		.loc 1 125 3 is_stmt 1 view .LVU35
 156              		.loc 1 125 15 is_stmt 0 view .LVU36
 157 0002 0368     		ldr	r3, [r0]
 158              		.loc 1 125 5 view .LVU37
 159 0004 B3F1A04F 		cmp	r3, #1342177280
 160 0008 00D0     		beq	.L13
 161              	.LVL6:
 162              	.L10:
ARM GAS  C:\Users\Nina\AppData\Local\Temp\cclJmOHv.s 			page 6


 126:Src/usbh_conf.c ****   {
 127:Src/usbh_conf.c ****   /* USER CODE BEGIN USB_OTG_FS_MspDeInit 0 */
 128:Src/usbh_conf.c **** 
 129:Src/usbh_conf.c ****   /* USER CODE END USB_OTG_FS_MspDeInit 0 */
 130:Src/usbh_conf.c ****     /* Peripheral clock disable */
 131:Src/usbh_conf.c ****     __HAL_RCC_USB_OTG_FS_CLK_DISABLE();
 132:Src/usbh_conf.c ****   
 133:Src/usbh_conf.c ****     /**USB_OTG_FS GPIO Configuration    
 134:Src/usbh_conf.c ****     PA12     ------> USB_OTG_FS_DP
 135:Src/usbh_conf.c ****     PA11     ------> USB_OTG_FS_DM
 136:Src/usbh_conf.c ****     PA10     ------> USB_OTG_FS_ID 
 137:Src/usbh_conf.c ****     */
 138:Src/usbh_conf.c ****     HAL_GPIO_DeInit(GPIOA, OTG_FS_P_Pin|OTG_FS_N_Pin|OTG_FS_ID_Pin);
 139:Src/usbh_conf.c **** 
 140:Src/usbh_conf.c ****     /* Peripheral interrupt Deinit*/
 141:Src/usbh_conf.c ****     HAL_NVIC_DisableIRQ(OTG_FS_IRQn);
 142:Src/usbh_conf.c **** 
 143:Src/usbh_conf.c ****   /* USER CODE BEGIN USB_OTG_FS_MspDeInit 1 */
 144:Src/usbh_conf.c **** 
 145:Src/usbh_conf.c ****   /* USER CODE END USB_OTG_FS_MspDeInit 1 */
 146:Src/usbh_conf.c ****   }
 147:Src/usbh_conf.c **** }
 163              		.loc 1 147 1 view .LVU38
 164 000a 08BD     		pop	{r3, pc}
 165              	.LVL7:
 166              	.L13:
 131:Src/usbh_conf.c ****   
 167              		.loc 1 131 5 is_stmt 1 view .LVU39
 168 000c 064A     		ldr	r2, .L14
 169 000e 536B     		ldr	r3, [r2, #52]
 170 0010 23F08003 		bic	r3, r3, #128
 171 0014 5363     		str	r3, [r2, #52]
 138:Src/usbh_conf.c **** 
 172              		.loc 1 138 5 view .LVU40
 173 0016 4FF4E051 		mov	r1, #7168
 174 001a 0448     		ldr	r0, .L14+4
 175              	.LVL8:
 138:Src/usbh_conf.c **** 
 176              		.loc 1 138 5 is_stmt 0 view .LVU41
 177 001c FFF7FEFF 		bl	HAL_GPIO_DeInit
 178              	.LVL9:
 141:Src/usbh_conf.c **** 
 179              		.loc 1 141 5 is_stmt 1 view .LVU42
 180 0020 4320     		movs	r0, #67
 181 0022 FFF7FEFF 		bl	HAL_NVIC_DisableIRQ
 182              	.LVL10:
 183              		.loc 1 147 1 is_stmt 0 view .LVU43
 184 0026 F0E7     		b	.L10
 185              	.L15:
 186              		.align	2
 187              	.L14:
 188 0028 00380240 		.word	1073887232
 189 002c 00000240 		.word	1073872896
 190              		.cfi_endproc
 191              	.LFE144:
 193              		.section	.text.HAL_HCD_SOF_Callback,"ax",%progbits
 194              		.align	1
ARM GAS  C:\Users\Nina\AppData\Local\Temp\cclJmOHv.s 			page 7


 195              		.global	HAL_HCD_SOF_Callback
 196              		.syntax unified
 197              		.thumb
 198              		.thumb_func
 199              		.fpu fpv5-sp-d16
 201              	HAL_HCD_SOF_Callback:
 202              	.LVL11:
 203              	.LFB145:
 148:Src/usbh_conf.c **** 
 149:Src/usbh_conf.c **** /**
 150:Src/usbh_conf.c ****   * @brief  SOF callback.
 151:Src/usbh_conf.c ****   * @param  hhcd: HCD handle
 152:Src/usbh_conf.c ****   * @retval None
 153:Src/usbh_conf.c ****   */
 154:Src/usbh_conf.c **** void HAL_HCD_SOF_Callback(HCD_HandleTypeDef *hhcd)
 155:Src/usbh_conf.c **** {
 204              		.loc 1 155 1 is_stmt 1 view -0
 205              		.cfi_startproc
 206              		@ args = 0, pretend = 0, frame = 0
 207              		@ frame_needed = 0, uses_anonymous_args = 0
 208              		.loc 1 155 1 is_stmt 0 view .LVU45
 209 0000 08B5     		push	{r3, lr}
 210              	.LCFI4:
 211              		.cfi_def_cfa_offset 8
 212              		.cfi_offset 3, -8
 213              		.cfi_offset 14, -4
 156:Src/usbh_conf.c ****   USBH_LL_IncTimer(hhcd->pData);
 214              		.loc 1 156 3 is_stmt 1 view .LVU46
 215 0002 D0F8BC02 		ldr	r0, [r0, #700]
 216              	.LVL12:
 217              		.loc 1 156 3 is_stmt 0 view .LVU47
 218 0006 FFF7FEFF 		bl	USBH_LL_IncTimer
 219              	.LVL13:
 157:Src/usbh_conf.c **** }
 220              		.loc 1 157 1 view .LVU48
 221 000a 08BD     		pop	{r3, pc}
 222              		.cfi_endproc
 223              	.LFE145:
 225              		.section	.text.HAL_HCD_Connect_Callback,"ax",%progbits
 226              		.align	1
 227              		.global	HAL_HCD_Connect_Callback
 228              		.syntax unified
 229              		.thumb
 230              		.thumb_func
 231              		.fpu fpv5-sp-d16
 233              	HAL_HCD_Connect_Callback:
 234              	.LVL14:
 235              	.LFB146:
 158:Src/usbh_conf.c **** 
 159:Src/usbh_conf.c **** /**
 160:Src/usbh_conf.c ****   * @brief  SOF callback.
 161:Src/usbh_conf.c ****   * @param  hhcd: HCD handle
 162:Src/usbh_conf.c ****   * @retval None
 163:Src/usbh_conf.c ****   */
 164:Src/usbh_conf.c **** void HAL_HCD_Connect_Callback(HCD_HandleTypeDef *hhcd)
 165:Src/usbh_conf.c **** {
 236              		.loc 1 165 1 is_stmt 1 view -0
ARM GAS  C:\Users\Nina\AppData\Local\Temp\cclJmOHv.s 			page 8


 237              		.cfi_startproc
 238              		@ args = 0, pretend = 0, frame = 0
 239              		@ frame_needed = 0, uses_anonymous_args = 0
 240              		.loc 1 165 1 is_stmt 0 view .LVU50
 241 0000 08B5     		push	{r3, lr}
 242              	.LCFI5:
 243              		.cfi_def_cfa_offset 8
 244              		.cfi_offset 3, -8
 245              		.cfi_offset 14, -4
 166:Src/usbh_conf.c ****   USBH_LL_Connect(hhcd->pData);
 246              		.loc 1 166 3 is_stmt 1 view .LVU51
 247 0002 D0F8BC02 		ldr	r0, [r0, #700]
 248              	.LVL15:
 249              		.loc 1 166 3 is_stmt 0 view .LVU52
 250 0006 FFF7FEFF 		bl	USBH_LL_Connect
 251              	.LVL16:
 167:Src/usbh_conf.c **** }
 252              		.loc 1 167 1 view .LVU53
 253 000a 08BD     		pop	{r3, pc}
 254              		.cfi_endproc
 255              	.LFE146:
 257              		.section	.text.HAL_HCD_Disconnect_Callback,"ax",%progbits
 258              		.align	1
 259              		.global	HAL_HCD_Disconnect_Callback
 260              		.syntax unified
 261              		.thumb
 262              		.thumb_func
 263              		.fpu fpv5-sp-d16
 265              	HAL_HCD_Disconnect_Callback:
 266              	.LVL17:
 267              	.LFB147:
 168:Src/usbh_conf.c **** 
 169:Src/usbh_conf.c **** /**
 170:Src/usbh_conf.c ****   * @brief  SOF callback.
 171:Src/usbh_conf.c ****   * @param  hhcd: HCD handle
 172:Src/usbh_conf.c ****   * @retval None
 173:Src/usbh_conf.c ****   */
 174:Src/usbh_conf.c **** void HAL_HCD_Disconnect_Callback(HCD_HandleTypeDef *hhcd)
 175:Src/usbh_conf.c **** {
 268              		.loc 1 175 1 is_stmt 1 view -0
 269              		.cfi_startproc
 270              		@ args = 0, pretend = 0, frame = 0
 271              		@ frame_needed = 0, uses_anonymous_args = 0
 272              		.loc 1 175 1 is_stmt 0 view .LVU55
 273 0000 08B5     		push	{r3, lr}
 274              	.LCFI6:
 275              		.cfi_def_cfa_offset 8
 276              		.cfi_offset 3, -8
 277              		.cfi_offset 14, -4
 176:Src/usbh_conf.c ****   USBH_LL_Disconnect(hhcd->pData);
 278              		.loc 1 176 3 is_stmt 1 view .LVU56
 279 0002 D0F8BC02 		ldr	r0, [r0, #700]
 280              	.LVL18:
 281              		.loc 1 176 3 is_stmt 0 view .LVU57
 282 0006 FFF7FEFF 		bl	USBH_LL_Disconnect
 283              	.LVL19:
 177:Src/usbh_conf.c **** }
ARM GAS  C:\Users\Nina\AppData\Local\Temp\cclJmOHv.s 			page 9


 284              		.loc 1 177 1 view .LVU58
 285 000a 08BD     		pop	{r3, pc}
 286              		.cfi_endproc
 287              	.LFE147:
 289              		.section	.text.HAL_HCD_HC_NotifyURBChange_Callback,"ax",%progbits
 290              		.align	1
 291              		.global	HAL_HCD_HC_NotifyURBChange_Callback
 292              		.syntax unified
 293              		.thumb
 294              		.thumb_func
 295              		.fpu fpv5-sp-d16
 297              	HAL_HCD_HC_NotifyURBChange_Callback:
 298              	.LVL20:
 299              	.LFB148:
 178:Src/usbh_conf.c **** 
 179:Src/usbh_conf.c **** /**
 180:Src/usbh_conf.c ****   * @brief  Notify URB state change callback.
 181:Src/usbh_conf.c ****   * @param  hhcd: HCD handle
 182:Src/usbh_conf.c ****   * @param  chnum: channel number
 183:Src/usbh_conf.c ****   * @param  urb_state: state
 184:Src/usbh_conf.c ****   * @retval None
 185:Src/usbh_conf.c ****   */
 186:Src/usbh_conf.c **** void HAL_HCD_HC_NotifyURBChange_Callback(HCD_HandleTypeDef *hhcd, uint8_t chnum, HCD_URBStateTypeDe
 187:Src/usbh_conf.c **** {
 300              		.loc 1 187 1 is_stmt 1 view -0
 301              		.cfi_startproc
 302              		@ args = 0, pretend = 0, frame = 0
 303              		@ frame_needed = 0, uses_anonymous_args = 0
 304              		.loc 1 187 1 is_stmt 0 view .LVU60
 305 0000 08B5     		push	{r3, lr}
 306              	.LCFI7:
 307              		.cfi_def_cfa_offset 8
 308              		.cfi_offset 3, -8
 309              		.cfi_offset 14, -4
 188:Src/usbh_conf.c ****   /* To be used with OS to sync URB state with the global state machine */
 189:Src/usbh_conf.c **** #if (USBH_USE_OS == 1)
 190:Src/usbh_conf.c ****   USBH_LL_NotifyURBChange(hhcd->pData);
 310              		.loc 1 190 3 is_stmt 1 view .LVU61
 311 0002 D0F8BC02 		ldr	r0, [r0, #700]
 312              	.LVL21:
 313              		.loc 1 190 3 is_stmt 0 view .LVU62
 314 0006 FFF7FEFF 		bl	USBH_LL_NotifyURBChange
 315              	.LVL22:
 191:Src/usbh_conf.c **** #endif
 192:Src/usbh_conf.c **** }
 316              		.loc 1 192 1 view .LVU63
 317 000a 08BD     		pop	{r3, pc}
 318              		.cfi_endproc
 319              	.LFE148:
 321              		.section	.text.HAL_HCD_PortEnabled_Callback,"ax",%progbits
 322              		.align	1
 323              		.global	HAL_HCD_PortEnabled_Callback
 324              		.syntax unified
 325              		.thumb
 326              		.thumb_func
 327              		.fpu fpv5-sp-d16
 329              	HAL_HCD_PortEnabled_Callback:
ARM GAS  C:\Users\Nina\AppData\Local\Temp\cclJmOHv.s 			page 10


 330              	.LVL23:
 331              	.LFB149:
 193:Src/usbh_conf.c **** /**
 194:Src/usbh_conf.c **** * @brief  Port Port Enabled callback.
 195:Src/usbh_conf.c ****   * @param  hhcd: HCD handle
 196:Src/usbh_conf.c ****   * @retval None
 197:Src/usbh_conf.c ****   */
 198:Src/usbh_conf.c **** void HAL_HCD_PortEnabled_Callback(HCD_HandleTypeDef *hhcd)
 199:Src/usbh_conf.c **** {
 332              		.loc 1 199 1 is_stmt 1 view -0
 333              		.cfi_startproc
 334              		@ args = 0, pretend = 0, frame = 0
 335              		@ frame_needed = 0, uses_anonymous_args = 0
 336              		.loc 1 199 1 is_stmt 0 view .LVU65
 337 0000 08B5     		push	{r3, lr}
 338              	.LCFI8:
 339              		.cfi_def_cfa_offset 8
 340              		.cfi_offset 3, -8
 341              		.cfi_offset 14, -4
 200:Src/usbh_conf.c ****   USBH_LL_PortEnabled(hhcd->pData);
 342              		.loc 1 200 3 is_stmt 1 view .LVU66
 343 0002 D0F8BC02 		ldr	r0, [r0, #700]
 344              	.LVL24:
 345              		.loc 1 200 3 is_stmt 0 view .LVU67
 346 0006 FFF7FEFF 		bl	USBH_LL_PortEnabled
 347              	.LVL25:
 201:Src/usbh_conf.c **** } 
 348              		.loc 1 201 1 view .LVU68
 349 000a 08BD     		pop	{r3, pc}
 350              		.cfi_endproc
 351              	.LFE149:
 353              		.section	.text.HAL_HCD_PortDisabled_Callback,"ax",%progbits
 354              		.align	1
 355              		.global	HAL_HCD_PortDisabled_Callback
 356              		.syntax unified
 357              		.thumb
 358              		.thumb_func
 359              		.fpu fpv5-sp-d16
 361              	HAL_HCD_PortDisabled_Callback:
 362              	.LVL26:
 363              	.LFB150:
 202:Src/usbh_conf.c **** 
 203:Src/usbh_conf.c **** /**
 204:Src/usbh_conf.c ****   * @brief  Port Port Disabled callback.
 205:Src/usbh_conf.c ****   * @param  hhcd: HCD handle
 206:Src/usbh_conf.c ****   * @retval None
 207:Src/usbh_conf.c ****   */
 208:Src/usbh_conf.c **** void HAL_HCD_PortDisabled_Callback(HCD_HandleTypeDef *hhcd)
 209:Src/usbh_conf.c **** {
 364              		.loc 1 209 1 is_stmt 1 view -0
 365              		.cfi_startproc
 366              		@ args = 0, pretend = 0, frame = 0
 367              		@ frame_needed = 0, uses_anonymous_args = 0
 368              		.loc 1 209 1 is_stmt 0 view .LVU70
 369 0000 08B5     		push	{r3, lr}
 370              	.LCFI9:
 371              		.cfi_def_cfa_offset 8
ARM GAS  C:\Users\Nina\AppData\Local\Temp\cclJmOHv.s 			page 11


 372              		.cfi_offset 3, -8
 373              		.cfi_offset 14, -4
 210:Src/usbh_conf.c ****   USBH_LL_PortDisabled(hhcd->pData);
 374              		.loc 1 210 3 is_stmt 1 view .LVU71
 375 0002 D0F8BC02 		ldr	r0, [r0, #700]
 376              	.LVL27:
 377              		.loc 1 210 3 is_stmt 0 view .LVU72
 378 0006 FFF7FEFF 		bl	USBH_LL_PortDisabled
 379              	.LVL28:
 211:Src/usbh_conf.c **** } 
 380              		.loc 1 211 1 view .LVU73
 381 000a 08BD     		pop	{r3, pc}
 382              		.cfi_endproc
 383              	.LFE150:
 385              		.section	.rodata.USBH_LL_Init.str1.4,"aMS",%progbits,1
 386              		.align	2
 387              	.LC0:
 388 0000 5372632F 		.ascii	"Src/usbh_conf.c\000"
 388      75736268 
 388      5F636F6E 
 388      662E6300 
 389              		.section	.text.USBH_LL_Init,"ax",%progbits
 390              		.align	1
 391              		.global	USBH_LL_Init
 392              		.syntax unified
 393              		.thumb
 394              		.thumb_func
 395              		.fpu fpv5-sp-d16
 397              	USBH_LL_Init:
 398              	.LVL29:
 399              	.LFB151:
 212:Src/usbh_conf.c **** 
 213:Src/usbh_conf.c **** /*******************************************************************************
 214:Src/usbh_conf.c ****                        LL Driver Interface (USB Host Library --> HCD)
 215:Src/usbh_conf.c **** *******************************************************************************/
 216:Src/usbh_conf.c **** 
 217:Src/usbh_conf.c **** /**
 218:Src/usbh_conf.c ****   * @brief  Initialize the low level portion of the host driver.
 219:Src/usbh_conf.c ****   * @param  phost: Host handle
 220:Src/usbh_conf.c ****   * @retval USBH status
 221:Src/usbh_conf.c ****   */
 222:Src/usbh_conf.c **** USBH_StatusTypeDef USBH_LL_Init(USBH_HandleTypeDef *phost)
 223:Src/usbh_conf.c **** {
 400              		.loc 1 223 1 is_stmt 1 view -0
 401              		.cfi_startproc
 402              		@ args = 0, pretend = 0, frame = 0
 403              		@ frame_needed = 0, uses_anonymous_args = 0
 224:Src/usbh_conf.c ****   /* Init USB_IP */
 225:Src/usbh_conf.c ****   if (phost->id == HOST_FS) {
 404              		.loc 1 225 3 view .LVU75
 405              		.loc 1 225 12 is_stmt 0 view .LVU76
 406 0000 90F8C033 		ldrb	r3, [r0, #960]	@ zero_extendqisi2
 407              		.loc 1 225 6 view .LVU77
 408 0004 012B     		cmp	r3, #1
 409 0006 01D0     		beq	.L35
 226:Src/usbh_conf.c ****   /* Link the driver to the stack. */
 227:Src/usbh_conf.c ****   hhcd_USB_OTG_FS.pData = phost;
ARM GAS  C:\Users\Nina\AppData\Local\Temp\cclJmOHv.s 			page 12


 228:Src/usbh_conf.c ****   phost->pData = &hhcd_USB_OTG_FS;
 229:Src/usbh_conf.c **** 
 230:Src/usbh_conf.c ****   hhcd_USB_OTG_FS.Instance = USB_OTG_FS;
 231:Src/usbh_conf.c ****   hhcd_USB_OTG_FS.Init.Host_channels = 8;
 232:Src/usbh_conf.c ****   hhcd_USB_OTG_FS.Init.speed = HCD_SPEED_FULL;
 233:Src/usbh_conf.c ****   hhcd_USB_OTG_FS.Init.dma_enable = DISABLE;
 234:Src/usbh_conf.c ****   hhcd_USB_OTG_FS.Init.phy_itface = HCD_PHY_EMBEDDED;
 235:Src/usbh_conf.c ****   hhcd_USB_OTG_FS.Init.Sof_enable = DISABLE;
 236:Src/usbh_conf.c ****   if (HAL_HCD_Init(&hhcd_USB_OTG_FS) != HAL_OK)
 237:Src/usbh_conf.c ****   {
 238:Src/usbh_conf.c ****     _Error_Handler(__FILE__, __LINE__);
 239:Src/usbh_conf.c ****   }
 240:Src/usbh_conf.c **** 
 241:Src/usbh_conf.c ****   USBH_LL_SetTimer(phost, HAL_HCD_GetCurrentFrame(&hhcd_USB_OTG_FS));
 242:Src/usbh_conf.c ****   }
 243:Src/usbh_conf.c ****   return USBH_OK;
 410              		.loc 1 243 3 is_stmt 1 view .LVU78
 244:Src/usbh_conf.c **** }
 411              		.loc 1 244 1 is_stmt 0 view .LVU79
 412 0008 0020     		movs	r0, #0
 413              	.LVL30:
 414              		.loc 1 244 1 view .LVU80
 415 000a 7047     		bx	lr
 416              	.LVL31:
 417              	.L35:
 223:Src/usbh_conf.c ****   /* Init USB_IP */
 418              		.loc 1 223 1 view .LVU81
 419 000c 10B5     		push	{r4, lr}
 420              	.LCFI10:
 421              		.cfi_def_cfa_offset 8
 422              		.cfi_offset 4, -8
 423              		.cfi_offset 14, -4
 424 000e 0446     		mov	r4, r0
 227:Src/usbh_conf.c ****   phost->pData = &hhcd_USB_OTG_FS;
 425              		.loc 1 227 3 is_stmt 1 view .LVU82
 227:Src/usbh_conf.c ****   phost->pData = &hhcd_USB_OTG_FS;
 426              		.loc 1 227 25 is_stmt 0 view .LVU83
 427 0010 1048     		ldr	r0, .L37
 428              	.LVL32:
 227:Src/usbh_conf.c ****   phost->pData = &hhcd_USB_OTG_FS;
 429              		.loc 1 227 25 view .LVU84
 430 0012 C0F8BC42 		str	r4, [r0, #700]
 228:Src/usbh_conf.c **** 
 431              		.loc 1 228 3 is_stmt 1 view .LVU85
 228:Src/usbh_conf.c **** 
 432              		.loc 1 228 16 is_stmt 0 view .LVU86
 433 0016 C4F8C403 		str	r0, [r4, #964]
 230:Src/usbh_conf.c ****   hhcd_USB_OTG_FS.Init.Host_channels = 8;
 434              		.loc 1 230 3 is_stmt 1 view .LVU87
 230:Src/usbh_conf.c ****   hhcd_USB_OTG_FS.Init.Host_channels = 8;
 435              		.loc 1 230 28 is_stmt 0 view .LVU88
 436 001a 4FF0A043 		mov	r3, #1342177280
 437 001e 0360     		str	r3, [r0]
 231:Src/usbh_conf.c ****   hhcd_USB_OTG_FS.Init.speed = HCD_SPEED_FULL;
 438              		.loc 1 231 3 is_stmt 1 view .LVU89
 231:Src/usbh_conf.c ****   hhcd_USB_OTG_FS.Init.speed = HCD_SPEED_FULL;
 439              		.loc 1 231 38 is_stmt 0 view .LVU90
ARM GAS  C:\Users\Nina\AppData\Local\Temp\cclJmOHv.s 			page 13


 440 0020 0823     		movs	r3, #8
 441 0022 8360     		str	r3, [r0, #8]
 232:Src/usbh_conf.c ****   hhcd_USB_OTG_FS.Init.dma_enable = DISABLE;
 442              		.loc 1 232 3 is_stmt 1 view .LVU91
 232:Src/usbh_conf.c ****   hhcd_USB_OTG_FS.Init.dma_enable = DISABLE;
 443              		.loc 1 232 30 is_stmt 0 view .LVU92
 444 0024 0323     		movs	r3, #3
 445 0026 C360     		str	r3, [r0, #12]
 233:Src/usbh_conf.c ****   hhcd_USB_OTG_FS.Init.phy_itface = HCD_PHY_EMBEDDED;
 446              		.loc 1 233 3 is_stmt 1 view .LVU93
 233:Src/usbh_conf.c ****   hhcd_USB_OTG_FS.Init.phy_itface = HCD_PHY_EMBEDDED;
 447              		.loc 1 233 35 is_stmt 0 view .LVU94
 448 0028 0023     		movs	r3, #0
 449 002a 0361     		str	r3, [r0, #16]
 234:Src/usbh_conf.c ****   hhcd_USB_OTG_FS.Init.Sof_enable = DISABLE;
 450              		.loc 1 234 3 is_stmt 1 view .LVU95
 234:Src/usbh_conf.c ****   hhcd_USB_OTG_FS.Init.Sof_enable = DISABLE;
 451              		.loc 1 234 35 is_stmt 0 view .LVU96
 452 002c 0222     		movs	r2, #2
 453 002e 8261     		str	r2, [r0, #24]
 235:Src/usbh_conf.c ****   if (HAL_HCD_Init(&hhcd_USB_OTG_FS) != HAL_OK)
 454              		.loc 1 235 3 is_stmt 1 view .LVU97
 235:Src/usbh_conf.c ****   if (HAL_HCD_Init(&hhcd_USB_OTG_FS) != HAL_OK)
 455              		.loc 1 235 35 is_stmt 0 view .LVU98
 456 0030 C361     		str	r3, [r0, #28]
 236:Src/usbh_conf.c ****   {
 457              		.loc 1 236 3 is_stmt 1 view .LVU99
 236:Src/usbh_conf.c ****   {
 458              		.loc 1 236 7 is_stmt 0 view .LVU100
 459 0032 FFF7FEFF 		bl	HAL_HCD_Init
 460              	.LVL33:
 236:Src/usbh_conf.c ****   {
 461              		.loc 1 236 6 view .LVU101
 462 0036 40B9     		cbnz	r0, .L36
 463              	.L30:
 241:Src/usbh_conf.c ****   }
 464              		.loc 1 241 3 is_stmt 1 view .LVU102
 465 0038 0648     		ldr	r0, .L37
 466 003a FFF7FEFF 		bl	HAL_HCD_GetCurrentFrame
 467              	.LVL34:
 468 003e 0146     		mov	r1, r0
 469 0040 2046     		mov	r0, r4
 470 0042 FFF7FEFF 		bl	USBH_LL_SetTimer
 471              	.LVL35:
 243:Src/usbh_conf.c **** }
 472              		.loc 1 243 3 view .LVU103
 473              		.loc 1 244 1 is_stmt 0 view .LVU104
 474 0046 0020     		movs	r0, #0
 475 0048 10BD     		pop	{r4, pc}
 476              	.LVL36:
 477              	.L36:
 238:Src/usbh_conf.c ****   }
 478              		.loc 1 238 5 is_stmt 1 view .LVU105
 479 004a EE21     		movs	r1, #238
 480 004c 0248     		ldr	r0, .L37+4
 481 004e FFF7FEFF 		bl	_Error_Handler
 482              	.LVL37:
ARM GAS  C:\Users\Nina\AppData\Local\Temp\cclJmOHv.s 			page 14


 483 0052 F1E7     		b	.L30
 484              	.L38:
 485              		.align	2
 486              	.L37:
 487 0054 00000000 		.word	hhcd_USB_OTG_FS
 488 0058 00000000 		.word	.LC0
 489              		.cfi_endproc
 490              	.LFE151:
 492              		.section	.text.USBH_LL_DeInit,"ax",%progbits
 493              		.align	1
 494              		.global	USBH_LL_DeInit
 495              		.syntax unified
 496              		.thumb
 497              		.thumb_func
 498              		.fpu fpv5-sp-d16
 500              	USBH_LL_DeInit:
 501              	.LVL38:
 502              	.LFB152:
 245:Src/usbh_conf.c **** 
 246:Src/usbh_conf.c **** /**
 247:Src/usbh_conf.c ****   * @brief  De-Initialize the low level portion of the host driver.
 248:Src/usbh_conf.c ****   * @param  phost: Host handle
 249:Src/usbh_conf.c ****   * @retval USBH status
 250:Src/usbh_conf.c ****   */
 251:Src/usbh_conf.c **** USBH_StatusTypeDef USBH_LL_DeInit(USBH_HandleTypeDef *phost)
 252:Src/usbh_conf.c **** {
 503              		.loc 1 252 1 view -0
 504              		.cfi_startproc
 505              		@ args = 0, pretend = 0, frame = 0
 506              		@ frame_needed = 0, uses_anonymous_args = 0
 507              		.loc 1 252 1 is_stmt 0 view .LVU107
 508 0000 08B5     		push	{r3, lr}
 509              	.LCFI11:
 510              		.cfi_def_cfa_offset 8
 511              		.cfi_offset 3, -8
 512              		.cfi_offset 14, -4
 253:Src/usbh_conf.c ****   HAL_StatusTypeDef hal_status = HAL_OK;
 513              		.loc 1 253 3 is_stmt 1 view .LVU108
 514              	.LVL39:
 254:Src/usbh_conf.c ****   USBH_StatusTypeDef usb_status = USBH_OK;
 515              		.loc 1 254 3 view .LVU109
 255:Src/usbh_conf.c **** 
 256:Src/usbh_conf.c ****   hal_status = HAL_HCD_DeInit(phost->pData);
 516              		.loc 1 256 3 view .LVU110
 517              		.loc 1 256 16 is_stmt 0 view .LVU111
 518 0002 D0F8C403 		ldr	r0, [r0, #964]
 519              	.LVL40:
 520              		.loc 1 256 16 view .LVU112
 521 0006 FFF7FEFF 		bl	HAL_HCD_DeInit
 522              	.LVL41:
 257:Src/usbh_conf.c **** 
 258:Src/usbh_conf.c ****   switch (hal_status) {
 523              		.loc 1 258 3 is_stmt 1 view .LVU113
 524 000a 0228     		cmp	r0, #2
 525 000c 05D8     		bhi	.L44
 526 000e DFE800F0 		tbb	[pc, r0]
 527              	.L42:
ARM GAS  C:\Users\Nina\AppData\Local\Temp\cclJmOHv.s 			page 15


 528 0012 05       		.byte	(.L40-.L42)/2
 529 0013 04       		.byte	(.L44-.L42)/2
 530 0014 02       		.byte	(.L41-.L42)/2
 531 0015 00       		.p2align 1
 532              	.L41:
 259:Src/usbh_conf.c ****     case HAL_OK :
 260:Src/usbh_conf.c ****       usb_status = USBH_OK;
 261:Src/usbh_conf.c ****     break;
 262:Src/usbh_conf.c ****     case HAL_ERROR :
 263:Src/usbh_conf.c ****       usb_status = USBH_FAIL;
 264:Src/usbh_conf.c ****     break;
 265:Src/usbh_conf.c ****     case HAL_BUSY :
 266:Src/usbh_conf.c ****       usb_status = USBH_BUSY;
 533              		.loc 1 266 7 view .LVU114
 534              	.LVL42:
 267:Src/usbh_conf.c ****     break;
 535              		.loc 1 267 5 view .LVU115
 266:Src/usbh_conf.c ****     break;
 536              		.loc 1 266 18 is_stmt 0 view .LVU116
 537 0016 0120     		movs	r0, #1
 538              	.LVL43:
 539              		.loc 1 267 5 view .LVU117
 540 0018 00E0     		b	.L40
 541              	.LVL44:
 542              	.L44:
 263:Src/usbh_conf.c ****     break;
 543              		.loc 1 263 18 view .LVU118
 544 001a 0220     		movs	r0, #2
 545              	.LVL45:
 546              	.L40:
 268:Src/usbh_conf.c ****     case HAL_TIMEOUT :
 269:Src/usbh_conf.c ****       usb_status = USBH_FAIL;
 270:Src/usbh_conf.c ****     break;
 271:Src/usbh_conf.c ****     default :
 272:Src/usbh_conf.c ****       usb_status = USBH_FAIL;
 273:Src/usbh_conf.c ****     break;
 274:Src/usbh_conf.c ****   }
 275:Src/usbh_conf.c ****   return usb_status;
 547              		.loc 1 275 3 is_stmt 1 view .LVU119
 276:Src/usbh_conf.c **** }
 548              		.loc 1 276 1 is_stmt 0 view .LVU120
 549 001c 08BD     		pop	{r3, pc}
 550              		.cfi_endproc
 551              	.LFE152:
 553              		.section	.text.USBH_LL_Start,"ax",%progbits
 554              		.align	1
 555              		.global	USBH_LL_Start
 556              		.syntax unified
 557              		.thumb
 558              		.thumb_func
 559              		.fpu fpv5-sp-d16
 561              	USBH_LL_Start:
 562              	.LVL46:
 563              	.LFB153:
 277:Src/usbh_conf.c **** 
 278:Src/usbh_conf.c **** /**
 279:Src/usbh_conf.c ****   * @brief  Start the low level portion of the host driver.
ARM GAS  C:\Users\Nina\AppData\Local\Temp\cclJmOHv.s 			page 16


 280:Src/usbh_conf.c ****   * @param  phost: Host handle
 281:Src/usbh_conf.c ****   * @retval USBH status
 282:Src/usbh_conf.c ****   */
 283:Src/usbh_conf.c **** USBH_StatusTypeDef USBH_LL_Start(USBH_HandleTypeDef *phost)
 284:Src/usbh_conf.c **** {
 564              		.loc 1 284 1 is_stmt 1 view -0
 565              		.cfi_startproc
 566              		@ args = 0, pretend = 0, frame = 0
 567              		@ frame_needed = 0, uses_anonymous_args = 0
 568              		.loc 1 284 1 is_stmt 0 view .LVU122
 569 0000 08B5     		push	{r3, lr}
 570              	.LCFI12:
 571              		.cfi_def_cfa_offset 8
 572              		.cfi_offset 3, -8
 573              		.cfi_offset 14, -4
 285:Src/usbh_conf.c ****   HAL_StatusTypeDef hal_status = HAL_OK;
 574              		.loc 1 285 3 is_stmt 1 view .LVU123
 575              	.LVL47:
 286:Src/usbh_conf.c ****   USBH_StatusTypeDef usb_status = USBH_OK;
 576              		.loc 1 286 3 view .LVU124
 287:Src/usbh_conf.c **** 
 288:Src/usbh_conf.c ****   hal_status = HAL_HCD_Start(phost->pData);
 577              		.loc 1 288 3 view .LVU125
 578              		.loc 1 288 16 is_stmt 0 view .LVU126
 579 0002 D0F8C403 		ldr	r0, [r0, #964]
 580              	.LVL48:
 581              		.loc 1 288 16 view .LVU127
 582 0006 FFF7FEFF 		bl	HAL_HCD_Start
 583              	.LVL49:
 289:Src/usbh_conf.c **** 
 290:Src/usbh_conf.c ****   switch (hal_status) {
 584              		.loc 1 290 3 is_stmt 1 view .LVU128
 585 000a 0228     		cmp	r0, #2
 586 000c 05D8     		bhi	.L51
 587 000e DFE800F0 		tbb	[pc, r0]
 588              	.L49:
 589 0012 05       		.byte	(.L47-.L49)/2
 590 0013 04       		.byte	(.L51-.L49)/2
 591 0014 02       		.byte	(.L48-.L49)/2
 592 0015 00       		.p2align 1
 593              	.L48:
 291:Src/usbh_conf.c ****     case HAL_OK :
 292:Src/usbh_conf.c ****       usb_status = USBH_OK;
 293:Src/usbh_conf.c ****     break;
 294:Src/usbh_conf.c ****     case HAL_ERROR :
 295:Src/usbh_conf.c ****       usb_status = USBH_FAIL;
 296:Src/usbh_conf.c ****     break;
 297:Src/usbh_conf.c ****     case HAL_BUSY :
 298:Src/usbh_conf.c ****       usb_status = USBH_BUSY;
 594              		.loc 1 298 7 view .LVU129
 595              	.LVL50:
 299:Src/usbh_conf.c ****     break;
 596              		.loc 1 299 5 view .LVU130
 298:Src/usbh_conf.c ****     break;
 597              		.loc 1 298 18 is_stmt 0 view .LVU131
 598 0016 0120     		movs	r0, #1
 599              	.LVL51:
ARM GAS  C:\Users\Nina\AppData\Local\Temp\cclJmOHv.s 			page 17


 600              		.loc 1 299 5 view .LVU132
 601 0018 00E0     		b	.L47
 602              	.LVL52:
 603              	.L51:
 295:Src/usbh_conf.c ****     break;
 604              		.loc 1 295 18 view .LVU133
 605 001a 0220     		movs	r0, #2
 606              	.LVL53:
 607              	.L47:
 300:Src/usbh_conf.c ****     case HAL_TIMEOUT :
 301:Src/usbh_conf.c ****       usb_status = USBH_FAIL;
 302:Src/usbh_conf.c ****     break;
 303:Src/usbh_conf.c ****     default :
 304:Src/usbh_conf.c ****       usb_status = USBH_FAIL;
 305:Src/usbh_conf.c ****     break;
 306:Src/usbh_conf.c ****   }
 307:Src/usbh_conf.c ****   return usb_status;
 608              		.loc 1 307 3 is_stmt 1 view .LVU134
 308:Src/usbh_conf.c **** }
 609              		.loc 1 308 1 is_stmt 0 view .LVU135
 610 001c 08BD     		pop	{r3, pc}
 611              		.cfi_endproc
 612              	.LFE153:
 614              		.section	.text.USBH_LL_Stop,"ax",%progbits
 615              		.align	1
 616              		.global	USBH_LL_Stop
 617              		.syntax unified
 618              		.thumb
 619              		.thumb_func
 620              		.fpu fpv5-sp-d16
 622              	USBH_LL_Stop:
 623              	.LVL54:
 624              	.LFB154:
 309:Src/usbh_conf.c **** 
 310:Src/usbh_conf.c **** /**
 311:Src/usbh_conf.c ****   * @brief  Stop the low level portion of the host driver.
 312:Src/usbh_conf.c ****   * @param  phost: Host handle
 313:Src/usbh_conf.c ****   * @retval USBH status
 314:Src/usbh_conf.c ****   */
 315:Src/usbh_conf.c **** USBH_StatusTypeDef USBH_LL_Stop(USBH_HandleTypeDef *phost)
 316:Src/usbh_conf.c **** {
 625              		.loc 1 316 1 is_stmt 1 view -0
 626              		.cfi_startproc
 627              		@ args = 0, pretend = 0, frame = 0
 628              		@ frame_needed = 0, uses_anonymous_args = 0
 629              		.loc 1 316 1 is_stmt 0 view .LVU137
 630 0000 08B5     		push	{r3, lr}
 631              	.LCFI13:
 632              		.cfi_def_cfa_offset 8
 633              		.cfi_offset 3, -8
 634              		.cfi_offset 14, -4
 317:Src/usbh_conf.c ****   HAL_StatusTypeDef hal_status = HAL_OK;
 635              		.loc 1 317 3 is_stmt 1 view .LVU138
 636              	.LVL55:
 318:Src/usbh_conf.c ****   USBH_StatusTypeDef usb_status = USBH_OK;
 637              		.loc 1 318 3 view .LVU139
 319:Src/usbh_conf.c **** 
ARM GAS  C:\Users\Nina\AppData\Local\Temp\cclJmOHv.s 			page 18


 320:Src/usbh_conf.c ****   hal_status = HAL_HCD_Stop(phost->pData);
 638              		.loc 1 320 3 view .LVU140
 639              		.loc 1 320 16 is_stmt 0 view .LVU141
 640 0002 D0F8C403 		ldr	r0, [r0, #964]
 641              	.LVL56:
 642              		.loc 1 320 16 view .LVU142
 643 0006 FFF7FEFF 		bl	HAL_HCD_Stop
 644              	.LVL57:
 321:Src/usbh_conf.c **** 
 322:Src/usbh_conf.c ****   switch (hal_status) {
 645              		.loc 1 322 3 is_stmt 1 view .LVU143
 646 000a 0228     		cmp	r0, #2
 647 000c 05D8     		bhi	.L58
 648 000e DFE800F0 		tbb	[pc, r0]
 649              	.L56:
 650 0012 05       		.byte	(.L54-.L56)/2
 651 0013 04       		.byte	(.L58-.L56)/2
 652 0014 02       		.byte	(.L55-.L56)/2
 653 0015 00       		.p2align 1
 654              	.L55:
 323:Src/usbh_conf.c ****     case HAL_OK :
 324:Src/usbh_conf.c ****       usb_status = USBH_OK;
 325:Src/usbh_conf.c ****     break;
 326:Src/usbh_conf.c ****     case HAL_ERROR :
 327:Src/usbh_conf.c ****       usb_status = USBH_FAIL;
 328:Src/usbh_conf.c ****     break;
 329:Src/usbh_conf.c ****     case HAL_BUSY :
 330:Src/usbh_conf.c ****       usb_status = USBH_BUSY;
 655              		.loc 1 330 7 view .LVU144
 656              	.LVL58:
 331:Src/usbh_conf.c ****     break;
 657              		.loc 1 331 5 view .LVU145
 330:Src/usbh_conf.c ****     break;
 658              		.loc 1 330 18 is_stmt 0 view .LVU146
 659 0016 0120     		movs	r0, #1
 660              	.LVL59:
 661              		.loc 1 331 5 view .LVU147
 662 0018 00E0     		b	.L54
 663              	.LVL60:
 664              	.L58:
 327:Src/usbh_conf.c ****     break;
 665              		.loc 1 327 18 view .LVU148
 666 001a 0220     		movs	r0, #2
 667              	.LVL61:
 668              	.L54:
 332:Src/usbh_conf.c ****     case HAL_TIMEOUT :
 333:Src/usbh_conf.c ****       usb_status = USBH_FAIL;
 334:Src/usbh_conf.c ****     break;
 335:Src/usbh_conf.c ****     default :
 336:Src/usbh_conf.c ****       usb_status = USBH_FAIL;
 337:Src/usbh_conf.c ****     break;
 338:Src/usbh_conf.c ****   }
 339:Src/usbh_conf.c ****   return usb_status;
 669              		.loc 1 339 3 is_stmt 1 view .LVU149
 340:Src/usbh_conf.c **** }
 670              		.loc 1 340 1 is_stmt 0 view .LVU150
 671 001c 08BD     		pop	{r3, pc}
ARM GAS  C:\Users\Nina\AppData\Local\Temp\cclJmOHv.s 			page 19


 672              		.cfi_endproc
 673              	.LFE154:
 675              		.section	.text.USBH_LL_GetSpeed,"ax",%progbits
 676              		.align	1
 677              		.global	USBH_LL_GetSpeed
 678              		.syntax unified
 679              		.thumb
 680              		.thumb_func
 681              		.fpu fpv5-sp-d16
 683              	USBH_LL_GetSpeed:
 684              	.LVL62:
 685              	.LFB155:
 341:Src/usbh_conf.c **** 
 342:Src/usbh_conf.c **** /**
 343:Src/usbh_conf.c ****   * @brief  Return the USB host speed from the low level driver.
 344:Src/usbh_conf.c ****   * @param  phost: Host handle
 345:Src/usbh_conf.c ****   * @retval USBH speeds
 346:Src/usbh_conf.c ****   */
 347:Src/usbh_conf.c **** USBH_SpeedTypeDef USBH_LL_GetSpeed(USBH_HandleTypeDef *phost)
 348:Src/usbh_conf.c **** {
 686              		.loc 1 348 1 is_stmt 1 view -0
 687              		.cfi_startproc
 688              		@ args = 0, pretend = 0, frame = 0
 689              		@ frame_needed = 0, uses_anonymous_args = 0
 690              		.loc 1 348 1 is_stmt 0 view .LVU152
 691 0000 08B5     		push	{r3, lr}
 692              	.LCFI14:
 693              		.cfi_def_cfa_offset 8
 694              		.cfi_offset 3, -8
 695              		.cfi_offset 14, -4
 349:Src/usbh_conf.c ****   USBH_SpeedTypeDef speed = USBH_SPEED_FULL;
 696              		.loc 1 349 3 is_stmt 1 view .LVU153
 697              	.LVL63:
 350:Src/usbh_conf.c **** 
 351:Src/usbh_conf.c ****   switch (HAL_HCD_GetCurrentSpeed(phost->pData))
 698              		.loc 1 351 3 view .LVU154
 699              		.loc 1 351 11 is_stmt 0 view .LVU155
 700 0002 D0F8C403 		ldr	r0, [r0, #964]
 701              	.LVL64:
 702              		.loc 1 351 11 view .LVU156
 703 0006 FFF7FEFF 		bl	HAL_HCD_GetCurrentSpeed
 704              	.LVL65:
 705              		.loc 1 351 3 view .LVU157
 706 000a 0128     		cmp	r0, #1
 707 000c 04D0     		beq	.L62
 708 000e 0228     		cmp	r0, #2
 709 0010 04D0     		beq	.L63
 710 0012 00B1     		cbz	r0, .L61
 352:Src/usbh_conf.c ****   {
 353:Src/usbh_conf.c ****   case 0 :
 354:Src/usbh_conf.c ****     speed = USBH_SPEED_HIGH;
 355:Src/usbh_conf.c ****     break;
 356:Src/usbh_conf.c **** 
 357:Src/usbh_conf.c ****   case 1 :
 358:Src/usbh_conf.c ****     speed = USBH_SPEED_FULL;
 359:Src/usbh_conf.c ****     break;
 360:Src/usbh_conf.c **** 
ARM GAS  C:\Users\Nina\AppData\Local\Temp\cclJmOHv.s 			page 20


 361:Src/usbh_conf.c ****   case 2 :
 362:Src/usbh_conf.c ****     speed = USBH_SPEED_LOW;
 363:Src/usbh_conf.c ****     break;
 364:Src/usbh_conf.c **** 
 365:Src/usbh_conf.c ****   default:
 366:Src/usbh_conf.c ****    speed = USBH_SPEED_FULL;
 711              		.loc 1 366 10 view .LVU158
 712 0014 0120     		movs	r0, #1
 713              	.L61:
 714              	.LVL66:
 367:Src/usbh_conf.c ****     break;
 368:Src/usbh_conf.c ****   }
 369:Src/usbh_conf.c ****   return  speed;
 715              		.loc 1 369 3 is_stmt 1 view .LVU159
 370:Src/usbh_conf.c **** }
 716              		.loc 1 370 1 is_stmt 0 view .LVU160
 717 0016 08BD     		pop	{r3, pc}
 718              	.LVL67:
 719              	.L62:
 358:Src/usbh_conf.c ****     break;
 720              		.loc 1 358 11 view .LVU161
 721 0018 0120     		movs	r0, #1
 722 001a FCE7     		b	.L61
 723              	.L63:
 362:Src/usbh_conf.c ****     break;
 724              		.loc 1 362 11 view .LVU162
 725 001c 0220     		movs	r0, #2
 726 001e FAE7     		b	.L61
 727              		.cfi_endproc
 728              	.LFE155:
 730              		.section	.text.USBH_LL_ResetPort,"ax",%progbits
 731              		.align	1
 732              		.global	USBH_LL_ResetPort
 733              		.syntax unified
 734              		.thumb
 735              		.thumb_func
 736              		.fpu fpv5-sp-d16
 738              	USBH_LL_ResetPort:
 739              	.LVL68:
 740              	.LFB156:
 371:Src/usbh_conf.c **** 
 372:Src/usbh_conf.c **** /**
 373:Src/usbh_conf.c ****   * @brief  Reset the Host port of the low level driver.
 374:Src/usbh_conf.c ****   * @param  phost: Host handle
 375:Src/usbh_conf.c ****   * @retval USBH status
 376:Src/usbh_conf.c ****   */
 377:Src/usbh_conf.c **** USBH_StatusTypeDef USBH_LL_ResetPort(USBH_HandleTypeDef *phost)
 378:Src/usbh_conf.c **** {
 741              		.loc 1 378 1 is_stmt 1 view -0
 742              		.cfi_startproc
 743              		@ args = 0, pretend = 0, frame = 0
 744              		@ frame_needed = 0, uses_anonymous_args = 0
 745              		.loc 1 378 1 is_stmt 0 view .LVU164
 746 0000 08B5     		push	{r3, lr}
 747              	.LCFI15:
 748              		.cfi_def_cfa_offset 8
 749              		.cfi_offset 3, -8
ARM GAS  C:\Users\Nina\AppData\Local\Temp\cclJmOHv.s 			page 21


 750              		.cfi_offset 14, -4
 379:Src/usbh_conf.c ****   HAL_StatusTypeDef hal_status = HAL_OK;
 751              		.loc 1 379 3 is_stmt 1 view .LVU165
 752              	.LVL69:
 380:Src/usbh_conf.c ****   USBH_StatusTypeDef usb_status = USBH_OK;
 753              		.loc 1 380 3 view .LVU166
 381:Src/usbh_conf.c **** 
 382:Src/usbh_conf.c ****   hal_status = HAL_HCD_ResetPort(phost->pData);
 754              		.loc 1 382 3 view .LVU167
 755              		.loc 1 382 16 is_stmt 0 view .LVU168
 756 0002 D0F8C403 		ldr	r0, [r0, #964]
 757              	.LVL70:
 758              		.loc 1 382 16 view .LVU169
 759 0006 FFF7FEFF 		bl	HAL_HCD_ResetPort
 760              	.LVL71:
 383:Src/usbh_conf.c ****   switch (hal_status) {
 761              		.loc 1 383 3 is_stmt 1 view .LVU170
 762 000a 0228     		cmp	r0, #2
 763 000c 05D8     		bhi	.L71
 764 000e DFE800F0 		tbb	[pc, r0]
 765              	.L69:
 766 0012 05       		.byte	(.L67-.L69)/2
 767 0013 04       		.byte	(.L71-.L69)/2
 768 0014 02       		.byte	(.L68-.L69)/2
 769 0015 00       		.p2align 1
 770              	.L68:
 384:Src/usbh_conf.c ****     case HAL_OK :
 385:Src/usbh_conf.c ****       usb_status = USBH_OK;
 386:Src/usbh_conf.c ****     break;
 387:Src/usbh_conf.c ****     case HAL_ERROR :
 388:Src/usbh_conf.c ****       usb_status = USBH_FAIL;
 389:Src/usbh_conf.c ****     break;
 390:Src/usbh_conf.c ****     case HAL_BUSY :
 391:Src/usbh_conf.c ****       usb_status = USBH_BUSY;
 771              		.loc 1 391 7 view .LVU171
 772              	.LVL72:
 392:Src/usbh_conf.c ****     break;
 773              		.loc 1 392 5 view .LVU172
 391:Src/usbh_conf.c ****     break;
 774              		.loc 1 391 18 is_stmt 0 view .LVU173
 775 0016 0120     		movs	r0, #1
 776              	.LVL73:
 777              		.loc 1 392 5 view .LVU174
 778 0018 00E0     		b	.L67
 779              	.LVL74:
 780              	.L71:
 388:Src/usbh_conf.c ****     break;
 781              		.loc 1 388 18 view .LVU175
 782 001a 0220     		movs	r0, #2
 783              	.LVL75:
 784              	.L67:
 393:Src/usbh_conf.c ****     case HAL_TIMEOUT :
 394:Src/usbh_conf.c ****       usb_status = USBH_FAIL;
 395:Src/usbh_conf.c ****     break;
 396:Src/usbh_conf.c ****     default :
 397:Src/usbh_conf.c ****       usb_status = USBH_FAIL;
 398:Src/usbh_conf.c ****     break;
ARM GAS  C:\Users\Nina\AppData\Local\Temp\cclJmOHv.s 			page 22


 399:Src/usbh_conf.c ****   }
 400:Src/usbh_conf.c ****   return usb_status;
 785              		.loc 1 400 3 is_stmt 1 view .LVU176
 401:Src/usbh_conf.c **** }
 786              		.loc 1 401 1 is_stmt 0 view .LVU177
 787 001c 08BD     		pop	{r3, pc}
 788              		.cfi_endproc
 789              	.LFE156:
 791              		.section	.text.USBH_LL_GetLastXferSize,"ax",%progbits
 792              		.align	1
 793              		.global	USBH_LL_GetLastXferSize
 794              		.syntax unified
 795              		.thumb
 796              		.thumb_func
 797              		.fpu fpv5-sp-d16
 799              	USBH_LL_GetLastXferSize:
 800              	.LVL76:
 801              	.LFB157:
 402:Src/usbh_conf.c **** 
 403:Src/usbh_conf.c **** /**
 404:Src/usbh_conf.c ****   * @brief  Return the last transfered packet size.
 405:Src/usbh_conf.c ****   * @param  phost: Host handle
 406:Src/usbh_conf.c ****   * @param  pipe: Pipe index
 407:Src/usbh_conf.c ****   * @retval Packet size
 408:Src/usbh_conf.c ****   */
 409:Src/usbh_conf.c **** uint32_t USBH_LL_GetLastXferSize(USBH_HandleTypeDef *phost, uint8_t pipe)
 410:Src/usbh_conf.c **** {
 802              		.loc 1 410 1 is_stmt 1 view -0
 803              		.cfi_startproc
 804              		@ args = 0, pretend = 0, frame = 0
 805              		@ frame_needed = 0, uses_anonymous_args = 0
 806              		.loc 1 410 1 is_stmt 0 view .LVU179
 807 0000 08B5     		push	{r3, lr}
 808              	.LCFI16:
 809              		.cfi_def_cfa_offset 8
 810              		.cfi_offset 3, -8
 811              		.cfi_offset 14, -4
 411:Src/usbh_conf.c ****   return HAL_HCD_HC_GetXferCount(phost->pData, pipe);
 812              		.loc 1 411 3 is_stmt 1 view .LVU180
 813              		.loc 1 411 10 is_stmt 0 view .LVU181
 814 0002 D0F8C403 		ldr	r0, [r0, #964]
 815              	.LVL77:
 816              		.loc 1 411 10 view .LVU182
 817 0006 FFF7FEFF 		bl	HAL_HCD_HC_GetXferCount
 818              	.LVL78:
 412:Src/usbh_conf.c **** }
 819              		.loc 1 412 1 view .LVU183
 820 000a 08BD     		pop	{r3, pc}
 821              		.cfi_endproc
 822              	.LFE157:
 824              		.section	.text.USBH_LL_OpenPipe,"ax",%progbits
 825              		.align	1
 826              		.global	USBH_LL_OpenPipe
 827              		.syntax unified
 828              		.thumb
 829              		.thumb_func
 830              		.fpu fpv5-sp-d16
ARM GAS  C:\Users\Nina\AppData\Local\Temp\cclJmOHv.s 			page 23


 832              	USBH_LL_OpenPipe:
 833              	.LVL79:
 834              	.LFB158:
 413:Src/usbh_conf.c **** 
 414:Src/usbh_conf.c **** /**
 415:Src/usbh_conf.c ****   * @brief  Open a pipe of the low level driver.
 416:Src/usbh_conf.c ****   * @param  phost: Host handle
 417:Src/usbh_conf.c ****   * @param  pipe_num: Pipe index
 418:Src/usbh_conf.c ****   * @param  epnum: Endpoint number
 419:Src/usbh_conf.c ****   * @param  dev_address: Device USB address
 420:Src/usbh_conf.c ****   * @param  speed: Device Speed
 421:Src/usbh_conf.c ****   * @param  ep_type: Endpoint type
 422:Src/usbh_conf.c ****   * @param  mps: Endpoint max packet size
 423:Src/usbh_conf.c ****   * @retval USBH status
 424:Src/usbh_conf.c ****   */
 425:Src/usbh_conf.c **** USBH_StatusTypeDef USBH_LL_OpenPipe(USBH_HandleTypeDef *phost, uint8_t pipe_num, uint8_t epnum,
 426:Src/usbh_conf.c ****                                     uint8_t dev_address, uint8_t speed, uint8_t ep_type, uint16_t m
 427:Src/usbh_conf.c **** {
 835              		.loc 1 427 1 is_stmt 1 view -0
 836              		.cfi_startproc
 837              		@ args = 12, pretend = 0, frame = 0
 838              		@ frame_needed = 0, uses_anonymous_args = 0
 839              		.loc 1 427 1 is_stmt 0 view .LVU185
 840 0000 10B5     		push	{r4, lr}
 841              	.LCFI17:
 842              		.cfi_def_cfa_offset 8
 843              		.cfi_offset 4, -8
 844              		.cfi_offset 14, -4
 845 0002 84B0     		sub	sp, sp, #16
 846              	.LCFI18:
 847              		.cfi_def_cfa_offset 24
 428:Src/usbh_conf.c ****   HAL_StatusTypeDef hal_status = HAL_OK;
 848              		.loc 1 428 3 is_stmt 1 view .LVU186
 849              	.LVL80:
 429:Src/usbh_conf.c ****   USBH_StatusTypeDef usb_status = USBH_OK;
 850              		.loc 1 429 3 view .LVU187
 430:Src/usbh_conf.c **** 
 431:Src/usbh_conf.c ****   hal_status = HAL_HCD_HC_Init(phost->pData, pipe_num, epnum,
 851              		.loc 1 431 3 view .LVU188
 852              		.loc 1 431 37 is_stmt 0 view .LVU189
 853 0004 D0F8C403 		ldr	r0, [r0, #964]
 854              	.LVL81:
 855              		.loc 1 431 16 view .LVU190
 856 0008 BDF82040 		ldrh	r4, [sp, #32]
 857 000c 0294     		str	r4, [sp, #8]
 858 000e 9DF81C40 		ldrb	r4, [sp, #28]	@ zero_extendqisi2
 859 0012 0194     		str	r4, [sp, #4]
 860 0014 9DF81840 		ldrb	r4, [sp, #24]	@ zero_extendqisi2
 861 0018 0094     		str	r4, [sp]
 862 001a FFF7FEFF 		bl	HAL_HCD_HC_Init
 863              	.LVL82:
 432:Src/usbh_conf.c ****                                dev_address, speed, ep_type, mps);
 433:Src/usbh_conf.c **** 
 434:Src/usbh_conf.c ****   switch (hal_status) {
 864              		.loc 1 434 3 is_stmt 1 view .LVU191
 865 001e 0228     		cmp	r0, #2
 866 0020 05D8     		bhi	.L80
ARM GAS  C:\Users\Nina\AppData\Local\Temp\cclJmOHv.s 			page 24


 867 0022 DFE800F0 		tbb	[pc, r0]
 868              	.L78:
 869 0026 05       		.byte	(.L76-.L78)/2
 870 0027 04       		.byte	(.L80-.L78)/2
 871 0028 02       		.byte	(.L77-.L78)/2
 872 0029 00       		.p2align 1
 873              	.L77:
 435:Src/usbh_conf.c ****     case HAL_OK :
 436:Src/usbh_conf.c ****       usb_status = USBH_OK;
 437:Src/usbh_conf.c ****     break;
 438:Src/usbh_conf.c ****     case HAL_ERROR :
 439:Src/usbh_conf.c ****       usb_status = USBH_FAIL;
 440:Src/usbh_conf.c ****     break;
 441:Src/usbh_conf.c ****     case HAL_BUSY :
 442:Src/usbh_conf.c ****       usb_status = USBH_BUSY;
 874              		.loc 1 442 7 view .LVU192
 875              	.LVL83:
 443:Src/usbh_conf.c ****     break;
 876              		.loc 1 443 5 view .LVU193
 442:Src/usbh_conf.c ****     break;
 877              		.loc 1 442 18 is_stmt 0 view .LVU194
 878 002a 0120     		movs	r0, #1
 879              	.LVL84:
 880              		.loc 1 443 5 view .LVU195
 881 002c 00E0     		b	.L76
 882              	.LVL85:
 883              	.L80:
 439:Src/usbh_conf.c ****     break;
 884              		.loc 1 439 18 view .LVU196
 885 002e 0220     		movs	r0, #2
 886              	.LVL86:
 887              	.L76:
 444:Src/usbh_conf.c ****     case HAL_TIMEOUT :
 445:Src/usbh_conf.c ****       usb_status = USBH_FAIL;
 446:Src/usbh_conf.c ****     break;
 447:Src/usbh_conf.c ****     default :
 448:Src/usbh_conf.c ****       usb_status = USBH_FAIL;
 449:Src/usbh_conf.c ****     break;
 450:Src/usbh_conf.c ****   }
 451:Src/usbh_conf.c ****   return usb_status;
 888              		.loc 1 451 3 is_stmt 1 view .LVU197
 452:Src/usbh_conf.c **** }
 889              		.loc 1 452 1 is_stmt 0 view .LVU198
 890 0030 04B0     		add	sp, sp, #16
 891              	.LCFI19:
 892              		.cfi_def_cfa_offset 8
 893              		@ sp needed
 894 0032 10BD     		pop	{r4, pc}
 895              		.loc 1 452 1 view .LVU199
 896              		.cfi_endproc
 897              	.LFE158:
 899              		.section	.text.USBH_LL_ClosePipe,"ax",%progbits
 900              		.align	1
 901              		.global	USBH_LL_ClosePipe
 902              		.syntax unified
 903              		.thumb
 904              		.thumb_func
ARM GAS  C:\Users\Nina\AppData\Local\Temp\cclJmOHv.s 			page 25


 905              		.fpu fpv5-sp-d16
 907              	USBH_LL_ClosePipe:
 908              	.LVL87:
 909              	.LFB159:
 453:Src/usbh_conf.c **** 
 454:Src/usbh_conf.c **** /**
 455:Src/usbh_conf.c ****   * @brief  Close a pipe of the low level driver.
 456:Src/usbh_conf.c ****   * @param  phost: Host handle
 457:Src/usbh_conf.c ****   * @param  pipe: Pipe index
 458:Src/usbh_conf.c ****   * @retval USBH status
 459:Src/usbh_conf.c ****   */
 460:Src/usbh_conf.c **** USBH_StatusTypeDef USBH_LL_ClosePipe(USBH_HandleTypeDef *phost, uint8_t pipe)
 461:Src/usbh_conf.c **** {
 910              		.loc 1 461 1 is_stmt 1 view -0
 911              		.cfi_startproc
 912              		@ args = 0, pretend = 0, frame = 0
 913              		@ frame_needed = 0, uses_anonymous_args = 0
 914              		.loc 1 461 1 is_stmt 0 view .LVU201
 915 0000 08B5     		push	{r3, lr}
 916              	.LCFI20:
 917              		.cfi_def_cfa_offset 8
 918              		.cfi_offset 3, -8
 919              		.cfi_offset 14, -4
 462:Src/usbh_conf.c ****   HAL_StatusTypeDef hal_status = HAL_OK;
 920              		.loc 1 462 3 is_stmt 1 view .LVU202
 921              	.LVL88:
 463:Src/usbh_conf.c ****   USBH_StatusTypeDef usb_status = USBH_OK;
 922              		.loc 1 463 3 view .LVU203
 464:Src/usbh_conf.c **** 
 465:Src/usbh_conf.c ****   hal_status = HAL_HCD_HC_Halt(phost->pData, pipe);
 923              		.loc 1 465 3 view .LVU204
 924              		.loc 1 465 16 is_stmt 0 view .LVU205
 925 0002 D0F8C403 		ldr	r0, [r0, #964]
 926              	.LVL89:
 927              		.loc 1 465 16 view .LVU206
 928 0006 FFF7FEFF 		bl	HAL_HCD_HC_Halt
 929              	.LVL90:
 466:Src/usbh_conf.c **** 
 467:Src/usbh_conf.c ****   switch (hal_status) {
 930              		.loc 1 467 3 is_stmt 1 view .LVU207
 931 000a 0228     		cmp	r0, #2
 932 000c 05D8     		bhi	.L87
 933 000e DFE800F0 		tbb	[pc, r0]
 934              	.L85:
 935 0012 05       		.byte	(.L83-.L85)/2
 936 0013 04       		.byte	(.L87-.L85)/2
 937 0014 02       		.byte	(.L84-.L85)/2
 938 0015 00       		.p2align 1
 939              	.L84:
 468:Src/usbh_conf.c ****     case HAL_OK :
 469:Src/usbh_conf.c ****       usb_status = USBH_OK;
 470:Src/usbh_conf.c ****     break;
 471:Src/usbh_conf.c ****     case HAL_ERROR :
 472:Src/usbh_conf.c ****       usb_status = USBH_FAIL;
 473:Src/usbh_conf.c ****     break;
 474:Src/usbh_conf.c ****     case HAL_BUSY :
 475:Src/usbh_conf.c ****       usb_status = USBH_BUSY;
ARM GAS  C:\Users\Nina\AppData\Local\Temp\cclJmOHv.s 			page 26


 940              		.loc 1 475 7 view .LVU208
 941              	.LVL91:
 476:Src/usbh_conf.c ****     break;
 942              		.loc 1 476 5 view .LVU209
 475:Src/usbh_conf.c ****     break;
 943              		.loc 1 475 18 is_stmt 0 view .LVU210
 944 0016 0120     		movs	r0, #1
 945              	.LVL92:
 946              		.loc 1 476 5 view .LVU211
 947 0018 00E0     		b	.L83
 948              	.LVL93:
 949              	.L87:
 472:Src/usbh_conf.c ****     break;
 950              		.loc 1 472 18 view .LVU212
 951 001a 0220     		movs	r0, #2
 952              	.LVL94:
 953              	.L83:
 477:Src/usbh_conf.c ****     case HAL_TIMEOUT :
 478:Src/usbh_conf.c ****       usb_status = USBH_FAIL;
 479:Src/usbh_conf.c ****     break;
 480:Src/usbh_conf.c ****     default :
 481:Src/usbh_conf.c ****       usb_status = USBH_FAIL;
 482:Src/usbh_conf.c ****     break;
 483:Src/usbh_conf.c ****   }
 484:Src/usbh_conf.c ****   return usb_status;
 954              		.loc 1 484 3 is_stmt 1 view .LVU213
 485:Src/usbh_conf.c **** }
 955              		.loc 1 485 1 is_stmt 0 view .LVU214
 956 001c 08BD     		pop	{r3, pc}
 957              		.cfi_endproc
 958              	.LFE159:
 960              		.section	.text.USBH_LL_SubmitURB,"ax",%progbits
 961              		.align	1
 962              		.global	USBH_LL_SubmitURB
 963              		.syntax unified
 964              		.thumb
 965              		.thumb_func
 966              		.fpu fpv5-sp-d16
 968              	USBH_LL_SubmitURB:
 969              	.LVL95:
 970              	.LFB160:
 486:Src/usbh_conf.c **** 
 487:Src/usbh_conf.c **** /**
 488:Src/usbh_conf.c ****   * @brief  Submit a new URB to the low level driver.
 489:Src/usbh_conf.c ****   * @param  phost: Host handle
 490:Src/usbh_conf.c ****   * @param  pipe: Pipe index
 491:Src/usbh_conf.c ****   *         This parameter can be a value from 1 to 15
 492:Src/usbh_conf.c ****   * @param  direction : Channel number
 493:Src/usbh_conf.c ****   *          This parameter can be one of the these values:
 494:Src/usbh_conf.c ****   *           0 : Output
 495:Src/usbh_conf.c ****   *           1 : Input
 496:Src/usbh_conf.c ****   * @param  ep_type : Endpoint Type
 497:Src/usbh_conf.c ****   *          This parameter can be one of the these values:
 498:Src/usbh_conf.c ****   *            @arg EP_TYPE_CTRL: Control type
 499:Src/usbh_conf.c ****   *            @arg EP_TYPE_ISOC: Isochrounous type
 500:Src/usbh_conf.c ****   *            @arg EP_TYPE_BULK: Bulk type
 501:Src/usbh_conf.c ****   *            @arg EP_TYPE_INTR: Interrupt type
ARM GAS  C:\Users\Nina\AppData\Local\Temp\cclJmOHv.s 			page 27


 502:Src/usbh_conf.c ****   * @param  token : Endpoint Type
 503:Src/usbh_conf.c ****   *          This parameter can be one of the these values:
 504:Src/usbh_conf.c ****   *            @arg 0: PID_SETUP
 505:Src/usbh_conf.c ****   *            @arg 1: PID_DATA
 506:Src/usbh_conf.c ****   * @param  pbuff : pointer to URB data
 507:Src/usbh_conf.c ****   * @param  length : Length of URB data
 508:Src/usbh_conf.c ****   * @param  do_ping : activate do ping protocol (for high speed only)
 509:Src/usbh_conf.c ****   *          This parameter can be one of the these values:
 510:Src/usbh_conf.c ****   *           0 : do ping inactive
 511:Src/usbh_conf.c ****   *           1 : do ping active
 512:Src/usbh_conf.c ****   * @retval Status
 513:Src/usbh_conf.c ****   */
 514:Src/usbh_conf.c **** USBH_StatusTypeDef USBH_LL_SubmitURB(USBH_HandleTypeDef *phost, uint8_t pipe, uint8_t direction,
 515:Src/usbh_conf.c ****                                      uint8_t ep_type, uint8_t token, uint8_t *pbuff, uint16_t lengt
 516:Src/usbh_conf.c ****                                      uint8_t do_ping)
 517:Src/usbh_conf.c **** {
 971              		.loc 1 517 1 is_stmt 1 view -0
 972              		.cfi_startproc
 973              		@ args = 16, pretend = 0, frame = 0
 974              		@ frame_needed = 0, uses_anonymous_args = 0
 975              		.loc 1 517 1 is_stmt 0 view .LVU216
 976 0000 10B5     		push	{r4, lr}
 977              	.LCFI21:
 978              		.cfi_def_cfa_offset 8
 979              		.cfi_offset 4, -8
 980              		.cfi_offset 14, -4
 981 0002 84B0     		sub	sp, sp, #16
 982              	.LCFI22:
 983              		.cfi_def_cfa_offset 24
 518:Src/usbh_conf.c ****   HAL_StatusTypeDef hal_status = HAL_OK;
 984              		.loc 1 518 3 is_stmt 1 view .LVU217
 985              	.LVL96:
 519:Src/usbh_conf.c ****   USBH_StatusTypeDef usb_status = USBH_OK;
 986              		.loc 1 519 3 view .LVU218
 520:Src/usbh_conf.c **** 
 521:Src/usbh_conf.c ****   hal_status = HAL_HCD_HC_SubmitRequest(phost->pData, pipe, direction ,
 987              		.loc 1 521 3 view .LVU219
 988              		.loc 1 521 46 is_stmt 0 view .LVU220
 989 0004 D0F8C403 		ldr	r0, [r0, #964]
 990              	.LVL97:
 991              		.loc 1 521 16 view .LVU221
 992 0008 9DF82440 		ldrb	r4, [sp, #36]	@ zero_extendqisi2
 993 000c 0394     		str	r4, [sp, #12]
 994 000e BDF82040 		ldrh	r4, [sp, #32]
 995 0012 0294     		str	r4, [sp, #8]
 996 0014 079C     		ldr	r4, [sp, #28]
 997 0016 0194     		str	r4, [sp, #4]
 998 0018 9DF81840 		ldrb	r4, [sp, #24]	@ zero_extendqisi2
 999 001c 0094     		str	r4, [sp]
 1000 001e FFF7FEFF 		bl	HAL_HCD_HC_SubmitRequest
 1001              	.LVL98:
 522:Src/usbh_conf.c ****                                         ep_type, token, pbuff, length,
 523:Src/usbh_conf.c ****                                         do_ping);
 524:Src/usbh_conf.c **** 
 525:Src/usbh_conf.c ****   switch (hal_status) {
 1002              		.loc 1 525 3 is_stmt 1 view .LVU222
 1003 0022 0228     		cmp	r0, #2
ARM GAS  C:\Users\Nina\AppData\Local\Temp\cclJmOHv.s 			page 28


 1004 0024 05D8     		bhi	.L94
 1005 0026 DFE800F0 		tbb	[pc, r0]
 1006              	.L92:
 1007 002a 05       		.byte	(.L90-.L92)/2
 1008 002b 04       		.byte	(.L94-.L92)/2
 1009 002c 02       		.byte	(.L91-.L92)/2
 1010 002d 00       		.p2align 1
 1011              	.L91:
 526:Src/usbh_conf.c ****     case HAL_OK :
 527:Src/usbh_conf.c ****       usb_status = USBH_OK;
 528:Src/usbh_conf.c ****     break;
 529:Src/usbh_conf.c ****     case HAL_ERROR :
 530:Src/usbh_conf.c ****       usb_status = USBH_FAIL;
 531:Src/usbh_conf.c ****     break;
 532:Src/usbh_conf.c ****     case HAL_BUSY :
 533:Src/usbh_conf.c ****       usb_status = USBH_BUSY;
 1012              		.loc 1 533 7 view .LVU223
 1013              	.LVL99:
 534:Src/usbh_conf.c ****     break;
 1014              		.loc 1 534 5 view .LVU224
 533:Src/usbh_conf.c ****     break;
 1015              		.loc 1 533 18 is_stmt 0 view .LVU225
 1016 002e 0120     		movs	r0, #1
 1017              	.LVL100:
 1018              		.loc 1 534 5 view .LVU226
 1019 0030 00E0     		b	.L90
 1020              	.LVL101:
 1021              	.L94:
 530:Src/usbh_conf.c ****     break;
 1022              		.loc 1 530 18 view .LVU227
 1023 0032 0220     		movs	r0, #2
 1024              	.LVL102:
 1025              	.L90:
 535:Src/usbh_conf.c ****     case HAL_TIMEOUT :
 536:Src/usbh_conf.c ****       usb_status = USBH_FAIL;
 537:Src/usbh_conf.c ****     break;
 538:Src/usbh_conf.c ****     default :
 539:Src/usbh_conf.c ****       usb_status = USBH_FAIL;
 540:Src/usbh_conf.c ****     break;
 541:Src/usbh_conf.c ****   }
 542:Src/usbh_conf.c ****   return usb_status;
 1026              		.loc 1 542 3 is_stmt 1 view .LVU228
 543:Src/usbh_conf.c **** }
 1027              		.loc 1 543 1 is_stmt 0 view .LVU229
 1028 0034 04B0     		add	sp, sp, #16
 1029              	.LCFI23:
 1030              		.cfi_def_cfa_offset 8
 1031              		@ sp needed
 1032 0036 10BD     		pop	{r4, pc}
 1033              		.loc 1 543 1 view .LVU230
 1034              		.cfi_endproc
 1035              	.LFE160:
 1037              		.section	.text.USBH_LL_GetURBState,"ax",%progbits
 1038              		.align	1
 1039              		.global	USBH_LL_GetURBState
 1040              		.syntax unified
 1041              		.thumb
ARM GAS  C:\Users\Nina\AppData\Local\Temp\cclJmOHv.s 			page 29


 1042              		.thumb_func
 1043              		.fpu fpv5-sp-d16
 1045              	USBH_LL_GetURBState:
 1046              	.LVL103:
 1047              	.LFB161:
 544:Src/usbh_conf.c **** 
 545:Src/usbh_conf.c **** /**
 546:Src/usbh_conf.c ****   * @brief  Get a URB state from the low level driver.
 547:Src/usbh_conf.c ****   * @param  phost: Host handle
 548:Src/usbh_conf.c ****   * @param  pipe: Pipe index
 549:Src/usbh_conf.c ****   *         This parameter can be a value from 1 to 15
 550:Src/usbh_conf.c ****   * @retval URB state
 551:Src/usbh_conf.c ****   *          This parameter can be one of the these values:
 552:Src/usbh_conf.c ****   *            @arg URB_IDLE
 553:Src/usbh_conf.c ****   *            @arg URB_DONE
 554:Src/usbh_conf.c ****   *            @arg URB_NOTREADY
 555:Src/usbh_conf.c ****   *            @arg URB_NYET
 556:Src/usbh_conf.c ****   *            @arg URB_ERROR
 557:Src/usbh_conf.c ****   *            @arg URB_STALL
 558:Src/usbh_conf.c ****   */
 559:Src/usbh_conf.c **** USBH_URBStateTypeDef USBH_LL_GetURBState(USBH_HandleTypeDef *phost, uint8_t pipe)
 560:Src/usbh_conf.c **** {
 1048              		.loc 1 560 1 is_stmt 1 view -0
 1049              		.cfi_startproc
 1050              		@ args = 0, pretend = 0, frame = 0
 1051              		@ frame_needed = 0, uses_anonymous_args = 0
 1052              		.loc 1 560 1 is_stmt 0 view .LVU232
 1053 0000 08B5     		push	{r3, lr}
 1054              	.LCFI24:
 1055              		.cfi_def_cfa_offset 8
 1056              		.cfi_offset 3, -8
 1057              		.cfi_offset 14, -4
 561:Src/usbh_conf.c ****   return (USBH_URBStateTypeDef)HAL_HCD_HC_GetURBState (phost->pData, pipe);
 1058              		.loc 1 561 3 is_stmt 1 view .LVU233
 1059              		.loc 1 561 32 is_stmt 0 view .LVU234
 1060 0002 D0F8C403 		ldr	r0, [r0, #964]
 1061              	.LVL104:
 1062              		.loc 1 561 32 view .LVU235
 1063 0006 FFF7FEFF 		bl	HAL_HCD_HC_GetURBState
 1064              	.LVL105:
 562:Src/usbh_conf.c **** }
 1065              		.loc 1 562 1 view .LVU236
 1066 000a 08BD     		pop	{r3, pc}
 1067              		.cfi_endproc
 1068              	.LFE161:
 1070              		.section	.text.USBH_LL_DriverVBUS,"ax",%progbits
 1071              		.align	1
 1072              		.global	USBH_LL_DriverVBUS
 1073              		.syntax unified
 1074              		.thumb
 1075              		.thumb_func
 1076              		.fpu fpv5-sp-d16
 1078              	USBH_LL_DriverVBUS:
 1079              	.LVL106:
 1080              	.LFB162:
 563:Src/usbh_conf.c **** 
 564:Src/usbh_conf.c **** /**
ARM GAS  C:\Users\Nina\AppData\Local\Temp\cclJmOHv.s 			page 30


 565:Src/usbh_conf.c ****   * @brief  Drive VBUS.
 566:Src/usbh_conf.c ****   * @param  phost: Host handle
 567:Src/usbh_conf.c ****   * @param  state : VBUS state
 568:Src/usbh_conf.c ****   *          This parameter can be one of the these values:
 569:Src/usbh_conf.c ****   *           0 : VBUS Active
 570:Src/usbh_conf.c ****   *           1 : VBUS Inactive
 571:Src/usbh_conf.c ****   * @retval Status
 572:Src/usbh_conf.c ****   */
 573:Src/usbh_conf.c **** USBH_StatusTypeDef USBH_LL_DriverVBUS(USBH_HandleTypeDef *phost, uint8_t state)
 574:Src/usbh_conf.c **** {
 1081              		.loc 1 574 1 is_stmt 1 view -0
 1082              		.cfi_startproc
 1083              		@ args = 0, pretend = 0, frame = 0
 1084              		@ frame_needed = 0, uses_anonymous_args = 0
 1085              		.loc 1 574 1 is_stmt 0 view .LVU238
 1086 0000 08B5     		push	{r3, lr}
 1087              	.LCFI25:
 1088              		.cfi_def_cfa_offset 8
 1089              		.cfi_offset 3, -8
 1090              		.cfi_offset 14, -4
 575:Src/usbh_conf.c ****   if (phost->id == HOST_FS) {
 1091              		.loc 1 575 3 is_stmt 1 view .LVU239
 1092              		.loc 1 575 12 is_stmt 0 view .LVU240
 1093 0002 90F8C033 		ldrb	r3, [r0, #960]	@ zero_extendqisi2
 1094              		.loc 1 575 6 view .LVU241
 1095 0006 012B     		cmp	r3, #1
 1096 0008 04D0     		beq	.L101
 1097              	.LVL107:
 1098              	.L99:
 576:Src/usbh_conf.c ****     MX_DriverVbusFS(state);
 577:Src/usbh_conf.c ****   }
 578:Src/usbh_conf.c **** 
 579:Src/usbh_conf.c ****   /* USER CODE BEGIN 0 */
 580:Src/usbh_conf.c **** 
 581:Src/usbh_conf.c ****   /* USER CODE END 0*/
 582:Src/usbh_conf.c **** 
 583:Src/usbh_conf.c ****   HAL_Delay(200);
 1099              		.loc 1 583 3 is_stmt 1 view .LVU242
 1100 000a C820     		movs	r0, #200
 1101 000c FFF7FEFF 		bl	HAL_Delay
 1102              	.LVL108:
 584:Src/usbh_conf.c ****   return USBH_OK;
 1103              		.loc 1 584 3 view .LVU243
 585:Src/usbh_conf.c **** }
 1104              		.loc 1 585 1 is_stmt 0 view .LVU244
 1105 0010 0020     		movs	r0, #0
 1106 0012 08BD     		pop	{r3, pc}
 1107              	.LVL109:
 1108              	.L101:
 576:Src/usbh_conf.c ****     MX_DriverVbusFS(state);
 1109              		.loc 1 576 5 is_stmt 1 view .LVU245
 1110 0014 0846     		mov	r0, r1
 1111              	.LVL110:
 576:Src/usbh_conf.c ****     MX_DriverVbusFS(state);
 1112              		.loc 1 576 5 is_stmt 0 view .LVU246
 1113 0016 FFF7FEFF 		bl	MX_DriverVbusFS
 1114              	.LVL111:
ARM GAS  C:\Users\Nina\AppData\Local\Temp\cclJmOHv.s 			page 31


 576:Src/usbh_conf.c ****     MX_DriverVbusFS(state);
 1115              		.loc 1 576 5 view .LVU247
 1116 001a F6E7     		b	.L99
 1117              		.cfi_endproc
 1118              	.LFE162:
 1120              		.section	.text.USBH_LL_SetToggle,"ax",%progbits
 1121              		.align	1
 1122              		.global	USBH_LL_SetToggle
 1123              		.syntax unified
 1124              		.thumb
 1125              		.thumb_func
 1126              		.fpu fpv5-sp-d16
 1128              	USBH_LL_SetToggle:
 1129              	.LVL112:
 1130              	.LFB163:
 586:Src/usbh_conf.c **** 
 587:Src/usbh_conf.c **** /**
 588:Src/usbh_conf.c ****   * @brief  Set toggle for a pipe.
 589:Src/usbh_conf.c ****   * @param  phost: Host handle
 590:Src/usbh_conf.c ****   * @param  pipe: Pipe index
 591:Src/usbh_conf.c ****   * @param  toggle: toggle (0/1)
 592:Src/usbh_conf.c ****   * @retval Status
 593:Src/usbh_conf.c ****   */
 594:Src/usbh_conf.c **** USBH_StatusTypeDef USBH_LL_SetToggle(USBH_HandleTypeDef *phost, uint8_t pipe, uint8_t toggle)
 595:Src/usbh_conf.c **** {
 1131              		.loc 1 595 1 is_stmt 1 view -0
 1132              		.cfi_startproc
 1133              		@ args = 0, pretend = 0, frame = 0
 1134              		@ frame_needed = 0, uses_anonymous_args = 0
 1135              		@ link register save eliminated.
 596:Src/usbh_conf.c ****   HCD_HandleTypeDef *pHandle;
 1136              		.loc 1 596 3 view .LVU249
 597:Src/usbh_conf.c ****   pHandle = phost->pData;
 1137              		.loc 1 597 3 view .LVU250
 1138              		.loc 1 597 11 is_stmt 0 view .LVU251
 1139 0000 D0F8C433 		ldr	r3, [r0, #964]
 1140              	.LVL113:
 598:Src/usbh_conf.c **** 
 599:Src/usbh_conf.c ****   if(pHandle->hc[pipe].ep_is_in)
 1141              		.loc 1 599 3 is_stmt 1 view .LVU252
 1142              		.loc 1 599 23 is_stmt 0 view .LVU253
 1143 0004 01EB8100 		add	r0, r1, r1, lsl #2
 1144              	.LVL114:
 1145              		.loc 1 599 23 view .LVU254
 1146 0008 03EBC000 		add	r0, r3, r0, lsl #3
 1147 000c 90F83B00 		ldrb	r0, [r0, #59]	@ zero_extendqisi2
 1148              		.loc 1 599 5 view .LVU255
 1149 0010 38B1     		cbz	r0, .L103
 600:Src/usbh_conf.c ****   {
 601:Src/usbh_conf.c ****     pHandle->hc[pipe].toggle_in = toggle;
 1150              		.loc 1 601 5 is_stmt 1 view .LVU256
 1151              		.loc 1 601 33 is_stmt 0 view .LVU257
 1152 0012 01EB8101 		add	r1, r1, r1, lsl #2
 1153              	.LVL115:
 1154              		.loc 1 601 33 view .LVU258
 1155 0016 03EBC101 		add	r1, r3, r1, lsl #3
 1156 001a 81F85020 		strb	r2, [r1, #80]
ARM GAS  C:\Users\Nina\AppData\Local\Temp\cclJmOHv.s 			page 32


 1157              	.L104:
 602:Src/usbh_conf.c ****   }
 603:Src/usbh_conf.c ****   else
 604:Src/usbh_conf.c ****   {
 605:Src/usbh_conf.c ****     pHandle->hc[pipe].toggle_out = toggle;
 606:Src/usbh_conf.c ****   }
 607:Src/usbh_conf.c **** 
 608:Src/usbh_conf.c ****   return USBH_OK;
 1158              		.loc 1 608 3 is_stmt 1 view .LVU259
 609:Src/usbh_conf.c **** }
 1159              		.loc 1 609 1 is_stmt 0 view .LVU260
 1160 001e 0020     		movs	r0, #0
 1161 0020 7047     		bx	lr
 1162              	.LVL116:
 1163              	.L103:
 605:Src/usbh_conf.c ****   }
 1164              		.loc 1 605 5 is_stmt 1 view .LVU261
 605:Src/usbh_conf.c ****   }
 1165              		.loc 1 605 34 is_stmt 0 view .LVU262
 1166 0022 01EB8101 		add	r1, r1, r1, lsl #2
 1167              	.LVL117:
 605:Src/usbh_conf.c ****   }
 1168              		.loc 1 605 34 view .LVU263
 1169 0026 03EBC101 		add	r1, r3, r1, lsl #3
 1170 002a 81F85120 		strb	r2, [r1, #81]
 1171 002e F6E7     		b	.L104
 1172              		.cfi_endproc
 1173              	.LFE163:
 1175              		.section	.text.USBH_LL_GetToggle,"ax",%progbits
 1176              		.align	1
 1177              		.global	USBH_LL_GetToggle
 1178              		.syntax unified
 1179              		.thumb
 1180              		.thumb_func
 1181              		.fpu fpv5-sp-d16
 1183              	USBH_LL_GetToggle:
 1184              	.LVL118:
 1185              	.LFB164:
 610:Src/usbh_conf.c **** 
 611:Src/usbh_conf.c **** /**
 612:Src/usbh_conf.c ****   * @brief  Return the current toggle of a pipe.
 613:Src/usbh_conf.c ****   * @param  phost: Host handle
 614:Src/usbh_conf.c ****   * @param  pipe: Pipe index
 615:Src/usbh_conf.c ****   * @retval toggle (0/1)
 616:Src/usbh_conf.c ****   */
 617:Src/usbh_conf.c **** uint8_t USBH_LL_GetToggle(USBH_HandleTypeDef *phost, uint8_t pipe)
 618:Src/usbh_conf.c **** {
 1186              		.loc 1 618 1 is_stmt 1 view -0
 1187              		.cfi_startproc
 1188              		@ args = 0, pretend = 0, frame = 0
 1189              		@ frame_needed = 0, uses_anonymous_args = 0
 1190              		@ link register save eliminated.
 619:Src/usbh_conf.c ****   uint8_t toggle = 0;
 1191              		.loc 1 619 3 view .LVU265
 620:Src/usbh_conf.c ****   HCD_HandleTypeDef *pHandle;
 1192              		.loc 1 620 3 view .LVU266
 621:Src/usbh_conf.c ****   pHandle = phost->pData;
ARM GAS  C:\Users\Nina\AppData\Local\Temp\cclJmOHv.s 			page 33


 1193              		.loc 1 621 3 view .LVU267
 1194              		.loc 1 621 11 is_stmt 0 view .LVU268
 1195 0000 D0F8C433 		ldr	r3, [r0, #964]
 1196              	.LVL119:
 622:Src/usbh_conf.c **** 
 623:Src/usbh_conf.c ****   if(pHandle->hc[pipe].ep_is_in)
 1197              		.loc 1 623 3 is_stmt 1 view .LVU269
 1198              		.loc 1 623 23 is_stmt 0 view .LVU270
 1199 0004 01EB8102 		add	r2, r1, r1, lsl #2
 1200 0008 03EBC202 		add	r2, r3, r2, lsl #3
 1201 000c 92F83B20 		ldrb	r2, [r2, #59]	@ zero_extendqisi2
 1202              		.loc 1 623 5 view .LVU271
 1203 0010 32B1     		cbz	r2, .L106
 624:Src/usbh_conf.c ****   {
 625:Src/usbh_conf.c ****     toggle = pHandle->hc[pipe].toggle_in;
 1204              		.loc 1 625 5 is_stmt 1 view .LVU272
 1205              		.loc 1 625 12 is_stmt 0 view .LVU273
 1206 0012 01EB8101 		add	r1, r1, r1, lsl #2
 1207              	.LVL120:
 1208              		.loc 1 625 12 view .LVU274
 1209 0016 03EBC101 		add	r1, r3, r1, lsl #3
 1210 001a 91F85000 		ldrb	r0, [r1, #80]	@ zero_extendqisi2
 1211              	.LVL121:
 1212              		.loc 1 625 12 view .LVU275
 1213 001e 7047     		bx	lr
 1214              	.LVL122:
 1215              	.L106:
 626:Src/usbh_conf.c ****   }
 627:Src/usbh_conf.c ****   else
 628:Src/usbh_conf.c ****   {
 629:Src/usbh_conf.c ****     toggle = pHandle->hc[pipe].toggle_out;
 1216              		.loc 1 629 5 is_stmt 1 view .LVU276
 1217              		.loc 1 629 12 is_stmt 0 view .LVU277
 1218 0020 01EB8101 		add	r1, r1, r1, lsl #2
 1219              	.LVL123:
 1220              		.loc 1 629 12 view .LVU278
 1221 0024 03EBC101 		add	r1, r3, r1, lsl #3
 1222 0028 91F85100 		ldrb	r0, [r1, #81]	@ zero_extendqisi2
 1223              	.LVL124:
 630:Src/usbh_conf.c ****   }
 631:Src/usbh_conf.c ****   return toggle;
 1224              		.loc 1 631 3 is_stmt 1 view .LVU279
 632:Src/usbh_conf.c **** }
 1225              		.loc 1 632 1 is_stmt 0 view .LVU280
 1226 002c 7047     		bx	lr
 1227              		.cfi_endproc
 1228              	.LFE164:
 1230              		.section	.text.USBH_Delay,"ax",%progbits
 1231              		.align	1
 1232              		.global	USBH_Delay
 1233              		.syntax unified
 1234              		.thumb
 1235              		.thumb_func
 1236              		.fpu fpv5-sp-d16
 1238              	USBH_Delay:
 1239              	.LVL125:
 1240              	.LFB165:
ARM GAS  C:\Users\Nina\AppData\Local\Temp\cclJmOHv.s 			page 34


 633:Src/usbh_conf.c **** 
 634:Src/usbh_conf.c **** /**
 635:Src/usbh_conf.c ****   * @brief  Delay routine for the USB Host Library
 636:Src/usbh_conf.c ****   * @param  Delay: Delay in ms
 637:Src/usbh_conf.c ****   * @retval None
 638:Src/usbh_conf.c ****   */
 639:Src/usbh_conf.c **** void USBH_Delay(uint32_t Delay)
 640:Src/usbh_conf.c **** {
 1241              		.loc 1 640 1 is_stmt 1 view -0
 1242              		.cfi_startproc
 1243              		@ args = 0, pretend = 0, frame = 0
 1244              		@ frame_needed = 0, uses_anonymous_args = 0
 1245              		.loc 1 640 1 is_stmt 0 view .LVU282
 1246 0000 08B5     		push	{r3, lr}
 1247              	.LCFI26:
 1248              		.cfi_def_cfa_offset 8
 1249              		.cfi_offset 3, -8
 1250              		.cfi_offset 14, -4
 641:Src/usbh_conf.c ****   HAL_Delay(Delay);
 1251              		.loc 1 641 3 is_stmt 1 view .LVU283
 1252 0002 FFF7FEFF 		bl	HAL_Delay
 1253              	.LVL126:
 642:Src/usbh_conf.c **** }
 1254              		.loc 1 642 1 is_stmt 0 view .LVU284
 1255 0006 08BD     		pop	{r3, pc}
 1256              		.cfi_endproc
 1257              	.LFE165:
 1259              		.comm	hhcd_USB_OTG_FS,704,4
 1260              		.text
 1261              	.Letext0:
 1262              		.file 2 "c:\\program files (x86)\\gnu tools arm embedded\\9 2019-q4-major\\arm-none-eabi\\include\
 1263              		.file 3 "c:\\program files (x86)\\gnu tools arm embedded\\9 2019-q4-major\\arm-none-eabi\\include\
 1264              		.file 4 "c:\\program files (x86)\\gnu tools arm embedded\\9 2019-q4-major\\arm-none-eabi\\include\
 1265              		.file 5 "c:\\program files (x86)\\gnu tools arm embedded\\9 2019-q4-major\\lib\\gcc\\arm-none-eabi
 1266              		.file 6 "c:\\program files (x86)\\gnu tools arm embedded\\9 2019-q4-major\\arm-none-eabi\\include\
 1267              		.file 7 "c:\\program files (x86)\\gnu tools arm embedded\\9 2019-q4-major\\arm-none-eabi\\include\
 1268              		.file 8 "c:\\program files (x86)\\gnu tools arm embedded\\9 2019-q4-major\\arm-none-eabi\\include\
 1269              		.file 9 "Drivers/CMSIS/Include/core_cm7.h"
 1270              		.file 10 "Drivers/CMSIS/Device/ST/STM32F7xx/Include/system_stm32f7xx.h"
 1271              		.file 11 "Drivers/CMSIS/Device/ST/STM32F7xx/Include/stm32f746xx.h"
 1272              		.file 12 "Drivers/CMSIS/Device/ST/STM32F7xx/Include/stm32f7xx.h"
 1273              		.file 13 "Drivers/STM32F7xx_HAL_Driver/Inc/stm32f7xx_hal_def.h"
 1274              		.file 14 "Drivers/STM32F7xx_HAL_Driver/Inc/stm32f7xx_hal_gpio.h"
 1275              		.file 15 "Drivers/STM32F7xx_HAL_Driver/Inc/stm32f7xx_ll_usb.h"
 1276              		.file 16 "Drivers/STM32F7xx_HAL_Driver/Inc/stm32f7xx_hal_hcd.h"
 1277              		.file 17 "Middlewares/Third_Party/FreeRTOS/Source/include/task.h"
 1278              		.file 18 "Middlewares/Third_Party/FreeRTOS/Source/include/queue.h"
 1279              		.file 19 "Middlewares/Third_Party/FreeRTOS/Source/CMSIS_RTOS/cmsis_os.h"
 1280              		.file 20 "Middlewares/ST/STM32_USB_Host_Library/Core/Inc/usbh_def.h"
 1281              		.file 21 "Middlewares/ST/STM32_USB_Host_Library/Core/Inc/usbh_ctlreq.h"
 1282              		.file 22 "Drivers/STM32F7xx_HAL_Driver/Inc/stm32f7xx_hal.h"
 1283              		.file 23 "Inc/usbh_platform.h"
 1284              		.file 24 "Middlewares/ST/STM32_USB_Host_Library/Core/Inc/usbh_core.h"
 1285              		.file 25 "Drivers/STM32F7xx_HAL_Driver/Inc/stm32f7xx_hal_cortex.h"
ARM GAS  C:\Users\Nina\AppData\Local\Temp\cclJmOHv.s 			page 35

