ARM GAS  C:\Users\Nina\AppData\Local\Temp\ccPm7lRV.s 			page 1


   1              		.cpu cortex-m7
   2              		.eabi_attribute 27, 1
   3              		.eabi_attribute 28, 1
   4              		.eabi_attribute 20, 1
   5              		.eabi_attribute 21, 1
   6              		.eabi_attribute 23, 3
   7              		.eabi_attribute 24, 1
   8              		.eabi_attribute 25, 1
   9              		.eabi_attribute 26, 1
  10              		.eabi_attribute 30, 1
  11              		.eabi_attribute 34, 1
  12              		.eabi_attribute 18, 4
  13              		.file	"usbh_diskio.c"
  14              		.text
  15              	.Ltext0:
  16              		.cfi_sections	.debug_frame
  17              		.section	.text.USBH_initialize,"ax",%progbits
  18              		.align	1
  19              		.global	USBH_initialize
  20              		.arch armv7e-m
  21              		.syntax unified
  22              		.thumb
  23              		.thumb_func
  24              		.fpu fpv5-sp-d16
  26              	USBH_initialize:
  27              	.LVL0:
  28              	.LFB143:
  29              		.file 1 "Src/usbh_diskio.c"
   1:Src/usbh_diskio.c **** /**
   2:Src/usbh_diskio.c ****   ******************************************************************************
   3:Src/usbh_diskio.c ****   * @file    usbh_diskio.c (based on usbh_diskio_template.c v2.0.2)
   4:Src/usbh_diskio.c ****   * @brief   USB Host Disk I/O driver
   5:Src/usbh_diskio.c ****   ******************************************************************************
   6:Src/usbh_diskio.c ****   * This notice applies to any and all portions of this file
   7:Src/usbh_diskio.c ****   * that are not between comment pairs USER CODE BEGIN and
   8:Src/usbh_diskio.c ****   * USER CODE END. Other portions of this file, whether 
   9:Src/usbh_diskio.c ****   * inserted by the user or by software development tools
  10:Src/usbh_diskio.c ****   * are owned by their respective copyright owners.
  11:Src/usbh_diskio.c ****   *
  12:Src/usbh_diskio.c ****   * Copyright (c) 2018 STMicroelectronics International N.V. 
  13:Src/usbh_diskio.c ****   * All rights reserved.
  14:Src/usbh_diskio.c ****   *
  15:Src/usbh_diskio.c ****   * Redistribution and use in source and binary forms, with or without 
  16:Src/usbh_diskio.c ****   * modification, are permitted, provided that the following conditions are met:
  17:Src/usbh_diskio.c ****   *
  18:Src/usbh_diskio.c ****   * 1. Redistribution of source code must retain the above copyright notice, 
  19:Src/usbh_diskio.c ****   *    this list of conditions and the following disclaimer.
  20:Src/usbh_diskio.c ****   * 2. Redistributions in binary form must reproduce the above copyright notice,
  21:Src/usbh_diskio.c ****   *    this list of conditions and the following disclaimer in the documentation
  22:Src/usbh_diskio.c ****   *    and/or other materials provided with the distribution.
  23:Src/usbh_diskio.c ****   * 3. Neither the name of STMicroelectronics nor the names of other 
  24:Src/usbh_diskio.c ****   *    contributors to this software may be used to endorse or promote products 
  25:Src/usbh_diskio.c ****   *    derived from this software without specific written permission.
  26:Src/usbh_diskio.c ****   * 4. This software, including modifications and/or derivative works of this 
  27:Src/usbh_diskio.c ****   *    software, must execute solely and exclusively on microcontroller or
  28:Src/usbh_diskio.c ****   *    microprocessor devices manufactured by or for STMicroelectronics.
  29:Src/usbh_diskio.c ****   * 5. Redistribution and use of this software other than as permitted under 
ARM GAS  C:\Users\Nina\AppData\Local\Temp\ccPm7lRV.s 			page 2


  30:Src/usbh_diskio.c ****   *    this license is void and will automatically terminate your rights under 
  31:Src/usbh_diskio.c ****   *    this license. 
  32:Src/usbh_diskio.c ****   *
  33:Src/usbh_diskio.c ****   * THIS SOFTWARE IS PROVIDED BY STMICROELECTRONICS AND CONTRIBUTORS "AS IS" 
  34:Src/usbh_diskio.c ****   * AND ANY EXPRESS, IMPLIED OR STATUTORY WARRANTIES, INCLUDING, BUT NOT 
  35:Src/usbh_diskio.c ****   * LIMITED TO, THE IMPLIED WARRANTIES OF MERCHANTABILITY, FITNESS FOR A 
  36:Src/usbh_diskio.c ****   * PARTICULAR PURPOSE AND NON-INFRINGEMENT OF THIRD PARTY INTELLECTUAL PROPERTY
  37:Src/usbh_diskio.c ****   * RIGHTS ARE DISCLAIMED TO THE FULLEST EXTENT PERMITTED BY LAW. IN NO EVENT 
  38:Src/usbh_diskio.c ****   * SHALL STMICROELECTRONICS OR CONTRIBUTORS BE LIABLE FOR ANY DIRECT, INDIRECT,
  39:Src/usbh_diskio.c ****   * INCIDENTAL, SPECIAL, EXEMPLARY, OR CONSEQUENTIAL DAMAGES (INCLUDING, BUT NOT
  40:Src/usbh_diskio.c ****   * LIMITED TO, PROCUREMENT OF SUBSTITUTE GOODS OR SERVICES; LOSS OF USE, DATA, 
  41:Src/usbh_diskio.c ****   * OR PROFITS; OR BUSINESS INTERRUPTION) HOWEVER CAUSED AND ON ANY THEORY OF 
  42:Src/usbh_diskio.c ****   * LIABILITY, WHETHER IN CONTRACT, STRICT LIABILITY, OR TORT (INCLUDING 
  43:Src/usbh_diskio.c ****   * NEGLIGENCE OR OTHERWISE) ARISING IN ANY WAY OUT OF THE USE OF THIS SOFTWARE,
  44:Src/usbh_diskio.c ****   * EVEN IF ADVISED OF THE POSSIBILITY OF SUCH DAMAGE.
  45:Src/usbh_diskio.c ****   *
  46:Src/usbh_diskio.c ****   ******************************************************************************
  47:Src/usbh_diskio.c ****   */
  48:Src/usbh_diskio.c **** /* USER CODE BEGIN firstSection */ 
  49:Src/usbh_diskio.c **** /* can be used to modify / undefine following code or add new definitions */
  50:Src/usbh_diskio.c **** /* USER CODE END firstSection */ 
  51:Src/usbh_diskio.c **** 
  52:Src/usbh_diskio.c **** /* Includes ------------------------------------------------------------------*/
  53:Src/usbh_diskio.c **** #include "ff_gen_drv.h"
  54:Src/usbh_diskio.c **** #include "usbh_diskio.h"
  55:Src/usbh_diskio.c **** 
  56:Src/usbh_diskio.c **** /* Private typedef -----------------------------------------------------------*/
  57:Src/usbh_diskio.c **** /* Private define ------------------------------------------------------------*/
  58:Src/usbh_diskio.c **** 
  59:Src/usbh_diskio.c **** #define USB_DEFAULT_BLOCK_SIZE 512
  60:Src/usbh_diskio.c **** 
  61:Src/usbh_diskio.c **** /* Private variables ---------------------------------------------------------*/
  62:Src/usbh_diskio.c **** extern USBH_HandleTypeDef  hUSB_Host;
  63:Src/usbh_diskio.c **** 
  64:Src/usbh_diskio.c **** /* Private function prototypes -----------------------------------------------*/
  65:Src/usbh_diskio.c **** DSTATUS USBH_initialize (BYTE);
  66:Src/usbh_diskio.c **** DSTATUS USBH_status (BYTE);
  67:Src/usbh_diskio.c **** DRESULT USBH_read (BYTE, BYTE*, DWORD, UINT);
  68:Src/usbh_diskio.c **** 
  69:Src/usbh_diskio.c **** #if _USE_WRITE == 1
  70:Src/usbh_diskio.c ****   DRESULT USBH_write (BYTE, const BYTE*, DWORD, UINT);
  71:Src/usbh_diskio.c **** #endif /* _USE_WRITE == 1 */
  72:Src/usbh_diskio.c **** 
  73:Src/usbh_diskio.c **** #if _USE_IOCTL == 1
  74:Src/usbh_diskio.c ****   DRESULT USBH_ioctl (BYTE, BYTE, void*);
  75:Src/usbh_diskio.c **** #endif /* _USE_IOCTL == 1 */
  76:Src/usbh_diskio.c **** 
  77:Src/usbh_diskio.c **** const Diskio_drvTypeDef  USBH_Driver =
  78:Src/usbh_diskio.c **** {
  79:Src/usbh_diskio.c ****   USBH_initialize,
  80:Src/usbh_diskio.c ****   USBH_status,
  81:Src/usbh_diskio.c ****   USBH_read,
  82:Src/usbh_diskio.c **** #if  _USE_WRITE == 1
  83:Src/usbh_diskio.c ****   USBH_write,
  84:Src/usbh_diskio.c **** #endif /* _USE_WRITE == 1 */
  85:Src/usbh_diskio.c **** #if  _USE_IOCTL == 1
  86:Src/usbh_diskio.c ****   USBH_ioctl,
ARM GAS  C:\Users\Nina\AppData\Local\Temp\ccPm7lRV.s 			page 3


  87:Src/usbh_diskio.c **** #endif /* _USE_IOCTL == 1 */
  88:Src/usbh_diskio.c **** };
  89:Src/usbh_diskio.c **** 
  90:Src/usbh_diskio.c **** /* USER CODE BEGIN beforeFunctionSection */
  91:Src/usbh_diskio.c **** /* can be used to modify / undefine following code or add new code */
  92:Src/usbh_diskio.c **** /* USER CODE END beforeFunctionSection */
  93:Src/usbh_diskio.c **** 
  94:Src/usbh_diskio.c **** /* Private functions ---------------------------------------------------------*/
  95:Src/usbh_diskio.c **** 
  96:Src/usbh_diskio.c **** /**
  97:Src/usbh_diskio.c ****   * @brief  Initializes a Drive
  98:Src/usbh_diskio.c ****   * @param  lun : lun id
  99:Src/usbh_diskio.c ****   * @retval DSTATUS: Operation status
 100:Src/usbh_diskio.c ****   */
 101:Src/usbh_diskio.c **** DSTATUS USBH_initialize(BYTE lun)
 102:Src/usbh_diskio.c **** {
  30              		.loc 1 102 1 view -0
  31              		.cfi_startproc
  32              		@ args = 0, pretend = 0, frame = 0
  33              		@ frame_needed = 0, uses_anonymous_args = 0
  34              		@ link register save eliminated.
 103:Src/usbh_diskio.c ****   /* CAUTION : USB Host library has to be initialized in the application */
 104:Src/usbh_diskio.c **** 
 105:Src/usbh_diskio.c ****   return RES_OK;
  35              		.loc 1 105 3 view .LVU1
 106:Src/usbh_diskio.c **** }
  36              		.loc 1 106 1 is_stmt 0 view .LVU2
  37 0000 0020     		movs	r0, #0
  38              	.LVL1:
  39              		.loc 1 106 1 view .LVU3
  40 0002 7047     		bx	lr
  41              		.cfi_endproc
  42              	.LFE143:
  44              		.section	.text.USBH_status,"ax",%progbits
  45              		.align	1
  46              		.global	USBH_status
  47              		.syntax unified
  48              		.thumb
  49              		.thumb_func
  50              		.fpu fpv5-sp-d16
  52              	USBH_status:
  53              	.LVL2:
  54              	.LFB144:
 107:Src/usbh_diskio.c **** 
 108:Src/usbh_diskio.c **** /**
 109:Src/usbh_diskio.c ****   * @brief  Gets Disk Status
 110:Src/usbh_diskio.c ****   * @param  lun : lun id
 111:Src/usbh_diskio.c ****   * @retval DSTATUS: Operation status
 112:Src/usbh_diskio.c ****   */
 113:Src/usbh_diskio.c **** DSTATUS USBH_status(BYTE lun)
 114:Src/usbh_diskio.c **** {
  55              		.loc 1 114 1 is_stmt 1 view -0
  56              		.cfi_startproc
  57              		@ args = 0, pretend = 0, frame = 0
  58              		@ frame_needed = 0, uses_anonymous_args = 0
  59              		.loc 1 114 1 is_stmt 0 view .LVU5
  60 0000 08B5     		push	{r3, lr}
ARM GAS  C:\Users\Nina\AppData\Local\Temp\ccPm7lRV.s 			page 4


  61              	.LCFI0:
  62              		.cfi_def_cfa_offset 8
  63              		.cfi_offset 3, -8
  64              		.cfi_offset 14, -4
  65 0002 0146     		mov	r1, r0
 115:Src/usbh_diskio.c ****   DRESULT res = RES_ERROR;
  66              		.loc 1 115 3 is_stmt 1 view .LVU6
  67              	.LVL3:
 116:Src/usbh_diskio.c **** 
 117:Src/usbh_diskio.c ****   if(USBH_MSC_UnitIsReady(&hUSB_Host, lun))
  68              		.loc 1 117 3 view .LVU7
  69              		.loc 1 117 6 is_stmt 0 view .LVU8
  70 0004 0348     		ldr	r0, .L6
  71              	.LVL4:
  72              		.loc 1 117 6 view .LVU9
  73 0006 FFF7FEFF 		bl	USBH_MSC_UnitIsReady
  74              	.LVL5:
  75              		.loc 1 117 5 view .LVU10
  76 000a 08B1     		cbz	r0, .L4
 118:Src/usbh_diskio.c ****   {
 119:Src/usbh_diskio.c ****     res = RES_OK;
  77              		.loc 1 119 9 view .LVU11
  78 000c 0020     		movs	r0, #0
  79              	.L3:
  80              	.LVL6:
 120:Src/usbh_diskio.c ****   }
 121:Src/usbh_diskio.c ****   else
 122:Src/usbh_diskio.c ****   {
 123:Src/usbh_diskio.c ****     res = RES_ERROR;
 124:Src/usbh_diskio.c ****   }
 125:Src/usbh_diskio.c **** 
 126:Src/usbh_diskio.c ****   return res;
  81              		.loc 1 126 3 is_stmt 1 view .LVU12
 127:Src/usbh_diskio.c **** }
  82              		.loc 1 127 1 is_stmt 0 view .LVU13
  83 000e 08BD     		pop	{r3, pc}
  84              	.LVL7:
  85              	.L4:
 123:Src/usbh_diskio.c ****   }
  86              		.loc 1 123 9 view .LVU14
  87 0010 0120     		movs	r0, #1
  88 0012 FCE7     		b	.L3
  89              	.L7:
  90              		.align	2
  91              	.L6:
  92 0014 00000000 		.word	hUsbHostFS
  93              		.cfi_endproc
  94              	.LFE144:
  96              		.section	.text.USBH_ioctl,"ax",%progbits
  97              		.align	1
  98              		.global	USBH_ioctl
  99              		.syntax unified
 100              		.thumb
 101              		.thumb_func
 102              		.fpu fpv5-sp-d16
 104              	USBH_ioctl:
 105              	.LVL8:
ARM GAS  C:\Users\Nina\AppData\Local\Temp\ccPm7lRV.s 			page 5


 106              	.LFB147:
 128:Src/usbh_diskio.c **** 
 129:Src/usbh_diskio.c **** /* USER CODE BEGIN beforeReadSection */
 130:Src/usbh_diskio.c **** /* can be used to modify previous code / undefine following code / add new code */
 131:Src/usbh_diskio.c **** /* USER CODE END beforeReadSection */
 132:Src/usbh_diskio.c **** 
 133:Src/usbh_diskio.c **** /**
 134:Src/usbh_diskio.c ****   * @brief  Reads Sector(s)
 135:Src/usbh_diskio.c ****   * @param  lun : lun id
 136:Src/usbh_diskio.c ****   * @param  *buff: Data buffer to store read data
 137:Src/usbh_diskio.c ****   * @param  sector: Sector address (LBA)
 138:Src/usbh_diskio.c ****   * @param  count: Number of sectors to read (1..128)
 139:Src/usbh_diskio.c ****   * @retval DRESULT: Operation result
 140:Src/usbh_diskio.c ****   */
 141:Src/usbh_diskio.c **** DRESULT USBH_read(BYTE lun, BYTE *buff, DWORD sector, UINT count)
 142:Src/usbh_diskio.c **** {
 143:Src/usbh_diskio.c ****   DRESULT res = RES_ERROR;
 144:Src/usbh_diskio.c ****   MSC_LUNTypeDef info;
 145:Src/usbh_diskio.c **** 
 146:Src/usbh_diskio.c ****   if(USBH_MSC_Read(&hUSB_Host, lun, sector, buff, count) == USBH_OK)
 147:Src/usbh_diskio.c ****   {
 148:Src/usbh_diskio.c ****     res = RES_OK;
 149:Src/usbh_diskio.c ****   }
 150:Src/usbh_diskio.c ****   else
 151:Src/usbh_diskio.c ****   {
 152:Src/usbh_diskio.c ****     USBH_MSC_GetLUNInfo(&hUSB_Host, lun, &info);
 153:Src/usbh_diskio.c **** 
 154:Src/usbh_diskio.c ****     switch (info.sense.asc)
 155:Src/usbh_diskio.c ****     {
 156:Src/usbh_diskio.c ****     case SCSI_ASC_LOGICAL_UNIT_NOT_READY:
 157:Src/usbh_diskio.c ****     case SCSI_ASC_MEDIUM_NOT_PRESENT:
 158:Src/usbh_diskio.c ****     case SCSI_ASC_NOT_READY_TO_READY_CHANGE:
 159:Src/usbh_diskio.c ****       USBH_ErrLog ("USB Disk is not ready!");
 160:Src/usbh_diskio.c ****       res = RES_NOTRDY;
 161:Src/usbh_diskio.c ****       break; 
 162:Src/usbh_diskio.c **** 
 163:Src/usbh_diskio.c ****     default:
 164:Src/usbh_diskio.c ****       res = RES_ERROR;
 165:Src/usbh_diskio.c ****       break;
 166:Src/usbh_diskio.c ****     }
 167:Src/usbh_diskio.c ****   }
 168:Src/usbh_diskio.c **** 
 169:Src/usbh_diskio.c ****   return res;
 170:Src/usbh_diskio.c **** }
 171:Src/usbh_diskio.c **** 
 172:Src/usbh_diskio.c **** /* USER CODE BEGIN beforeWriteSection */
 173:Src/usbh_diskio.c **** /* can be used to modify previous code / undefine following code / add new code */
 174:Src/usbh_diskio.c **** /* USER CODE END beforeWriteSection */
 175:Src/usbh_diskio.c **** 
 176:Src/usbh_diskio.c **** /**
 177:Src/usbh_diskio.c ****   * @brief  Writes Sector(s)
 178:Src/usbh_diskio.c ****   * @param  lun : lun id
 179:Src/usbh_diskio.c ****   * @param  *buff: Data to be written
 180:Src/usbh_diskio.c ****   * @param  sector: Sector address (LBA)
 181:Src/usbh_diskio.c ****   * @param  count: Number of sectors to write (1..128)
 182:Src/usbh_diskio.c ****   * @retval DRESULT: Operation result
 183:Src/usbh_diskio.c ****   */
ARM GAS  C:\Users\Nina\AppData\Local\Temp\ccPm7lRV.s 			page 6


 184:Src/usbh_diskio.c **** #if _USE_WRITE == 1
 185:Src/usbh_diskio.c **** DRESULT USBH_write(BYTE lun, const BYTE *buff, DWORD sector, UINT count)
 186:Src/usbh_diskio.c **** {
 187:Src/usbh_diskio.c ****   DRESULT res = RES_ERROR;
 188:Src/usbh_diskio.c ****   MSC_LUNTypeDef info;
 189:Src/usbh_diskio.c **** 
 190:Src/usbh_diskio.c ****   if(USBH_MSC_Write(&hUSB_Host, lun, sector, (BYTE *)buff, count) == USBH_OK)
 191:Src/usbh_diskio.c ****   {
 192:Src/usbh_diskio.c ****     res = RES_OK;
 193:Src/usbh_diskio.c ****   }
 194:Src/usbh_diskio.c ****   else
 195:Src/usbh_diskio.c ****   {
 196:Src/usbh_diskio.c ****     USBH_MSC_GetLUNInfo(&hUSB_Host, lun, &info);
 197:Src/usbh_diskio.c **** 
 198:Src/usbh_diskio.c ****     switch (info.sense.asc)
 199:Src/usbh_diskio.c ****     {
 200:Src/usbh_diskio.c ****     case SCSI_ASC_WRITE_PROTECTED:
 201:Src/usbh_diskio.c ****       USBH_ErrLog("USB Disk is Write protected!");
 202:Src/usbh_diskio.c ****       res = RES_WRPRT;
 203:Src/usbh_diskio.c ****       break;
 204:Src/usbh_diskio.c **** 
 205:Src/usbh_diskio.c ****     case SCSI_ASC_LOGICAL_UNIT_NOT_READY:
 206:Src/usbh_diskio.c ****     case SCSI_ASC_MEDIUM_NOT_PRESENT:
 207:Src/usbh_diskio.c ****     case SCSI_ASC_NOT_READY_TO_READY_CHANGE:
 208:Src/usbh_diskio.c ****       USBH_ErrLog("USB Disk is not ready!");
 209:Src/usbh_diskio.c ****       res = RES_NOTRDY;
 210:Src/usbh_diskio.c ****       break;
 211:Src/usbh_diskio.c **** 
 212:Src/usbh_diskio.c ****     default:
 213:Src/usbh_diskio.c ****       res = RES_ERROR;
 214:Src/usbh_diskio.c ****       break;
 215:Src/usbh_diskio.c ****     }
 216:Src/usbh_diskio.c ****   }
 217:Src/usbh_diskio.c **** 
 218:Src/usbh_diskio.c ****   return res;
 219:Src/usbh_diskio.c **** }
 220:Src/usbh_diskio.c **** #endif /* _USE_WRITE == 1 */
 221:Src/usbh_diskio.c **** 
 222:Src/usbh_diskio.c **** /* USER CODE BEGIN beforeIoctlSection */
 223:Src/usbh_diskio.c **** /* can be used to modify previous code / undefine following code / add new code */
 224:Src/usbh_diskio.c **** /* USER CODE END beforeIoctlSection */
 225:Src/usbh_diskio.c **** 
 226:Src/usbh_diskio.c **** /**
 227:Src/usbh_diskio.c ****   * @brief  I/O control operation
 228:Src/usbh_diskio.c ****   * @param  lun : lun id
 229:Src/usbh_diskio.c ****   * @param  cmd: Control code
 230:Src/usbh_diskio.c ****   * @param  *buff: Buffer to send/receive control data
 231:Src/usbh_diskio.c ****   * @retval DRESULT: Operation result
 232:Src/usbh_diskio.c ****   */
 233:Src/usbh_diskio.c **** #if _USE_IOCTL == 1
 234:Src/usbh_diskio.c **** DRESULT USBH_ioctl(BYTE lun, BYTE cmd, void *buff)
 235:Src/usbh_diskio.c **** {
 107              		.loc 1 235 1 is_stmt 1 view -0
 108              		.cfi_startproc
 109              		@ args = 0, pretend = 0, frame = 56
 110              		@ frame_needed = 0, uses_anonymous_args = 0
 111              		.loc 1 235 1 is_stmt 0 view .LVU16
ARM GAS  C:\Users\Nina\AppData\Local\Temp\ccPm7lRV.s 			page 7


 112 0000 30B5     		push	{r4, r5, lr}
 113              	.LCFI1:
 114              		.cfi_def_cfa_offset 12
 115              		.cfi_offset 4, -12
 116              		.cfi_offset 5, -8
 117              		.cfi_offset 14, -4
 118 0002 8FB0     		sub	sp, sp, #60
 119              	.LCFI2:
 120              		.cfi_def_cfa_offset 72
 121 0004 0C46     		mov	r4, r1
 122 0006 1546     		mov	r5, r2
 236:Src/usbh_diskio.c ****   DRESULT res = RES_ERROR;
 123              		.loc 1 236 3 is_stmt 1 view .LVU17
 124              	.LVL9:
 237:Src/usbh_diskio.c ****   MSC_LUNTypeDef info;
 125              		.loc 1 237 3 view .LVU18
 238:Src/usbh_diskio.c **** 
 239:Src/usbh_diskio.c ****   switch (cmd)
 126              		.loc 1 239 3 view .LVU19
 127 0008 0329     		cmp	r1, #3
 128 000a 24D8     		bhi	.L15
 129 000c DFE801F0 		tbb	[pc, r1]
 130              	.L11:
 131 0010 02       		.byte	(.L14-.L11)/2
 132 0011 05       		.byte	(.L13-.L11)/2
 133 0012 0E       		.byte	(.L12-.L11)/2
 134 0013 18       		.byte	(.L10-.L11)/2
 135              		.p2align 1
 136              	.L14:
 235:Src/usbh_diskio.c ****   DRESULT res = RES_ERROR;
 137              		.loc 1 235 1 is_stmt 0 view .LVU20
 138 0014 0846     		mov	r0, r1
 139              	.LVL10:
 140              	.L9:
 240:Src/usbh_diskio.c ****   {
 241:Src/usbh_diskio.c ****   /* Make sure that no pending write process */
 242:Src/usbh_diskio.c ****   case CTRL_SYNC:
 243:Src/usbh_diskio.c ****     res = RES_OK;
 244:Src/usbh_diskio.c ****     break;
 245:Src/usbh_diskio.c **** 
 246:Src/usbh_diskio.c ****   /* Get number of sectors on the disk (DWORD) */
 247:Src/usbh_diskio.c ****   case GET_SECTOR_COUNT :
 248:Src/usbh_diskio.c ****     if(USBH_MSC_GetLUNInfo(&hUSB_Host, lun, &info) == USBH_OK)
 249:Src/usbh_diskio.c ****     {
 250:Src/usbh_diskio.c ****       *(DWORD*)buff = info.capacity.block_nbr;
 251:Src/usbh_diskio.c ****       res = RES_OK;
 252:Src/usbh_diskio.c ****     }
 253:Src/usbh_diskio.c ****     else
 254:Src/usbh_diskio.c ****     {
 255:Src/usbh_diskio.c ****       res = RES_ERROR;
 256:Src/usbh_diskio.c ****     }
 257:Src/usbh_diskio.c ****     break;
 258:Src/usbh_diskio.c **** 
 259:Src/usbh_diskio.c ****   /* Get R/W sector size (WORD) */
 260:Src/usbh_diskio.c ****   case GET_SECTOR_SIZE :
 261:Src/usbh_diskio.c ****     if(USBH_MSC_GetLUNInfo(&hUSB_Host, lun, &info) == USBH_OK)
 262:Src/usbh_diskio.c ****     {
ARM GAS  C:\Users\Nina\AppData\Local\Temp\ccPm7lRV.s 			page 8


 263:Src/usbh_diskio.c ****       *(DWORD*)buff = info.capacity.block_size;
 264:Src/usbh_diskio.c ****       res = RES_OK;
 265:Src/usbh_diskio.c ****     }
 266:Src/usbh_diskio.c ****     else
 267:Src/usbh_diskio.c ****     {
 268:Src/usbh_diskio.c ****       res = RES_ERROR;
 269:Src/usbh_diskio.c ****     }
 270:Src/usbh_diskio.c ****     break;
 271:Src/usbh_diskio.c **** 
 272:Src/usbh_diskio.c ****     /* Get erase block size in unit of sector (DWORD) */
 273:Src/usbh_diskio.c ****   case GET_BLOCK_SIZE :
 274:Src/usbh_diskio.c **** 
 275:Src/usbh_diskio.c ****     if(USBH_MSC_GetLUNInfo(&hUSB_Host, lun, &info) == USBH_OK)
 276:Src/usbh_diskio.c ****     {
 277:Src/usbh_diskio.c ****       *(DWORD*)buff = info.capacity.block_size / USB_DEFAULT_BLOCK_SIZE;
 278:Src/usbh_diskio.c ****       res = RES_OK;
 279:Src/usbh_diskio.c ****     }
 280:Src/usbh_diskio.c ****     else
 281:Src/usbh_diskio.c ****     {
 282:Src/usbh_diskio.c ****       res = RES_ERROR;
 283:Src/usbh_diskio.c ****     }
 284:Src/usbh_diskio.c ****     break;
 285:Src/usbh_diskio.c **** 
 286:Src/usbh_diskio.c ****   default:
 287:Src/usbh_diskio.c ****     res = RES_PARERR;
 288:Src/usbh_diskio.c ****   }
 289:Src/usbh_diskio.c **** 
 290:Src/usbh_diskio.c ****   return res;
 141              		.loc 1 290 3 is_stmt 1 view .LVU21
 291:Src/usbh_diskio.c **** }
 142              		.loc 1 291 1 is_stmt 0 view .LVU22
 143 0016 0FB0     		add	sp, sp, #60
 144              	.LCFI3:
 145              		.cfi_remember_state
 146              		.cfi_def_cfa_offset 12
 147              		@ sp needed
 148 0018 30BD     		pop	{r4, r5, pc}
 149              	.LVL11:
 150              	.L13:
 151              	.LCFI4:
 152              		.cfi_restore_state
 248:Src/usbh_diskio.c ****     {
 153              		.loc 1 248 5 is_stmt 1 view .LVU23
 248:Src/usbh_diskio.c ****     {
 154              		.loc 1 248 8 is_stmt 0 view .LVU24
 155 001a 01AA     		add	r2, sp, #4
 156              	.LVL12:
 248:Src/usbh_diskio.c ****     {
 157              		.loc 1 248 8 view .LVU25
 158 001c 0146     		mov	r1, r0
 159              	.LVL13:
 248:Src/usbh_diskio.c ****     {
 160              		.loc 1 248 8 view .LVU26
 161 001e 1248     		ldr	r0, .L20
 162              	.LVL14:
 248:Src/usbh_diskio.c ****     {
 163              		.loc 1 248 8 view .LVU27
ARM GAS  C:\Users\Nina\AppData\Local\Temp\ccPm7lRV.s 			page 9


 164 0020 FFF7FEFF 		bl	USBH_MSC_GetLUNInfo
 165              	.LVL15:
 248:Src/usbh_diskio.c ****     {
 166              		.loc 1 248 7 view .LVU28
 167 0024 C8B9     		cbnz	r0, .L16
 250:Src/usbh_diskio.c ****       res = RES_OK;
 168              		.loc 1 250 7 is_stmt 1 view .LVU29
 250:Src/usbh_diskio.c ****       res = RES_OK;
 169              		.loc 1 250 36 is_stmt 0 view .LVU30
 170 0026 029B     		ldr	r3, [sp, #8]
 250:Src/usbh_diskio.c ****       res = RES_OK;
 171              		.loc 1 250 21 view .LVU31
 172 0028 2B60     		str	r3, [r5]
 251:Src/usbh_diskio.c ****     }
 173              		.loc 1 251 7 is_stmt 1 view .LVU32
 174              	.LVL16:
 251:Src/usbh_diskio.c ****     }
 175              		.loc 1 251 7 is_stmt 0 view .LVU33
 176 002a F4E7     		b	.L9
 177              	.LVL17:
 178              	.L12:
 261:Src/usbh_diskio.c ****     {
 179              		.loc 1 261 5 is_stmt 1 view .LVU34
 261:Src/usbh_diskio.c ****     {
 180              		.loc 1 261 8 is_stmt 0 view .LVU35
 181 002c 01AA     		add	r2, sp, #4
 182              	.LVL18:
 261:Src/usbh_diskio.c ****     {
 183              		.loc 1 261 8 view .LVU36
 184 002e 0146     		mov	r1, r0
 185              	.LVL19:
 261:Src/usbh_diskio.c ****     {
 186              		.loc 1 261 8 view .LVU37
 187 0030 0D48     		ldr	r0, .L20
 188              	.LVL20:
 261:Src/usbh_diskio.c ****     {
 189              		.loc 1 261 8 view .LVU38
 190 0032 FFF7FEFF 		bl	USBH_MSC_GetLUNInfo
 191              	.LVL21:
 261:Src/usbh_diskio.c ****     {
 192              		.loc 1 261 7 view .LVU39
 193 0036 90B9     		cbnz	r0, .L17
 263:Src/usbh_diskio.c ****       res = RES_OK;
 194              		.loc 1 263 7 is_stmt 1 view .LVU40
 263:Src/usbh_diskio.c ****       res = RES_OK;
 195              		.loc 1 263 36 is_stmt 0 view .LVU41
 196 0038 BDF80C30 		ldrh	r3, [sp, #12]
 263:Src/usbh_diskio.c ****       res = RES_OK;
 197              		.loc 1 263 21 view .LVU42
 198 003c 2B60     		str	r3, [r5]
 264:Src/usbh_diskio.c ****     }
 199              		.loc 1 264 7 is_stmt 1 view .LVU43
 200              	.LVL22:
 264:Src/usbh_diskio.c ****     }
 201              		.loc 1 264 7 is_stmt 0 view .LVU44
 202 003e EAE7     		b	.L9
 203              	.LVL23:
ARM GAS  C:\Users\Nina\AppData\Local\Temp\ccPm7lRV.s 			page 10


 204              	.L10:
 275:Src/usbh_diskio.c ****     {
 205              		.loc 1 275 5 is_stmt 1 view .LVU45
 275:Src/usbh_diskio.c ****     {
 206              		.loc 1 275 8 is_stmt 0 view .LVU46
 207 0040 01AA     		add	r2, sp, #4
 208              	.LVL24:
 275:Src/usbh_diskio.c ****     {
 209              		.loc 1 275 8 view .LVU47
 210 0042 0146     		mov	r1, r0
 211              	.LVL25:
 275:Src/usbh_diskio.c ****     {
 212              		.loc 1 275 8 view .LVU48
 213 0044 0848     		ldr	r0, .L20
 214              	.LVL26:
 275:Src/usbh_diskio.c ****     {
 215              		.loc 1 275 8 view .LVU49
 216 0046 FFF7FEFF 		bl	USBH_MSC_GetLUNInfo
 217              	.LVL27:
 275:Src/usbh_diskio.c ****     {
 218              		.loc 1 275 7 view .LVU50
 219 004a 50B9     		cbnz	r0, .L18
 277:Src/usbh_diskio.c ****       res = RES_OK;
 220              		.loc 1 277 7 is_stmt 1 view .LVU51
 277:Src/usbh_diskio.c ****       res = RES_OK;
 221              		.loc 1 277 36 is_stmt 0 view .LVU52
 222 004c BDF80C30 		ldrh	r3, [sp, #12]
 277:Src/usbh_diskio.c ****       res = RES_OK;
 223              		.loc 1 277 48 view .LVU53
 224 0050 5B0A     		lsrs	r3, r3, #9
 277:Src/usbh_diskio.c ****       res = RES_OK;
 225              		.loc 1 277 21 view .LVU54
 226 0052 2B60     		str	r3, [r5]
 278:Src/usbh_diskio.c ****     }
 227              		.loc 1 278 7 is_stmt 1 view .LVU55
 228              	.LVL28:
 278:Src/usbh_diskio.c ****     }
 229              		.loc 1 278 7 is_stmt 0 view .LVU56
 230 0054 DFE7     		b	.L9
 231              	.LVL29:
 232              	.L15:
 287:Src/usbh_diskio.c ****   }
 233              		.loc 1 287 9 view .LVU57
 234 0056 0420     		movs	r0, #4
 235              	.LVL30:
 287:Src/usbh_diskio.c ****   }
 236              		.loc 1 287 9 view .LVU58
 237 0058 DDE7     		b	.L9
 238              	.LVL31:
 239              	.L16:
 255:Src/usbh_diskio.c ****     }
 240              		.loc 1 255 11 view .LVU59
 241 005a 2046     		mov	r0, r4
 242 005c DBE7     		b	.L9
 243              	.L17:
 268:Src/usbh_diskio.c ****     }
 244              		.loc 1 268 11 view .LVU60
ARM GAS  C:\Users\Nina\AppData\Local\Temp\ccPm7lRV.s 			page 11


 245 005e 0120     		movs	r0, #1
 246 0060 D9E7     		b	.L9
 247              	.L18:
 282:Src/usbh_diskio.c ****     }
 248              		.loc 1 282 11 view .LVU61
 249 0062 0120     		movs	r0, #1
 250 0064 D7E7     		b	.L9
 251              	.L21:
 252 0066 00BF     		.align	2
 253              	.L20:
 254 0068 00000000 		.word	hUsbHostFS
 255              		.cfi_endproc
 256              	.LFE147:
 258              		.section	.rodata.USBH_read.str1.4,"aMS",%progbits,1
 259              		.align	2
 260              	.LC0:
 261 0000 4552524F 		.ascii	"ERROR: \000"
 261      523A2000 
 262              		.align	2
 263              	.LC1:
 264 0008 55534220 		.ascii	"USB Disk is not ready!\000"
 264      4469736B 
 264      20697320 
 264      6E6F7420 
 264      72656164 
 265              		.section	.text.USBH_read,"ax",%progbits
 266              		.align	1
 267              		.global	USBH_read
 268              		.syntax unified
 269              		.thumb
 270              		.thumb_func
 271              		.fpu fpv5-sp-d16
 273              	USBH_read:
 274              	.LVL32:
 275              	.LFB145:
 142:Src/usbh_diskio.c ****   DRESULT res = RES_ERROR;
 276              		.loc 1 142 1 is_stmt 1 view -0
 277              		.cfi_startproc
 278              		@ args = 0, pretend = 0, frame = 56
 279              		@ frame_needed = 0, uses_anonymous_args = 0
 142:Src/usbh_diskio.c ****   DRESULT res = RES_ERROR;
 280              		.loc 1 142 1 is_stmt 0 view .LVU63
 281 0000 10B5     		push	{r4, lr}
 282              	.LCFI5:
 283              		.cfi_def_cfa_offset 8
 284              		.cfi_offset 4, -8
 285              		.cfi_offset 14, -4
 286 0002 90B0     		sub	sp, sp, #64
 287              	.LCFI6:
 288              		.cfi_def_cfa_offset 72
 289 0004 0446     		mov	r4, r0
 143:Src/usbh_diskio.c ****   MSC_LUNTypeDef info;
 290              		.loc 1 143 3 is_stmt 1 view .LVU64
 291              	.LVL33:
 144:Src/usbh_diskio.c **** 
 292              		.loc 1 144 3 view .LVU65
 146:Src/usbh_diskio.c ****   {
ARM GAS  C:\Users\Nina\AppData\Local\Temp\ccPm7lRV.s 			page 12


 293              		.loc 1 146 3 view .LVU66
 146:Src/usbh_diskio.c ****   {
 294              		.loc 1 146 6 is_stmt 0 view .LVU67
 295 0006 0093     		str	r3, [sp]
 296 0008 0B46     		mov	r3, r1
 297              	.LVL34:
 146:Src/usbh_diskio.c ****   {
 298              		.loc 1 146 6 view .LVU68
 299 000a 0146     		mov	r1, r0
 300              	.LVL35:
 146:Src/usbh_diskio.c ****   {
 301              		.loc 1 146 6 view .LVU69
 302 000c 0F48     		ldr	r0, .L28
 303              	.LVL36:
 146:Src/usbh_diskio.c ****   {
 304              		.loc 1 146 6 view .LVU70
 305 000e FFF7FEFF 		bl	USBH_MSC_Read
 306              	.LVL37:
 146:Src/usbh_diskio.c ****   {
 307              		.loc 1 146 5 view .LVU71
 308 0012 08B9     		cbnz	r0, .L27
 309              	.LVL38:
 310              	.L23:
 169:Src/usbh_diskio.c **** }
 311              		.loc 1 169 3 is_stmt 1 view .LVU72
 170:Src/usbh_diskio.c **** 
 312              		.loc 1 170 1 is_stmt 0 view .LVU73
 313 0014 10B0     		add	sp, sp, #64
 314              	.LCFI7:
 315              		.cfi_remember_state
 316              		.cfi_def_cfa_offset 8
 317              		@ sp needed
 318 0016 10BD     		pop	{r4, pc}
 319              	.LVL39:
 320              	.L27:
 321              	.LCFI8:
 322              		.cfi_restore_state
 152:Src/usbh_diskio.c **** 
 323              		.loc 1 152 5 is_stmt 1 view .LVU74
 324 0018 03AA     		add	r2, sp, #12
 325 001a 2146     		mov	r1, r4
 326 001c 0B48     		ldr	r0, .L28
 327 001e FFF7FEFF 		bl	USBH_MSC_GetLUNInfo
 328              	.LVL40:
 154:Src/usbh_diskio.c ****     {
 329              		.loc 1 154 5 view .LVU75
 154:Src/usbh_diskio.c ****     {
 330              		.loc 1 154 23 is_stmt 0 view .LVU76
 331 0022 9DF81930 		ldrb	r3, [sp, #25]	@ zero_extendqisi2
 154:Src/usbh_diskio.c ****     {
 332              		.loc 1 154 5 view .LVU77
 333 0026 282B     		cmp	r3, #40
 334 0028 05D0     		beq	.L24
 335 002a 3A2B     		cmp	r3, #58
 336 002c 03D0     		beq	.L24
 337 002e 042B     		cmp	r3, #4
 338 0030 01D0     		beq	.L24
ARM GAS  C:\Users\Nina\AppData\Local\Temp\ccPm7lRV.s 			page 13


 339 0032 0120     		movs	r0, #1
 340 0034 EEE7     		b	.L23
 341              	.L24:
 159:Src/usbh_diskio.c ****       res = RES_NOTRDY;
 342              		.loc 1 159 7 is_stmt 1 view .LVU78
 343 0036 0648     		ldr	r0, .L28+4
 344 0038 FFF7FEFF 		bl	printf
 345              	.LVL41:
 159:Src/usbh_diskio.c ****       res = RES_NOTRDY;
 346              		.loc 1 159 7 view .LVU79
 347 003c 0548     		ldr	r0, .L28+8
 348 003e FFF7FEFF 		bl	printf
 349              	.LVL42:
 159:Src/usbh_diskio.c ****       res = RES_NOTRDY;
 350              		.loc 1 159 7 view .LVU80
 351 0042 0A20     		movs	r0, #10
 352 0044 FFF7FEFF 		bl	putchar
 353              	.LVL43:
 159:Src/usbh_diskio.c ****       res = RES_NOTRDY;
 354              		.loc 1 159 45 view .LVU81
 160:Src/usbh_diskio.c ****       break; 
 355              		.loc 1 160 7 view .LVU82
 161:Src/usbh_diskio.c **** 
 356              		.loc 1 161 7 view .LVU83
 160:Src/usbh_diskio.c ****       break; 
 357              		.loc 1 160 11 is_stmt 0 view .LVU84
 358 0048 0320     		movs	r0, #3
 161:Src/usbh_diskio.c **** 
 359              		.loc 1 161 7 view .LVU85
 360 004a E3E7     		b	.L23
 361              	.L29:
 362              		.align	2
 363              	.L28:
 364 004c 00000000 		.word	hUsbHostFS
 365 0050 00000000 		.word	.LC0
 366 0054 08000000 		.word	.LC1
 367              		.cfi_endproc
 368              	.LFE145:
 370              		.section	.rodata.USBH_write.str1.4,"aMS",%progbits,1
 371              		.align	2
 372              	.LC2:
 373 0000 55534220 		.ascii	"USB Disk is Write protected!\000"
 373      4469736B 
 373      20697320 
 373      57726974 
 373      65207072 
 374              		.section	.text.USBH_write,"ax",%progbits
 375              		.align	1
 376              		.global	USBH_write
 377              		.syntax unified
 378              		.thumb
 379              		.thumb_func
 380              		.fpu fpv5-sp-d16
 382              	USBH_write:
 383              	.LVL44:
 384              	.LFB146:
 186:Src/usbh_diskio.c ****   DRESULT res = RES_ERROR;
ARM GAS  C:\Users\Nina\AppData\Local\Temp\ccPm7lRV.s 			page 14


 385              		.loc 1 186 1 is_stmt 1 view -0
 386              		.cfi_startproc
 387              		@ args = 0, pretend = 0, frame = 56
 388              		@ frame_needed = 0, uses_anonymous_args = 0
 186:Src/usbh_diskio.c ****   DRESULT res = RES_ERROR;
 389              		.loc 1 186 1 is_stmt 0 view .LVU87
 390 0000 10B5     		push	{r4, lr}
 391              	.LCFI9:
 392              		.cfi_def_cfa_offset 8
 393              		.cfi_offset 4, -8
 394              		.cfi_offset 14, -4
 395 0002 90B0     		sub	sp, sp, #64
 396              	.LCFI10:
 397              		.cfi_def_cfa_offset 72
 398 0004 0446     		mov	r4, r0
 187:Src/usbh_diskio.c ****   MSC_LUNTypeDef info;
 399              		.loc 1 187 3 is_stmt 1 view .LVU88
 400              	.LVL45:
 188:Src/usbh_diskio.c **** 
 401              		.loc 1 188 3 view .LVU89
 190:Src/usbh_diskio.c ****   {
 402              		.loc 1 190 3 view .LVU90
 190:Src/usbh_diskio.c ****   {
 403              		.loc 1 190 6 is_stmt 0 view .LVU91
 404 0006 0093     		str	r3, [sp]
 405 0008 0B46     		mov	r3, r1
 406              	.LVL46:
 190:Src/usbh_diskio.c ****   {
 407              		.loc 1 190 6 view .LVU92
 408 000a 0146     		mov	r1, r0
 409              	.LVL47:
 190:Src/usbh_diskio.c ****   {
 410              		.loc 1 190 6 view .LVU93
 411 000c 1748     		ldr	r0, .L39
 412              	.LVL48:
 190:Src/usbh_diskio.c ****   {
 413              		.loc 1 190 6 view .LVU94
 414 000e FFF7FEFF 		bl	USBH_MSC_Write
 415              	.LVL49:
 190:Src/usbh_diskio.c ****   {
 416              		.loc 1 190 5 view .LVU95
 417 0012 08B9     		cbnz	r0, .L36
 418              	.LVL50:
 419              	.L31:
 218:Src/usbh_diskio.c **** }
 420              		.loc 1 218 3 is_stmt 1 view .LVU96
 219:Src/usbh_diskio.c **** #endif /* _USE_WRITE == 1 */
 421              		.loc 1 219 1 is_stmt 0 view .LVU97
 422 0014 10B0     		add	sp, sp, #64
 423              	.LCFI11:
 424              		.cfi_remember_state
 425              		.cfi_def_cfa_offset 8
 426              		@ sp needed
 427 0016 10BD     		pop	{r4, pc}
 428              	.LVL51:
 429              	.L36:
 430              	.LCFI12:
ARM GAS  C:\Users\Nina\AppData\Local\Temp\ccPm7lRV.s 			page 15


 431              		.cfi_restore_state
 196:Src/usbh_diskio.c **** 
 432              		.loc 1 196 5 is_stmt 1 view .LVU98
 433 0018 03AA     		add	r2, sp, #12
 434 001a 2146     		mov	r1, r4
 435 001c 1348     		ldr	r0, .L39
 436 001e FFF7FEFF 		bl	USBH_MSC_GetLUNInfo
 437              	.LVL52:
 198:Src/usbh_diskio.c ****     {
 438              		.loc 1 198 5 view .LVU99
 198:Src/usbh_diskio.c ****     {
 439              		.loc 1 198 23 is_stmt 0 view .LVU100
 440 0022 9DF81930 		ldrb	r3, [sp, #25]	@ zero_extendqisi2
 198:Src/usbh_diskio.c ****     {
 441              		.loc 1 198 5 view .LVU101
 442 0026 272B     		cmp	r3, #39
 443 0028 15D0     		beq	.L32
 444 002a 0ED9     		bls	.L37
 445 002c 282B     		cmp	r3, #40
 446 002e 01D0     		beq	.L34
 447 0030 3A2B     		cmp	r3, #58
 448 0032 0ED1     		bne	.L38
 449              	.L34:
 208:Src/usbh_diskio.c ****       res = RES_NOTRDY;
 450              		.loc 1 208 7 is_stmt 1 view .LVU102
 451 0034 0E48     		ldr	r0, .L39+4
 452 0036 FFF7FEFF 		bl	printf
 453              	.LVL53:
 208:Src/usbh_diskio.c ****       res = RES_NOTRDY;
 454              		.loc 1 208 7 view .LVU103
 455 003a 0E48     		ldr	r0, .L39+8
 456 003c FFF7FEFF 		bl	printf
 457              	.LVL54:
 208:Src/usbh_diskio.c ****       res = RES_NOTRDY;
 458              		.loc 1 208 7 view .LVU104
 459 0040 0A20     		movs	r0, #10
 460 0042 FFF7FEFF 		bl	putchar
 461              	.LVL55:
 208:Src/usbh_diskio.c ****       res = RES_NOTRDY;
 462              		.loc 1 208 44 view .LVU105
 209:Src/usbh_diskio.c ****       break;
 463              		.loc 1 209 7 view .LVU106
 210:Src/usbh_diskio.c **** 
 464              		.loc 1 210 7 view .LVU107
 209:Src/usbh_diskio.c ****       break;
 465              		.loc 1 209 11 is_stmt 0 view .LVU108
 466 0046 0320     		movs	r0, #3
 210:Src/usbh_diskio.c **** 
 467              		.loc 1 210 7 view .LVU109
 468 0048 E4E7     		b	.L31
 469              	.LVL56:
 470              	.L37:
 198:Src/usbh_diskio.c ****     {
 471              		.loc 1 198 5 view .LVU110
 472 004a 042B     		cmp	r3, #4
 473 004c F2D0     		beq	.L34
 474 004e 0120     		movs	r0, #1
ARM GAS  C:\Users\Nina\AppData\Local\Temp\ccPm7lRV.s 			page 16


 475 0050 E0E7     		b	.L31
 476              	.L38:
 477 0052 0120     		movs	r0, #1
 478 0054 DEE7     		b	.L31
 479              	.L32:
 201:Src/usbh_diskio.c ****       res = RES_WRPRT;
 480              		.loc 1 201 7 is_stmt 1 view .LVU111
 481 0056 0648     		ldr	r0, .L39+4
 482 0058 FFF7FEFF 		bl	printf
 483              	.LVL57:
 201:Src/usbh_diskio.c ****       res = RES_WRPRT;
 484              		.loc 1 201 7 view .LVU112
 485 005c 0648     		ldr	r0, .L39+12
 486 005e FFF7FEFF 		bl	printf
 487              	.LVL58:
 201:Src/usbh_diskio.c ****       res = RES_WRPRT;
 488              		.loc 1 201 7 view .LVU113
 489 0062 0A20     		movs	r0, #10
 490 0064 FFF7FEFF 		bl	putchar
 491              	.LVL59:
 201:Src/usbh_diskio.c ****       res = RES_WRPRT;
 492              		.loc 1 201 50 view .LVU114
 202:Src/usbh_diskio.c ****       break;
 493              		.loc 1 202 7 view .LVU115
 203:Src/usbh_diskio.c **** 
 494              		.loc 1 203 7 view .LVU116
 202:Src/usbh_diskio.c ****       break;
 495              		.loc 1 202 11 is_stmt 0 view .LVU117
 496 0068 0220     		movs	r0, #2
 203:Src/usbh_diskio.c **** 
 497              		.loc 1 203 7 view .LVU118
 498 006a D3E7     		b	.L31
 499              	.L40:
 500              		.align	2
 501              	.L39:
 502 006c 00000000 		.word	hUsbHostFS
 503 0070 00000000 		.word	.LC0
 504 0074 08000000 		.word	.LC1
 505 0078 00000000 		.word	.LC2
 506              		.cfi_endproc
 507              	.LFE146:
 509              		.global	USBH_Driver
 510              		.section	.rodata.USBH_Driver,"a"
 511              		.align	2
 514              	USBH_Driver:
 515 0000 00000000 		.word	USBH_initialize
 516 0004 00000000 		.word	USBH_status
 517 0008 00000000 		.word	USBH_read
 518 000c 00000000 		.word	USBH_write
 519 0010 00000000 		.word	USBH_ioctl
 520              		.text
 521              	.Letext0:
 522              		.file 2 "Middlewares/Third_Party/FatFs/src/integer.h"
 523              		.file 3 "Middlewares/Third_Party/FatFs/src/diskio.h"
 524              		.file 4 "c:\\program files (x86)\\gnu tools arm embedded\\9 2019-q4-major\\arm-none-eabi\\include\
 525              		.file 5 "c:\\program files (x86)\\gnu tools arm embedded\\9 2019-q4-major\\arm-none-eabi\\include\
 526              		.file 6 "Drivers/CMSIS/Include/core_cm7.h"
ARM GAS  C:\Users\Nina\AppData\Local\Temp\ccPm7lRV.s 			page 17


 527              		.file 7 "Drivers/CMSIS/Device/ST/STM32F7xx/Include/system_stm32f7xx.h"
 528              		.file 8 "c:\\program files (x86)\\gnu tools arm embedded\\9 2019-q4-major\\arm-none-eabi\\include\
 529              		.file 9 "c:\\program files (x86)\\gnu tools arm embedded\\9 2019-q4-major\\arm-none-eabi\\include\
 530              		.file 10 "c:\\program files (x86)\\gnu tools arm embedded\\9 2019-q4-major\\lib\\gcc\\arm-none-eab
 531              		.file 11 "c:\\program files (x86)\\gnu tools arm embedded\\9 2019-q4-major\\arm-none-eabi\\include
 532              		.file 12 "Middlewares/Third_Party/FreeRTOS/Source/include/task.h"
 533              		.file 13 "Middlewares/Third_Party/FreeRTOS/Source/include/queue.h"
 534              		.file 14 "Middlewares/Third_Party/FreeRTOS/Source/CMSIS_RTOS/cmsis_os.h"
 535              		.file 15 "c:\\program files (x86)\\gnu tools arm embedded\\9 2019-q4-major\\arm-none-eabi\\include
 536              		.file 16 "Middlewares/ST/STM32_USB_Host_Library/Core/Inc/usbh_def.h"
 537              		.file 17 "Middlewares/ST/STM32_USB_Host_Library/Core/Inc/usbh_ctlreq.h"
 538              		.file 18 "Middlewares/ST/STM32_USB_Host_Library/Class/MSC/Inc/usbh_msc_scsi.h"
 539              		.file 19 "Middlewares/ST/STM32_USB_Host_Library/Class/MSC/Inc/usbh_msc.h"
 540              		.file 20 "Middlewares/Third_Party/FatFs/src/ff_gen_drv.h"
 541              		.file 21 "Inc/usbh_diskio.h"
 542              		.file 22 "c:\\program files (x86)\\gnu tools arm embedded\\9 2019-q4-major\\arm-none-eabi\\include
 543              		.file 23 "<built-in>"
ARM GAS  C:\Users\Nina\AppData\Local\Temp\ccPm7lRV.s 			page 18

