ARM GAS  C:\Users\Nina\AppData\Local\Temp\ccRhRQJJ.s 			page 1


   1              		.cpu cortex-m7
   2              		.eabi_attribute 27, 1
   3              		.eabi_attribute 28, 1
   4              		.eabi_attribute 20, 1
   5              		.eabi_attribute 21, 1
   6              		.eabi_attribute 23, 3
   7              		.eabi_attribute 24, 1
   8              		.eabi_attribute 25, 1
   9              		.eabi_attribute 26, 1
  10              		.eabi_attribute 30, 1
  11              		.eabi_attribute 34, 1
  12              		.eabi_attribute 18, 4
  13              		.file	"usbh_msc_bot.c"
  14              		.text
  15              	.Ltext0:
  16              		.cfi_sections	.debug_frame
  17              		.section	.text.USBH_MSC_DecodeCSW,"ax",%progbits
  18              		.align	1
  19              		.arch armv7e-m
  20              		.syntax unified
  21              		.thumb
  22              		.thumb_func
  23              		.fpu fpv5-sp-d16
  25              	USBH_MSC_DecodeCSW:
  26              	.LVL0:
  27              	.LFB148:
  28              		.file 1 "Middlewares/ST/STM32_USB_Host_Library/Class/MSC/Src/usbh_msc_bot.c"
   1:Middlewares/ST/STM32_USB_Host_Library/Class/MSC/Src/usbh_msc_bot.c **** /**
   2:Middlewares/ST/STM32_USB_Host_Library/Class/MSC/Src/usbh_msc_bot.c ****   ******************************************************************************
   3:Middlewares/ST/STM32_USB_Host_Library/Class/MSC/Src/usbh_msc_bot.c ****   * @file    usbh_msc_bot.c
   4:Middlewares/ST/STM32_USB_Host_Library/Class/MSC/Src/usbh_msc_bot.c ****   * @author  MCD Application Team
   5:Middlewares/ST/STM32_USB_Host_Library/Class/MSC/Src/usbh_msc_bot.c ****   * @brief   This file includes the BOT protocol related functions
   6:Middlewares/ST/STM32_USB_Host_Library/Class/MSC/Src/usbh_msc_bot.c ****   ******************************************************************************
   7:Middlewares/ST/STM32_USB_Host_Library/Class/MSC/Src/usbh_msc_bot.c ****   * @attention
   8:Middlewares/ST/STM32_USB_Host_Library/Class/MSC/Src/usbh_msc_bot.c ****   *
   9:Middlewares/ST/STM32_USB_Host_Library/Class/MSC/Src/usbh_msc_bot.c ****   * <h2><center>&copy; Copyright (c) 2017 STMicroelectronics International N.V.
  10:Middlewares/ST/STM32_USB_Host_Library/Class/MSC/Src/usbh_msc_bot.c ****   * All rights reserved.</center></h2>
  11:Middlewares/ST/STM32_USB_Host_Library/Class/MSC/Src/usbh_msc_bot.c ****   *
  12:Middlewares/ST/STM32_USB_Host_Library/Class/MSC/Src/usbh_msc_bot.c ****   * Redistribution and use in source and binary forms, with or without
  13:Middlewares/ST/STM32_USB_Host_Library/Class/MSC/Src/usbh_msc_bot.c ****   * modification, are permitted, provided that the following conditions are met:
  14:Middlewares/ST/STM32_USB_Host_Library/Class/MSC/Src/usbh_msc_bot.c ****   *
  15:Middlewares/ST/STM32_USB_Host_Library/Class/MSC/Src/usbh_msc_bot.c ****   * 1. Redistribution of source code must retain the above copyright notice,
  16:Middlewares/ST/STM32_USB_Host_Library/Class/MSC/Src/usbh_msc_bot.c ****   *    this list of conditions and the following disclaimer.
  17:Middlewares/ST/STM32_USB_Host_Library/Class/MSC/Src/usbh_msc_bot.c ****   * 2. Redistributions in binary form must reproduce the above copyright notice,
  18:Middlewares/ST/STM32_USB_Host_Library/Class/MSC/Src/usbh_msc_bot.c ****   *    this list of conditions and the following disclaimer in the documentation
  19:Middlewares/ST/STM32_USB_Host_Library/Class/MSC/Src/usbh_msc_bot.c ****   *    and/or other materials provided with the distribution.
  20:Middlewares/ST/STM32_USB_Host_Library/Class/MSC/Src/usbh_msc_bot.c ****   * 3. Neither the name of STMicroelectronics nor the names of other
  21:Middlewares/ST/STM32_USB_Host_Library/Class/MSC/Src/usbh_msc_bot.c ****   *    contributors to this software may be used to endorse or promote products
  22:Middlewares/ST/STM32_USB_Host_Library/Class/MSC/Src/usbh_msc_bot.c ****   *    derived from this software without specific written permission.
  23:Middlewares/ST/STM32_USB_Host_Library/Class/MSC/Src/usbh_msc_bot.c ****   * 4. This software, including modifications and/or derivative works of this
  24:Middlewares/ST/STM32_USB_Host_Library/Class/MSC/Src/usbh_msc_bot.c ****   *    software, must execute solely and exclusively on microcontroller or
  25:Middlewares/ST/STM32_USB_Host_Library/Class/MSC/Src/usbh_msc_bot.c ****   *    microprocessor devices manufactured by or for STMicroelectronics.
  26:Middlewares/ST/STM32_USB_Host_Library/Class/MSC/Src/usbh_msc_bot.c ****   * 5. Redistribution and use of this software other than as permitted under
  27:Middlewares/ST/STM32_USB_Host_Library/Class/MSC/Src/usbh_msc_bot.c ****   *    this license is void and will automatically terminate your rights under
  28:Middlewares/ST/STM32_USB_Host_Library/Class/MSC/Src/usbh_msc_bot.c ****   *    this license.
  29:Middlewares/ST/STM32_USB_Host_Library/Class/MSC/Src/usbh_msc_bot.c ****   *
  30:Middlewares/ST/STM32_USB_Host_Library/Class/MSC/Src/usbh_msc_bot.c ****   * THIS SOFTWARE IS PROVIDED BY STMICROELECTRONICS AND CONTRIBUTORS "AS IS"
ARM GAS  C:\Users\Nina\AppData\Local\Temp\ccRhRQJJ.s 			page 2


  31:Middlewares/ST/STM32_USB_Host_Library/Class/MSC/Src/usbh_msc_bot.c ****   * AND ANY EXPRESS, IMPLIED OR STATUTORY WARRANTIES, INCLUDING, BUT NOT
  32:Middlewares/ST/STM32_USB_Host_Library/Class/MSC/Src/usbh_msc_bot.c ****   * LIMITED TO, THE IMPLIED WARRANTIES OF MERCHANTABILITY, FITNESS FOR A
  33:Middlewares/ST/STM32_USB_Host_Library/Class/MSC/Src/usbh_msc_bot.c ****   * PARTICULAR PURPOSE AND NON-INFRINGEMENT OF THIRD PARTY INTELLECTUAL PROPERTY
  34:Middlewares/ST/STM32_USB_Host_Library/Class/MSC/Src/usbh_msc_bot.c ****   * RIGHTS ARE DISCLAIMED TO THE FULLEST EXTENT PERMITTED BY LAW. IN NO EVENT
  35:Middlewares/ST/STM32_USB_Host_Library/Class/MSC/Src/usbh_msc_bot.c ****   * SHALL STMICROELECTRONICS OR CONTRIBUTORS BE LIABLE FOR ANY DIRECT, INDIRECT,
  36:Middlewares/ST/STM32_USB_Host_Library/Class/MSC/Src/usbh_msc_bot.c ****   * INCIDENTAL, SPECIAL, EXEMPLARY, OR CONSEQUENTIAL DAMAGES (INCLUDING, BUT NOT
  37:Middlewares/ST/STM32_USB_Host_Library/Class/MSC/Src/usbh_msc_bot.c ****   * LIMITED TO, PROCUREMENT OF SUBSTITUTE GOODS OR SERVICES; LOSS OF USE, DATA,
  38:Middlewares/ST/STM32_USB_Host_Library/Class/MSC/Src/usbh_msc_bot.c ****   * OR PROFITS; OR BUSINESS INTERRUPTION) HOWEVER CAUSED AND ON ANY THEORY OF
  39:Middlewares/ST/STM32_USB_Host_Library/Class/MSC/Src/usbh_msc_bot.c ****   * LIABILITY, WHETHER IN CONTRACT, STRICT LIABILITY, OR TORT (INCLUDING
  40:Middlewares/ST/STM32_USB_Host_Library/Class/MSC/Src/usbh_msc_bot.c ****   * NEGLIGENCE OR OTHERWISE) ARISING IN ANY WAY OUT OF THE USE OF THIS SOFTWARE,
  41:Middlewares/ST/STM32_USB_Host_Library/Class/MSC/Src/usbh_msc_bot.c ****   * EVEN IF ADVISED OF THE POSSIBILITY OF SUCH DAMAGE.
  42:Middlewares/ST/STM32_USB_Host_Library/Class/MSC/Src/usbh_msc_bot.c ****   *
  43:Middlewares/ST/STM32_USB_Host_Library/Class/MSC/Src/usbh_msc_bot.c ****   ******************************************************************************
  44:Middlewares/ST/STM32_USB_Host_Library/Class/MSC/Src/usbh_msc_bot.c ****   */
  45:Middlewares/ST/STM32_USB_Host_Library/Class/MSC/Src/usbh_msc_bot.c **** 
  46:Middlewares/ST/STM32_USB_Host_Library/Class/MSC/Src/usbh_msc_bot.c ****   /* BSPDependencies
  47:Middlewares/ST/STM32_USB_Host_Library/Class/MSC/Src/usbh_msc_bot.c ****   - "stm32xxxxx_{eval}{discovery}{nucleo_144}.c"
  48:Middlewares/ST/STM32_USB_Host_Library/Class/MSC/Src/usbh_msc_bot.c ****   - "stm32xxxxx_{eval}{discovery}_io.c"
  49:Middlewares/ST/STM32_USB_Host_Library/Class/MSC/Src/usbh_msc_bot.c ****   - "stm32xxxxx_{eval}{discovery}{adafruit}_lcd.c"
  50:Middlewares/ST/STM32_USB_Host_Library/Class/MSC/Src/usbh_msc_bot.c ****   - "stm32xxxxx_{eval}{discovery}_sdram.c"
  51:Middlewares/ST/STM32_USB_Host_Library/Class/MSC/Src/usbh_msc_bot.c ****   EndBSPDependencies */
  52:Middlewares/ST/STM32_USB_Host_Library/Class/MSC/Src/usbh_msc_bot.c **** 
  53:Middlewares/ST/STM32_USB_Host_Library/Class/MSC/Src/usbh_msc_bot.c **** /* Includes ------------------------------------------------------------------*/
  54:Middlewares/ST/STM32_USB_Host_Library/Class/MSC/Src/usbh_msc_bot.c **** #include "usbh_msc_bot.h"
  55:Middlewares/ST/STM32_USB_Host_Library/Class/MSC/Src/usbh_msc_bot.c **** #include "usbh_msc.h"
  56:Middlewares/ST/STM32_USB_Host_Library/Class/MSC/Src/usbh_msc_bot.c **** 
  57:Middlewares/ST/STM32_USB_Host_Library/Class/MSC/Src/usbh_msc_bot.c **** /** @addtogroup USBH_LIB
  58:Middlewares/ST/STM32_USB_Host_Library/Class/MSC/Src/usbh_msc_bot.c **** * @{
  59:Middlewares/ST/STM32_USB_Host_Library/Class/MSC/Src/usbh_msc_bot.c **** */
  60:Middlewares/ST/STM32_USB_Host_Library/Class/MSC/Src/usbh_msc_bot.c **** 
  61:Middlewares/ST/STM32_USB_Host_Library/Class/MSC/Src/usbh_msc_bot.c **** /** @addtogroup USBH_CLASS
  62:Middlewares/ST/STM32_USB_Host_Library/Class/MSC/Src/usbh_msc_bot.c **** * @{
  63:Middlewares/ST/STM32_USB_Host_Library/Class/MSC/Src/usbh_msc_bot.c **** */
  64:Middlewares/ST/STM32_USB_Host_Library/Class/MSC/Src/usbh_msc_bot.c **** 
  65:Middlewares/ST/STM32_USB_Host_Library/Class/MSC/Src/usbh_msc_bot.c **** /** @addtogroup USBH_MSC_CLASS
  66:Middlewares/ST/STM32_USB_Host_Library/Class/MSC/Src/usbh_msc_bot.c **** * @{
  67:Middlewares/ST/STM32_USB_Host_Library/Class/MSC/Src/usbh_msc_bot.c **** */
  68:Middlewares/ST/STM32_USB_Host_Library/Class/MSC/Src/usbh_msc_bot.c **** 
  69:Middlewares/ST/STM32_USB_Host_Library/Class/MSC/Src/usbh_msc_bot.c **** /** @defgroup USBH_MSC_BOT
  70:Middlewares/ST/STM32_USB_Host_Library/Class/MSC/Src/usbh_msc_bot.c **** * @brief    This file includes the mass storage related functions
  71:Middlewares/ST/STM32_USB_Host_Library/Class/MSC/Src/usbh_msc_bot.c **** * @{
  72:Middlewares/ST/STM32_USB_Host_Library/Class/MSC/Src/usbh_msc_bot.c **** */
  73:Middlewares/ST/STM32_USB_Host_Library/Class/MSC/Src/usbh_msc_bot.c **** 
  74:Middlewares/ST/STM32_USB_Host_Library/Class/MSC/Src/usbh_msc_bot.c **** 
  75:Middlewares/ST/STM32_USB_Host_Library/Class/MSC/Src/usbh_msc_bot.c **** /** @defgroup USBH_MSC_BOT_Private_TypesDefinitions
  76:Middlewares/ST/STM32_USB_Host_Library/Class/MSC/Src/usbh_msc_bot.c **** * @{
  77:Middlewares/ST/STM32_USB_Host_Library/Class/MSC/Src/usbh_msc_bot.c **** */
  78:Middlewares/ST/STM32_USB_Host_Library/Class/MSC/Src/usbh_msc_bot.c **** /**
  79:Middlewares/ST/STM32_USB_Host_Library/Class/MSC/Src/usbh_msc_bot.c **** * @}
  80:Middlewares/ST/STM32_USB_Host_Library/Class/MSC/Src/usbh_msc_bot.c **** */
  81:Middlewares/ST/STM32_USB_Host_Library/Class/MSC/Src/usbh_msc_bot.c **** 
  82:Middlewares/ST/STM32_USB_Host_Library/Class/MSC/Src/usbh_msc_bot.c **** /** @defgroup USBH_MSC_BOT_Private_Defines
  83:Middlewares/ST/STM32_USB_Host_Library/Class/MSC/Src/usbh_msc_bot.c **** * @{
  84:Middlewares/ST/STM32_USB_Host_Library/Class/MSC/Src/usbh_msc_bot.c **** */
  85:Middlewares/ST/STM32_USB_Host_Library/Class/MSC/Src/usbh_msc_bot.c **** /**
  86:Middlewares/ST/STM32_USB_Host_Library/Class/MSC/Src/usbh_msc_bot.c **** * @}
  87:Middlewares/ST/STM32_USB_Host_Library/Class/MSC/Src/usbh_msc_bot.c **** */
ARM GAS  C:\Users\Nina\AppData\Local\Temp\ccRhRQJJ.s 			page 3


  88:Middlewares/ST/STM32_USB_Host_Library/Class/MSC/Src/usbh_msc_bot.c **** 
  89:Middlewares/ST/STM32_USB_Host_Library/Class/MSC/Src/usbh_msc_bot.c **** /** @defgroup USBH_MSC_BOT_Private_Macros
  90:Middlewares/ST/STM32_USB_Host_Library/Class/MSC/Src/usbh_msc_bot.c **** * @{
  91:Middlewares/ST/STM32_USB_Host_Library/Class/MSC/Src/usbh_msc_bot.c **** */
  92:Middlewares/ST/STM32_USB_Host_Library/Class/MSC/Src/usbh_msc_bot.c **** /**
  93:Middlewares/ST/STM32_USB_Host_Library/Class/MSC/Src/usbh_msc_bot.c **** * @}
  94:Middlewares/ST/STM32_USB_Host_Library/Class/MSC/Src/usbh_msc_bot.c **** */
  95:Middlewares/ST/STM32_USB_Host_Library/Class/MSC/Src/usbh_msc_bot.c **** 
  96:Middlewares/ST/STM32_USB_Host_Library/Class/MSC/Src/usbh_msc_bot.c **** 
  97:Middlewares/ST/STM32_USB_Host_Library/Class/MSC/Src/usbh_msc_bot.c **** /** @defgroup USBH_MSC_BOT_Private_Variables
  98:Middlewares/ST/STM32_USB_Host_Library/Class/MSC/Src/usbh_msc_bot.c **** * @{
  99:Middlewares/ST/STM32_USB_Host_Library/Class/MSC/Src/usbh_msc_bot.c **** */
 100:Middlewares/ST/STM32_USB_Host_Library/Class/MSC/Src/usbh_msc_bot.c **** 
 101:Middlewares/ST/STM32_USB_Host_Library/Class/MSC/Src/usbh_msc_bot.c **** /**
 102:Middlewares/ST/STM32_USB_Host_Library/Class/MSC/Src/usbh_msc_bot.c **** * @}
 103:Middlewares/ST/STM32_USB_Host_Library/Class/MSC/Src/usbh_msc_bot.c **** */
 104:Middlewares/ST/STM32_USB_Host_Library/Class/MSC/Src/usbh_msc_bot.c **** 
 105:Middlewares/ST/STM32_USB_Host_Library/Class/MSC/Src/usbh_msc_bot.c **** 
 106:Middlewares/ST/STM32_USB_Host_Library/Class/MSC/Src/usbh_msc_bot.c **** /** @defgroup USBH_MSC_BOT_Private_FunctionPrototypes
 107:Middlewares/ST/STM32_USB_Host_Library/Class/MSC/Src/usbh_msc_bot.c **** * @{
 108:Middlewares/ST/STM32_USB_Host_Library/Class/MSC/Src/usbh_msc_bot.c **** */
 109:Middlewares/ST/STM32_USB_Host_Library/Class/MSC/Src/usbh_msc_bot.c **** static USBH_StatusTypeDef USBH_MSC_BOT_Abort(USBH_HandleTypeDef *phost, uint8_t lun, uint8_t dir);
 110:Middlewares/ST/STM32_USB_Host_Library/Class/MSC/Src/usbh_msc_bot.c **** static BOT_CSWStatusTypeDef USBH_MSC_DecodeCSW(USBH_HandleTypeDef *phost);
 111:Middlewares/ST/STM32_USB_Host_Library/Class/MSC/Src/usbh_msc_bot.c **** /**
 112:Middlewares/ST/STM32_USB_Host_Library/Class/MSC/Src/usbh_msc_bot.c **** * @}
 113:Middlewares/ST/STM32_USB_Host_Library/Class/MSC/Src/usbh_msc_bot.c **** */
 114:Middlewares/ST/STM32_USB_Host_Library/Class/MSC/Src/usbh_msc_bot.c **** 
 115:Middlewares/ST/STM32_USB_Host_Library/Class/MSC/Src/usbh_msc_bot.c **** 
 116:Middlewares/ST/STM32_USB_Host_Library/Class/MSC/Src/usbh_msc_bot.c **** /** @defgroup USBH_MSC_BOT_Exported_Variables
 117:Middlewares/ST/STM32_USB_Host_Library/Class/MSC/Src/usbh_msc_bot.c **** * @{
 118:Middlewares/ST/STM32_USB_Host_Library/Class/MSC/Src/usbh_msc_bot.c **** */
 119:Middlewares/ST/STM32_USB_Host_Library/Class/MSC/Src/usbh_msc_bot.c **** /**
 120:Middlewares/ST/STM32_USB_Host_Library/Class/MSC/Src/usbh_msc_bot.c **** * @}
 121:Middlewares/ST/STM32_USB_Host_Library/Class/MSC/Src/usbh_msc_bot.c **** */
 122:Middlewares/ST/STM32_USB_Host_Library/Class/MSC/Src/usbh_msc_bot.c **** 
 123:Middlewares/ST/STM32_USB_Host_Library/Class/MSC/Src/usbh_msc_bot.c **** 
 124:Middlewares/ST/STM32_USB_Host_Library/Class/MSC/Src/usbh_msc_bot.c **** /** @defgroup USBH_MSC_BOT_Private_Functions
 125:Middlewares/ST/STM32_USB_Host_Library/Class/MSC/Src/usbh_msc_bot.c **** * @{
 126:Middlewares/ST/STM32_USB_Host_Library/Class/MSC/Src/usbh_msc_bot.c **** */
 127:Middlewares/ST/STM32_USB_Host_Library/Class/MSC/Src/usbh_msc_bot.c **** 
 128:Middlewares/ST/STM32_USB_Host_Library/Class/MSC/Src/usbh_msc_bot.c **** /**
 129:Middlewares/ST/STM32_USB_Host_Library/Class/MSC/Src/usbh_msc_bot.c ****   * @brief  USBH_MSC_BOT_REQ_Reset
 130:Middlewares/ST/STM32_USB_Host_Library/Class/MSC/Src/usbh_msc_bot.c ****   *         The function the MSC BOT Reset request.
 131:Middlewares/ST/STM32_USB_Host_Library/Class/MSC/Src/usbh_msc_bot.c ****   * @param  phost: Host handle
 132:Middlewares/ST/STM32_USB_Host_Library/Class/MSC/Src/usbh_msc_bot.c ****   * @retval USBH Status
 133:Middlewares/ST/STM32_USB_Host_Library/Class/MSC/Src/usbh_msc_bot.c ****   */
 134:Middlewares/ST/STM32_USB_Host_Library/Class/MSC/Src/usbh_msc_bot.c **** USBH_StatusTypeDef USBH_MSC_BOT_REQ_Reset(USBH_HandleTypeDef *phost)
 135:Middlewares/ST/STM32_USB_Host_Library/Class/MSC/Src/usbh_msc_bot.c **** {
 136:Middlewares/ST/STM32_USB_Host_Library/Class/MSC/Src/usbh_msc_bot.c **** 
 137:Middlewares/ST/STM32_USB_Host_Library/Class/MSC/Src/usbh_msc_bot.c ****   phost->Control.setup.b.bmRequestType = USB_H2D | USB_REQ_TYPE_CLASS
 138:Middlewares/ST/STM32_USB_Host_Library/Class/MSC/Src/usbh_msc_bot.c ****                                                  | USB_REQ_RECIPIENT_INTERFACE;
 139:Middlewares/ST/STM32_USB_Host_Library/Class/MSC/Src/usbh_msc_bot.c **** 
 140:Middlewares/ST/STM32_USB_Host_Library/Class/MSC/Src/usbh_msc_bot.c ****   phost->Control.setup.b.bRequest = USB_REQ_BOT_RESET;
 141:Middlewares/ST/STM32_USB_Host_Library/Class/MSC/Src/usbh_msc_bot.c ****   phost->Control.setup.b.wValue.w = 0U;
 142:Middlewares/ST/STM32_USB_Host_Library/Class/MSC/Src/usbh_msc_bot.c ****   phost->Control.setup.b.wIndex.w = 0U;
 143:Middlewares/ST/STM32_USB_Host_Library/Class/MSC/Src/usbh_msc_bot.c ****   phost->Control.setup.b.wLength.w = 0U;
 144:Middlewares/ST/STM32_USB_Host_Library/Class/MSC/Src/usbh_msc_bot.c **** 
ARM GAS  C:\Users\Nina\AppData\Local\Temp\ccRhRQJJ.s 			page 4


 145:Middlewares/ST/STM32_USB_Host_Library/Class/MSC/Src/usbh_msc_bot.c ****   return USBH_CtlReq(phost, 0U, 0U);
 146:Middlewares/ST/STM32_USB_Host_Library/Class/MSC/Src/usbh_msc_bot.c **** }
 147:Middlewares/ST/STM32_USB_Host_Library/Class/MSC/Src/usbh_msc_bot.c **** 
 148:Middlewares/ST/STM32_USB_Host_Library/Class/MSC/Src/usbh_msc_bot.c **** /**
 149:Middlewares/ST/STM32_USB_Host_Library/Class/MSC/Src/usbh_msc_bot.c ****   * @brief  USBH_MSC_BOT_REQ_GetMaxLUN
 150:Middlewares/ST/STM32_USB_Host_Library/Class/MSC/Src/usbh_msc_bot.c ****   *         The function the MSC BOT GetMaxLUN request.
 151:Middlewares/ST/STM32_USB_Host_Library/Class/MSC/Src/usbh_msc_bot.c ****   * @param  phost: Host handle
 152:Middlewares/ST/STM32_USB_Host_Library/Class/MSC/Src/usbh_msc_bot.c ****   * @param  Maxlun: pointer to Maxlun variable
 153:Middlewares/ST/STM32_USB_Host_Library/Class/MSC/Src/usbh_msc_bot.c ****   * @retval USBH Status
 154:Middlewares/ST/STM32_USB_Host_Library/Class/MSC/Src/usbh_msc_bot.c ****   */
 155:Middlewares/ST/STM32_USB_Host_Library/Class/MSC/Src/usbh_msc_bot.c **** USBH_StatusTypeDef USBH_MSC_BOT_REQ_GetMaxLUN(USBH_HandleTypeDef *phost, uint8_t *Maxlun)
 156:Middlewares/ST/STM32_USB_Host_Library/Class/MSC/Src/usbh_msc_bot.c **** {
 157:Middlewares/ST/STM32_USB_Host_Library/Class/MSC/Src/usbh_msc_bot.c ****   phost->Control.setup.b.bmRequestType = USB_D2H | USB_REQ_TYPE_CLASS
 158:Middlewares/ST/STM32_USB_Host_Library/Class/MSC/Src/usbh_msc_bot.c ****                                                  | USB_REQ_RECIPIENT_INTERFACE;
 159:Middlewares/ST/STM32_USB_Host_Library/Class/MSC/Src/usbh_msc_bot.c **** 
 160:Middlewares/ST/STM32_USB_Host_Library/Class/MSC/Src/usbh_msc_bot.c ****   phost->Control.setup.b.bRequest = USB_REQ_GET_MAX_LUN;
 161:Middlewares/ST/STM32_USB_Host_Library/Class/MSC/Src/usbh_msc_bot.c ****   phost->Control.setup.b.wValue.w = 0U;
 162:Middlewares/ST/STM32_USB_Host_Library/Class/MSC/Src/usbh_msc_bot.c ****   phost->Control.setup.b.wIndex.w = 0U;
 163:Middlewares/ST/STM32_USB_Host_Library/Class/MSC/Src/usbh_msc_bot.c ****   phost->Control.setup.b.wLength.w = 1U;
 164:Middlewares/ST/STM32_USB_Host_Library/Class/MSC/Src/usbh_msc_bot.c **** 
 165:Middlewares/ST/STM32_USB_Host_Library/Class/MSC/Src/usbh_msc_bot.c ****   return USBH_CtlReq(phost, Maxlun, 1U);
 166:Middlewares/ST/STM32_USB_Host_Library/Class/MSC/Src/usbh_msc_bot.c **** }
 167:Middlewares/ST/STM32_USB_Host_Library/Class/MSC/Src/usbh_msc_bot.c **** 
 168:Middlewares/ST/STM32_USB_Host_Library/Class/MSC/Src/usbh_msc_bot.c **** 
 169:Middlewares/ST/STM32_USB_Host_Library/Class/MSC/Src/usbh_msc_bot.c **** 
 170:Middlewares/ST/STM32_USB_Host_Library/Class/MSC/Src/usbh_msc_bot.c **** /**
 171:Middlewares/ST/STM32_USB_Host_Library/Class/MSC/Src/usbh_msc_bot.c ****   * @brief  USBH_MSC_BOT_Init
 172:Middlewares/ST/STM32_USB_Host_Library/Class/MSC/Src/usbh_msc_bot.c ****   *         The function Initializes the BOT protocol.
 173:Middlewares/ST/STM32_USB_Host_Library/Class/MSC/Src/usbh_msc_bot.c ****   * @param  phost: Host handle
 174:Middlewares/ST/STM32_USB_Host_Library/Class/MSC/Src/usbh_msc_bot.c ****   * @retval USBH Status
 175:Middlewares/ST/STM32_USB_Host_Library/Class/MSC/Src/usbh_msc_bot.c ****   */
 176:Middlewares/ST/STM32_USB_Host_Library/Class/MSC/Src/usbh_msc_bot.c **** USBH_StatusTypeDef USBH_MSC_BOT_Init(USBH_HandleTypeDef *phost)
 177:Middlewares/ST/STM32_USB_Host_Library/Class/MSC/Src/usbh_msc_bot.c **** {
 178:Middlewares/ST/STM32_USB_Host_Library/Class/MSC/Src/usbh_msc_bot.c **** 
 179:Middlewares/ST/STM32_USB_Host_Library/Class/MSC/Src/usbh_msc_bot.c ****   MSC_HandleTypeDef *MSC_Handle =  (MSC_HandleTypeDef *) phost->pActiveClass->pData;
 180:Middlewares/ST/STM32_USB_Host_Library/Class/MSC/Src/usbh_msc_bot.c **** 
 181:Middlewares/ST/STM32_USB_Host_Library/Class/MSC/Src/usbh_msc_bot.c ****   MSC_Handle->hbot.cbw.field.Signature = BOT_CBW_SIGNATURE;
 182:Middlewares/ST/STM32_USB_Host_Library/Class/MSC/Src/usbh_msc_bot.c ****   MSC_Handle->hbot.cbw.field.Tag = BOT_CBW_TAG;
 183:Middlewares/ST/STM32_USB_Host_Library/Class/MSC/Src/usbh_msc_bot.c ****   MSC_Handle->hbot.state = BOT_SEND_CBW;
 184:Middlewares/ST/STM32_USB_Host_Library/Class/MSC/Src/usbh_msc_bot.c ****   MSC_Handle->hbot.cmd_state = BOT_CMD_SEND;
 185:Middlewares/ST/STM32_USB_Host_Library/Class/MSC/Src/usbh_msc_bot.c **** 
 186:Middlewares/ST/STM32_USB_Host_Library/Class/MSC/Src/usbh_msc_bot.c ****   return USBH_OK;
 187:Middlewares/ST/STM32_USB_Host_Library/Class/MSC/Src/usbh_msc_bot.c **** }
 188:Middlewares/ST/STM32_USB_Host_Library/Class/MSC/Src/usbh_msc_bot.c **** 
 189:Middlewares/ST/STM32_USB_Host_Library/Class/MSC/Src/usbh_msc_bot.c **** 
 190:Middlewares/ST/STM32_USB_Host_Library/Class/MSC/Src/usbh_msc_bot.c **** 
 191:Middlewares/ST/STM32_USB_Host_Library/Class/MSC/Src/usbh_msc_bot.c **** /**
 192:Middlewares/ST/STM32_USB_Host_Library/Class/MSC/Src/usbh_msc_bot.c ****   * @brief  USBH_MSC_BOT_Process
 193:Middlewares/ST/STM32_USB_Host_Library/Class/MSC/Src/usbh_msc_bot.c ****   *         The function handle the BOT protocol.
 194:Middlewares/ST/STM32_USB_Host_Library/Class/MSC/Src/usbh_msc_bot.c ****   * @param  phost: Host handle
 195:Middlewares/ST/STM32_USB_Host_Library/Class/MSC/Src/usbh_msc_bot.c ****   * @param  lun: Logical Unit Number
 196:Middlewares/ST/STM32_USB_Host_Library/Class/MSC/Src/usbh_msc_bot.c ****   * @retval USBH Status
 197:Middlewares/ST/STM32_USB_Host_Library/Class/MSC/Src/usbh_msc_bot.c ****   */
 198:Middlewares/ST/STM32_USB_Host_Library/Class/MSC/Src/usbh_msc_bot.c **** USBH_StatusTypeDef USBH_MSC_BOT_Process (USBH_HandleTypeDef *phost, uint8_t lun)
 199:Middlewares/ST/STM32_USB_Host_Library/Class/MSC/Src/usbh_msc_bot.c **** {
 200:Middlewares/ST/STM32_USB_Host_Library/Class/MSC/Src/usbh_msc_bot.c ****   USBH_StatusTypeDef   status = USBH_BUSY;
 201:Middlewares/ST/STM32_USB_Host_Library/Class/MSC/Src/usbh_msc_bot.c ****   USBH_StatusTypeDef   error  = USBH_BUSY;
ARM GAS  C:\Users\Nina\AppData\Local\Temp\ccRhRQJJ.s 			page 5


 202:Middlewares/ST/STM32_USB_Host_Library/Class/MSC/Src/usbh_msc_bot.c ****   BOT_CSWStatusTypeDef CSW_Status = BOT_CSW_CMD_FAILED;
 203:Middlewares/ST/STM32_USB_Host_Library/Class/MSC/Src/usbh_msc_bot.c ****   USBH_URBStateTypeDef URB_Status = USBH_URB_IDLE;
 204:Middlewares/ST/STM32_USB_Host_Library/Class/MSC/Src/usbh_msc_bot.c ****   MSC_HandleTypeDef *MSC_Handle =  (MSC_HandleTypeDef *) phost->pActiveClass->pData;
 205:Middlewares/ST/STM32_USB_Host_Library/Class/MSC/Src/usbh_msc_bot.c ****   uint8_t toggle = 0U;
 206:Middlewares/ST/STM32_USB_Host_Library/Class/MSC/Src/usbh_msc_bot.c **** 
 207:Middlewares/ST/STM32_USB_Host_Library/Class/MSC/Src/usbh_msc_bot.c ****   switch (MSC_Handle->hbot.state)
 208:Middlewares/ST/STM32_USB_Host_Library/Class/MSC/Src/usbh_msc_bot.c ****   {
 209:Middlewares/ST/STM32_USB_Host_Library/Class/MSC/Src/usbh_msc_bot.c ****   case BOT_SEND_CBW:
 210:Middlewares/ST/STM32_USB_Host_Library/Class/MSC/Src/usbh_msc_bot.c ****     MSC_Handle->hbot.cbw.field.LUN = lun;
 211:Middlewares/ST/STM32_USB_Host_Library/Class/MSC/Src/usbh_msc_bot.c ****     MSC_Handle->hbot.state = BOT_SEND_CBW_WAIT;
 212:Middlewares/ST/STM32_USB_Host_Library/Class/MSC/Src/usbh_msc_bot.c ****     USBH_BulkSendData (phost, MSC_Handle->hbot.cbw.data,
 213:Middlewares/ST/STM32_USB_Host_Library/Class/MSC/Src/usbh_msc_bot.c ****                        BOT_CBW_LENGTH, MSC_Handle->OutPipe, 1U);
 214:Middlewares/ST/STM32_USB_Host_Library/Class/MSC/Src/usbh_msc_bot.c **** 
 215:Middlewares/ST/STM32_USB_Host_Library/Class/MSC/Src/usbh_msc_bot.c ****     break;
 216:Middlewares/ST/STM32_USB_Host_Library/Class/MSC/Src/usbh_msc_bot.c **** 
 217:Middlewares/ST/STM32_USB_Host_Library/Class/MSC/Src/usbh_msc_bot.c ****   case BOT_SEND_CBW_WAIT:
 218:Middlewares/ST/STM32_USB_Host_Library/Class/MSC/Src/usbh_msc_bot.c **** 
 219:Middlewares/ST/STM32_USB_Host_Library/Class/MSC/Src/usbh_msc_bot.c ****     URB_Status = USBH_LL_GetURBState(phost, MSC_Handle->OutPipe);
 220:Middlewares/ST/STM32_USB_Host_Library/Class/MSC/Src/usbh_msc_bot.c **** 
 221:Middlewares/ST/STM32_USB_Host_Library/Class/MSC/Src/usbh_msc_bot.c ****     if(URB_Status == USBH_URB_DONE)
 222:Middlewares/ST/STM32_USB_Host_Library/Class/MSC/Src/usbh_msc_bot.c ****     {
 223:Middlewares/ST/STM32_USB_Host_Library/Class/MSC/Src/usbh_msc_bot.c ****       if ( MSC_Handle->hbot.cbw.field.DataTransferLength != 0U)
 224:Middlewares/ST/STM32_USB_Host_Library/Class/MSC/Src/usbh_msc_bot.c ****       {
 225:Middlewares/ST/STM32_USB_Host_Library/Class/MSC/Src/usbh_msc_bot.c ****         /* If there is Data Transfer Stage */
 226:Middlewares/ST/STM32_USB_Host_Library/Class/MSC/Src/usbh_msc_bot.c ****         if (((MSC_Handle->hbot.cbw.field.Flags) & USB_REQ_DIR_MASK) == USB_D2H)
 227:Middlewares/ST/STM32_USB_Host_Library/Class/MSC/Src/usbh_msc_bot.c ****         {
 228:Middlewares/ST/STM32_USB_Host_Library/Class/MSC/Src/usbh_msc_bot.c ****           /* Data Direction is IN */
 229:Middlewares/ST/STM32_USB_Host_Library/Class/MSC/Src/usbh_msc_bot.c ****           MSC_Handle->hbot.state = BOT_DATA_IN;
 230:Middlewares/ST/STM32_USB_Host_Library/Class/MSC/Src/usbh_msc_bot.c ****         }
 231:Middlewares/ST/STM32_USB_Host_Library/Class/MSC/Src/usbh_msc_bot.c ****         else
 232:Middlewares/ST/STM32_USB_Host_Library/Class/MSC/Src/usbh_msc_bot.c ****         {
 233:Middlewares/ST/STM32_USB_Host_Library/Class/MSC/Src/usbh_msc_bot.c ****           /* Data Direction is OUT */
 234:Middlewares/ST/STM32_USB_Host_Library/Class/MSC/Src/usbh_msc_bot.c ****           MSC_Handle->hbot.state = BOT_DATA_OUT;
 235:Middlewares/ST/STM32_USB_Host_Library/Class/MSC/Src/usbh_msc_bot.c ****         }
 236:Middlewares/ST/STM32_USB_Host_Library/Class/MSC/Src/usbh_msc_bot.c ****       }
 237:Middlewares/ST/STM32_USB_Host_Library/Class/MSC/Src/usbh_msc_bot.c **** 
 238:Middlewares/ST/STM32_USB_Host_Library/Class/MSC/Src/usbh_msc_bot.c ****       else
 239:Middlewares/ST/STM32_USB_Host_Library/Class/MSC/Src/usbh_msc_bot.c ****       {/* If there is NO Data Transfer Stage */
 240:Middlewares/ST/STM32_USB_Host_Library/Class/MSC/Src/usbh_msc_bot.c ****         MSC_Handle->hbot.state = BOT_RECEIVE_CSW;
 241:Middlewares/ST/STM32_USB_Host_Library/Class/MSC/Src/usbh_msc_bot.c ****       }
 242:Middlewares/ST/STM32_USB_Host_Library/Class/MSC/Src/usbh_msc_bot.c **** #if (USBH_USE_OS == 1U)
 243:Middlewares/ST/STM32_USB_Host_Library/Class/MSC/Src/usbh_msc_bot.c ****     osMessagePut ( phost->os_event, USBH_URB_EVENT, 0U);
 244:Middlewares/ST/STM32_USB_Host_Library/Class/MSC/Src/usbh_msc_bot.c **** #endif
 245:Middlewares/ST/STM32_USB_Host_Library/Class/MSC/Src/usbh_msc_bot.c **** 
 246:Middlewares/ST/STM32_USB_Host_Library/Class/MSC/Src/usbh_msc_bot.c ****     }
 247:Middlewares/ST/STM32_USB_Host_Library/Class/MSC/Src/usbh_msc_bot.c ****     else if(URB_Status == USBH_URB_NOTREADY)
 248:Middlewares/ST/STM32_USB_Host_Library/Class/MSC/Src/usbh_msc_bot.c ****     {
 249:Middlewares/ST/STM32_USB_Host_Library/Class/MSC/Src/usbh_msc_bot.c ****       /* Re-send CBW */
 250:Middlewares/ST/STM32_USB_Host_Library/Class/MSC/Src/usbh_msc_bot.c ****       MSC_Handle->hbot.state = BOT_SEND_CBW;
 251:Middlewares/ST/STM32_USB_Host_Library/Class/MSC/Src/usbh_msc_bot.c **** #if (USBH_USE_OS == 1U)
 252:Middlewares/ST/STM32_USB_Host_Library/Class/MSC/Src/usbh_msc_bot.c ****     osMessagePut ( phost->os_event, USBH_URB_EVENT, 0U);
 253:Middlewares/ST/STM32_USB_Host_Library/Class/MSC/Src/usbh_msc_bot.c **** #endif
 254:Middlewares/ST/STM32_USB_Host_Library/Class/MSC/Src/usbh_msc_bot.c ****     }
 255:Middlewares/ST/STM32_USB_Host_Library/Class/MSC/Src/usbh_msc_bot.c ****     else
 256:Middlewares/ST/STM32_USB_Host_Library/Class/MSC/Src/usbh_msc_bot.c ****     {
 257:Middlewares/ST/STM32_USB_Host_Library/Class/MSC/Src/usbh_msc_bot.c ****       if(URB_Status == USBH_URB_STALL)
 258:Middlewares/ST/STM32_USB_Host_Library/Class/MSC/Src/usbh_msc_bot.c ****       {
ARM GAS  C:\Users\Nina\AppData\Local\Temp\ccRhRQJJ.s 			page 6


 259:Middlewares/ST/STM32_USB_Host_Library/Class/MSC/Src/usbh_msc_bot.c ****         MSC_Handle->hbot.state  = BOT_ERROR_OUT;
 260:Middlewares/ST/STM32_USB_Host_Library/Class/MSC/Src/usbh_msc_bot.c **** #if (USBH_USE_OS == 1U)
 261:Middlewares/ST/STM32_USB_Host_Library/Class/MSC/Src/usbh_msc_bot.c ****         osMessagePut ( phost->os_event, USBH_URB_EVENT, 0U);
 262:Middlewares/ST/STM32_USB_Host_Library/Class/MSC/Src/usbh_msc_bot.c **** #endif
 263:Middlewares/ST/STM32_USB_Host_Library/Class/MSC/Src/usbh_msc_bot.c ****       }
 264:Middlewares/ST/STM32_USB_Host_Library/Class/MSC/Src/usbh_msc_bot.c ****     }
 265:Middlewares/ST/STM32_USB_Host_Library/Class/MSC/Src/usbh_msc_bot.c ****     break;
 266:Middlewares/ST/STM32_USB_Host_Library/Class/MSC/Src/usbh_msc_bot.c **** 
 267:Middlewares/ST/STM32_USB_Host_Library/Class/MSC/Src/usbh_msc_bot.c ****   case BOT_DATA_IN:
 268:Middlewares/ST/STM32_USB_Host_Library/Class/MSC/Src/usbh_msc_bot.c ****     /* Send first packet */
 269:Middlewares/ST/STM32_USB_Host_Library/Class/MSC/Src/usbh_msc_bot.c ****     USBH_BulkReceiveData (phost, MSC_Handle->hbot.pbuf,
 270:Middlewares/ST/STM32_USB_Host_Library/Class/MSC/Src/usbh_msc_bot.c ****                           MSC_Handle->InEpSize, MSC_Handle->InPipe);
 271:Middlewares/ST/STM32_USB_Host_Library/Class/MSC/Src/usbh_msc_bot.c **** 
 272:Middlewares/ST/STM32_USB_Host_Library/Class/MSC/Src/usbh_msc_bot.c ****     MSC_Handle->hbot.state = BOT_DATA_IN_WAIT;
 273:Middlewares/ST/STM32_USB_Host_Library/Class/MSC/Src/usbh_msc_bot.c **** 
 274:Middlewares/ST/STM32_USB_Host_Library/Class/MSC/Src/usbh_msc_bot.c ****     break;
 275:Middlewares/ST/STM32_USB_Host_Library/Class/MSC/Src/usbh_msc_bot.c **** 
 276:Middlewares/ST/STM32_USB_Host_Library/Class/MSC/Src/usbh_msc_bot.c ****   case BOT_DATA_IN_WAIT:
 277:Middlewares/ST/STM32_USB_Host_Library/Class/MSC/Src/usbh_msc_bot.c **** 
 278:Middlewares/ST/STM32_USB_Host_Library/Class/MSC/Src/usbh_msc_bot.c ****     URB_Status = USBH_LL_GetURBState(phost, MSC_Handle->InPipe);
 279:Middlewares/ST/STM32_USB_Host_Library/Class/MSC/Src/usbh_msc_bot.c **** 
 280:Middlewares/ST/STM32_USB_Host_Library/Class/MSC/Src/usbh_msc_bot.c ****     if(URB_Status == USBH_URB_DONE)
 281:Middlewares/ST/STM32_USB_Host_Library/Class/MSC/Src/usbh_msc_bot.c ****     {
 282:Middlewares/ST/STM32_USB_Host_Library/Class/MSC/Src/usbh_msc_bot.c ****       /* Adjust Data pointer and data length */
 283:Middlewares/ST/STM32_USB_Host_Library/Class/MSC/Src/usbh_msc_bot.c ****       if(MSC_Handle->hbot.cbw.field.DataTransferLength > MSC_Handle->InEpSize)
 284:Middlewares/ST/STM32_USB_Host_Library/Class/MSC/Src/usbh_msc_bot.c ****       {
 285:Middlewares/ST/STM32_USB_Host_Library/Class/MSC/Src/usbh_msc_bot.c ****           MSC_Handle->hbot.pbuf += MSC_Handle->InEpSize;
 286:Middlewares/ST/STM32_USB_Host_Library/Class/MSC/Src/usbh_msc_bot.c ****           MSC_Handle->hbot.cbw.field.DataTransferLength -= MSC_Handle->InEpSize;
 287:Middlewares/ST/STM32_USB_Host_Library/Class/MSC/Src/usbh_msc_bot.c ****       }
 288:Middlewares/ST/STM32_USB_Host_Library/Class/MSC/Src/usbh_msc_bot.c ****       else
 289:Middlewares/ST/STM32_USB_Host_Library/Class/MSC/Src/usbh_msc_bot.c ****       {
 290:Middlewares/ST/STM32_USB_Host_Library/Class/MSC/Src/usbh_msc_bot.c ****         MSC_Handle->hbot.cbw.field.DataTransferLength = 0U;
 291:Middlewares/ST/STM32_USB_Host_Library/Class/MSC/Src/usbh_msc_bot.c ****       }
 292:Middlewares/ST/STM32_USB_Host_Library/Class/MSC/Src/usbh_msc_bot.c **** 
 293:Middlewares/ST/STM32_USB_Host_Library/Class/MSC/Src/usbh_msc_bot.c ****       /* More Data To be Received */
 294:Middlewares/ST/STM32_USB_Host_Library/Class/MSC/Src/usbh_msc_bot.c ****       if(MSC_Handle->hbot.cbw.field.DataTransferLength > 0U)
 295:Middlewares/ST/STM32_USB_Host_Library/Class/MSC/Src/usbh_msc_bot.c ****       {
 296:Middlewares/ST/STM32_USB_Host_Library/Class/MSC/Src/usbh_msc_bot.c ****         /* Send next packet */
 297:Middlewares/ST/STM32_USB_Host_Library/Class/MSC/Src/usbh_msc_bot.c ****         USBH_BulkReceiveData (phost, MSC_Handle->hbot.pbuf,
 298:Middlewares/ST/STM32_USB_Host_Library/Class/MSC/Src/usbh_msc_bot.c ****                               MSC_Handle->InEpSize, MSC_Handle->InPipe);
 299:Middlewares/ST/STM32_USB_Host_Library/Class/MSC/Src/usbh_msc_bot.c ****       }
 300:Middlewares/ST/STM32_USB_Host_Library/Class/MSC/Src/usbh_msc_bot.c ****       else
 301:Middlewares/ST/STM32_USB_Host_Library/Class/MSC/Src/usbh_msc_bot.c ****       {
 302:Middlewares/ST/STM32_USB_Host_Library/Class/MSC/Src/usbh_msc_bot.c ****         /* If value was 0, and successful transfer, then change the state */
 303:Middlewares/ST/STM32_USB_Host_Library/Class/MSC/Src/usbh_msc_bot.c ****         MSC_Handle->hbot.state  = BOT_RECEIVE_CSW;
 304:Middlewares/ST/STM32_USB_Host_Library/Class/MSC/Src/usbh_msc_bot.c **** #if (USBH_USE_OS == 1U)
 305:Middlewares/ST/STM32_USB_Host_Library/Class/MSC/Src/usbh_msc_bot.c ****         osMessagePut (phost->os_event, USBH_URB_EVENT, 0U);
 306:Middlewares/ST/STM32_USB_Host_Library/Class/MSC/Src/usbh_msc_bot.c **** #endif
 307:Middlewares/ST/STM32_USB_Host_Library/Class/MSC/Src/usbh_msc_bot.c ****       }
 308:Middlewares/ST/STM32_USB_Host_Library/Class/MSC/Src/usbh_msc_bot.c ****     }
 309:Middlewares/ST/STM32_USB_Host_Library/Class/MSC/Src/usbh_msc_bot.c ****     else if(URB_Status == USBH_URB_STALL)
 310:Middlewares/ST/STM32_USB_Host_Library/Class/MSC/Src/usbh_msc_bot.c ****     {
 311:Middlewares/ST/STM32_USB_Host_Library/Class/MSC/Src/usbh_msc_bot.c ****       /* This is Data IN Stage STALL Condition */
 312:Middlewares/ST/STM32_USB_Host_Library/Class/MSC/Src/usbh_msc_bot.c ****       MSC_Handle->hbot.state  = BOT_ERROR_IN;
 313:Middlewares/ST/STM32_USB_Host_Library/Class/MSC/Src/usbh_msc_bot.c **** 
 314:Middlewares/ST/STM32_USB_Host_Library/Class/MSC/Src/usbh_msc_bot.c ****       /* Refer to USB Mass-Storage Class : BOT (www.usb.org)
 315:Middlewares/ST/STM32_USB_Host_Library/Class/MSC/Src/usbh_msc_bot.c ****       6.7.2 Host expects to receive data from the device
ARM GAS  C:\Users\Nina\AppData\Local\Temp\ccRhRQJJ.s 			page 7


 316:Middlewares/ST/STM32_USB_Host_Library/Class/MSC/Src/usbh_msc_bot.c ****       3. On a STALL condition receiving data, then:
 317:Middlewares/ST/STM32_USB_Host_Library/Class/MSC/Src/usbh_msc_bot.c ****       The host shall accept the data received.
 318:Middlewares/ST/STM32_USB_Host_Library/Class/MSC/Src/usbh_msc_bot.c ****       The host shall clear the Bulk-In pipe.
 319:Middlewares/ST/STM32_USB_Host_Library/Class/MSC/Src/usbh_msc_bot.c ****       4. The host shall attempt to receive a CSW.*/
 320:Middlewares/ST/STM32_USB_Host_Library/Class/MSC/Src/usbh_msc_bot.c **** 
 321:Middlewares/ST/STM32_USB_Host_Library/Class/MSC/Src/usbh_msc_bot.c **** #if (USBH_USE_OS == 1U)
 322:Middlewares/ST/STM32_USB_Host_Library/Class/MSC/Src/usbh_msc_bot.c ****     osMessagePut (phost->os_event, USBH_URB_EVENT, 0U);
 323:Middlewares/ST/STM32_USB_Host_Library/Class/MSC/Src/usbh_msc_bot.c **** #endif
 324:Middlewares/ST/STM32_USB_Host_Library/Class/MSC/Src/usbh_msc_bot.c ****     }
 325:Middlewares/ST/STM32_USB_Host_Library/Class/MSC/Src/usbh_msc_bot.c ****     else
 326:Middlewares/ST/STM32_USB_Host_Library/Class/MSC/Src/usbh_msc_bot.c ****     {
 327:Middlewares/ST/STM32_USB_Host_Library/Class/MSC/Src/usbh_msc_bot.c ****     }
 328:Middlewares/ST/STM32_USB_Host_Library/Class/MSC/Src/usbh_msc_bot.c ****     break;
 329:Middlewares/ST/STM32_USB_Host_Library/Class/MSC/Src/usbh_msc_bot.c **** 
 330:Middlewares/ST/STM32_USB_Host_Library/Class/MSC/Src/usbh_msc_bot.c ****   case BOT_DATA_OUT:
 331:Middlewares/ST/STM32_USB_Host_Library/Class/MSC/Src/usbh_msc_bot.c **** 
 332:Middlewares/ST/STM32_USB_Host_Library/Class/MSC/Src/usbh_msc_bot.c ****     USBH_BulkSendData (phost, MSC_Handle->hbot.pbuf,
 333:Middlewares/ST/STM32_USB_Host_Library/Class/MSC/Src/usbh_msc_bot.c ****                        MSC_Handle->OutEpSize, MSC_Handle->OutPipe, 1U);
 334:Middlewares/ST/STM32_USB_Host_Library/Class/MSC/Src/usbh_msc_bot.c **** 
 335:Middlewares/ST/STM32_USB_Host_Library/Class/MSC/Src/usbh_msc_bot.c ****     MSC_Handle->hbot.state  = BOT_DATA_OUT_WAIT;
 336:Middlewares/ST/STM32_USB_Host_Library/Class/MSC/Src/usbh_msc_bot.c ****     break;
 337:Middlewares/ST/STM32_USB_Host_Library/Class/MSC/Src/usbh_msc_bot.c **** 
 338:Middlewares/ST/STM32_USB_Host_Library/Class/MSC/Src/usbh_msc_bot.c ****   case BOT_DATA_OUT_WAIT:
 339:Middlewares/ST/STM32_USB_Host_Library/Class/MSC/Src/usbh_msc_bot.c ****     URB_Status = USBH_LL_GetURBState(phost, MSC_Handle->OutPipe);
 340:Middlewares/ST/STM32_USB_Host_Library/Class/MSC/Src/usbh_msc_bot.c **** 
 341:Middlewares/ST/STM32_USB_Host_Library/Class/MSC/Src/usbh_msc_bot.c ****     if(URB_Status == USBH_URB_DONE)
 342:Middlewares/ST/STM32_USB_Host_Library/Class/MSC/Src/usbh_msc_bot.c ****     {
 343:Middlewares/ST/STM32_USB_Host_Library/Class/MSC/Src/usbh_msc_bot.c ****       /* Adjust Data pointer and data length */
 344:Middlewares/ST/STM32_USB_Host_Library/Class/MSC/Src/usbh_msc_bot.c ****       if(MSC_Handle->hbot.cbw.field.DataTransferLength > MSC_Handle->OutEpSize)
 345:Middlewares/ST/STM32_USB_Host_Library/Class/MSC/Src/usbh_msc_bot.c ****       {
 346:Middlewares/ST/STM32_USB_Host_Library/Class/MSC/Src/usbh_msc_bot.c ****           MSC_Handle->hbot.pbuf += MSC_Handle->OutEpSize;
 347:Middlewares/ST/STM32_USB_Host_Library/Class/MSC/Src/usbh_msc_bot.c ****           MSC_Handle->hbot.cbw.field.DataTransferLength -= MSC_Handle->OutEpSize;
 348:Middlewares/ST/STM32_USB_Host_Library/Class/MSC/Src/usbh_msc_bot.c ****       }
 349:Middlewares/ST/STM32_USB_Host_Library/Class/MSC/Src/usbh_msc_bot.c ****       else
 350:Middlewares/ST/STM32_USB_Host_Library/Class/MSC/Src/usbh_msc_bot.c ****       {
 351:Middlewares/ST/STM32_USB_Host_Library/Class/MSC/Src/usbh_msc_bot.c ****         MSC_Handle->hbot.cbw.field.DataTransferLength = 0U;
 352:Middlewares/ST/STM32_USB_Host_Library/Class/MSC/Src/usbh_msc_bot.c ****       }
 353:Middlewares/ST/STM32_USB_Host_Library/Class/MSC/Src/usbh_msc_bot.c **** 
 354:Middlewares/ST/STM32_USB_Host_Library/Class/MSC/Src/usbh_msc_bot.c ****       /* More Data To be Sent */
 355:Middlewares/ST/STM32_USB_Host_Library/Class/MSC/Src/usbh_msc_bot.c ****       if(MSC_Handle->hbot.cbw.field.DataTransferLength > 0U)
 356:Middlewares/ST/STM32_USB_Host_Library/Class/MSC/Src/usbh_msc_bot.c ****       {
 357:Middlewares/ST/STM32_USB_Host_Library/Class/MSC/Src/usbh_msc_bot.c ****         USBH_BulkSendData (phost, MSC_Handle->hbot.pbuf,
 358:Middlewares/ST/STM32_USB_Host_Library/Class/MSC/Src/usbh_msc_bot.c ****                            MSC_Handle->OutEpSize, MSC_Handle->OutPipe, 1U);
 359:Middlewares/ST/STM32_USB_Host_Library/Class/MSC/Src/usbh_msc_bot.c ****       }
 360:Middlewares/ST/STM32_USB_Host_Library/Class/MSC/Src/usbh_msc_bot.c ****       else
 361:Middlewares/ST/STM32_USB_Host_Library/Class/MSC/Src/usbh_msc_bot.c ****       {
 362:Middlewares/ST/STM32_USB_Host_Library/Class/MSC/Src/usbh_msc_bot.c ****         /* If value was 0, and successful transfer, then change the state */
 363:Middlewares/ST/STM32_USB_Host_Library/Class/MSC/Src/usbh_msc_bot.c ****         MSC_Handle->hbot.state  = BOT_RECEIVE_CSW;
 364:Middlewares/ST/STM32_USB_Host_Library/Class/MSC/Src/usbh_msc_bot.c ****       }
 365:Middlewares/ST/STM32_USB_Host_Library/Class/MSC/Src/usbh_msc_bot.c **** #if (USBH_USE_OS == 1U)
 366:Middlewares/ST/STM32_USB_Host_Library/Class/MSC/Src/usbh_msc_bot.c ****     osMessagePut (phost->os_event, USBH_URB_EVENT, 0U);
 367:Middlewares/ST/STM32_USB_Host_Library/Class/MSC/Src/usbh_msc_bot.c **** #endif
 368:Middlewares/ST/STM32_USB_Host_Library/Class/MSC/Src/usbh_msc_bot.c ****     }
 369:Middlewares/ST/STM32_USB_Host_Library/Class/MSC/Src/usbh_msc_bot.c **** 
 370:Middlewares/ST/STM32_USB_Host_Library/Class/MSC/Src/usbh_msc_bot.c ****     else if(URB_Status == USBH_URB_NOTREADY)
 371:Middlewares/ST/STM32_USB_Host_Library/Class/MSC/Src/usbh_msc_bot.c ****     {
 372:Middlewares/ST/STM32_USB_Host_Library/Class/MSC/Src/usbh_msc_bot.c ****       /* Resend same data */
ARM GAS  C:\Users\Nina\AppData\Local\Temp\ccRhRQJJ.s 			page 8


 373:Middlewares/ST/STM32_USB_Host_Library/Class/MSC/Src/usbh_msc_bot.c ****       MSC_Handle->hbot.state  = BOT_DATA_OUT;
 374:Middlewares/ST/STM32_USB_Host_Library/Class/MSC/Src/usbh_msc_bot.c **** #if (USBH_USE_OS == 1U)
 375:Middlewares/ST/STM32_USB_Host_Library/Class/MSC/Src/usbh_msc_bot.c ****     osMessagePut ( phost->os_event, USBH_URB_EVENT, 0U);
 376:Middlewares/ST/STM32_USB_Host_Library/Class/MSC/Src/usbh_msc_bot.c **** #endif
 377:Middlewares/ST/STM32_USB_Host_Library/Class/MSC/Src/usbh_msc_bot.c ****     }
 378:Middlewares/ST/STM32_USB_Host_Library/Class/MSC/Src/usbh_msc_bot.c **** 
 379:Middlewares/ST/STM32_USB_Host_Library/Class/MSC/Src/usbh_msc_bot.c ****     else if(URB_Status == USBH_URB_STALL)
 380:Middlewares/ST/STM32_USB_Host_Library/Class/MSC/Src/usbh_msc_bot.c ****     {
 381:Middlewares/ST/STM32_USB_Host_Library/Class/MSC/Src/usbh_msc_bot.c ****       MSC_Handle->hbot.state  = BOT_ERROR_OUT;
 382:Middlewares/ST/STM32_USB_Host_Library/Class/MSC/Src/usbh_msc_bot.c **** 
 383:Middlewares/ST/STM32_USB_Host_Library/Class/MSC/Src/usbh_msc_bot.c ****       /* Refer to USB Mass-Storage Class : BOT (www.usb.org)
 384:Middlewares/ST/STM32_USB_Host_Library/Class/MSC/Src/usbh_msc_bot.c ****       6.7.3 Ho - Host expects to send data to the device
 385:Middlewares/ST/STM32_USB_Host_Library/Class/MSC/Src/usbh_msc_bot.c ****       3. On a STALL condition sending data, then:
 386:Middlewares/ST/STM32_USB_Host_Library/Class/MSC/Src/usbh_msc_bot.c ****       " The host shall clear the Bulk-Out pipe.
 387:Middlewares/ST/STM32_USB_Host_Library/Class/MSC/Src/usbh_msc_bot.c ****       4. The host shall attempt to receive a CSW.
 388:Middlewares/ST/STM32_USB_Host_Library/Class/MSC/Src/usbh_msc_bot.c ****       */
 389:Middlewares/ST/STM32_USB_Host_Library/Class/MSC/Src/usbh_msc_bot.c **** #if (USBH_USE_OS == 1U)
 390:Middlewares/ST/STM32_USB_Host_Library/Class/MSC/Src/usbh_msc_bot.c ****       osMessagePut ( phost->os_event, USBH_URB_EVENT, 0U);
 391:Middlewares/ST/STM32_USB_Host_Library/Class/MSC/Src/usbh_msc_bot.c **** #endif
 392:Middlewares/ST/STM32_USB_Host_Library/Class/MSC/Src/usbh_msc_bot.c ****     }
 393:Middlewares/ST/STM32_USB_Host_Library/Class/MSC/Src/usbh_msc_bot.c ****     else
 394:Middlewares/ST/STM32_USB_Host_Library/Class/MSC/Src/usbh_msc_bot.c ****     {
 395:Middlewares/ST/STM32_USB_Host_Library/Class/MSC/Src/usbh_msc_bot.c ****     }
 396:Middlewares/ST/STM32_USB_Host_Library/Class/MSC/Src/usbh_msc_bot.c ****     break;
 397:Middlewares/ST/STM32_USB_Host_Library/Class/MSC/Src/usbh_msc_bot.c **** 
 398:Middlewares/ST/STM32_USB_Host_Library/Class/MSC/Src/usbh_msc_bot.c ****   case BOT_RECEIVE_CSW:
 399:Middlewares/ST/STM32_USB_Host_Library/Class/MSC/Src/usbh_msc_bot.c **** 
 400:Middlewares/ST/STM32_USB_Host_Library/Class/MSC/Src/usbh_msc_bot.c ****     USBH_BulkReceiveData (phost, MSC_Handle->hbot.csw.data,
 401:Middlewares/ST/STM32_USB_Host_Library/Class/MSC/Src/usbh_msc_bot.c ****                           BOT_CSW_LENGTH, MSC_Handle->InPipe);
 402:Middlewares/ST/STM32_USB_Host_Library/Class/MSC/Src/usbh_msc_bot.c **** 
 403:Middlewares/ST/STM32_USB_Host_Library/Class/MSC/Src/usbh_msc_bot.c ****     MSC_Handle->hbot.state  = BOT_RECEIVE_CSW_WAIT;
 404:Middlewares/ST/STM32_USB_Host_Library/Class/MSC/Src/usbh_msc_bot.c ****     break;
 405:Middlewares/ST/STM32_USB_Host_Library/Class/MSC/Src/usbh_msc_bot.c **** 
 406:Middlewares/ST/STM32_USB_Host_Library/Class/MSC/Src/usbh_msc_bot.c ****   case BOT_RECEIVE_CSW_WAIT:
 407:Middlewares/ST/STM32_USB_Host_Library/Class/MSC/Src/usbh_msc_bot.c **** 
 408:Middlewares/ST/STM32_USB_Host_Library/Class/MSC/Src/usbh_msc_bot.c ****     URB_Status = USBH_LL_GetURBState(phost, MSC_Handle->InPipe);
 409:Middlewares/ST/STM32_USB_Host_Library/Class/MSC/Src/usbh_msc_bot.c **** 
 410:Middlewares/ST/STM32_USB_Host_Library/Class/MSC/Src/usbh_msc_bot.c ****     /* Decode CSW */
 411:Middlewares/ST/STM32_USB_Host_Library/Class/MSC/Src/usbh_msc_bot.c ****     if(URB_Status == USBH_URB_DONE)
 412:Middlewares/ST/STM32_USB_Host_Library/Class/MSC/Src/usbh_msc_bot.c ****     {
 413:Middlewares/ST/STM32_USB_Host_Library/Class/MSC/Src/usbh_msc_bot.c ****       MSC_Handle->hbot.state = BOT_SEND_CBW;
 414:Middlewares/ST/STM32_USB_Host_Library/Class/MSC/Src/usbh_msc_bot.c ****       MSC_Handle->hbot.cmd_state = BOT_CMD_SEND;
 415:Middlewares/ST/STM32_USB_Host_Library/Class/MSC/Src/usbh_msc_bot.c ****       CSW_Status = USBH_MSC_DecodeCSW(phost);
 416:Middlewares/ST/STM32_USB_Host_Library/Class/MSC/Src/usbh_msc_bot.c **** 
 417:Middlewares/ST/STM32_USB_Host_Library/Class/MSC/Src/usbh_msc_bot.c ****       if(CSW_Status == BOT_CSW_CMD_PASSED)
 418:Middlewares/ST/STM32_USB_Host_Library/Class/MSC/Src/usbh_msc_bot.c ****       {
 419:Middlewares/ST/STM32_USB_Host_Library/Class/MSC/Src/usbh_msc_bot.c ****         status = USBH_OK;
 420:Middlewares/ST/STM32_USB_Host_Library/Class/MSC/Src/usbh_msc_bot.c ****       }
 421:Middlewares/ST/STM32_USB_Host_Library/Class/MSC/Src/usbh_msc_bot.c ****       else
 422:Middlewares/ST/STM32_USB_Host_Library/Class/MSC/Src/usbh_msc_bot.c ****       {
 423:Middlewares/ST/STM32_USB_Host_Library/Class/MSC/Src/usbh_msc_bot.c ****         status = USBH_FAIL;
 424:Middlewares/ST/STM32_USB_Host_Library/Class/MSC/Src/usbh_msc_bot.c ****       }
 425:Middlewares/ST/STM32_USB_Host_Library/Class/MSC/Src/usbh_msc_bot.c **** #if (USBH_USE_OS == 1U)
 426:Middlewares/ST/STM32_USB_Host_Library/Class/MSC/Src/usbh_msc_bot.c ****       osMessagePut (phost->os_event, USBH_URB_EVENT, 0U);
 427:Middlewares/ST/STM32_USB_Host_Library/Class/MSC/Src/usbh_msc_bot.c **** #endif
 428:Middlewares/ST/STM32_USB_Host_Library/Class/MSC/Src/usbh_msc_bot.c ****     }
 429:Middlewares/ST/STM32_USB_Host_Library/Class/MSC/Src/usbh_msc_bot.c ****     else if(URB_Status == USBH_URB_STALL)
ARM GAS  C:\Users\Nina\AppData\Local\Temp\ccRhRQJJ.s 			page 9


 430:Middlewares/ST/STM32_USB_Host_Library/Class/MSC/Src/usbh_msc_bot.c ****     {
 431:Middlewares/ST/STM32_USB_Host_Library/Class/MSC/Src/usbh_msc_bot.c ****       MSC_Handle->hbot.state  = BOT_ERROR_IN;
 432:Middlewares/ST/STM32_USB_Host_Library/Class/MSC/Src/usbh_msc_bot.c **** #if (USBH_USE_OS == 1U)
 433:Middlewares/ST/STM32_USB_Host_Library/Class/MSC/Src/usbh_msc_bot.c ****       osMessagePut (phost->os_event, USBH_URB_EVENT, 0U);
 434:Middlewares/ST/STM32_USB_Host_Library/Class/MSC/Src/usbh_msc_bot.c **** #endif
 435:Middlewares/ST/STM32_USB_Host_Library/Class/MSC/Src/usbh_msc_bot.c ****     }
 436:Middlewares/ST/STM32_USB_Host_Library/Class/MSC/Src/usbh_msc_bot.c ****     else
 437:Middlewares/ST/STM32_USB_Host_Library/Class/MSC/Src/usbh_msc_bot.c ****     {
 438:Middlewares/ST/STM32_USB_Host_Library/Class/MSC/Src/usbh_msc_bot.c ****     }
 439:Middlewares/ST/STM32_USB_Host_Library/Class/MSC/Src/usbh_msc_bot.c ****     break;
 440:Middlewares/ST/STM32_USB_Host_Library/Class/MSC/Src/usbh_msc_bot.c **** 
 441:Middlewares/ST/STM32_USB_Host_Library/Class/MSC/Src/usbh_msc_bot.c ****   case BOT_ERROR_IN:
 442:Middlewares/ST/STM32_USB_Host_Library/Class/MSC/Src/usbh_msc_bot.c ****     error = USBH_MSC_BOT_Abort(phost, lun, BOT_DIR_IN);
 443:Middlewares/ST/STM32_USB_Host_Library/Class/MSC/Src/usbh_msc_bot.c **** 
 444:Middlewares/ST/STM32_USB_Host_Library/Class/MSC/Src/usbh_msc_bot.c ****     if (error == USBH_OK)
 445:Middlewares/ST/STM32_USB_Host_Library/Class/MSC/Src/usbh_msc_bot.c ****     {
 446:Middlewares/ST/STM32_USB_Host_Library/Class/MSC/Src/usbh_msc_bot.c ****       MSC_Handle->hbot.state = BOT_RECEIVE_CSW;
 447:Middlewares/ST/STM32_USB_Host_Library/Class/MSC/Src/usbh_msc_bot.c ****     }
 448:Middlewares/ST/STM32_USB_Host_Library/Class/MSC/Src/usbh_msc_bot.c ****     else if (error == USBH_UNRECOVERED_ERROR)
 449:Middlewares/ST/STM32_USB_Host_Library/Class/MSC/Src/usbh_msc_bot.c ****     {
 450:Middlewares/ST/STM32_USB_Host_Library/Class/MSC/Src/usbh_msc_bot.c ****       /* This means that there is a STALL Error limit, Do Reset Recovery */
 451:Middlewares/ST/STM32_USB_Host_Library/Class/MSC/Src/usbh_msc_bot.c ****       MSC_Handle->hbot.state = BOT_UNRECOVERED_ERROR;
 452:Middlewares/ST/STM32_USB_Host_Library/Class/MSC/Src/usbh_msc_bot.c ****     }
 453:Middlewares/ST/STM32_USB_Host_Library/Class/MSC/Src/usbh_msc_bot.c ****     else
 454:Middlewares/ST/STM32_USB_Host_Library/Class/MSC/Src/usbh_msc_bot.c ****     {
 455:Middlewares/ST/STM32_USB_Host_Library/Class/MSC/Src/usbh_msc_bot.c ****     }
 456:Middlewares/ST/STM32_USB_Host_Library/Class/MSC/Src/usbh_msc_bot.c ****     break;
 457:Middlewares/ST/STM32_USB_Host_Library/Class/MSC/Src/usbh_msc_bot.c **** 
 458:Middlewares/ST/STM32_USB_Host_Library/Class/MSC/Src/usbh_msc_bot.c ****   case BOT_ERROR_OUT:
 459:Middlewares/ST/STM32_USB_Host_Library/Class/MSC/Src/usbh_msc_bot.c ****     error = USBH_MSC_BOT_Abort(phost, lun, BOT_DIR_OUT);
 460:Middlewares/ST/STM32_USB_Host_Library/Class/MSC/Src/usbh_msc_bot.c **** 
 461:Middlewares/ST/STM32_USB_Host_Library/Class/MSC/Src/usbh_msc_bot.c ****     if (error == USBH_OK)
 462:Middlewares/ST/STM32_USB_Host_Library/Class/MSC/Src/usbh_msc_bot.c ****     {
 463:Middlewares/ST/STM32_USB_Host_Library/Class/MSC/Src/usbh_msc_bot.c **** 
 464:Middlewares/ST/STM32_USB_Host_Library/Class/MSC/Src/usbh_msc_bot.c ****       toggle = USBH_LL_GetToggle(phost, MSC_Handle->OutPipe);
 465:Middlewares/ST/STM32_USB_Host_Library/Class/MSC/Src/usbh_msc_bot.c ****       USBH_LL_SetToggle(phost, MSC_Handle->OutPipe, 1U - toggle);
 466:Middlewares/ST/STM32_USB_Host_Library/Class/MSC/Src/usbh_msc_bot.c ****       USBH_LL_SetToggle(phost, MSC_Handle->InPipe, 0U);
 467:Middlewares/ST/STM32_USB_Host_Library/Class/MSC/Src/usbh_msc_bot.c ****       MSC_Handle->hbot.state = BOT_ERROR_IN;
 468:Middlewares/ST/STM32_USB_Host_Library/Class/MSC/Src/usbh_msc_bot.c ****     }
 469:Middlewares/ST/STM32_USB_Host_Library/Class/MSC/Src/usbh_msc_bot.c ****     else
 470:Middlewares/ST/STM32_USB_Host_Library/Class/MSC/Src/usbh_msc_bot.c ****     {
 471:Middlewares/ST/STM32_USB_Host_Library/Class/MSC/Src/usbh_msc_bot.c ****       if (error == USBH_UNRECOVERED_ERROR)
 472:Middlewares/ST/STM32_USB_Host_Library/Class/MSC/Src/usbh_msc_bot.c ****       {
 473:Middlewares/ST/STM32_USB_Host_Library/Class/MSC/Src/usbh_msc_bot.c ****         MSC_Handle->hbot.state = BOT_UNRECOVERED_ERROR;
 474:Middlewares/ST/STM32_USB_Host_Library/Class/MSC/Src/usbh_msc_bot.c ****       }
 475:Middlewares/ST/STM32_USB_Host_Library/Class/MSC/Src/usbh_msc_bot.c ****     }
 476:Middlewares/ST/STM32_USB_Host_Library/Class/MSC/Src/usbh_msc_bot.c ****     break;
 477:Middlewares/ST/STM32_USB_Host_Library/Class/MSC/Src/usbh_msc_bot.c **** 
 478:Middlewares/ST/STM32_USB_Host_Library/Class/MSC/Src/usbh_msc_bot.c **** 
 479:Middlewares/ST/STM32_USB_Host_Library/Class/MSC/Src/usbh_msc_bot.c ****   case BOT_UNRECOVERED_ERROR:
 480:Middlewares/ST/STM32_USB_Host_Library/Class/MSC/Src/usbh_msc_bot.c ****     status = USBH_MSC_BOT_REQ_Reset(phost);
 481:Middlewares/ST/STM32_USB_Host_Library/Class/MSC/Src/usbh_msc_bot.c ****     if ( status == USBH_OK)
 482:Middlewares/ST/STM32_USB_Host_Library/Class/MSC/Src/usbh_msc_bot.c ****     {
 483:Middlewares/ST/STM32_USB_Host_Library/Class/MSC/Src/usbh_msc_bot.c ****       MSC_Handle->hbot.state = BOT_SEND_CBW;
 484:Middlewares/ST/STM32_USB_Host_Library/Class/MSC/Src/usbh_msc_bot.c ****     }
 485:Middlewares/ST/STM32_USB_Host_Library/Class/MSC/Src/usbh_msc_bot.c ****     break;
 486:Middlewares/ST/STM32_USB_Host_Library/Class/MSC/Src/usbh_msc_bot.c **** 
ARM GAS  C:\Users\Nina\AppData\Local\Temp\ccRhRQJJ.s 			page 10


 487:Middlewares/ST/STM32_USB_Host_Library/Class/MSC/Src/usbh_msc_bot.c ****   default:
 488:Middlewares/ST/STM32_USB_Host_Library/Class/MSC/Src/usbh_msc_bot.c ****     break;
 489:Middlewares/ST/STM32_USB_Host_Library/Class/MSC/Src/usbh_msc_bot.c ****   }
 490:Middlewares/ST/STM32_USB_Host_Library/Class/MSC/Src/usbh_msc_bot.c ****   return status;
 491:Middlewares/ST/STM32_USB_Host_Library/Class/MSC/Src/usbh_msc_bot.c **** }
 492:Middlewares/ST/STM32_USB_Host_Library/Class/MSC/Src/usbh_msc_bot.c **** 
 493:Middlewares/ST/STM32_USB_Host_Library/Class/MSC/Src/usbh_msc_bot.c **** /**
 494:Middlewares/ST/STM32_USB_Host_Library/Class/MSC/Src/usbh_msc_bot.c ****   * @brief  USBH_MSC_BOT_Abort
 495:Middlewares/ST/STM32_USB_Host_Library/Class/MSC/Src/usbh_msc_bot.c ****   *         The function handle the BOT Abort process.
 496:Middlewares/ST/STM32_USB_Host_Library/Class/MSC/Src/usbh_msc_bot.c ****   * @param  phost: Host handle
 497:Middlewares/ST/STM32_USB_Host_Library/Class/MSC/Src/usbh_msc_bot.c ****   * @param  lun: Logical Unit Number
 498:Middlewares/ST/STM32_USB_Host_Library/Class/MSC/Src/usbh_msc_bot.c ****   * @param  dir: direction (0: out / 1 : in)
 499:Middlewares/ST/STM32_USB_Host_Library/Class/MSC/Src/usbh_msc_bot.c ****   * @retval USBH Status
 500:Middlewares/ST/STM32_USB_Host_Library/Class/MSC/Src/usbh_msc_bot.c ****   */
 501:Middlewares/ST/STM32_USB_Host_Library/Class/MSC/Src/usbh_msc_bot.c **** static USBH_StatusTypeDef USBH_MSC_BOT_Abort(USBH_HandleTypeDef *phost, uint8_t lun, uint8_t dir)
 502:Middlewares/ST/STM32_USB_Host_Library/Class/MSC/Src/usbh_msc_bot.c **** {
 503:Middlewares/ST/STM32_USB_Host_Library/Class/MSC/Src/usbh_msc_bot.c ****   USBH_StatusTypeDef status = USBH_FAIL;
 504:Middlewares/ST/STM32_USB_Host_Library/Class/MSC/Src/usbh_msc_bot.c ****   MSC_HandleTypeDef *MSC_Handle =  (MSC_HandleTypeDef *) phost->pActiveClass->pData;
 505:Middlewares/ST/STM32_USB_Host_Library/Class/MSC/Src/usbh_msc_bot.c **** 
 506:Middlewares/ST/STM32_USB_Host_Library/Class/MSC/Src/usbh_msc_bot.c ****   switch (dir)
 507:Middlewares/ST/STM32_USB_Host_Library/Class/MSC/Src/usbh_msc_bot.c ****   {
 508:Middlewares/ST/STM32_USB_Host_Library/Class/MSC/Src/usbh_msc_bot.c ****   case BOT_DIR_IN :
 509:Middlewares/ST/STM32_USB_Host_Library/Class/MSC/Src/usbh_msc_bot.c ****     /* send ClrFeture on Bulk IN endpoint */
 510:Middlewares/ST/STM32_USB_Host_Library/Class/MSC/Src/usbh_msc_bot.c ****     status = USBH_ClrFeature(phost, MSC_Handle->InEp);
 511:Middlewares/ST/STM32_USB_Host_Library/Class/MSC/Src/usbh_msc_bot.c **** 
 512:Middlewares/ST/STM32_USB_Host_Library/Class/MSC/Src/usbh_msc_bot.c ****     break;
 513:Middlewares/ST/STM32_USB_Host_Library/Class/MSC/Src/usbh_msc_bot.c **** 
 514:Middlewares/ST/STM32_USB_Host_Library/Class/MSC/Src/usbh_msc_bot.c ****   case BOT_DIR_OUT :
 515:Middlewares/ST/STM32_USB_Host_Library/Class/MSC/Src/usbh_msc_bot.c ****     /*send ClrFeature on Bulk OUT endpoint */
 516:Middlewares/ST/STM32_USB_Host_Library/Class/MSC/Src/usbh_msc_bot.c ****     status = USBH_ClrFeature(phost, MSC_Handle->OutEp);
 517:Middlewares/ST/STM32_USB_Host_Library/Class/MSC/Src/usbh_msc_bot.c ****     break;
 518:Middlewares/ST/STM32_USB_Host_Library/Class/MSC/Src/usbh_msc_bot.c **** 
 519:Middlewares/ST/STM32_USB_Host_Library/Class/MSC/Src/usbh_msc_bot.c ****   default:
 520:Middlewares/ST/STM32_USB_Host_Library/Class/MSC/Src/usbh_msc_bot.c ****     break;
 521:Middlewares/ST/STM32_USB_Host_Library/Class/MSC/Src/usbh_msc_bot.c ****   }
 522:Middlewares/ST/STM32_USB_Host_Library/Class/MSC/Src/usbh_msc_bot.c ****   return status;
 523:Middlewares/ST/STM32_USB_Host_Library/Class/MSC/Src/usbh_msc_bot.c **** }
 524:Middlewares/ST/STM32_USB_Host_Library/Class/MSC/Src/usbh_msc_bot.c **** 
 525:Middlewares/ST/STM32_USB_Host_Library/Class/MSC/Src/usbh_msc_bot.c **** /**
 526:Middlewares/ST/STM32_USB_Host_Library/Class/MSC/Src/usbh_msc_bot.c ****   * @brief  USBH_MSC_BOT_DecodeCSW
 527:Middlewares/ST/STM32_USB_Host_Library/Class/MSC/Src/usbh_msc_bot.c ****   *         This function decodes the CSW received by the device and updates the
 528:Middlewares/ST/STM32_USB_Host_Library/Class/MSC/Src/usbh_msc_bot.c ****   *         same to upper layer.
 529:Middlewares/ST/STM32_USB_Host_Library/Class/MSC/Src/usbh_msc_bot.c ****   * @param  phost: Host handle
 530:Middlewares/ST/STM32_USB_Host_Library/Class/MSC/Src/usbh_msc_bot.c ****   * @retval USBH Status
 531:Middlewares/ST/STM32_USB_Host_Library/Class/MSC/Src/usbh_msc_bot.c ****   * @notes
 532:Middlewares/ST/STM32_USB_Host_Library/Class/MSC/Src/usbh_msc_bot.c ****   *     Refer to USB Mass-Storage Class : BOT (www.usb.org)
 533:Middlewares/ST/STM32_USB_Host_Library/Class/MSC/Src/usbh_msc_bot.c ****   *    6.3.1 Valid CSW Conditions :
 534:Middlewares/ST/STM32_USB_Host_Library/Class/MSC/Src/usbh_msc_bot.c ****   *     The host shall consider the CSW valid when:
 535:Middlewares/ST/STM32_USB_Host_Library/Class/MSC/Src/usbh_msc_bot.c ****   *     1. dCSWSignature is equal to 53425355h
 536:Middlewares/ST/STM32_USB_Host_Library/Class/MSC/Src/usbh_msc_bot.c ****   *     2. the CSW is 13 (Dh) bytes in length,
 537:Middlewares/ST/STM32_USB_Host_Library/Class/MSC/Src/usbh_msc_bot.c ****   *     3. dCSWTag matches the dCBWTag from the corresponding CBW.
 538:Middlewares/ST/STM32_USB_Host_Library/Class/MSC/Src/usbh_msc_bot.c ****   */
 539:Middlewares/ST/STM32_USB_Host_Library/Class/MSC/Src/usbh_msc_bot.c **** 
 540:Middlewares/ST/STM32_USB_Host_Library/Class/MSC/Src/usbh_msc_bot.c **** static BOT_CSWStatusTypeDef USBH_MSC_DecodeCSW(USBH_HandleTypeDef *phost)
 541:Middlewares/ST/STM32_USB_Host_Library/Class/MSC/Src/usbh_msc_bot.c **** {
  29              		.loc 1 541 1 view -0
  30              		.cfi_startproc
ARM GAS  C:\Users\Nina\AppData\Local\Temp\ccRhRQJJ.s 			page 11


  31              		@ args = 0, pretend = 0, frame = 0
  32              		@ frame_needed = 0, uses_anonymous_args = 0
  33              		.loc 1 541 1 is_stmt 0 view .LVU1
  34 0000 10B5     		push	{r4, lr}
  35              	.LCFI0:
  36              		.cfi_def_cfa_offset 8
  37              		.cfi_offset 4, -8
  38              		.cfi_offset 14, -4
 542:Middlewares/ST/STM32_USB_Host_Library/Class/MSC/Src/usbh_msc_bot.c ****   MSC_HandleTypeDef *MSC_Handle =  (MSC_HandleTypeDef *) phost->pActiveClass->pData;
  39              		.loc 1 542 3 is_stmt 1 view .LVU2
  40              		.loc 1 542 63 is_stmt 0 view .LVU3
  41 0002 D0F87833 		ldr	r3, [r0, #888]
  42              		.loc 1 542 22 view .LVU4
  43 0006 DC69     		ldr	r4, [r3, #28]
  44              	.LVL1:
 543:Middlewares/ST/STM32_USB_Host_Library/Class/MSC/Src/usbh_msc_bot.c ****   BOT_CSWStatusTypeDef status = BOT_CSW_CMD_FAILED;
  45              		.loc 1 543 3 is_stmt 1 view .LVU5
 544:Middlewares/ST/STM32_USB_Host_Library/Class/MSC/Src/usbh_msc_bot.c **** 
 545:Middlewares/ST/STM32_USB_Host_Library/Class/MSC/Src/usbh_msc_bot.c ****     /*Checking if the transfer length is different than 13*/
 546:Middlewares/ST/STM32_USB_Host_Library/Class/MSC/Src/usbh_msc_bot.c ****     if(USBH_LL_GetLastXferSize(phost, MSC_Handle->InPipe) != BOT_CSW_LENGTH)
  46              		.loc 1 546 5 view .LVU6
  47              		.loc 1 546 8 is_stmt 0 view .LVU7
  48 0008 2179     		ldrb	r1, [r4, #4]	@ zero_extendqisi2
  49 000a FFF7FEFF 		bl	USBH_LL_GetLastXferSize
  50              	.LVL2:
  51              		.loc 1 546 7 view .LVU8
  52 000e 0D28     		cmp	r0, #13
  53 0010 01D0     		beq	.L7
 547:Middlewares/ST/STM32_USB_Host_Library/Class/MSC/Src/usbh_msc_bot.c ****     {
 548:Middlewares/ST/STM32_USB_Host_Library/Class/MSC/Src/usbh_msc_bot.c ****       /*(4) Hi > Dn (Host expects to receive data from the device,
 549:Middlewares/ST/STM32_USB_Host_Library/Class/MSC/Src/usbh_msc_bot.c ****       Device intends to transfer no data)
 550:Middlewares/ST/STM32_USB_Host_Library/Class/MSC/Src/usbh_msc_bot.c ****       (5) Hi > Di (Host expects to receive data from the device,
 551:Middlewares/ST/STM32_USB_Host_Library/Class/MSC/Src/usbh_msc_bot.c ****       Device intends to send data to the host)
 552:Middlewares/ST/STM32_USB_Host_Library/Class/MSC/Src/usbh_msc_bot.c ****       (9) Ho > Dn (Host expects to send data to the device,
 553:Middlewares/ST/STM32_USB_Host_Library/Class/MSC/Src/usbh_msc_bot.c ****       Device intends to transfer no data)
 554:Middlewares/ST/STM32_USB_Host_Library/Class/MSC/Src/usbh_msc_bot.c ****       (11) Ho > Do  (Host expects to send data to the device,
 555:Middlewares/ST/STM32_USB_Host_Library/Class/MSC/Src/usbh_msc_bot.c ****       Device intends to receive data from the host)*/
 556:Middlewares/ST/STM32_USB_Host_Library/Class/MSC/Src/usbh_msc_bot.c **** 
 557:Middlewares/ST/STM32_USB_Host_Library/Class/MSC/Src/usbh_msc_bot.c **** 
 558:Middlewares/ST/STM32_USB_Host_Library/Class/MSC/Src/usbh_msc_bot.c ****       status = BOT_CSW_PHASE_ERROR;
  54              		.loc 1 558 14 view .LVU9
  55 0012 0220     		movs	r0, #2
  56              	.L2:
  57              	.LVL3:
 559:Middlewares/ST/STM32_USB_Host_Library/Class/MSC/Src/usbh_msc_bot.c ****     }
 560:Middlewares/ST/STM32_USB_Host_Library/Class/MSC/Src/usbh_msc_bot.c ****     else
 561:Middlewares/ST/STM32_USB_Host_Library/Class/MSC/Src/usbh_msc_bot.c ****     { /* CSW length is Correct */
 562:Middlewares/ST/STM32_USB_Host_Library/Class/MSC/Src/usbh_msc_bot.c **** 
 563:Middlewares/ST/STM32_USB_Host_Library/Class/MSC/Src/usbh_msc_bot.c ****       /* Check validity of the CSW Signature and CSWStatus */
 564:Middlewares/ST/STM32_USB_Host_Library/Class/MSC/Src/usbh_msc_bot.c ****       if(MSC_Handle->hbot.csw.field.Signature == BOT_CSW_SIGNATURE)
 565:Middlewares/ST/STM32_USB_Host_Library/Class/MSC/Src/usbh_msc_bot.c ****       {/* Check Condition 1. dCSWSignature is equal to 53425355h */
 566:Middlewares/ST/STM32_USB_Host_Library/Class/MSC/Src/usbh_msc_bot.c **** 
 567:Middlewares/ST/STM32_USB_Host_Library/Class/MSC/Src/usbh_msc_bot.c ****         if(MSC_Handle->hbot.csw.field.Tag == MSC_Handle->hbot.cbw.field.Tag)
 568:Middlewares/ST/STM32_USB_Host_Library/Class/MSC/Src/usbh_msc_bot.c ****         {
 569:Middlewares/ST/STM32_USB_Host_Library/Class/MSC/Src/usbh_msc_bot.c ****           /* Check Condition 3. dCSWTag matches the dCBWTag from the
 570:Middlewares/ST/STM32_USB_Host_Library/Class/MSC/Src/usbh_msc_bot.c ****           corresponding CBW */
 571:Middlewares/ST/STM32_USB_Host_Library/Class/MSC/Src/usbh_msc_bot.c **** 
ARM GAS  C:\Users\Nina\AppData\Local\Temp\ccRhRQJJ.s 			page 12


 572:Middlewares/ST/STM32_USB_Host_Library/Class/MSC/Src/usbh_msc_bot.c ****           if(MSC_Handle->hbot.csw.field.Status == 0U)
 573:Middlewares/ST/STM32_USB_Host_Library/Class/MSC/Src/usbh_msc_bot.c ****           {
 574:Middlewares/ST/STM32_USB_Host_Library/Class/MSC/Src/usbh_msc_bot.c ****             /* Refer to USB Mass-Storage Class : BOT (www.usb.org)
 575:Middlewares/ST/STM32_USB_Host_Library/Class/MSC/Src/usbh_msc_bot.c **** 
 576:Middlewares/ST/STM32_USB_Host_Library/Class/MSC/Src/usbh_msc_bot.c ****             Hn Host expects no data transfers
 577:Middlewares/ST/STM32_USB_Host_Library/Class/MSC/Src/usbh_msc_bot.c ****             Hi Host expects to receive data from the device
 578:Middlewares/ST/STM32_USB_Host_Library/Class/MSC/Src/usbh_msc_bot.c ****             Ho Host expects to send data to the device
 579:Middlewares/ST/STM32_USB_Host_Library/Class/MSC/Src/usbh_msc_bot.c **** 
 580:Middlewares/ST/STM32_USB_Host_Library/Class/MSC/Src/usbh_msc_bot.c ****             Dn Device intends to transfer no data
 581:Middlewares/ST/STM32_USB_Host_Library/Class/MSC/Src/usbh_msc_bot.c ****             Di Device intends to send data to the host
 582:Middlewares/ST/STM32_USB_Host_Library/Class/MSC/Src/usbh_msc_bot.c ****             Do Device intends to receive data from the host
 583:Middlewares/ST/STM32_USB_Host_Library/Class/MSC/Src/usbh_msc_bot.c **** 
 584:Middlewares/ST/STM32_USB_Host_Library/Class/MSC/Src/usbh_msc_bot.c ****             Section 6.7
 585:Middlewares/ST/STM32_USB_Host_Library/Class/MSC/Src/usbh_msc_bot.c ****             (1) Hn = Dn (Host expects no data transfers,
 586:Middlewares/ST/STM32_USB_Host_Library/Class/MSC/Src/usbh_msc_bot.c ****             Device intends to transfer no data)
 587:Middlewares/ST/STM32_USB_Host_Library/Class/MSC/Src/usbh_msc_bot.c ****             (6) Hi = Di (Host expects to receive data from the device,
 588:Middlewares/ST/STM32_USB_Host_Library/Class/MSC/Src/usbh_msc_bot.c ****             Device intends to send data to the host)
 589:Middlewares/ST/STM32_USB_Host_Library/Class/MSC/Src/usbh_msc_bot.c ****             (12) Ho = Do (Host expects to send data to the device,
 590:Middlewares/ST/STM32_USB_Host_Library/Class/MSC/Src/usbh_msc_bot.c ****             Device intends to receive data from the host)
 591:Middlewares/ST/STM32_USB_Host_Library/Class/MSC/Src/usbh_msc_bot.c **** 
 592:Middlewares/ST/STM32_USB_Host_Library/Class/MSC/Src/usbh_msc_bot.c ****             */
 593:Middlewares/ST/STM32_USB_Host_Library/Class/MSC/Src/usbh_msc_bot.c **** 
 594:Middlewares/ST/STM32_USB_Host_Library/Class/MSC/Src/usbh_msc_bot.c ****             status = BOT_CSW_CMD_PASSED;
 595:Middlewares/ST/STM32_USB_Host_Library/Class/MSC/Src/usbh_msc_bot.c ****           }
 596:Middlewares/ST/STM32_USB_Host_Library/Class/MSC/Src/usbh_msc_bot.c ****           else if(MSC_Handle->hbot.csw.field.Status == 1U)
 597:Middlewares/ST/STM32_USB_Host_Library/Class/MSC/Src/usbh_msc_bot.c ****           {
 598:Middlewares/ST/STM32_USB_Host_Library/Class/MSC/Src/usbh_msc_bot.c ****             status = BOT_CSW_CMD_FAILED;
 599:Middlewares/ST/STM32_USB_Host_Library/Class/MSC/Src/usbh_msc_bot.c ****           }
 600:Middlewares/ST/STM32_USB_Host_Library/Class/MSC/Src/usbh_msc_bot.c **** 
 601:Middlewares/ST/STM32_USB_Host_Library/Class/MSC/Src/usbh_msc_bot.c ****           else if(MSC_Handle->hbot.csw.field.Status == 2U)
 602:Middlewares/ST/STM32_USB_Host_Library/Class/MSC/Src/usbh_msc_bot.c ****           {
 603:Middlewares/ST/STM32_USB_Host_Library/Class/MSC/Src/usbh_msc_bot.c ****             /* Refer to USB Mass-Storage Class : BOT (www.usb.org)
 604:Middlewares/ST/STM32_USB_Host_Library/Class/MSC/Src/usbh_msc_bot.c ****             Section 6.7
 605:Middlewares/ST/STM32_USB_Host_Library/Class/MSC/Src/usbh_msc_bot.c ****             (2) Hn < Di ( Host expects no data transfers,
 606:Middlewares/ST/STM32_USB_Host_Library/Class/MSC/Src/usbh_msc_bot.c ****             Device intends to send data to the host)
 607:Middlewares/ST/STM32_USB_Host_Library/Class/MSC/Src/usbh_msc_bot.c ****             (3) Hn < Do ( Host expects no data transfers,
 608:Middlewares/ST/STM32_USB_Host_Library/Class/MSC/Src/usbh_msc_bot.c ****             Device intends to receive data from the host)
 609:Middlewares/ST/STM32_USB_Host_Library/Class/MSC/Src/usbh_msc_bot.c ****             (7) Hi < Di ( Host expects to receive data from the device,
 610:Middlewares/ST/STM32_USB_Host_Library/Class/MSC/Src/usbh_msc_bot.c ****             Device intends to send data to the host)
 611:Middlewares/ST/STM32_USB_Host_Library/Class/MSC/Src/usbh_msc_bot.c ****             (8) Hi <> Do ( Host expects to receive data from the device,
 612:Middlewares/ST/STM32_USB_Host_Library/Class/MSC/Src/usbh_msc_bot.c ****             Device intends to receive data from the host)
 613:Middlewares/ST/STM32_USB_Host_Library/Class/MSC/Src/usbh_msc_bot.c ****             (10) Ho <> Di (Host expects to send data to the device,
 614:Middlewares/ST/STM32_USB_Host_Library/Class/MSC/Src/usbh_msc_bot.c ****             Di Device intends to send data to the host)
 615:Middlewares/ST/STM32_USB_Host_Library/Class/MSC/Src/usbh_msc_bot.c ****             (13) Ho < Do (Host expects to send data to the device,
 616:Middlewares/ST/STM32_USB_Host_Library/Class/MSC/Src/usbh_msc_bot.c ****             Device intends to receive data from the host)
 617:Middlewares/ST/STM32_USB_Host_Library/Class/MSC/Src/usbh_msc_bot.c ****             */
 618:Middlewares/ST/STM32_USB_Host_Library/Class/MSC/Src/usbh_msc_bot.c **** 
 619:Middlewares/ST/STM32_USB_Host_Library/Class/MSC/Src/usbh_msc_bot.c ****             status = BOT_CSW_PHASE_ERROR;
 620:Middlewares/ST/STM32_USB_Host_Library/Class/MSC/Src/usbh_msc_bot.c ****           }
 621:Middlewares/ST/STM32_USB_Host_Library/Class/MSC/Src/usbh_msc_bot.c ****           else
 622:Middlewares/ST/STM32_USB_Host_Library/Class/MSC/Src/usbh_msc_bot.c ****           {
 623:Middlewares/ST/STM32_USB_Host_Library/Class/MSC/Src/usbh_msc_bot.c ****           }
 624:Middlewares/ST/STM32_USB_Host_Library/Class/MSC/Src/usbh_msc_bot.c ****         } /* CSW Tag Matching is Checked  */
 625:Middlewares/ST/STM32_USB_Host_Library/Class/MSC/Src/usbh_msc_bot.c ****       } /* CSW Signature Correct Checking */
 626:Middlewares/ST/STM32_USB_Host_Library/Class/MSC/Src/usbh_msc_bot.c ****       else
 627:Middlewares/ST/STM32_USB_Host_Library/Class/MSC/Src/usbh_msc_bot.c ****       {
 628:Middlewares/ST/STM32_USB_Host_Library/Class/MSC/Src/usbh_msc_bot.c ****         /* If the CSW Signature is not valid, We sall return the Phase Error to
ARM GAS  C:\Users\Nina\AppData\Local\Temp\ccRhRQJJ.s 			page 13


 629:Middlewares/ST/STM32_USB_Host_Library/Class/MSC/Src/usbh_msc_bot.c ****         Upper Layers for Reset Recovery */
 630:Middlewares/ST/STM32_USB_Host_Library/Class/MSC/Src/usbh_msc_bot.c **** 
 631:Middlewares/ST/STM32_USB_Host_Library/Class/MSC/Src/usbh_msc_bot.c ****         status = BOT_CSW_PHASE_ERROR;
 632:Middlewares/ST/STM32_USB_Host_Library/Class/MSC/Src/usbh_msc_bot.c ****       }
 633:Middlewares/ST/STM32_USB_Host_Library/Class/MSC/Src/usbh_msc_bot.c ****     } /* CSW Length Check*/
 634:Middlewares/ST/STM32_USB_Host_Library/Class/MSC/Src/usbh_msc_bot.c **** 
 635:Middlewares/ST/STM32_USB_Host_Library/Class/MSC/Src/usbh_msc_bot.c ****   return status;
  58              		.loc 1 635 3 is_stmt 1 view .LVU10
 636:Middlewares/ST/STM32_USB_Host_Library/Class/MSC/Src/usbh_msc_bot.c **** }
  59              		.loc 1 636 1 is_stmt 0 view .LVU11
  60 0014 10BD     		pop	{r4, pc}
  61              	.LVL4:
  62              	.L7:
 564:Middlewares/ST/STM32_USB_Host_Library/Class/MSC/Src/usbh_msc_bot.c ****       {/* Check Condition 1. dCSWSignature is equal to 53425355h */
  63              		.loc 1 564 7 is_stmt 1 view .LVU12
 564:Middlewares/ST/STM32_USB_Host_Library/Class/MSC/Src/usbh_msc_bot.c ****       {/* Check Condition 1. dCSWSignature is equal to 53425355h */
  64              		.loc 1 564 36 is_stmt 0 view .LVU13
  65 0016 A26F     		ldr	r2, [r4, #120]
 564:Middlewares/ST/STM32_USB_Host_Library/Class/MSC/Src/usbh_msc_bot.c ****       {/* Check Condition 1. dCSWSignature is equal to 53425355h */
  66              		.loc 1 564 9 view .LVU14
  67 0018 0A4B     		ldr	r3, .L10
  68 001a 9A42     		cmp	r2, r3
  69 001c 01D0     		beq	.L8
 631:Middlewares/ST/STM32_USB_Host_Library/Class/MSC/Src/usbh_msc_bot.c ****       }
  70              		.loc 1 631 16 view .LVU15
  71 001e 0220     		movs	r0, #2
  72 0020 F8E7     		b	.L2
  73              	.L8:
 567:Middlewares/ST/STM32_USB_Host_Library/Class/MSC/Src/usbh_msc_bot.c ****         {
  74              		.loc 1 567 9 is_stmt 1 view .LVU16
 567:Middlewares/ST/STM32_USB_Host_Library/Class/MSC/Src/usbh_msc_bot.c ****         {
  75              		.loc 1 567 38 is_stmt 0 view .LVU17
  76 0022 E26F     		ldr	r2, [r4, #124]
 567:Middlewares/ST/STM32_USB_Host_Library/Class/MSC/Src/usbh_msc_bot.c ****         {
  77              		.loc 1 567 72 view .LVU18
  78 0024 A36D     		ldr	r3, [r4, #88]
 567:Middlewares/ST/STM32_USB_Host_Library/Class/MSC/Src/usbh_msc_bot.c ****         {
  79              		.loc 1 567 11 view .LVU19
  80 0026 9A42     		cmp	r2, r3
  81 0028 01D0     		beq	.L9
 543:Middlewares/ST/STM32_USB_Host_Library/Class/MSC/Src/usbh_msc_bot.c **** 
  82              		.loc 1 543 24 view .LVU20
  83 002a 0120     		movs	r0, #1
  84 002c F2E7     		b	.L2
  85              	.L9:
 572:Middlewares/ST/STM32_USB_Host_Library/Class/MSC/Src/usbh_msc_bot.c ****           {
  86              		.loc 1 572 11 is_stmt 1 view .LVU21
 572:Middlewares/ST/STM32_USB_Host_Library/Class/MSC/Src/usbh_msc_bot.c ****           {
  87              		.loc 1 572 40 is_stmt 0 view .LVU22
  88 002e 94F88400 		ldrb	r0, [r4, #132]	@ zero_extendqisi2
 572:Middlewares/ST/STM32_USB_Host_Library/Class/MSC/Src/usbh_msc_bot.c ****           {
  89              		.loc 1 572 13 view .LVU23
  90 0032 0028     		cmp	r0, #0
  91 0034 EED0     		beq	.L2
 596:Middlewares/ST/STM32_USB_Host_Library/Class/MSC/Src/usbh_msc_bot.c ****           {
  92              		.loc 1 596 16 is_stmt 1 view .LVU24
 596:Middlewares/ST/STM32_USB_Host_Library/Class/MSC/Src/usbh_msc_bot.c ****           {
ARM GAS  C:\Users\Nina\AppData\Local\Temp\ccRhRQJJ.s 			page 14


  93              		.loc 1 596 18 is_stmt 0 view .LVU25
  94 0036 0128     		cmp	r0, #1
  95 0038 ECD0     		beq	.L2
 601:Middlewares/ST/STM32_USB_Host_Library/Class/MSC/Src/usbh_msc_bot.c ****           {
  96              		.loc 1 601 16 is_stmt 1 view .LVU26
 601:Middlewares/ST/STM32_USB_Host_Library/Class/MSC/Src/usbh_msc_bot.c ****           {
  97              		.loc 1 601 18 is_stmt 0 view .LVU27
  98 003a 0228     		cmp	r0, #2
  99 003c EAD0     		beq	.L2
 543:Middlewares/ST/STM32_USB_Host_Library/Class/MSC/Src/usbh_msc_bot.c **** 
 100              		.loc 1 543 24 view .LVU28
 101 003e 0120     		movs	r0, #1
 102 0040 E8E7     		b	.L2
 103              	.L11:
 104 0042 00BF     		.align	2
 105              	.L10:
 106 0044 55534253 		.word	1396855637
 107              		.cfi_endproc
 108              	.LFE148:
 110              		.section	.text.USBH_MSC_BOT_Abort,"ax",%progbits
 111              		.align	1
 112              		.syntax unified
 113              		.thumb
 114              		.thumb_func
 115              		.fpu fpv5-sp-d16
 117              	USBH_MSC_BOT_Abort:
 118              	.LVL5:
 119              	.LFB147:
 502:Middlewares/ST/STM32_USB_Host_Library/Class/MSC/Src/usbh_msc_bot.c ****   USBH_StatusTypeDef status = USBH_FAIL;
 120              		.loc 1 502 1 is_stmt 1 view -0
 121              		.cfi_startproc
 122              		@ args = 0, pretend = 0, frame = 0
 123              		@ frame_needed = 0, uses_anonymous_args = 0
 502:Middlewares/ST/STM32_USB_Host_Library/Class/MSC/Src/usbh_msc_bot.c ****   USBH_StatusTypeDef status = USBH_FAIL;
 124              		.loc 1 502 1 is_stmt 0 view .LVU30
 125 0000 08B5     		push	{r3, lr}
 126              	.LCFI1:
 127              		.cfi_def_cfa_offset 8
 128              		.cfi_offset 3, -8
 129              		.cfi_offset 14, -4
 503:Middlewares/ST/STM32_USB_Host_Library/Class/MSC/Src/usbh_msc_bot.c ****   MSC_HandleTypeDef *MSC_Handle =  (MSC_HandleTypeDef *) phost->pActiveClass->pData;
 130              		.loc 1 503 3 is_stmt 1 view .LVU31
 131              	.LVL6:
 504:Middlewares/ST/STM32_USB_Host_Library/Class/MSC/Src/usbh_msc_bot.c **** 
 132              		.loc 1 504 3 view .LVU32
 504:Middlewares/ST/STM32_USB_Host_Library/Class/MSC/Src/usbh_msc_bot.c **** 
 133              		.loc 1 504 63 is_stmt 0 view .LVU33
 134 0002 D0F87833 		ldr	r3, [r0, #888]
 504:Middlewares/ST/STM32_USB_Host_Library/Class/MSC/Src/usbh_msc_bot.c **** 
 135              		.loc 1 504 22 view .LVU34
 136 0006 D969     		ldr	r1, [r3, #28]
 137              	.LVL7:
 506:Middlewares/ST/STM32_USB_Host_Library/Class/MSC/Src/usbh_msc_bot.c ****   {
 138              		.loc 1 506 3 is_stmt 1 view .LVU35
 139 0008 1AB1     		cbz	r2, .L13
 140 000a 012A     		cmp	r2, #1
 141 000c 05D0     		beq	.L14
ARM GAS  C:\Users\Nina\AppData\Local\Temp\ccRhRQJJ.s 			page 15


 142 000e 0220     		movs	r0, #2
 143              	.LVL8:
 144              	.L15:
 522:Middlewares/ST/STM32_USB_Host_Library/Class/MSC/Src/usbh_msc_bot.c **** }
 145              		.loc 1 522 3 view .LVU36
 523:Middlewares/ST/STM32_USB_Host_Library/Class/MSC/Src/usbh_msc_bot.c **** 
 146              		.loc 1 523 1 is_stmt 0 view .LVU37
 147 0010 08BD     		pop	{r3, pc}
 148              	.LVL9:
 149              	.L13:
 510:Middlewares/ST/STM32_USB_Host_Library/Class/MSC/Src/usbh_msc_bot.c **** 
 150              		.loc 1 510 5 is_stmt 1 view .LVU38
 510:Middlewares/ST/STM32_USB_Host_Library/Class/MSC/Src/usbh_msc_bot.c **** 
 151              		.loc 1 510 14 is_stmt 0 view .LVU39
 152 0012 C979     		ldrb	r1, [r1, #7]	@ zero_extendqisi2
 153              	.LVL10:
 510:Middlewares/ST/STM32_USB_Host_Library/Class/MSC/Src/usbh_msc_bot.c **** 
 154              		.loc 1 510 14 view .LVU40
 155 0014 FFF7FEFF 		bl	USBH_ClrFeature
 156              	.LVL11:
 512:Middlewares/ST/STM32_USB_Host_Library/Class/MSC/Src/usbh_msc_bot.c **** 
 157              		.loc 1 512 5 is_stmt 1 view .LVU41
 158 0018 FAE7     		b	.L15
 159              	.LVL12:
 160              	.L14:
 516:Middlewares/ST/STM32_USB_Host_Library/Class/MSC/Src/usbh_msc_bot.c ****     break;
 161              		.loc 1 516 5 view .LVU42
 516:Middlewares/ST/STM32_USB_Host_Library/Class/MSC/Src/usbh_msc_bot.c ****     break;
 162              		.loc 1 516 14 is_stmt 0 view .LVU43
 163 001a 8979     		ldrb	r1, [r1, #6]	@ zero_extendqisi2
 164              	.LVL13:
 516:Middlewares/ST/STM32_USB_Host_Library/Class/MSC/Src/usbh_msc_bot.c ****     break;
 165              		.loc 1 516 14 view .LVU44
 166 001c FFF7FEFF 		bl	USBH_ClrFeature
 167              	.LVL14:
 517:Middlewares/ST/STM32_USB_Host_Library/Class/MSC/Src/usbh_msc_bot.c **** 
 168              		.loc 1 517 5 is_stmt 1 view .LVU45
 169 0020 F6E7     		b	.L15
 170              		.cfi_endproc
 171              	.LFE147:
 173              		.section	.text.USBH_MSC_BOT_REQ_Reset,"ax",%progbits
 174              		.align	1
 175              		.global	USBH_MSC_BOT_REQ_Reset
 176              		.syntax unified
 177              		.thumb
 178              		.thumb_func
 179              		.fpu fpv5-sp-d16
 181              	USBH_MSC_BOT_REQ_Reset:
 182              	.LVL15:
 183              	.LFB143:
 135:Middlewares/ST/STM32_USB_Host_Library/Class/MSC/Src/usbh_msc_bot.c **** 
 184              		.loc 1 135 1 view -0
 185              		.cfi_startproc
 186              		@ args = 0, pretend = 0, frame = 0
 187              		@ frame_needed = 0, uses_anonymous_args = 0
 135:Middlewares/ST/STM32_USB_Host_Library/Class/MSC/Src/usbh_msc_bot.c **** 
 188              		.loc 1 135 1 is_stmt 0 view .LVU47
ARM GAS  C:\Users\Nina\AppData\Local\Temp\ccRhRQJJ.s 			page 16


 189 0000 08B5     		push	{r3, lr}
 190              	.LCFI2:
 191              		.cfi_def_cfa_offset 8
 192              		.cfi_offset 3, -8
 193              		.cfi_offset 14, -4
 137:Middlewares/ST/STM32_USB_Host_Library/Class/MSC/Src/usbh_msc_bot.c ****                                                  | USB_REQ_RECIPIENT_INTERFACE;
 194              		.loc 1 137 3 is_stmt 1 view .LVU48
 137:Middlewares/ST/STM32_USB_Host_Library/Class/MSC/Src/usbh_msc_bot.c ****                                                  | USB_REQ_RECIPIENT_INTERFACE;
 195              		.loc 1 137 40 is_stmt 0 view .LVU49
 196 0002 2122     		movs	r2, #33
 197 0004 0274     		strb	r2, [r0, #16]
 140:Middlewares/ST/STM32_USB_Host_Library/Class/MSC/Src/usbh_msc_bot.c ****   phost->Control.setup.b.wValue.w = 0U;
 198              		.loc 1 140 3 is_stmt 1 view .LVU50
 140:Middlewares/ST/STM32_USB_Host_Library/Class/MSC/Src/usbh_msc_bot.c ****   phost->Control.setup.b.wValue.w = 0U;
 199              		.loc 1 140 35 is_stmt 0 view .LVU51
 200 0006 FF22     		movs	r2, #255
 201 0008 4274     		strb	r2, [r0, #17]
 141:Middlewares/ST/STM32_USB_Host_Library/Class/MSC/Src/usbh_msc_bot.c ****   phost->Control.setup.b.wIndex.w = 0U;
 202              		.loc 1 141 3 is_stmt 1 view .LVU52
 141:Middlewares/ST/STM32_USB_Host_Library/Class/MSC/Src/usbh_msc_bot.c ****   phost->Control.setup.b.wIndex.w = 0U;
 203              		.loc 1 141 35 is_stmt 0 view .LVU53
 204 000a 0021     		movs	r1, #0
 205 000c 4182     		strh	r1, [r0, #18]	@ movhi
 142:Middlewares/ST/STM32_USB_Host_Library/Class/MSC/Src/usbh_msc_bot.c ****   phost->Control.setup.b.wLength.w = 0U;
 206              		.loc 1 142 3 is_stmt 1 view .LVU54
 142:Middlewares/ST/STM32_USB_Host_Library/Class/MSC/Src/usbh_msc_bot.c ****   phost->Control.setup.b.wLength.w = 0U;
 207              		.loc 1 142 35 is_stmt 0 view .LVU55
 208 000e 8182     		strh	r1, [r0, #20]	@ movhi
 143:Middlewares/ST/STM32_USB_Host_Library/Class/MSC/Src/usbh_msc_bot.c **** 
 209              		.loc 1 143 3 is_stmt 1 view .LVU56
 143:Middlewares/ST/STM32_USB_Host_Library/Class/MSC/Src/usbh_msc_bot.c **** 
 210              		.loc 1 143 36 is_stmt 0 view .LVU57
 211 0010 C182     		strh	r1, [r0, #22]	@ movhi
 145:Middlewares/ST/STM32_USB_Host_Library/Class/MSC/Src/usbh_msc_bot.c **** }
 212              		.loc 1 145 3 is_stmt 1 view .LVU58
 145:Middlewares/ST/STM32_USB_Host_Library/Class/MSC/Src/usbh_msc_bot.c **** }
 213              		.loc 1 145 10 is_stmt 0 view .LVU59
 214 0012 0A46     		mov	r2, r1
 215 0014 FFF7FEFF 		bl	USBH_CtlReq
 216              	.LVL16:
 146:Middlewares/ST/STM32_USB_Host_Library/Class/MSC/Src/usbh_msc_bot.c **** 
 217              		.loc 1 146 1 view .LVU60
 218 0018 08BD     		pop	{r3, pc}
 219              		.cfi_endproc
 220              	.LFE143:
 222              		.section	.text.USBH_MSC_BOT_REQ_GetMaxLUN,"ax",%progbits
 223              		.align	1
 224              		.global	USBH_MSC_BOT_REQ_GetMaxLUN
 225              		.syntax unified
 226              		.thumb
 227              		.thumb_func
 228              		.fpu fpv5-sp-d16
 230              	USBH_MSC_BOT_REQ_GetMaxLUN:
 231              	.LVL17:
 232              	.LFB144:
 156:Middlewares/ST/STM32_USB_Host_Library/Class/MSC/Src/usbh_msc_bot.c ****   phost->Control.setup.b.bmRequestType = USB_D2H | USB_REQ_TYPE_CLASS
 233              		.loc 1 156 1 is_stmt 1 view -0
ARM GAS  C:\Users\Nina\AppData\Local\Temp\ccRhRQJJ.s 			page 17


 234              		.cfi_startproc
 235              		@ args = 0, pretend = 0, frame = 0
 236              		@ frame_needed = 0, uses_anonymous_args = 0
 156:Middlewares/ST/STM32_USB_Host_Library/Class/MSC/Src/usbh_msc_bot.c ****   phost->Control.setup.b.bmRequestType = USB_D2H | USB_REQ_TYPE_CLASS
 237              		.loc 1 156 1 is_stmt 0 view .LVU62
 238 0000 08B5     		push	{r3, lr}
 239              	.LCFI3:
 240              		.cfi_def_cfa_offset 8
 241              		.cfi_offset 3, -8
 242              		.cfi_offset 14, -4
 157:Middlewares/ST/STM32_USB_Host_Library/Class/MSC/Src/usbh_msc_bot.c ****                                                  | USB_REQ_RECIPIENT_INTERFACE;
 243              		.loc 1 157 3 is_stmt 1 view .LVU63
 157:Middlewares/ST/STM32_USB_Host_Library/Class/MSC/Src/usbh_msc_bot.c ****                                                  | USB_REQ_RECIPIENT_INTERFACE;
 244              		.loc 1 157 40 is_stmt 0 view .LVU64
 245 0002 A122     		movs	r2, #161
 246 0004 0274     		strb	r2, [r0, #16]
 160:Middlewares/ST/STM32_USB_Host_Library/Class/MSC/Src/usbh_msc_bot.c ****   phost->Control.setup.b.wValue.w = 0U;
 247              		.loc 1 160 3 is_stmt 1 view .LVU65
 160:Middlewares/ST/STM32_USB_Host_Library/Class/MSC/Src/usbh_msc_bot.c ****   phost->Control.setup.b.wValue.w = 0U;
 248              		.loc 1 160 35 is_stmt 0 view .LVU66
 249 0006 FE22     		movs	r2, #254
 250 0008 4274     		strb	r2, [r0, #17]
 161:Middlewares/ST/STM32_USB_Host_Library/Class/MSC/Src/usbh_msc_bot.c ****   phost->Control.setup.b.wIndex.w = 0U;
 251              		.loc 1 161 3 is_stmt 1 view .LVU67
 161:Middlewares/ST/STM32_USB_Host_Library/Class/MSC/Src/usbh_msc_bot.c ****   phost->Control.setup.b.wIndex.w = 0U;
 252              		.loc 1 161 35 is_stmt 0 view .LVU68
 253 000a 0022     		movs	r2, #0
 254 000c 4282     		strh	r2, [r0, #18]	@ movhi
 162:Middlewares/ST/STM32_USB_Host_Library/Class/MSC/Src/usbh_msc_bot.c ****   phost->Control.setup.b.wLength.w = 1U;
 255              		.loc 1 162 3 is_stmt 1 view .LVU69
 162:Middlewares/ST/STM32_USB_Host_Library/Class/MSC/Src/usbh_msc_bot.c ****   phost->Control.setup.b.wLength.w = 1U;
 256              		.loc 1 162 35 is_stmt 0 view .LVU70
 257 000e 8282     		strh	r2, [r0, #20]	@ movhi
 163:Middlewares/ST/STM32_USB_Host_Library/Class/MSC/Src/usbh_msc_bot.c **** 
 258              		.loc 1 163 3 is_stmt 1 view .LVU71
 163:Middlewares/ST/STM32_USB_Host_Library/Class/MSC/Src/usbh_msc_bot.c **** 
 259              		.loc 1 163 36 is_stmt 0 view .LVU72
 260 0010 0122     		movs	r2, #1
 261 0012 C282     		strh	r2, [r0, #22]	@ movhi
 165:Middlewares/ST/STM32_USB_Host_Library/Class/MSC/Src/usbh_msc_bot.c **** }
 262              		.loc 1 165 3 is_stmt 1 view .LVU73
 165:Middlewares/ST/STM32_USB_Host_Library/Class/MSC/Src/usbh_msc_bot.c **** }
 263              		.loc 1 165 10 is_stmt 0 view .LVU74
 264 0014 FFF7FEFF 		bl	USBH_CtlReq
 265              	.LVL18:
 166:Middlewares/ST/STM32_USB_Host_Library/Class/MSC/Src/usbh_msc_bot.c **** 
 266              		.loc 1 166 1 view .LVU75
 267 0018 08BD     		pop	{r3, pc}
 268              		.cfi_endproc
 269              	.LFE144:
 271              		.section	.text.USBH_MSC_BOT_Init,"ax",%progbits
 272              		.align	1
 273              		.global	USBH_MSC_BOT_Init
 274              		.syntax unified
 275              		.thumb
 276              		.thumb_func
 277              		.fpu fpv5-sp-d16
ARM GAS  C:\Users\Nina\AppData\Local\Temp\ccRhRQJJ.s 			page 18


 279              	USBH_MSC_BOT_Init:
 280              	.LVL19:
 281              	.LFB145:
 177:Middlewares/ST/STM32_USB_Host_Library/Class/MSC/Src/usbh_msc_bot.c **** 
 282              		.loc 1 177 1 is_stmt 1 view -0
 283              		.cfi_startproc
 284              		@ args = 0, pretend = 0, frame = 0
 285              		@ frame_needed = 0, uses_anonymous_args = 0
 286              		@ link register save eliminated.
 179:Middlewares/ST/STM32_USB_Host_Library/Class/MSC/Src/usbh_msc_bot.c **** 
 287              		.loc 1 179 3 view .LVU77
 179:Middlewares/ST/STM32_USB_Host_Library/Class/MSC/Src/usbh_msc_bot.c **** 
 288              		.loc 1 179 63 is_stmt 0 view .LVU78
 289 0000 D0F87833 		ldr	r3, [r0, #888]
 179:Middlewares/ST/STM32_USB_Host_Library/Class/MSC/Src/usbh_msc_bot.c **** 
 290              		.loc 1 179 22 view .LVU79
 291 0004 DB69     		ldr	r3, [r3, #28]
 292              	.LVL20:
 181:Middlewares/ST/STM32_USB_Host_Library/Class/MSC/Src/usbh_msc_bot.c ****   MSC_Handle->hbot.cbw.field.Tag = BOT_CBW_TAG;
 293              		.loc 1 181 3 is_stmt 1 view .LVU80
 181:Middlewares/ST/STM32_USB_Host_Library/Class/MSC/Src/usbh_msc_bot.c ****   MSC_Handle->hbot.cbw.field.Tag = BOT_CBW_TAG;
 294              		.loc 1 181 40 is_stmt 0 view .LVU81
 295 0006 054A     		ldr	r2, .L22
 296 0008 5A65     		str	r2, [r3, #84]
 182:Middlewares/ST/STM32_USB_Host_Library/Class/MSC/Src/usbh_msc_bot.c ****   MSC_Handle->hbot.state = BOT_SEND_CBW;
 297              		.loc 1 182 3 is_stmt 1 view .LVU82
 182:Middlewares/ST/STM32_USB_Host_Library/Class/MSC/Src/usbh_msc_bot.c ****   MSC_Handle->hbot.state = BOT_SEND_CBW;
 298              		.loc 1 182 34 is_stmt 0 view .LVU83
 299 000a 054A     		ldr	r2, .L22+4
 300 000c 9A65     		str	r2, [r3, #88]
 183:Middlewares/ST/STM32_USB_Host_Library/Class/MSC/Src/usbh_msc_bot.c ****   MSC_Handle->hbot.cmd_state = BOT_CMD_SEND;
 301              		.loc 1 183 3 is_stmt 1 view .LVU84
 183:Middlewares/ST/STM32_USB_Host_Library/Class/MSC/Src/usbh_msc_bot.c ****   MSC_Handle->hbot.cmd_state = BOT_CMD_SEND;
 302              		.loc 1 183 26 is_stmt 0 view .LVU85
 303 000e 0122     		movs	r2, #1
 304 0010 83F85020 		strb	r2, [r3, #80]
 184:Middlewares/ST/STM32_USB_Host_Library/Class/MSC/Src/usbh_msc_bot.c **** 
 305              		.loc 1 184 3 is_stmt 1 view .LVU86
 184:Middlewares/ST/STM32_USB_Host_Library/Class/MSC/Src/usbh_msc_bot.c **** 
 306              		.loc 1 184 30 is_stmt 0 view .LVU87
 307 0014 83F85220 		strb	r2, [r3, #82]
 186:Middlewares/ST/STM32_USB_Host_Library/Class/MSC/Src/usbh_msc_bot.c **** }
 308              		.loc 1 186 3 is_stmt 1 view .LVU88
 187:Middlewares/ST/STM32_USB_Host_Library/Class/MSC/Src/usbh_msc_bot.c **** 
 309              		.loc 1 187 1 is_stmt 0 view .LVU89
 310 0018 0020     		movs	r0, #0
 311              	.LVL21:
 187:Middlewares/ST/STM32_USB_Host_Library/Class/MSC/Src/usbh_msc_bot.c **** 
 312              		.loc 1 187 1 view .LVU90
 313 001a 7047     		bx	lr
 314              	.L23:
 315              		.align	2
 316              	.L22:
 317 001c 55534243 		.word	1128420181
 318 0020 50403020 		.word	540033104
 319              		.cfi_endproc
 320              	.LFE145:
ARM GAS  C:\Users\Nina\AppData\Local\Temp\ccRhRQJJ.s 			page 19


 322              		.section	.text.USBH_MSC_BOT_Process,"ax",%progbits
 323              		.align	1
 324              		.global	USBH_MSC_BOT_Process
 325              		.syntax unified
 326              		.thumb
 327              		.thumb_func
 328              		.fpu fpv5-sp-d16
 330              	USBH_MSC_BOT_Process:
 331              	.LVL22:
 332              	.LFB146:
 199:Middlewares/ST/STM32_USB_Host_Library/Class/MSC/Src/usbh_msc_bot.c ****   USBH_StatusTypeDef   status = USBH_BUSY;
 333              		.loc 1 199 1 is_stmt 1 view -0
 334              		.cfi_startproc
 335              		@ args = 0, pretend = 0, frame = 0
 336              		@ frame_needed = 0, uses_anonymous_args = 0
 199:Middlewares/ST/STM32_USB_Host_Library/Class/MSC/Src/usbh_msc_bot.c ****   USBH_StatusTypeDef   status = USBH_BUSY;
 337              		.loc 1 199 1 is_stmt 0 view .LVU92
 338 0000 70B5     		push	{r4, r5, r6, lr}
 339              	.LCFI4:
 340              		.cfi_def_cfa_offset 16
 341              		.cfi_offset 4, -16
 342              		.cfi_offset 5, -12
 343              		.cfi_offset 6, -8
 344              		.cfi_offset 14, -4
 345 0002 82B0     		sub	sp, sp, #8
 346              	.LCFI5:
 347              		.cfi_def_cfa_offset 24
 348 0004 0546     		mov	r5, r0
 200:Middlewares/ST/STM32_USB_Host_Library/Class/MSC/Src/usbh_msc_bot.c ****   USBH_StatusTypeDef   error  = USBH_BUSY;
 349              		.loc 1 200 3 is_stmt 1 view .LVU93
 350              	.LVL23:
 201:Middlewares/ST/STM32_USB_Host_Library/Class/MSC/Src/usbh_msc_bot.c ****   BOT_CSWStatusTypeDef CSW_Status = BOT_CSW_CMD_FAILED;
 351              		.loc 1 201 3 view .LVU94
 202:Middlewares/ST/STM32_USB_Host_Library/Class/MSC/Src/usbh_msc_bot.c ****   USBH_URBStateTypeDef URB_Status = USBH_URB_IDLE;
 352              		.loc 1 202 3 view .LVU95
 203:Middlewares/ST/STM32_USB_Host_Library/Class/MSC/Src/usbh_msc_bot.c ****   MSC_HandleTypeDef *MSC_Handle =  (MSC_HandleTypeDef *) phost->pActiveClass->pData;
 353              		.loc 1 203 3 view .LVU96
 204:Middlewares/ST/STM32_USB_Host_Library/Class/MSC/Src/usbh_msc_bot.c ****   uint8_t toggle = 0U;
 354              		.loc 1 204 3 view .LVU97
 204:Middlewares/ST/STM32_USB_Host_Library/Class/MSC/Src/usbh_msc_bot.c ****   uint8_t toggle = 0U;
 355              		.loc 1 204 63 is_stmt 0 view .LVU98
 356 0006 D0F87833 		ldr	r3, [r0, #888]
 204:Middlewares/ST/STM32_USB_Host_Library/Class/MSC/Src/usbh_msc_bot.c ****   uint8_t toggle = 0U;
 357              		.loc 1 204 22 view .LVU99
 358 000a DE69     		ldr	r6, [r3, #28]
 359              	.LVL24:
 205:Middlewares/ST/STM32_USB_Host_Library/Class/MSC/Src/usbh_msc_bot.c **** 
 360              		.loc 1 205 3 is_stmt 1 view .LVU100
 207:Middlewares/ST/STM32_USB_Host_Library/Class/MSC/Src/usbh_msc_bot.c ****   {
 361              		.loc 1 207 3 view .LVU101
 207:Middlewares/ST/STM32_USB_Host_Library/Class/MSC/Src/usbh_msc_bot.c ****   {
 362              		.loc 1 207 27 is_stmt 0 view .LVU102
 363 000c 96F85040 		ldrb	r4, [r6, #80]	@ zero_extendqisi2
 364 0010 631E     		subs	r3, r4, #1
 365 0012 0A2B     		cmp	r3, #10
 366 0014 00F25781 		bhi	.L57
 367 0018 DFE813F0 		tbh	[pc, r3, lsl #1]
ARM GAS  C:\Users\Nina\AppData\Local\Temp\ccRhRQJJ.s 			page 20


 368              	.L27:
 369 001c 0B00     		.2byte	(.L37-.L27)/2
 370 001e 1B00     		.2byte	(.L36-.L27)/2
 371 0020 5400     		.2byte	(.L35-.L27)/2
 372 0022 5F00     		.2byte	(.L34-.L27)/2
 373 0024 9500     		.2byte	(.L33-.L27)/2
 374 0026 A100     		.2byte	(.L32-.L27)/2
 375 0028 E600     		.2byte	(.L31-.L27)/2
 376 002a F100     		.2byte	(.L30-.L27)/2
 377 002c 1701     		.2byte	(.L29-.L27)/2
 378 002e 2901     		.2byte	(.L28-.L27)/2
 379 0030 4B01     		.2byte	(.L26-.L27)/2
 380              		.p2align 1
 381              	.L37:
 210:Middlewares/ST/STM32_USB_Host_Library/Class/MSC/Src/usbh_msc_bot.c ****     MSC_Handle->hbot.state = BOT_SEND_CBW_WAIT;
 382              		.loc 1 210 5 is_stmt 1 view .LVU103
 210:Middlewares/ST/STM32_USB_Host_Library/Class/MSC/Src/usbh_msc_bot.c ****     MSC_Handle->hbot.state = BOT_SEND_CBW_WAIT;
 383              		.loc 1 210 36 is_stmt 0 view .LVU104
 384 0032 86F86110 		strb	r1, [r6, #97]
 211:Middlewares/ST/STM32_USB_Host_Library/Class/MSC/Src/usbh_msc_bot.c ****     USBH_BulkSendData (phost, MSC_Handle->hbot.cbw.data,
 385              		.loc 1 211 5 is_stmt 1 view .LVU105
 211:Middlewares/ST/STM32_USB_Host_Library/Class/MSC/Src/usbh_msc_bot.c ****     USBH_BulkSendData (phost, MSC_Handle->hbot.cbw.data,
 386              		.loc 1 211 28 is_stmt 0 view .LVU106
 387 0036 0223     		movs	r3, #2
 388 0038 86F85030 		strb	r3, [r6, #80]
 212:Middlewares/ST/STM32_USB_Host_Library/Class/MSC/Src/usbh_msc_bot.c ****                        BOT_CBW_LENGTH, MSC_Handle->OutPipe, 1U);
 389              		.loc 1 212 5 is_stmt 1 view .LVU107
 390 003c 7379     		ldrb	r3, [r6, #5]	@ zero_extendqisi2
 391 003e 0122     		movs	r2, #1
 392 0040 0092     		str	r2, [sp]
 393 0042 1F22     		movs	r2, #31
 394 0044 06F15401 		add	r1, r6, #84
 395              	.LVL25:
 212:Middlewares/ST/STM32_USB_Host_Library/Class/MSC/Src/usbh_msc_bot.c ****                        BOT_CBW_LENGTH, MSC_Handle->OutPipe, 1U);
 396              		.loc 1 212 5 is_stmt 0 view .LVU108
 397 0048 FFF7FEFF 		bl	USBH_BulkSendData
 398              	.LVL26:
 215:Middlewares/ST/STM32_USB_Host_Library/Class/MSC/Src/usbh_msc_bot.c **** 
 399              		.loc 1 215 5 is_stmt 1 view .LVU109
 400              	.L25:
 490:Middlewares/ST/STM32_USB_Host_Library/Class/MSC/Src/usbh_msc_bot.c **** }
 401              		.loc 1 490 3 view .LVU110
 491:Middlewares/ST/STM32_USB_Host_Library/Class/MSC/Src/usbh_msc_bot.c **** 
 402              		.loc 1 491 1 is_stmt 0 view .LVU111
 403 004c 2046     		mov	r0, r4
 404 004e 02B0     		add	sp, sp, #8
 405              	.LCFI6:
 406              		.cfi_remember_state
 407              		.cfi_def_cfa_offset 16
 408              		@ sp needed
 409 0050 70BD     		pop	{r4, r5, r6, pc}
 410              	.LVL27:
 411              	.L36:
 412              	.LCFI7:
 413              		.cfi_restore_state
 219:Middlewares/ST/STM32_USB_Host_Library/Class/MSC/Src/usbh_msc_bot.c **** 
 414              		.loc 1 219 5 is_stmt 1 view .LVU112
ARM GAS  C:\Users\Nina\AppData\Local\Temp\ccRhRQJJ.s 			page 21


 219:Middlewares/ST/STM32_USB_Host_Library/Class/MSC/Src/usbh_msc_bot.c **** 
 415              		.loc 1 219 18 is_stmt 0 view .LVU113
 416 0052 7179     		ldrb	r1, [r6, #5]	@ zero_extendqisi2
 417              	.LVL28:
 219:Middlewares/ST/STM32_USB_Host_Library/Class/MSC/Src/usbh_msc_bot.c **** 
 418              		.loc 1 219 18 view .LVU114
 419 0054 FFF7FEFF 		bl	USBH_LL_GetURBState
 420              	.LVL29:
 219:Middlewares/ST/STM32_USB_Host_Library/Class/MSC/Src/usbh_msc_bot.c **** 
 421              		.loc 1 219 18 view .LVU115
 422 0058 0446     		mov	r4, r0
 423              	.LVL30:
 221:Middlewares/ST/STM32_USB_Host_Library/Class/MSC/Src/usbh_msc_bot.c ****     {
 424              		.loc 1 221 5 is_stmt 1 view .LVU116
 221:Middlewares/ST/STM32_USB_Host_Library/Class/MSC/Src/usbh_msc_bot.c ****     {
 425              		.loc 1 221 7 is_stmt 0 view .LVU117
 426 005a 0128     		cmp	r0, #1
 427 005c 05D0     		beq	.L66
 247:Middlewares/ST/STM32_USB_Host_Library/Class/MSC/Src/usbh_msc_bot.c ****     {
 428              		.loc 1 247 10 is_stmt 1 view .LVU118
 247:Middlewares/ST/STM32_USB_Host_Library/Class/MSC/Src/usbh_msc_bot.c ****     {
 429              		.loc 1 247 12 is_stmt 0 view .LVU119
 430 005e 0228     		cmp	r0, #2
 431 0060 1BD0     		beq	.L67
 257:Middlewares/ST/STM32_USB_Host_Library/Class/MSC/Src/usbh_msc_bot.c ****       {
 432              		.loc 1 257 7 is_stmt 1 view .LVU120
 257:Middlewares/ST/STM32_USB_Host_Library/Class/MSC/Src/usbh_msc_bot.c ****       {
 433              		.loc 1 257 9 is_stmt 0 view .LVU121
 434 0062 0528     		cmp	r0, #5
 435 0064 23D0     		beq	.L68
 200:Middlewares/ST/STM32_USB_Host_Library/Class/MSC/Src/usbh_msc_bot.c ****   USBH_StatusTypeDef   error  = USBH_BUSY;
 436              		.loc 1 200 24 view .LVU122
 437 0066 0124     		movs	r4, #1
 438 0068 F0E7     		b	.L25
 439              	.L66:
 223:Middlewares/ST/STM32_USB_Host_Library/Class/MSC/Src/usbh_msc_bot.c ****       {
 440              		.loc 1 223 7 is_stmt 1 view .LVU123
 223:Middlewares/ST/STM32_USB_Host_Library/Class/MSC/Src/usbh_msc_bot.c ****       {
 441              		.loc 1 223 38 is_stmt 0 view .LVU124
 442 006a F36D     		ldr	r3, [r6, #92]
 223:Middlewares/ST/STM32_USB_Host_Library/Class/MSC/Src/usbh_msc_bot.c ****       {
 443              		.loc 1 223 10 view .LVU125
 444 006c 5BB1     		cbz	r3, .L39
 226:Middlewares/ST/STM32_USB_Host_Library/Class/MSC/Src/usbh_msc_bot.c ****         {
 445              		.loc 1 226 9 is_stmt 1 view .LVU126
 226:Middlewares/ST/STM32_USB_Host_Library/Class/MSC/Src/usbh_msc_bot.c ****         {
 446              		.loc 1 226 69 is_stmt 0 view .LVU127
 447 006e 96F96030 		ldrsb	r3, [r6, #96]
 226:Middlewares/ST/STM32_USB_Host_Library/Class/MSC/Src/usbh_msc_bot.c ****         {
 448              		.loc 1 226 12 view .LVU128
 449 0072 002B     		cmp	r3, #0
 450 0074 03DB     		blt	.L69
 234:Middlewares/ST/STM32_USB_Host_Library/Class/MSC/Src/usbh_msc_bot.c ****         }
 451              		.loc 1 234 11 is_stmt 1 view .LVU129
 234:Middlewares/ST/STM32_USB_Host_Library/Class/MSC/Src/usbh_msc_bot.c ****         }
 452              		.loc 1 234 34 is_stmt 0 view .LVU130
 453 0076 0523     		movs	r3, #5
ARM GAS  C:\Users\Nina\AppData\Local\Temp\ccRhRQJJ.s 			page 22


 454 0078 86F85030 		strb	r3, [r6, #80]
 455 007c 06E0     		b	.L41
 456              	.L69:
 229:Middlewares/ST/STM32_USB_Host_Library/Class/MSC/Src/usbh_msc_bot.c ****         }
 457              		.loc 1 229 11 is_stmt 1 view .LVU131
 229:Middlewares/ST/STM32_USB_Host_Library/Class/MSC/Src/usbh_msc_bot.c ****         }
 458              		.loc 1 229 34 is_stmt 0 view .LVU132
 459 007e 0323     		movs	r3, #3
 460 0080 86F85030 		strb	r3, [r6, #80]
 461 0084 02E0     		b	.L41
 462              	.L39:
 240:Middlewares/ST/STM32_USB_Host_Library/Class/MSC/Src/usbh_msc_bot.c ****       }
 463              		.loc 1 240 9 is_stmt 1 view .LVU133
 240:Middlewares/ST/STM32_USB_Host_Library/Class/MSC/Src/usbh_msc_bot.c ****       }
 464              		.loc 1 240 32 is_stmt 0 view .LVU134
 465 0086 0723     		movs	r3, #7
 466 0088 86F85030 		strb	r3, [r6, #80]
 467              	.L41:
 243:Middlewares/ST/STM32_USB_Host_Library/Class/MSC/Src/usbh_msc_bot.c **** #endif
 468              		.loc 1 243 5 is_stmt 1 view .LVU135
 469 008c 0022     		movs	r2, #0
 470 008e 0221     		movs	r1, #2
 471 0090 D5F8CC03 		ldr	r0, [r5, #972]
 472              	.LVL31:
 243:Middlewares/ST/STM32_USB_Host_Library/Class/MSC/Src/usbh_msc_bot.c **** #endif
 473              		.loc 1 243 5 is_stmt 0 view .LVU136
 474 0094 FFF7FEFF 		bl	osMessagePut
 475              	.LVL32:
 476 0098 D8E7     		b	.L25
 477              	.LVL33:
 478              	.L67:
 250:Middlewares/ST/STM32_USB_Host_Library/Class/MSC/Src/usbh_msc_bot.c **** #if (USBH_USE_OS == 1U)
 479              		.loc 1 250 7 is_stmt 1 view .LVU137
 250:Middlewares/ST/STM32_USB_Host_Library/Class/MSC/Src/usbh_msc_bot.c **** #if (USBH_USE_OS == 1U)
 480              		.loc 1 250 30 is_stmt 0 view .LVU138
 481 009a 0124     		movs	r4, #1
 482 009c 86F85040 		strb	r4, [r6, #80]
 252:Middlewares/ST/STM32_USB_Host_Library/Class/MSC/Src/usbh_msc_bot.c **** #endif
 483              		.loc 1 252 5 is_stmt 1 view .LVU139
 484 00a0 0022     		movs	r2, #0
 485 00a2 0221     		movs	r1, #2
 486 00a4 D5F8CC03 		ldr	r0, [r5, #972]
 487              	.LVL34:
 252:Middlewares/ST/STM32_USB_Host_Library/Class/MSC/Src/usbh_msc_bot.c **** #endif
 488              		.loc 1 252 5 is_stmt 0 view .LVU140
 489 00a8 FFF7FEFF 		bl	osMessagePut
 490              	.LVL35:
 491 00ac CEE7     		b	.L25
 492              	.LVL36:
 493              	.L68:
 259:Middlewares/ST/STM32_USB_Host_Library/Class/MSC/Src/usbh_msc_bot.c **** #if (USBH_USE_OS == 1U)
 494              		.loc 1 259 9 is_stmt 1 view .LVU141
 259:Middlewares/ST/STM32_USB_Host_Library/Class/MSC/Src/usbh_msc_bot.c **** #if (USBH_USE_OS == 1U)
 495              		.loc 1 259 33 is_stmt 0 view .LVU142
 496 00ae 0A23     		movs	r3, #10
 497 00b0 86F85030 		strb	r3, [r6, #80]
 261:Middlewares/ST/STM32_USB_Host_Library/Class/MSC/Src/usbh_msc_bot.c **** #endif
ARM GAS  C:\Users\Nina\AppData\Local\Temp\ccRhRQJJ.s 			page 23


 498              		.loc 1 261 9 is_stmt 1 view .LVU143
 499 00b4 0022     		movs	r2, #0
 500 00b6 0221     		movs	r1, #2
 501 00b8 D5F8CC03 		ldr	r0, [r5, #972]
 502              	.LVL37:
 261:Middlewares/ST/STM32_USB_Host_Library/Class/MSC/Src/usbh_msc_bot.c **** #endif
 503              		.loc 1 261 9 is_stmt 0 view .LVU144
 504 00bc FFF7FEFF 		bl	osMessagePut
 505              	.LVL38:
 200:Middlewares/ST/STM32_USB_Host_Library/Class/MSC/Src/usbh_msc_bot.c ****   USBH_StatusTypeDef   error  = USBH_BUSY;
 506              		.loc 1 200 24 view .LVU145
 507 00c0 0124     		movs	r4, #1
 508 00c2 C3E7     		b	.L25
 509              	.LVL39:
 510              	.L35:
 269:Middlewares/ST/STM32_USB_Host_Library/Class/MSC/Src/usbh_msc_bot.c ****                           MSC_Handle->InEpSize, MSC_Handle->InPipe);
 511              		.loc 1 269 5 is_stmt 1 view .LVU146
 512 00c4 3379     		ldrb	r3, [r6, #4]	@ zero_extendqisi2
 513 00c6 7289     		ldrh	r2, [r6, #10]
 514 00c8 D6F88C10 		ldr	r1, [r6, #140]
 515              	.LVL40:
 269:Middlewares/ST/STM32_USB_Host_Library/Class/MSC/Src/usbh_msc_bot.c ****                           MSC_Handle->InEpSize, MSC_Handle->InPipe);
 516              		.loc 1 269 5 is_stmt 0 view .LVU147
 517 00cc FFF7FEFF 		bl	USBH_BulkReceiveData
 518              	.LVL41:
 272:Middlewares/ST/STM32_USB_Host_Library/Class/MSC/Src/usbh_msc_bot.c **** 
 519              		.loc 1 272 5 is_stmt 1 view .LVU148
 272:Middlewares/ST/STM32_USB_Host_Library/Class/MSC/Src/usbh_msc_bot.c **** 
 520              		.loc 1 272 28 is_stmt 0 view .LVU149
 521 00d0 0423     		movs	r3, #4
 522 00d2 86F85030 		strb	r3, [r6, #80]
 274:Middlewares/ST/STM32_USB_Host_Library/Class/MSC/Src/usbh_msc_bot.c **** 
 523              		.loc 1 274 5 is_stmt 1 view .LVU150
 200:Middlewares/ST/STM32_USB_Host_Library/Class/MSC/Src/usbh_msc_bot.c ****   USBH_StatusTypeDef   error  = USBH_BUSY;
 524              		.loc 1 200 24 is_stmt 0 view .LVU151
 525 00d6 0124     		movs	r4, #1
 274:Middlewares/ST/STM32_USB_Host_Library/Class/MSC/Src/usbh_msc_bot.c **** 
 526              		.loc 1 274 5 view .LVU152
 527 00d8 B8E7     		b	.L25
 528              	.LVL42:
 529              	.L34:
 278:Middlewares/ST/STM32_USB_Host_Library/Class/MSC/Src/usbh_msc_bot.c **** 
 530              		.loc 1 278 5 is_stmt 1 view .LVU153
 278:Middlewares/ST/STM32_USB_Host_Library/Class/MSC/Src/usbh_msc_bot.c **** 
 531              		.loc 1 278 18 is_stmt 0 view .LVU154
 532 00da 3179     		ldrb	r1, [r6, #4]	@ zero_extendqisi2
 533              	.LVL43:
 278:Middlewares/ST/STM32_USB_Host_Library/Class/MSC/Src/usbh_msc_bot.c **** 
 534              		.loc 1 278 18 view .LVU155
 535 00dc FFF7FEFF 		bl	USBH_LL_GetURBState
 536              	.LVL44:
 278:Middlewares/ST/STM32_USB_Host_Library/Class/MSC/Src/usbh_msc_bot.c **** 
 537              		.loc 1 278 18 view .LVU156
 538 00e0 0446     		mov	r4, r0
 539              	.LVL45:
 280:Middlewares/ST/STM32_USB_Host_Library/Class/MSC/Src/usbh_msc_bot.c ****     {
 540              		.loc 1 280 5 is_stmt 1 view .LVU157
ARM GAS  C:\Users\Nina\AppData\Local\Temp\ccRhRQJJ.s 			page 24


 280:Middlewares/ST/STM32_USB_Host_Library/Class/MSC/Src/usbh_msc_bot.c ****     {
 541              		.loc 1 280 7 is_stmt 0 view .LVU158
 542 00e2 0128     		cmp	r0, #1
 543 00e4 03D0     		beq	.L70
 309:Middlewares/ST/STM32_USB_Host_Library/Class/MSC/Src/usbh_msc_bot.c ****     {
 544              		.loc 1 309 10 is_stmt 1 view .LVU159
 309:Middlewares/ST/STM32_USB_Host_Library/Class/MSC/Src/usbh_msc_bot.c ****     {
 545              		.loc 1 309 12 is_stmt 0 view .LVU160
 546 00e6 0528     		cmp	r0, #5
 547 00e8 22D0     		beq	.L71
 200:Middlewares/ST/STM32_USB_Host_Library/Class/MSC/Src/usbh_msc_bot.c ****   USBH_StatusTypeDef   error  = USBH_BUSY;
 548              		.loc 1 200 24 view .LVU161
 549 00ea 0124     		movs	r4, #1
 550 00ec AEE7     		b	.L25
 551              	.L70:
 283:Middlewares/ST/STM32_USB_Host_Library/Class/MSC/Src/usbh_msc_bot.c ****       {
 552              		.loc 1 283 7 is_stmt 1 view .LVU162
 283:Middlewares/ST/STM32_USB_Host_Library/Class/MSC/Src/usbh_msc_bot.c ****       {
 553              		.loc 1 283 36 is_stmt 0 view .LVU163
 554 00ee F36D     		ldr	r3, [r6, #92]
 283:Middlewares/ST/STM32_USB_Host_Library/Class/MSC/Src/usbh_msc_bot.c ****       {
 555              		.loc 1 283 68 view .LVU164
 556 00f0 7289     		ldrh	r2, [r6, #10]
 283:Middlewares/ST/STM32_USB_Host_Library/Class/MSC/Src/usbh_msc_bot.c ****       {
 557              		.loc 1 283 9 view .LVU165
 558 00f2 9342     		cmp	r3, r2
 559 00f4 0FD9     		bls	.L44
 285:Middlewares/ST/STM32_USB_Host_Library/Class/MSC/Src/usbh_msc_bot.c ****           MSC_Handle->hbot.cbw.field.DataTransferLength -= MSC_Handle->InEpSize;
 560              		.loc 1 285 11 is_stmt 1 view .LVU166
 285:Middlewares/ST/STM32_USB_Host_Library/Class/MSC/Src/usbh_msc_bot.c ****           MSC_Handle->hbot.cbw.field.DataTransferLength -= MSC_Handle->InEpSize;
 561              		.loc 1 285 33 is_stmt 0 view .LVU167
 562 00f6 D6F88C10 		ldr	r1, [r6, #140]
 563 00fa 1144     		add	r1, r1, r2
 564 00fc C6F88C10 		str	r1, [r6, #140]
 286:Middlewares/ST/STM32_USB_Host_Library/Class/MSC/Src/usbh_msc_bot.c ****       }
 565              		.loc 1 286 11 is_stmt 1 view .LVU168
 286:Middlewares/ST/STM32_USB_Host_Library/Class/MSC/Src/usbh_msc_bot.c ****       }
 566              		.loc 1 286 57 is_stmt 0 view .LVU169
 567 0100 9B1A     		subs	r3, r3, r2
 568 0102 F365     		str	r3, [r6, #92]
 569              	.L45:
 294:Middlewares/ST/STM32_USB_Host_Library/Class/MSC/Src/usbh_msc_bot.c ****       {
 570              		.loc 1 294 7 is_stmt 1 view .LVU170
 294:Middlewares/ST/STM32_USB_Host_Library/Class/MSC/Src/usbh_msc_bot.c ****       {
 571              		.loc 1 294 36 is_stmt 0 view .LVU171
 572 0104 F36D     		ldr	r3, [r6, #92]
 294:Middlewares/ST/STM32_USB_Host_Library/Class/MSC/Src/usbh_msc_bot.c ****       {
 573              		.loc 1 294 9 view .LVU172
 574 0106 4BB1     		cbz	r3, .L46
 297:Middlewares/ST/STM32_USB_Host_Library/Class/MSC/Src/usbh_msc_bot.c ****                               MSC_Handle->InEpSize, MSC_Handle->InPipe);
 575              		.loc 1 297 9 is_stmt 1 view .LVU173
 576 0108 3379     		ldrb	r3, [r6, #4]	@ zero_extendqisi2
 577 010a D6F88C10 		ldr	r1, [r6, #140]
 578 010e 2846     		mov	r0, r5
 579              	.LVL46:
 297:Middlewares/ST/STM32_USB_Host_Library/Class/MSC/Src/usbh_msc_bot.c ****                               MSC_Handle->InEpSize, MSC_Handle->InPipe);
 580              		.loc 1 297 9 is_stmt 0 view .LVU174
ARM GAS  C:\Users\Nina\AppData\Local\Temp\ccRhRQJJ.s 			page 25


 581 0110 FFF7FEFF 		bl	USBH_BulkReceiveData
 582              	.LVL47:
 583 0114 9AE7     		b	.L25
 584              	.LVL48:
 585              	.L44:
 290:Middlewares/ST/STM32_USB_Host_Library/Class/MSC/Src/usbh_msc_bot.c ****       }
 586              		.loc 1 290 9 is_stmt 1 view .LVU175
 290:Middlewares/ST/STM32_USB_Host_Library/Class/MSC/Src/usbh_msc_bot.c ****       }
 587              		.loc 1 290 55 is_stmt 0 view .LVU176
 588 0116 0023     		movs	r3, #0
 589 0118 F365     		str	r3, [r6, #92]
 590 011a F3E7     		b	.L45
 591              	.L46:
 303:Middlewares/ST/STM32_USB_Host_Library/Class/MSC/Src/usbh_msc_bot.c **** #if (USBH_USE_OS == 1U)
 592              		.loc 1 303 9 is_stmt 1 view .LVU177
 303:Middlewares/ST/STM32_USB_Host_Library/Class/MSC/Src/usbh_msc_bot.c **** #if (USBH_USE_OS == 1U)
 593              		.loc 1 303 33 is_stmt 0 view .LVU178
 594 011c 0723     		movs	r3, #7
 595 011e 86F85030 		strb	r3, [r6, #80]
 305:Middlewares/ST/STM32_USB_Host_Library/Class/MSC/Src/usbh_msc_bot.c **** #endif
 596              		.loc 1 305 9 is_stmt 1 view .LVU179
 597 0122 0022     		movs	r2, #0
 598 0124 0221     		movs	r1, #2
 599 0126 D5F8CC03 		ldr	r0, [r5, #972]
 600              	.LVL49:
 305:Middlewares/ST/STM32_USB_Host_Library/Class/MSC/Src/usbh_msc_bot.c **** #endif
 601              		.loc 1 305 9 is_stmt 0 view .LVU180
 602 012a FFF7FEFF 		bl	osMessagePut
 603              	.LVL50:
 604 012e 8DE7     		b	.L25
 605              	.LVL51:
 606              	.L71:
 312:Middlewares/ST/STM32_USB_Host_Library/Class/MSC/Src/usbh_msc_bot.c **** 
 607              		.loc 1 312 7 is_stmt 1 view .LVU181
 312:Middlewares/ST/STM32_USB_Host_Library/Class/MSC/Src/usbh_msc_bot.c **** 
 608              		.loc 1 312 31 is_stmt 0 view .LVU182
 609 0130 0923     		movs	r3, #9
 610 0132 86F85030 		strb	r3, [r6, #80]
 322:Middlewares/ST/STM32_USB_Host_Library/Class/MSC/Src/usbh_msc_bot.c **** #endif
 611              		.loc 1 322 5 is_stmt 1 view .LVU183
 612 0136 0022     		movs	r2, #0
 613 0138 0221     		movs	r1, #2
 614 013a D5F8CC03 		ldr	r0, [r5, #972]
 615              	.LVL52:
 322:Middlewares/ST/STM32_USB_Host_Library/Class/MSC/Src/usbh_msc_bot.c **** #endif
 616              		.loc 1 322 5 is_stmt 0 view .LVU184
 617 013e FFF7FEFF 		bl	osMessagePut
 618              	.LVL53:
 200:Middlewares/ST/STM32_USB_Host_Library/Class/MSC/Src/usbh_msc_bot.c ****   USBH_StatusTypeDef   error  = USBH_BUSY;
 619              		.loc 1 200 24 view .LVU185
 620 0142 0124     		movs	r4, #1
 621 0144 82E7     		b	.L25
 622              	.LVL54:
 623              	.L33:
 332:Middlewares/ST/STM32_USB_Host_Library/Class/MSC/Src/usbh_msc_bot.c ****                        MSC_Handle->OutEpSize, MSC_Handle->OutPipe, 1U);
 624              		.loc 1 332 5 is_stmt 1 view .LVU186
 625 0146 7379     		ldrb	r3, [r6, #5]	@ zero_extendqisi2
ARM GAS  C:\Users\Nina\AppData\Local\Temp\ccRhRQJJ.s 			page 26


 626 0148 3289     		ldrh	r2, [r6, #8]
 627 014a D6F88C10 		ldr	r1, [r6, #140]
 628              	.LVL55:
 332:Middlewares/ST/STM32_USB_Host_Library/Class/MSC/Src/usbh_msc_bot.c ****                        MSC_Handle->OutEpSize, MSC_Handle->OutPipe, 1U);
 629              		.loc 1 332 5 is_stmt 0 view .LVU187
 630 014e 0124     		movs	r4, #1
 631 0150 0094     		str	r4, [sp]
 632 0152 FFF7FEFF 		bl	USBH_BulkSendData
 633              	.LVL56:
 335:Middlewares/ST/STM32_USB_Host_Library/Class/MSC/Src/usbh_msc_bot.c ****     break;
 634              		.loc 1 335 5 is_stmt 1 view .LVU188
 335:Middlewares/ST/STM32_USB_Host_Library/Class/MSC/Src/usbh_msc_bot.c ****     break;
 635              		.loc 1 335 29 is_stmt 0 view .LVU189
 636 0156 0623     		movs	r3, #6
 637 0158 86F85030 		strb	r3, [r6, #80]
 336:Middlewares/ST/STM32_USB_Host_Library/Class/MSC/Src/usbh_msc_bot.c **** 
 638              		.loc 1 336 5 is_stmt 1 view .LVU190
 639 015c 76E7     		b	.L25
 640              	.LVL57:
 641              	.L32:
 339:Middlewares/ST/STM32_USB_Host_Library/Class/MSC/Src/usbh_msc_bot.c **** 
 642              		.loc 1 339 5 view .LVU191
 339:Middlewares/ST/STM32_USB_Host_Library/Class/MSC/Src/usbh_msc_bot.c **** 
 643              		.loc 1 339 18 is_stmt 0 view .LVU192
 644 015e 7179     		ldrb	r1, [r6, #5]	@ zero_extendqisi2
 645              	.LVL58:
 339:Middlewares/ST/STM32_USB_Host_Library/Class/MSC/Src/usbh_msc_bot.c **** 
 646              		.loc 1 339 18 view .LVU193
 647 0160 FFF7FEFF 		bl	USBH_LL_GetURBState
 648              	.LVL59:
 339:Middlewares/ST/STM32_USB_Host_Library/Class/MSC/Src/usbh_msc_bot.c **** 
 649              		.loc 1 339 18 view .LVU194
 650 0164 0446     		mov	r4, r0
 651              	.LVL60:
 341:Middlewares/ST/STM32_USB_Host_Library/Class/MSC/Src/usbh_msc_bot.c ****     {
 652              		.loc 1 341 5 is_stmt 1 view .LVU195
 341:Middlewares/ST/STM32_USB_Host_Library/Class/MSC/Src/usbh_msc_bot.c ****     {
 653              		.loc 1 341 7 is_stmt 0 view .LVU196
 654 0166 0128     		cmp	r0, #1
 655 0168 05D0     		beq	.L72
 370:Middlewares/ST/STM32_USB_Host_Library/Class/MSC/Src/usbh_msc_bot.c ****     {
 656              		.loc 1 370 10 is_stmt 1 view .LVU197
 370:Middlewares/ST/STM32_USB_Host_Library/Class/MSC/Src/usbh_msc_bot.c ****     {
 657              		.loc 1 370 12 is_stmt 0 view .LVU198
 658 016a 0228     		cmp	r0, #2
 659 016c 26D0     		beq	.L73
 379:Middlewares/ST/STM32_USB_Host_Library/Class/MSC/Src/usbh_msc_bot.c ****     {
 660              		.loc 1 379 10 is_stmt 1 view .LVU199
 379:Middlewares/ST/STM32_USB_Host_Library/Class/MSC/Src/usbh_msc_bot.c ****     {
 661              		.loc 1 379 12 is_stmt 0 view .LVU200
 662 016e 0528     		cmp	r0, #5
 663 0170 2FD0     		beq	.L74
 200:Middlewares/ST/STM32_USB_Host_Library/Class/MSC/Src/usbh_msc_bot.c ****   USBH_StatusTypeDef   error  = USBH_BUSY;
 664              		.loc 1 200 24 view .LVU201
 665 0172 0124     		movs	r4, #1
 666 0174 6AE7     		b	.L25
 667              	.L72:
ARM GAS  C:\Users\Nina\AppData\Local\Temp\ccRhRQJJ.s 			page 27


 344:Middlewares/ST/STM32_USB_Host_Library/Class/MSC/Src/usbh_msc_bot.c ****       {
 668              		.loc 1 344 7 is_stmt 1 view .LVU202
 344:Middlewares/ST/STM32_USB_Host_Library/Class/MSC/Src/usbh_msc_bot.c ****       {
 669              		.loc 1 344 36 is_stmt 0 view .LVU203
 670 0176 F36D     		ldr	r3, [r6, #92]
 344:Middlewares/ST/STM32_USB_Host_Library/Class/MSC/Src/usbh_msc_bot.c ****       {
 671              		.loc 1 344 68 view .LVU204
 672 0178 3289     		ldrh	r2, [r6, #8]
 344:Middlewares/ST/STM32_USB_Host_Library/Class/MSC/Src/usbh_msc_bot.c ****       {
 673              		.loc 1 344 9 view .LVU205
 674 017a 9342     		cmp	r3, r2
 675 017c 12D9     		bls	.L48
 346:Middlewares/ST/STM32_USB_Host_Library/Class/MSC/Src/usbh_msc_bot.c ****           MSC_Handle->hbot.cbw.field.DataTransferLength -= MSC_Handle->OutEpSize;
 676              		.loc 1 346 11 is_stmt 1 view .LVU206
 346:Middlewares/ST/STM32_USB_Host_Library/Class/MSC/Src/usbh_msc_bot.c ****           MSC_Handle->hbot.cbw.field.DataTransferLength -= MSC_Handle->OutEpSize;
 677              		.loc 1 346 33 is_stmt 0 view .LVU207
 678 017e D6F88C10 		ldr	r1, [r6, #140]
 679 0182 1144     		add	r1, r1, r2
 680 0184 C6F88C10 		str	r1, [r6, #140]
 347:Middlewares/ST/STM32_USB_Host_Library/Class/MSC/Src/usbh_msc_bot.c ****       }
 681              		.loc 1 347 11 is_stmt 1 view .LVU208
 347:Middlewares/ST/STM32_USB_Host_Library/Class/MSC/Src/usbh_msc_bot.c ****       }
 682              		.loc 1 347 57 is_stmt 0 view .LVU209
 683 0188 9B1A     		subs	r3, r3, r2
 684 018a F365     		str	r3, [r6, #92]
 685              	.L49:
 355:Middlewares/ST/STM32_USB_Host_Library/Class/MSC/Src/usbh_msc_bot.c ****       {
 686              		.loc 1 355 7 is_stmt 1 view .LVU210
 355:Middlewares/ST/STM32_USB_Host_Library/Class/MSC/Src/usbh_msc_bot.c ****       {
 687              		.loc 1 355 36 is_stmt 0 view .LVU211
 688 018c F36D     		ldr	r3, [r6, #92]
 355:Middlewares/ST/STM32_USB_Host_Library/Class/MSC/Src/usbh_msc_bot.c ****       {
 689              		.loc 1 355 9 view .LVU212
 690 018e 63B9     		cbnz	r3, .L75
 363:Middlewares/ST/STM32_USB_Host_Library/Class/MSC/Src/usbh_msc_bot.c ****       }
 691              		.loc 1 363 9 is_stmt 1 view .LVU213
 363:Middlewares/ST/STM32_USB_Host_Library/Class/MSC/Src/usbh_msc_bot.c ****       }
 692              		.loc 1 363 33 is_stmt 0 view .LVU214
 693 0190 0723     		movs	r3, #7
 694 0192 86F85030 		strb	r3, [r6, #80]
 695              	.LVL61:
 696              	.L51:
 366:Middlewares/ST/STM32_USB_Host_Library/Class/MSC/Src/usbh_msc_bot.c **** #endif
 697              		.loc 1 366 5 is_stmt 1 view .LVU215
 698 0196 0022     		movs	r2, #0
 699 0198 0221     		movs	r1, #2
 700 019a D5F8CC03 		ldr	r0, [r5, #972]
 701 019e FFF7FEFF 		bl	osMessagePut
 702              	.LVL62:
 703 01a2 53E7     		b	.L25
 704              	.LVL63:
 705              	.L48:
 351:Middlewares/ST/STM32_USB_Host_Library/Class/MSC/Src/usbh_msc_bot.c ****       }
 706              		.loc 1 351 9 view .LVU216
 351:Middlewares/ST/STM32_USB_Host_Library/Class/MSC/Src/usbh_msc_bot.c ****       }
 707              		.loc 1 351 55 is_stmt 0 view .LVU217
 708 01a4 0023     		movs	r3, #0
ARM GAS  C:\Users\Nina\AppData\Local\Temp\ccRhRQJJ.s 			page 28


 709 01a6 F365     		str	r3, [r6, #92]
 710 01a8 F0E7     		b	.L49
 711              	.L75:
 357:Middlewares/ST/STM32_USB_Host_Library/Class/MSC/Src/usbh_msc_bot.c ****                            MSC_Handle->OutEpSize, MSC_Handle->OutPipe, 1U);
 712              		.loc 1 357 9 is_stmt 1 view .LVU218
 713 01aa 7379     		ldrb	r3, [r6, #5]	@ zero_extendqisi2
 714 01ac D6F88C10 		ldr	r1, [r6, #140]
 715 01b0 0120     		movs	r0, #1
 716              	.LVL64:
 357:Middlewares/ST/STM32_USB_Host_Library/Class/MSC/Src/usbh_msc_bot.c ****                            MSC_Handle->OutEpSize, MSC_Handle->OutPipe, 1U);
 717              		.loc 1 357 9 is_stmt 0 view .LVU219
 718 01b2 0090     		str	r0, [sp]
 719 01b4 2846     		mov	r0, r5
 720 01b6 FFF7FEFF 		bl	USBH_BulkSendData
 721              	.LVL65:
 722 01ba ECE7     		b	.L51
 723              	.LVL66:
 724              	.L73:
 373:Middlewares/ST/STM32_USB_Host_Library/Class/MSC/Src/usbh_msc_bot.c **** #if (USBH_USE_OS == 1U)
 725              		.loc 1 373 7 is_stmt 1 view .LVU220
 373:Middlewares/ST/STM32_USB_Host_Library/Class/MSC/Src/usbh_msc_bot.c **** #if (USBH_USE_OS == 1U)
 726              		.loc 1 373 31 is_stmt 0 view .LVU221
 727 01bc 0523     		movs	r3, #5
 728 01be 86F85030 		strb	r3, [r6, #80]
 375:Middlewares/ST/STM32_USB_Host_Library/Class/MSC/Src/usbh_msc_bot.c **** #endif
 729              		.loc 1 375 5 is_stmt 1 view .LVU222
 730 01c2 0022     		movs	r2, #0
 731 01c4 0221     		movs	r1, #2
 732 01c6 D5F8CC03 		ldr	r0, [r5, #972]
 733              	.LVL67:
 375:Middlewares/ST/STM32_USB_Host_Library/Class/MSC/Src/usbh_msc_bot.c **** #endif
 734              		.loc 1 375 5 is_stmt 0 view .LVU223
 735 01ca FFF7FEFF 		bl	osMessagePut
 736              	.LVL68:
 200:Middlewares/ST/STM32_USB_Host_Library/Class/MSC/Src/usbh_msc_bot.c ****   USBH_StatusTypeDef   error  = USBH_BUSY;
 737              		.loc 1 200 24 view .LVU224
 738 01ce 0124     		movs	r4, #1
 739 01d0 3CE7     		b	.L25
 740              	.LVL69:
 741              	.L74:
 381:Middlewares/ST/STM32_USB_Host_Library/Class/MSC/Src/usbh_msc_bot.c **** 
 742              		.loc 1 381 7 is_stmt 1 view .LVU225
 381:Middlewares/ST/STM32_USB_Host_Library/Class/MSC/Src/usbh_msc_bot.c **** 
 743              		.loc 1 381 31 is_stmt 0 view .LVU226
 744 01d2 0A23     		movs	r3, #10
 745 01d4 86F85030 		strb	r3, [r6, #80]
 390:Middlewares/ST/STM32_USB_Host_Library/Class/MSC/Src/usbh_msc_bot.c **** #endif
 746              		.loc 1 390 7 is_stmt 1 view .LVU227
 747 01d8 0022     		movs	r2, #0
 748 01da 0221     		movs	r1, #2
 749 01dc D5F8CC03 		ldr	r0, [r5, #972]
 750              	.LVL70:
 390:Middlewares/ST/STM32_USB_Host_Library/Class/MSC/Src/usbh_msc_bot.c **** #endif
 751              		.loc 1 390 7 is_stmt 0 view .LVU228
 752 01e0 FFF7FEFF 		bl	osMessagePut
 753              	.LVL71:
 200:Middlewares/ST/STM32_USB_Host_Library/Class/MSC/Src/usbh_msc_bot.c ****   USBH_StatusTypeDef   error  = USBH_BUSY;
ARM GAS  C:\Users\Nina\AppData\Local\Temp\ccRhRQJJ.s 			page 29


 754              		.loc 1 200 24 view .LVU229
 755 01e4 0124     		movs	r4, #1
 756 01e6 31E7     		b	.L25
 757              	.LVL72:
 758              	.L31:
 400:Middlewares/ST/STM32_USB_Host_Library/Class/MSC/Src/usbh_msc_bot.c ****                           BOT_CSW_LENGTH, MSC_Handle->InPipe);
 759              		.loc 1 400 5 is_stmt 1 view .LVU230
 760 01e8 3379     		ldrb	r3, [r6, #4]	@ zero_extendqisi2
 761 01ea 0D22     		movs	r2, #13
 762 01ec 06F17801 		add	r1, r6, #120
 763              	.LVL73:
 400:Middlewares/ST/STM32_USB_Host_Library/Class/MSC/Src/usbh_msc_bot.c ****                           BOT_CSW_LENGTH, MSC_Handle->InPipe);
 764              		.loc 1 400 5 is_stmt 0 view .LVU231
 765 01f0 FFF7FEFF 		bl	USBH_BulkReceiveData
 766              	.LVL74:
 403:Middlewares/ST/STM32_USB_Host_Library/Class/MSC/Src/usbh_msc_bot.c ****     break;
 767              		.loc 1 403 5 is_stmt 1 view .LVU232
 403:Middlewares/ST/STM32_USB_Host_Library/Class/MSC/Src/usbh_msc_bot.c ****     break;
 768              		.loc 1 403 29 is_stmt 0 view .LVU233
 769 01f4 0823     		movs	r3, #8
 770 01f6 86F85030 		strb	r3, [r6, #80]
 404:Middlewares/ST/STM32_USB_Host_Library/Class/MSC/Src/usbh_msc_bot.c **** 
 771              		.loc 1 404 5 is_stmt 1 view .LVU234
 200:Middlewares/ST/STM32_USB_Host_Library/Class/MSC/Src/usbh_msc_bot.c ****   USBH_StatusTypeDef   error  = USBH_BUSY;
 772              		.loc 1 200 24 is_stmt 0 view .LVU235
 773 01fa 0124     		movs	r4, #1
 404:Middlewares/ST/STM32_USB_Host_Library/Class/MSC/Src/usbh_msc_bot.c **** 
 774              		.loc 1 404 5 view .LVU236
 775 01fc 26E7     		b	.L25
 776              	.LVL75:
 777              	.L30:
 408:Middlewares/ST/STM32_USB_Host_Library/Class/MSC/Src/usbh_msc_bot.c **** 
 778              		.loc 1 408 5 is_stmt 1 view .LVU237
 408:Middlewares/ST/STM32_USB_Host_Library/Class/MSC/Src/usbh_msc_bot.c **** 
 779              		.loc 1 408 18 is_stmt 0 view .LVU238
 780 01fe 3179     		ldrb	r1, [r6, #4]	@ zero_extendqisi2
 781              	.LVL76:
 408:Middlewares/ST/STM32_USB_Host_Library/Class/MSC/Src/usbh_msc_bot.c **** 
 782              		.loc 1 408 18 view .LVU239
 783 0200 FFF7FEFF 		bl	USBH_LL_GetURBState
 784              	.LVL77:
 411:Middlewares/ST/STM32_USB_Host_Library/Class/MSC/Src/usbh_msc_bot.c ****     {
 785              		.loc 1 411 5 is_stmt 1 view .LVU240
 411:Middlewares/ST/STM32_USB_Host_Library/Class/MSC/Src/usbh_msc_bot.c ****     {
 786              		.loc 1 411 7 is_stmt 0 view .LVU241
 787 0204 0128     		cmp	r0, #1
 788 0206 03D0     		beq	.L76
 429:Middlewares/ST/STM32_USB_Host_Library/Class/MSC/Src/usbh_msc_bot.c ****     {
 789              		.loc 1 429 10 is_stmt 1 view .LVU242
 429:Middlewares/ST/STM32_USB_Host_Library/Class/MSC/Src/usbh_msc_bot.c ****     {
 790              		.loc 1 429 12 is_stmt 0 view .LVU243
 791 0208 0528     		cmp	r0, #5
 792 020a 13D0     		beq	.L77
 200:Middlewares/ST/STM32_USB_Host_Library/Class/MSC/Src/usbh_msc_bot.c ****   USBH_StatusTypeDef   error  = USBH_BUSY;
 793              		.loc 1 200 24 view .LVU244
 794 020c 0124     		movs	r4, #1
 795 020e 1DE7     		b	.L25
ARM GAS  C:\Users\Nina\AppData\Local\Temp\ccRhRQJJ.s 			page 30


 796              	.L76:
 413:Middlewares/ST/STM32_USB_Host_Library/Class/MSC/Src/usbh_msc_bot.c ****       MSC_Handle->hbot.cmd_state = BOT_CMD_SEND;
 797              		.loc 1 413 7 is_stmt 1 view .LVU245
 413:Middlewares/ST/STM32_USB_Host_Library/Class/MSC/Src/usbh_msc_bot.c ****       MSC_Handle->hbot.cmd_state = BOT_CMD_SEND;
 798              		.loc 1 413 30 is_stmt 0 view .LVU246
 799 0210 0123     		movs	r3, #1
 800 0212 86F85030 		strb	r3, [r6, #80]
 414:Middlewares/ST/STM32_USB_Host_Library/Class/MSC/Src/usbh_msc_bot.c ****       CSW_Status = USBH_MSC_DecodeCSW(phost);
 801              		.loc 1 414 7 is_stmt 1 view .LVU247
 414:Middlewares/ST/STM32_USB_Host_Library/Class/MSC/Src/usbh_msc_bot.c ****       CSW_Status = USBH_MSC_DecodeCSW(phost);
 802              		.loc 1 414 34 is_stmt 0 view .LVU248
 803 0216 86F85230 		strb	r3, [r6, #82]
 415:Middlewares/ST/STM32_USB_Host_Library/Class/MSC/Src/usbh_msc_bot.c **** 
 804              		.loc 1 415 7 is_stmt 1 view .LVU249
 415:Middlewares/ST/STM32_USB_Host_Library/Class/MSC/Src/usbh_msc_bot.c **** 
 805              		.loc 1 415 20 is_stmt 0 view .LVU250
 806 021a 2846     		mov	r0, r5
 807              	.LVL78:
 415:Middlewares/ST/STM32_USB_Host_Library/Class/MSC/Src/usbh_msc_bot.c **** 
 808              		.loc 1 415 20 view .LVU251
 809 021c FFF7FEFF 		bl	USBH_MSC_DecodeCSW
 810              	.LVL79:
 417:Middlewares/ST/STM32_USB_Host_Library/Class/MSC/Src/usbh_msc_bot.c ****       {
 811              		.loc 1 417 7 is_stmt 1 view .LVU252
 417:Middlewares/ST/STM32_USB_Host_Library/Class/MSC/Src/usbh_msc_bot.c ****       {
 812              		.loc 1 417 9 is_stmt 0 view .LVU253
 813 0220 0446     		mov	r4, r0
 814 0222 00B1     		cbz	r0, .L54
 423:Middlewares/ST/STM32_USB_Host_Library/Class/MSC/Src/usbh_msc_bot.c ****       }
 815              		.loc 1 423 16 view .LVU254
 816 0224 0224     		movs	r4, #2
 817              	.L54:
 818              	.LVL80:
 426:Middlewares/ST/STM32_USB_Host_Library/Class/MSC/Src/usbh_msc_bot.c **** #endif
 819              		.loc 1 426 7 is_stmt 1 view .LVU255
 820 0226 0022     		movs	r2, #0
 821 0228 0221     		movs	r1, #2
 822 022a D5F8CC03 		ldr	r0, [r5, #972]
 823              	.LVL81:
 426:Middlewares/ST/STM32_USB_Host_Library/Class/MSC/Src/usbh_msc_bot.c **** #endif
 824              		.loc 1 426 7 is_stmt 0 view .LVU256
 825 022e FFF7FEFF 		bl	osMessagePut
 826              	.LVL82:
 827 0232 0BE7     		b	.L25
 828              	.LVL83:
 829              	.L77:
 431:Middlewares/ST/STM32_USB_Host_Library/Class/MSC/Src/usbh_msc_bot.c **** #if (USBH_USE_OS == 1U)
 830              		.loc 1 431 7 is_stmt 1 view .LVU257
 431:Middlewares/ST/STM32_USB_Host_Library/Class/MSC/Src/usbh_msc_bot.c **** #if (USBH_USE_OS == 1U)
 831              		.loc 1 431 31 is_stmt 0 view .LVU258
 832 0234 0923     		movs	r3, #9
 833 0236 86F85030 		strb	r3, [r6, #80]
 433:Middlewares/ST/STM32_USB_Host_Library/Class/MSC/Src/usbh_msc_bot.c **** #endif
 834              		.loc 1 433 7 is_stmt 1 view .LVU259
 835 023a 0022     		movs	r2, #0
 836 023c 0221     		movs	r1, #2
 837 023e D5F8CC03 		ldr	r0, [r5, #972]
ARM GAS  C:\Users\Nina\AppData\Local\Temp\ccRhRQJJ.s 			page 31


 838              	.LVL84:
 433:Middlewares/ST/STM32_USB_Host_Library/Class/MSC/Src/usbh_msc_bot.c **** #endif
 839              		.loc 1 433 7 is_stmt 0 view .LVU260
 840 0242 FFF7FEFF 		bl	osMessagePut
 841              	.LVL85:
 200:Middlewares/ST/STM32_USB_Host_Library/Class/MSC/Src/usbh_msc_bot.c ****   USBH_StatusTypeDef   error  = USBH_BUSY;
 842              		.loc 1 200 24 view .LVU261
 843 0246 0124     		movs	r4, #1
 844 0248 00E7     		b	.L25
 845              	.LVL86:
 846              	.L29:
 442:Middlewares/ST/STM32_USB_Host_Library/Class/MSC/Src/usbh_msc_bot.c **** 
 847              		.loc 1 442 5 is_stmt 1 view .LVU262
 442:Middlewares/ST/STM32_USB_Host_Library/Class/MSC/Src/usbh_msc_bot.c **** 
 848              		.loc 1 442 13 is_stmt 0 view .LVU263
 849 024a 0022     		movs	r2, #0
 850 024c FFF7FEFF 		bl	USBH_MSC_BOT_Abort
 851              	.LVL87:
 444:Middlewares/ST/STM32_USB_Host_Library/Class/MSC/Src/usbh_msc_bot.c ****     {
 852              		.loc 1 444 5 is_stmt 1 view .LVU264
 444:Middlewares/ST/STM32_USB_Host_Library/Class/MSC/Src/usbh_msc_bot.c ****     {
 853              		.loc 1 444 8 is_stmt 0 view .LVU265
 854 0250 20B9     		cbnz	r0, .L55
 446:Middlewares/ST/STM32_USB_Host_Library/Class/MSC/Src/usbh_msc_bot.c ****     }
 855              		.loc 1 446 7 is_stmt 1 view .LVU266
 446:Middlewares/ST/STM32_USB_Host_Library/Class/MSC/Src/usbh_msc_bot.c ****     }
 856              		.loc 1 446 30 is_stmt 0 view .LVU267
 857 0252 0723     		movs	r3, #7
 858 0254 86F85030 		strb	r3, [r6, #80]
 200:Middlewares/ST/STM32_USB_Host_Library/Class/MSC/Src/usbh_msc_bot.c ****   USBH_StatusTypeDef   error  = USBH_BUSY;
 859              		.loc 1 200 24 view .LVU268
 860 0258 0124     		movs	r4, #1
 861 025a F7E6     		b	.L25
 862              	.L55:
 448:Middlewares/ST/STM32_USB_Host_Library/Class/MSC/Src/usbh_msc_bot.c ****     {
 863              		.loc 1 448 10 is_stmt 1 view .LVU269
 448:Middlewares/ST/STM32_USB_Host_Library/Class/MSC/Src/usbh_msc_bot.c ****     {
 864              		.loc 1 448 13 is_stmt 0 view .LVU270
 865 025c 0428     		cmp	r0, #4
 866 025e 01D0     		beq	.L78
 200:Middlewares/ST/STM32_USB_Host_Library/Class/MSC/Src/usbh_msc_bot.c ****   USBH_StatusTypeDef   error  = USBH_BUSY;
 867              		.loc 1 200 24 view .LVU271
 868 0260 0124     		movs	r4, #1
 869 0262 F3E6     		b	.L25
 870              	.L78:
 451:Middlewares/ST/STM32_USB_Host_Library/Class/MSC/Src/usbh_msc_bot.c ****     }
 871              		.loc 1 451 7 is_stmt 1 view .LVU272
 451:Middlewares/ST/STM32_USB_Host_Library/Class/MSC/Src/usbh_msc_bot.c ****     }
 872              		.loc 1 451 30 is_stmt 0 view .LVU273
 873 0264 0B23     		movs	r3, #11
 874 0266 86F85030 		strb	r3, [r6, #80]
 200:Middlewares/ST/STM32_USB_Host_Library/Class/MSC/Src/usbh_msc_bot.c ****   USBH_StatusTypeDef   error  = USBH_BUSY;
 875              		.loc 1 200 24 view .LVU274
 876 026a 0124     		movs	r4, #1
 877 026c EEE6     		b	.L25
 878              	.LVL88:
 879              	.L28:
ARM GAS  C:\Users\Nina\AppData\Local\Temp\ccRhRQJJ.s 			page 32


 459:Middlewares/ST/STM32_USB_Host_Library/Class/MSC/Src/usbh_msc_bot.c **** 
 880              		.loc 1 459 5 is_stmt 1 view .LVU275
 459:Middlewares/ST/STM32_USB_Host_Library/Class/MSC/Src/usbh_msc_bot.c **** 
 881              		.loc 1 459 13 is_stmt 0 view .LVU276
 882 026e 0122     		movs	r2, #1
 883 0270 FFF7FEFF 		bl	USBH_MSC_BOT_Abort
 884              	.LVL89:
 461:Middlewares/ST/STM32_USB_Host_Library/Class/MSC/Src/usbh_msc_bot.c ****     {
 885              		.loc 1 461 5 is_stmt 1 view .LVU277
 461:Middlewares/ST/STM32_USB_Host_Library/Class/MSC/Src/usbh_msc_bot.c ****     {
 886              		.loc 1 461 8 is_stmt 0 view .LVU278
 887 0274 18B1     		cbz	r0, .L79
 471:Middlewares/ST/STM32_USB_Host_Library/Class/MSC/Src/usbh_msc_bot.c ****       {
 888              		.loc 1 471 7 is_stmt 1 view .LVU279
 471:Middlewares/ST/STM32_USB_Host_Library/Class/MSC/Src/usbh_msc_bot.c ****       {
 889              		.loc 1 471 10 is_stmt 0 view .LVU280
 890 0276 0428     		cmp	r0, #4
 891 0278 16D0     		beq	.L80
 200:Middlewares/ST/STM32_USB_Host_Library/Class/MSC/Src/usbh_msc_bot.c ****   USBH_StatusTypeDef   error  = USBH_BUSY;
 892              		.loc 1 200 24 view .LVU281
 893 027a 0124     		movs	r4, #1
 894 027c E6E6     		b	.L25
 895              	.L79:
 464:Middlewares/ST/STM32_USB_Host_Library/Class/MSC/Src/usbh_msc_bot.c ****       USBH_LL_SetToggle(phost, MSC_Handle->OutPipe, 1U - toggle);
 896              		.loc 1 464 7 is_stmt 1 view .LVU282
 464:Middlewares/ST/STM32_USB_Host_Library/Class/MSC/Src/usbh_msc_bot.c ****       USBH_LL_SetToggle(phost, MSC_Handle->OutPipe, 1U - toggle);
 897              		.loc 1 464 16 is_stmt 0 view .LVU283
 898 027e 7179     		ldrb	r1, [r6, #5]	@ zero_extendqisi2
 899 0280 2846     		mov	r0, r5
 900              	.LVL90:
 464:Middlewares/ST/STM32_USB_Host_Library/Class/MSC/Src/usbh_msc_bot.c ****       USBH_LL_SetToggle(phost, MSC_Handle->OutPipe, 1U - toggle);
 901              		.loc 1 464 16 view .LVU284
 902 0282 FFF7FEFF 		bl	USBH_LL_GetToggle
 903              	.LVL91:
 465:Middlewares/ST/STM32_USB_Host_Library/Class/MSC/Src/usbh_msc_bot.c ****       USBH_LL_SetToggle(phost, MSC_Handle->InPipe, 0U);
 904              		.loc 1 465 7 is_stmt 1 view .LVU285
 905 0286 C0F10102 		rsb	r2, r0, #1
 906 028a D2B2     		uxtb	r2, r2
 907 028c 7179     		ldrb	r1, [r6, #5]	@ zero_extendqisi2
 908 028e 2846     		mov	r0, r5
 909              	.LVL92:
 465:Middlewares/ST/STM32_USB_Host_Library/Class/MSC/Src/usbh_msc_bot.c ****       USBH_LL_SetToggle(phost, MSC_Handle->InPipe, 0U);
 910              		.loc 1 465 7 is_stmt 0 view .LVU286
 911 0290 FFF7FEFF 		bl	USBH_LL_SetToggle
 912              	.LVL93:
 466:Middlewares/ST/STM32_USB_Host_Library/Class/MSC/Src/usbh_msc_bot.c ****       MSC_Handle->hbot.state = BOT_ERROR_IN;
 913              		.loc 1 466 7 is_stmt 1 view .LVU287
 914 0294 0022     		movs	r2, #0
 915 0296 3179     		ldrb	r1, [r6, #4]	@ zero_extendqisi2
 916 0298 2846     		mov	r0, r5
 917 029a FFF7FEFF 		bl	USBH_LL_SetToggle
 918              	.LVL94:
 467:Middlewares/ST/STM32_USB_Host_Library/Class/MSC/Src/usbh_msc_bot.c ****     }
 919              		.loc 1 467 7 view .LVU288
 467:Middlewares/ST/STM32_USB_Host_Library/Class/MSC/Src/usbh_msc_bot.c ****     }
 920              		.loc 1 467 30 is_stmt 0 view .LVU289
 921 029e 0923     		movs	r3, #9
ARM GAS  C:\Users\Nina\AppData\Local\Temp\ccRhRQJJ.s 			page 33


 922 02a0 86F85030 		strb	r3, [r6, #80]
 200:Middlewares/ST/STM32_USB_Host_Library/Class/MSC/Src/usbh_msc_bot.c ****   USBH_StatusTypeDef   error  = USBH_BUSY;
 923              		.loc 1 200 24 view .LVU290
 924 02a4 0124     		movs	r4, #1
 925 02a6 D1E6     		b	.L25
 926              	.LVL95:
 927              	.L80:
 473:Middlewares/ST/STM32_USB_Host_Library/Class/MSC/Src/usbh_msc_bot.c ****       }
 928              		.loc 1 473 9 is_stmt 1 view .LVU291
 473:Middlewares/ST/STM32_USB_Host_Library/Class/MSC/Src/usbh_msc_bot.c ****       }
 929              		.loc 1 473 32 is_stmt 0 view .LVU292
 930 02a8 0B23     		movs	r3, #11
 931 02aa 86F85030 		strb	r3, [r6, #80]
 200:Middlewares/ST/STM32_USB_Host_Library/Class/MSC/Src/usbh_msc_bot.c ****   USBH_StatusTypeDef   error  = USBH_BUSY;
 932              		.loc 1 200 24 view .LVU293
 933 02ae 0124     		movs	r4, #1
 934 02b0 CCE6     		b	.L25
 935              	.LVL96:
 936              	.L26:
 480:Middlewares/ST/STM32_USB_Host_Library/Class/MSC/Src/usbh_msc_bot.c ****     if ( status == USBH_OK)
 937              		.loc 1 480 5 is_stmt 1 view .LVU294
 480:Middlewares/ST/STM32_USB_Host_Library/Class/MSC/Src/usbh_msc_bot.c ****     if ( status == USBH_OK)
 938              		.loc 1 480 14 is_stmt 0 view .LVU295
 939 02b2 FFF7FEFF 		bl	USBH_MSC_BOT_REQ_Reset
 940              	.LVL97:
 481:Middlewares/ST/STM32_USB_Host_Library/Class/MSC/Src/usbh_msc_bot.c ****     {
 941              		.loc 1 481 5 is_stmt 1 view .LVU296
 481:Middlewares/ST/STM32_USB_Host_Library/Class/MSC/Src/usbh_msc_bot.c ****     {
 942              		.loc 1 481 8 is_stmt 0 view .LVU297
 943 02b6 0446     		mov	r4, r0
 944 02b8 0028     		cmp	r0, #0
 945 02ba 7FF4C7AE 		bne	.L25
 483:Middlewares/ST/STM32_USB_Host_Library/Class/MSC/Src/usbh_msc_bot.c ****     }
 946              		.loc 1 483 7 is_stmt 1 view .LVU298
 483:Middlewares/ST/STM32_USB_Host_Library/Class/MSC/Src/usbh_msc_bot.c ****     }
 947              		.loc 1 483 30 is_stmt 0 view .LVU299
 948 02be 0123     		movs	r3, #1
 949 02c0 86F85030 		strb	r3, [r6, #80]
 950 02c4 C2E6     		b	.L25
 951              	.LVL98:
 952              	.L57:
 207:Middlewares/ST/STM32_USB_Host_Library/Class/MSC/Src/usbh_msc_bot.c ****   {
 953              		.loc 1 207 27 view .LVU300
 954 02c6 0124     		movs	r4, #1
 955 02c8 C0E6     		b	.L25
 956              		.cfi_endproc
 957              	.LFE146:
 959              		.text
 960              	.Letext0:
 961              		.file 2 "c:\\program files (x86)\\gnu tools arm embedded\\9 2019-q4-major\\arm-none-eabi\\include\
 962              		.file 3 "c:\\program files (x86)\\gnu tools arm embedded\\9 2019-q4-major\\arm-none-eabi\\include\
 963              		.file 4 "c:\\program files (x86)\\gnu tools arm embedded\\9 2019-q4-major\\arm-none-eabi\\include\
 964              		.file 5 "c:\\program files (x86)\\gnu tools arm embedded\\9 2019-q4-major\\lib\\gcc\\arm-none-eabi
 965              		.file 6 "c:\\program files (x86)\\gnu tools arm embedded\\9 2019-q4-major\\arm-none-eabi\\include\
 966              		.file 7 "c:\\program files (x86)\\gnu tools arm embedded\\9 2019-q4-major\\arm-none-eabi\\include\
 967              		.file 8 "c:\\program files (x86)\\gnu tools arm embedded\\9 2019-q4-major\\arm-none-eabi\\include\
 968              		.file 9 "Drivers/CMSIS/Include/core_cm7.h"
ARM GAS  C:\Users\Nina\AppData\Local\Temp\ccRhRQJJ.s 			page 34


 969              		.file 10 "Drivers/CMSIS/Device/ST/STM32F7xx/Include/system_stm32f7xx.h"
 970              		.file 11 "Middlewares/Third_Party/FreeRTOS/Source/include/task.h"
 971              		.file 12 "Middlewares/Third_Party/FreeRTOS/Source/include/queue.h"
 972              		.file 13 "Middlewares/Third_Party/FreeRTOS/Source/CMSIS_RTOS/cmsis_os.h"
 973              		.file 14 "Middlewares/ST/STM32_USB_Host_Library/Core/Inc/usbh_def.h"
 974              		.file 15 "Middlewares/ST/STM32_USB_Host_Library/Core/Inc/usbh_ctlreq.h"
 975              		.file 16 "Middlewares/ST/STM32_USB_Host_Library/Class/MSC/Inc/usbh_msc_bot.h"
 976              		.file 17 "Middlewares/ST/STM32_USB_Host_Library/Class/MSC/Inc/usbh_msc_scsi.h"
 977              		.file 18 "Middlewares/ST/STM32_USB_Host_Library/Class/MSC/Inc/usbh_msc.h"
 978              		.file 19 "Middlewares/ST/STM32_USB_Host_Library/Core/Inc/usbh_core.h"
 979              		.file 20 "Middlewares/ST/STM32_USB_Host_Library/Core/Inc/usbh_ioreq.h"
ARM GAS  C:\Users\Nina\AppData\Local\Temp\ccRhRQJJ.s 			page 35

